   1              		.syntax unified
   2              		.cpu cortex-m4
   3              		.eabi_attribute 27, 3
   4              		.fpu fpv4-sp-d16
   5              		.eabi_attribute 20, 1
   6              		.eabi_attribute 21, 1
   7              		.eabi_attribute 23, 3
   8              		.eabi_attribute 24, 1
   9              		.eabi_attribute 25, 1
  10              		.eabi_attribute 26, 1
  11              		.eabi_attribute 30, 4
  12              		.eabi_attribute 34, 1
  13              		.eabi_attribute 18, 4
  14              		.thumb
  15              		.file	"mem.c"
  16              		.section	.text.mem_init,"ax",%progbits
  17              		.align	1
  18              		.global	mem_init
  19              		.thumb
  20              		.thumb_func
  22              	mem_init:
  23              		@ args = 0, pretend = 0, frame = 0
  24              		@ frame_needed = 0, uses_anonymous_args = 0
  25 0000 0C4B     		ldr	r3, .L2
  26 0002 0D4A     		ldr	r2, .L2+4
  27 0004 23F00303 		bic	r3, r3, #3
  28 0008 4FF48040 		mov	r0, #16384
  29 000c 0021     		movs	r1, #0
  30 000e 10B5     		push	{r4, lr}
  31 0010 5980     		strh	r1, [r3, #2]	@ movhi
  32 0012 1971     		strb	r1, [r3, #4]
  33 0014 1918     		adds	r1, r3, r0
  34 0016 0124     		movs	r4, #1
  35 0018 1880     		strh	r0, [r3, #0]	@ movhi
  36 001a C2F82C3D 		str	r3, [r2, #3372]
  37 001e C2F8301D 		str	r1, [r2, #3376]
  38 0022 0C71     		strb	r4, [r1, #4]
  39 0024 0880     		strh	r0, [r1, #0]	@ movhi
  40 0026 4880     		strh	r0, [r1, #2]	@ movhi
  41 0028 82F8344D 		strb	r4, [r2, #3380]
  42 002c C2F8383D 		str	r3, [r2, #3384]
  43 0030 10BD     		pop	{r4, pc}
  44              	.L3:
  45 0032 00BF     		.align	2
  46              	.L2:
  47 0034 03000000 		.word	.LANCHOR0+3
  48 0038 E8320000 		.word	.LANCHOR1
  50              		.section	.text.mem_free,"ax",%progbits
  51              		.align	1
  52              		.global	mem_free
  53              		.thumb
  54              		.thumb_func
  56              	mem_free:
  57              		@ args = 0, pretend = 0, frame = 0
  58              		@ frame_needed = 0, uses_anonymous_args = 0
  59 0000 70B5     		push	{r4, r5, r6, lr}
  60 0002 0028     		cmp	r0, #0
  61 0004 40D0     		beq	.L4
  62 0006 2149     		ldr	r1, .L13
  63 0008 D1F82C3D 		ldr	r3, [r1, #3372]
  64 000c 9842     		cmp	r0, r3
  65 000e 3BD3     		bcc	.L4
  66 0010 D1F8305D 		ldr	r5, [r1, #3376]
  67 0014 A842     		cmp	r0, r5
  68 0016 37D2     		bcs	.L4
  69 0018 0024     		movs	r4, #0
  70 001a 00F8044C 		strb	r4, [r0, #-4]
  71 001e D1F8384D 		ldr	r4, [r1, #3384]
  72 0022 A0F10802 		sub	r2, r0, #8
  73 0026 A242     		cmp	r2, r4
  74 0028 30F8084C 		ldrh	r4, [r0, #-8]
  75 002c 38BF     		it	cc
  76 002e C1F8382D 		strcc	r2, [r1, #3384]
  77 0032 1919     		adds	r1, r3, r4
  78 0034 8A42     		cmp	r2, r1
  79 0036 11D0     		beq	.L9
  80 0038 0E79     		ldrb	r6, [r1, #4]	@ zero_extendqisi2
  81 003a 7EB9     		cbnz	r6, .L9
  82 003c A942     		cmp	r1, r5
  83 003e 0DD0     		beq	.L9
  84 0040 124D     		ldr	r5, .L13
  85 0042 D5F8386D 		ldr	r6, [r5, #3384]
  86 0046 8E42     		cmp	r6, r1
  87 0048 195B     		ldrh	r1, [r3, r4]
  88 004a 08BF     		it	eq
  89 004c C5F8382D 		streq	r2, [r5, #3384]
  90 0050 20F8081C 		strh	r1, [r0, #-8]	@ movhi
  91 0054 1C5B     		ldrh	r4, [r3, r4]
  92 0056 1919     		adds	r1, r3, r4
  93 0058 D41A     		subs	r4, r2, r3
  94 005a 4C80     		strh	r4, [r1, #2]	@ movhi
  95              	.L9:
  96 005c 30F8064C 		ldrh	r4, [r0, #-6]
  97 0060 1919     		adds	r1, r3, r4
  98 0062 9142     		cmp	r1, r2
  99 0064 10D0     		beq	.L4
 100 0066 0D79     		ldrb	r5, [r1, #4]	@ zero_extendqisi2
 101 0068 75B9     		cbnz	r5, .L4
 102 006a 084D     		ldr	r5, .L13
 103 006c D5F8386D 		ldr	r6, [r5, #3384]
 104 0070 9642     		cmp	r6, r2
 105 0072 30F8082C 		ldrh	r2, [r0, #-8]
 106 0076 08BF     		it	eq
 107 0078 C5F8381D 		streq	r1, [r5, #3384]
 108 007c 1A53     		strh	r2, [r3, r4]	@ movhi
 109 007e 30F8080C 		ldrh	r0, [r0, #-8]
 110 0082 1A18     		adds	r2, r3, r0
 111 0084 CB1A     		subs	r3, r1, r3
 112 0086 5380     		strh	r3, [r2, #2]	@ movhi
 113              	.L4:
 114 0088 70BD     		pop	{r4, r5, r6, pc}
 115              	.L14:
 116 008a 00BF     		.align	2
 117              	.L13:
 118 008c E8320000 		.word	.LANCHOR1
 120              		.section	.text.mem_realloc,"ax",%progbits
 121              		.align	1
 122              		.global	mem_realloc
 123              		.thumb
 124              		.thumb_func
 126              	mem_realloc:
 127              		@ args = 0, pretend = 0, frame = 0
 128              		@ frame_needed = 0, uses_anonymous_args = 0
 129 0000 0331     		adds	r1, r1, #3
 130 0002 4FF6FC72 		movw	r2, #65532
 131 0006 0A40     		ands	r2, r2, r1
 132 0008 0B2A     		cmp	r2, #11
 133 000a F0B5     		push	{r4, r5, r6, r7, lr}
 134 000c 03D9     		bls	.L23
 135 000e B2F5804F 		cmp	r2, #16384
 136 0012 01D9     		bls	.L16
 137 0014 44E0     		b	.L25
 138              	.L23:
 139 0016 0C22     		movs	r2, #12
 140              	.L16:
 141 0018 2249     		ldr	r1, .L35
 142 001a D1F82C3D 		ldr	r3, [r1, #3372]
 143 001e 9842     		cmp	r0, r3
 144 0020 3FD3     		bcc	.L17
 145 0022 D1F8304D 		ldr	r4, [r1, #3376]
 146 0026 A042     		cmp	r0, r4
 147 0028 3BD2     		bcs	.L17
 148 002a A0F10804 		sub	r4, r0, #8
 149 002e 30F8086C 		ldrh	r6, [r0, #-8]
 150 0032 E51A     		subs	r5, r4, r3
 151 0034 ACB2     		uxth	r4, r5
 152 0036 A6F10805 		sub	r5, r6, #8
 153 003a 2D1B     		subs	r5, r5, r4
 154 003c ADB2     		uxth	r5, r5
 155 003e AA42     		cmp	r2, r5
 156 0040 2ED8     		bhi	.L25
 157 0042 2ED0     		beq	.L17
 158 0044 9F19     		adds	r7, r3, r6
 159 0046 97F804C0 		ldrb	ip, [r7, #4]	@ zero_extendqisi2
 160 004a BCF1000F 		cmp	ip, #0
 161 004e 0BD1     		bne	.L20
 162 0050 04F10805 		add	r5, r4, #8
 163 0054 5219     		adds	r2, r2, r5
 164 0056 D1F8385D 		ldr	r5, [r1, #3384]
 165 005a 9E5B     		ldrh	r6, [r3, r6]
 166 005c 92B2     		uxth	r2, r2
 167 005e BD42     		cmp	r5, r7
 168 0060 03EB0205 		add	r5, r3, r2
 169 0064 0FD1     		bne	.L22
 170 0066 0CE0     		b	.L34
 171              	.L20:
 172 0068 02F11407 		add	r7, r2, #20
 173 006c AF42     		cmp	r7, r5
 174 006e 18D8     		bhi	.L17
 175 0070 04F10807 		add	r7, r4, #8
 176 0074 D219     		adds	r2, r2, r7
 177 0076 92B2     		uxth	r2, r2
 178 0078 D1F8387D 		ldr	r7, [r1, #3384]
 179 007c 9D18     		adds	r5, r3, r2
 180 007e BD42     		cmp	r5, r7
 181 0080 01D2     		bcs	.L22
 182              	.L34:
 183 0082 C1F8385D 		str	r5, [r1, #3384]
 184              	.L22:
 185 0086 0021     		movs	r1, #0
 186 0088 2971     		strb	r1, [r5, #4]
 187 008a 9E52     		strh	r6, [r3, r2]	@ movhi
 188 008c 6C80     		strh	r4, [r5, #2]	@ movhi
 189 008e 20F8082C 		strh	r2, [r0, #-8]	@ movhi
 190 0092 995A     		ldrh	r1, [r3, r2]
 191 0094 B1F5804F 		cmp	r1, #16384
 192 0098 03D0     		beq	.L17
 193 009a 5B18     		adds	r3, r3, r1
 194 009c 5A80     		strh	r2, [r3, #2]	@ movhi
 195 009e F0BD     		pop	{r4, r5, r6, r7, pc}
 196              	.L25:
 197 00a0 0020     		movs	r0, #0
 198              	.L17:
 199 00a2 F0BD     		pop	{r4, r5, r6, r7, pc}
 200              	.L36:
 201              		.align	2
 202              	.L35:
 203 00a4 E8320000 		.word	.LANCHOR1
 205              		.section	.text.mem_malloc,"ax",%progbits
 206              		.align	1
 207              		.global	mem_malloc
 208              		.thumb
 209              		.thumb_func
 211              	mem_malloc:
 212              		@ args = 0, pretend = 0, frame = 0
 213              		@ frame_needed = 0, uses_anonymous_args = 0
 214 0000 F0B5     		push	{r4, r5, r6, r7, lr}
 215 0002 0028     		cmp	r0, #0
 216 0004 4ED0     		beq	.L38
 217 0006 0330     		adds	r0, r0, #3
 218 0008 4FF6FC73 		movw	r3, #65532
 219 000c 0340     		ands	r3, r3, r0
 220 000e 0B2B     		cmp	r3, #11
 221 0010 03D9     		bls	.L51
 222 0012 B3F5804F 		cmp	r3, #16384
 223 0016 01D9     		bls	.L39
 224 0018 43E0     		b	.L52
 225              	.L51:
 226 001a 0C23     		movs	r3, #12
 227              	.L39:
 228 001c 224A     		ldr	r2, .L57
 229 001e D2F8384D 		ldr	r4, [r2, #3384]
 230 0022 D2F82C1D 		ldr	r1, [r2, #3372]
 231 0026 601A     		subs	r0, r4, r1
 232 0028 82B2     		uxth	r2, r0
 233              	.L40:
 234 002a C3F58040 		rsb	r0, r3, #16384
 235 002e 8242     		cmp	r2, r0
 236 0030 37DA     		bge	.L52
 237              	.L49:
 238 0032 8818     		adds	r0, r1, r2
 239 0034 0779     		ldrb	r7, [r0, #4]	@ zero_extendqisi2
 240 0036 002F     		cmp	r7, #0
 241 0038 31D1     		bne	.L41
 242 003a 8E5A     		ldrh	r6, [r1, r2]
 243 003c A6F10805 		sub	r5, r6, #8
 244 0040 AD1A     		subs	r5, r5, r2
 245 0042 9D42     		cmp	r5, r3
 246 0044 2BD3     		bcc	.L41
 247 0046 03F1140C 		add	ip, r3, #20
 248 004a 6545     		cmp	r5, ip
 249 004c 10D3     		bcc	.L42
 250 004e 0833     		adds	r3, r3, #8
 251 0050 D318     		adds	r3, r2, r3
 252 0052 9BB2     		uxth	r3, r3
 253 0054 CD18     		adds	r5, r1, r3
 254 0056 CE52     		strh	r6, [r1, r3]	@ movhi
 255 0058 6A80     		strh	r2, [r5, #2]	@ movhi
 256 005a 0380     		strh	r3, [r0, #0]	@ movhi
 257 005c 0122     		movs	r2, #1
 258 005e 2F71     		strb	r7, [r5, #4]
 259 0060 0271     		strb	r2, [r0, #4]
 260 0062 CA5A     		ldrh	r2, [r1, r3]
 261 0064 B2F5804F 		cmp	r2, #16384
 262 0068 04D0     		beq	.L43
 263 006a 8918     		adds	r1, r1, r2
 264 006c 4B80     		strh	r3, [r1, #2]	@ movhi
 265 006e 01E0     		b	.L43
 266              	.L42:
 267 0070 0121     		movs	r1, #1
 268 0072 0171     		strb	r1, [r0, #4]
 269              	.L43:
 270 0074 A042     		cmp	r0, r4
 271 0076 01D0     		beq	.L44
 272              	.L47:
 273 0078 0830     		adds	r0, r0, #8
 274 007a F0BD     		pop	{r4, r5, r6, r7, pc}
 275              	.L44:
 276 007c 0A4A     		ldr	r2, .L57
 277 007e D2F8301D 		ldr	r1, [r2, #3376]
 278 0082 D2F82C4D 		ldr	r4, [r2, #3372]
 279 0086 D2F8383D 		ldr	r3, [r2, #3384]
 280              	.L45:
 281 008a 1D79     		ldrb	r5, [r3, #4]	@ zero_extendqisi2
 282 008c 25B1     		cbz	r5, .L56
 283              	.L46:
 284 008e 8B42     		cmp	r3, r1
 285 0090 02D0     		beq	.L56
 286              	.L48:
 287 0092 1D88     		ldrh	r5, [r3, #0]
 288 0094 6319     		adds	r3, r4, r5
 289 0096 F8E7     		b	.L45
 290              	.L56:
 291 0098 C2F8383D 		str	r3, [r2, #3384]
 292 009c ECE7     		b	.L47
 293              	.L41:
 294 009e 0288     		ldrh	r2, [r0, #0]
 295 00a0 C3E7     		b	.L40
 296              	.L52:
 297 00a2 0020     		movs	r0, #0
 298              	.L38:
 299 00a4 F0BD     		pop	{r4, r5, r6, r7, pc}
 300              	.L58:
 301 00a6 00BF     		.align	2
 302              	.L57:
 303 00a8 E8320000 		.word	.LANCHOR1
 305              		.section	.text.mem_calloc,"ax",%progbits
 306              		.align	1
 307              		.global	mem_calloc
 308              		.thumb
 309              		.thumb_func
 311              	mem_calloc:
 312              		@ args = 0, pretend = 0, frame = 0
 313              		@ frame_needed = 0, uses_anonymous_args = 0
 314 0000 38B5     		push	{r3, r4, r5, lr}
 315 0002 00FB01F4 		mul	r4, r0, r1
 316 0006 A0B2     		uxth	r0, r4
 317 0008 FFF7FEFF 		bl	mem_malloc
 318 000c 0546     		mov	r5, r0
 319 000e 18B1     		cbz	r0, .L60
 320 0010 0021     		movs	r1, #0
 321 0012 2246     		mov	r2, r4
 322 0014 FFF7FEFF 		bl	memset
 323              	.L60:
 324 0018 2846     		mov	r0, r5
 325 001a 38BD     		pop	{r3, r4, r5, pc}
 327              		.bss
 328              		.align	2
 329              		.set	.LANCHOR0,. + 0
 330              		.set	.LANCHOR1,. + 13032
 333              	ram_heap:
 334 0000 00000000 		.space	16404
 334      00000000 
 334      00000000 
 334      00000000 
 334      00000000 
 337              	ram:
 338 4014 00000000 		.space	4
 341              	ram_end:
 342 4018 00000000 		.space	4
 345              	mem_sem:
 346 401c 00       		.space	1
 347 401d 000000   		.space	3
 350              	lfree:
 351 4020 00000000 		.space	4
 352              		.ident	"GCC: (GNU Tools for ARM Embedded Processors) 4.7.4 20130913 (release) [ARM/embedded-4_7-br