   1              		.syntax unified
   2              		.cpu cortex-m4
   3              		.eabi_attribute 27, 3
   4              		.fpu fpv4-sp-d16
   5              		.eabi_attribute 20, 1
   6              		.eabi_attribute 21, 1
   7              		.eabi_attribute 23, 3
   8              		.eabi_attribute 24, 1
   9              		.eabi_attribute 25, 1
  10              		.eabi_attribute 26, 1
  11              		.eabi_attribute 30, 4
  12              		.eabi_attribute 34, 1
  13              		.eabi_attribute 18, 4
  14              		.thumb
  15              		.file	"netconf.c"
  16              		.section	.text.Ethernetwait_Timer_CallBack,"ax",%progbits
  17              		.align	1
  18              		.global	Ethernetwait_Timer_CallBack
  19              		.thumb
  20              		.thumb_func
  22              	Ethernetwait_Timer_CallBack:
  23              		@ args = 0, pretend = 0, frame = 0
  24              		@ frame_needed = 0, uses_anonymous_args = 0
  25              		@ link register save eliminated.
  26 0000 014B     		ldr	r3, .L2
  27 0002 0022     		movs	r2, #0
  28 0004 1A70     		strb	r2, [r3, #0]
  29 0006 7047     		bx	lr
  30              	.L3:
  31              		.align	2
  32              	.L2:
  33 0008 00000000 		.word	.LANCHOR0
  35              		.section	.text.PeriodicTimerCallback,"ax",%progbits
  36              		.align	1
  37              		.global	PeriodicTimerCallback
  38              		.thumb
  39              		.thumb_func
  41              	PeriodicTimerCallback:
  42              		@ args = 0, pretend = 0, frame = 0
  43              		@ frame_needed = 0, uses_anonymous_args = 0
  44              		@ link register save eliminated.
  45 0000 7047     		bx	lr
  47              		.section	.text.DeletePeriodicTimer,"ax",%progbits
  48              		.align	1
  49              		.global	DeletePeriodicTimer
  50              		.thumb
  51              		.thumb_func
  53              	DeletePeriodicTimer:
  54              		@ args = 0, pretend = 0, frame = 0
  55              		@ frame_needed = 0, uses_anonymous_args = 0
  56              		@ link register save eliminated.
  57 0000 014B     		ldr	r3, .L6
  58 0002 1868     		ldr	r0, [r3, #0]
  59 0004 FFF7FEBF 		b	SYSTM001_DeleteTimer
  60              	.L7:
  61              		.align	2
  62              	.L6:
  63 0008 00000000 		.word	Eth_TimerHandle
  65              		.section	.text.OneShotTimerCallback,"ax",%progbits
  66              		.align	1
  67              		.global	OneShotTimerCallback
  68              		.thumb
  69              		.thumb_func
  71              	OneShotTimerCallback:
  72              		@ args = 0, pretend = 0, frame = 0
  73              		@ frame_needed = 0, uses_anonymous_args = 0
  74 0000 38B5     		push	{r3, r4, r5, lr}
  75 0002 0B4C     		ldr	r4, .L15
  76 0004 0B4A     		ldr	r2, .L15+4
  77 0006 0123     		movs	r3, #1
  78 0008 0021     		movs	r1, #0
  79 000a 2370     		strb	r3, [r4, #0]
  80 000c 0B46     		mov	r3, r1
  81 000e FFF7FEFF 		bl	SYSTM001_CreateTimer
  82 0012 0546     		mov	r5, r0
  83 0014 50B1     		cbz	r0, .L8
  84 0016 FFF7FEFF 		bl	SYSTM001_StartTimer
  85 001a 10B9     		cbnz	r0, .L10
  86              	.L12:
  87 001c 2078     		ldrb	r0, [r4, #0]	@ zero_extendqisi2
  88 001e 0028     		cmp	r0, #0
  89 0020 FCD1     		bne	.L12
  90              	.L10:
  91 0022 2846     		mov	r0, r5
  92 0024 BDE83840 		pop	{r3, r4, r5, lr}
  93 0028 FFF7FEBF 		b	SYSTM001_DeleteTimer
  94              	.L8:
  95 002c 38BD     		pop	{r3, r4, r5, pc}
  96              	.L16:
  97 002e 00BF     		.align	2
  98              	.L15:
  99 0030 00000000 		.word	.LANCHOR0
 100 0034 00000000 		.word	Ethernetwait_Timer_CallBack
 102              		.section	.text.lwIPStack_init,"ax",%progbits
 103              		.align	1
 104              		.global	lwIPStack_init
 105              		.thumb
 106              		.thumb_func
 108              	lwIPStack_init:
 109              		@ args = 0, pretend = 0, frame = 16
 110              		@ frame_needed = 0, uses_anonymous_args = 0
 111 0000 324B     		ldr	r3, .L22
 112 0002 334A     		ldr	r2, .L22+4
 113 0004 1878     		ldrb	r0, [r3, #0]	@ zero_extendqisi2
 114 0006 1168     		ldr	r1, [r2, #0]
 115 0008 324B     		ldr	r3, .L22+8
 116 000a 334A     		ldr	r2, .L22+12
 117 000c 10B5     		push	{r4, lr}
 118 000e 40EA0164 		orr	r4, r0, r1, lsl #24
 119 0012 1878     		ldrb	r0, [r3, #0]	@ zero_extendqisi2
 120 0014 44EA0041 		orr	r1, r4, r0, lsl #16
 121 0018 1468     		ldr	r4, [r2, #0]
 122 001a 2306     		lsls	r3, r4, #24
 123 001c 88B0     		sub	sp, sp, #32
 124 001e 41EA1340 		orr	r0, r1, r3, lsr #16
 125 0022 FFF7FEFF 		bl	htonl
 126 0026 2D4A     		ldr	r2, .L22+16
 127 0028 0590     		str	r0, [sp, #20]
 128 002a 2D48     		ldr	r0, .L22+20
 129 002c 1468     		ldr	r4, [r2, #0]
 130 002e 0178     		ldrb	r1, [r0, #0]	@ zero_extendqisi2
 131 0030 2C48     		ldr	r0, .L22+24
 132 0032 2D4A     		ldr	r2, .L22+28
 133 0034 41EA0463 		orr	r3, r1, r4, lsl #24
 134 0038 0178     		ldrb	r1, [r0, #0]	@ zero_extendqisi2
 135 003a 43EA0144 		orr	r4, r3, r1, lsl #16
 136 003e 1368     		ldr	r3, [r2, #0]
 137 0040 1806     		lsls	r0, r3, #24
 138 0042 44EA1040 		orr	r0, r4, r0, lsr #16
 139 0046 FFF7FEFF 		bl	htonl
 140 004a 2849     		ldr	r1, .L22+32
 141 004c 284A     		ldr	r2, .L22+36
 142 004e 0C78     		ldrb	r4, [r1, #0]	@ zero_extendqisi2
 143 0050 1368     		ldr	r3, [r2, #0]
 144 0052 2849     		ldr	r1, .L22+40
 145 0054 284A     		ldr	r2, .L22+44
 146 0056 0690     		str	r0, [sp, #24]
 147 0058 44EA0360 		orr	r0, r4, r3, lsl #24
 148 005c 0C78     		ldrb	r4, [r1, #0]	@ zero_extendqisi2
 149 005e 40EA0443 		orr	r3, r0, r4, lsl #16
 150 0062 1068     		ldr	r0, [r2, #0]
 151 0064 0106     		lsls	r1, r0, #24
 152 0066 43EA1140 		orr	r0, r3, r1, lsr #16
 153 006a FFF7FEFF 		bl	htonl
 154 006e 0790     		str	r0, [sp, #28]
 155 0070 2248     		ldr	r0, .L22+48
 156 0072 FFF7FEFF 		bl	PHY_RegisterTimerCallback
 157 0076 2148     		ldr	r0, .L22+48
 158 0078 FFF7FEFF 		bl	synopGMAC_RegisterOneShotTimerCallback
 159 007c 2048     		ldr	r0, .L22+52
 160 007e FFF7FEFF 		bl	synopGMAC_RegisterPeriodicTimerCallback
 161 0082 2048     		ldr	r0, .L22+56
 162 0084 FFF7FEFF 		bl	synopGMAC_RegisterDeleteTimerCallback
 163 0088 FFF7FEFF 		bl	lwip_init
 164 008c FFF7FEFF 		bl	httpd_init
 165 0090 1D4B     		ldr	r3, .L22+60
 166 0092 1E4A     		ldr	r2, .L22+64
 167 0094 0193     		str	r3, [sp, #4]
 168 0096 0024     		movs	r4, #0
 169 0098 05A9     		add	r1, sp, #20
 170 009a 07AB     		add	r3, sp, #28
 171 009c 0292     		str	r2, [sp, #8]
 172 009e 0094     		str	r4, [sp, #0]
 173 00a0 06AA     		add	r2, sp, #24
 174 00a2 1B48     		ldr	r0, .L22+68
 175 00a4 FFF7FEFF 		bl	netif_add
 176 00a8 1948     		ldr	r0, .L22+68
 177 00aa FFF7FEFF 		bl	netif_set_default
 178 00ae 1848     		ldr	r0, .L22+68
 179 00b0 FFF7FEFF 		bl	netif_set_up
 180 00b4 FA20     		movs	r0, #250
 181 00b6 0121     		movs	r1, #1
 182 00b8 164A     		ldr	r2, .L22+72
 183 00ba 2346     		mov	r3, r4
 184 00bc FFF7FEFF 		bl	SYSTM001_CreateTimer
 185 00c0 08B1     		cbz	r0, .L18
 186 00c2 FFF7FEFF 		bl	SYSTM001_StartTimer
 187              	.L18:
 188 00c6 0020     		movs	r0, #0
 189 00c8 08B0     		add	sp, sp, #32
 190 00ca 10BD     		pop	{r4, pc}
 191              	.L23:
 192              		.align	2
 193              	.L22:
 194 00cc 00000000 		.word	IPpos4
 195 00d0 00000000 		.word	IPpos1
 196 00d4 00000000 		.word	IPpos2
 197 00d8 00000000 		.word	IPpos3
 198 00dc 00000000 		.word	Netpos1
 199 00e0 00000000 		.word	Netpos4
 200 00e4 00000000 		.word	Netpos2
 201 00e8 00000000 		.word	Netpos3
 202 00ec 00000000 		.word	GWpos4
 203 00f0 00000000 		.word	GWpos1
 204 00f4 00000000 		.word	GWpos2
 205 00f8 00000000 		.word	GWpos3
 206 00fc 00000000 		.word	OneShotTimerCallback
 207 0100 00000000 		.word	PeriodicTimerCallback
 208 0104 00000000 		.word	DeletePeriodicTimer
 209 0108 00000000 		.word	ethernetif_init
 210 010c 00000000 		.word	ethernet_input
 211 0110 00000000 		.word	netif
 212 0114 00000000 		.word	Periodic_Timer_CallBack
 214              		.section	.text.LwIP_Periodic_Timer_CallBack,"ax",%progbits
 215              		.align	1
 216              		.global	LwIP_Periodic_Timer_CallBack
 217              		.thumb
 218              		.thumb_func
 220              	LwIP_Periodic_Timer_CallBack:
 221              		@ args = 0, pretend = 0, frame = 0
 222              		@ frame_needed = 0, uses_anonymous_args = 0
 223 0000 1C4B     		ldr	r3, .L30
 224 0002 1A68     		ldr	r2, [r3, #0]
 225 0004 FA21     		movs	r1, #250
 226 0006 FA32     		adds	r2, r2, #250
 227 0008 B2FBF1F0 		udiv	r0, r2, r1
 228 000c 10B5     		push	{r4, lr}
 229 000e 1A60     		str	r2, [r3, #0]
 230 0010 01FB1022 		mls	r2, r1, r0, r2
 231 0014 1C46     		mov	r4, r3
 232 0016 0AB9     		cbnz	r2, .L25
 233 0018 FFF7FEFF 		bl	tcp_tmr
 234              	.L25:
 235 001c 2068     		ldr	r0, [r4, #0]
 236 001e 41F28833 		movw	r3, #5000
 237 0022 B0FBF3F1 		udiv	r1, r0, r3
 238 0026 03FB1102 		mls	r2, r3, r1, r0
 239 002a 0AB9     		cbnz	r2, .L26
 240 002c FFF7FEFF 		bl	etharp_tmr
 241              	.L26:
 242 0030 104C     		ldr	r4, .L30
 243 0032 2368     		ldr	r3, [r4, #0]
 244 0034 4FF47A71 		mov	r1, #1000
 245 0038 B3FBF1F0 		udiv	r0, r3, r1
 246 003c 01FB1032 		mls	r2, r1, r0, r3
 247 0040 0AB9     		cbnz	r2, .L27
 248 0042 FFF7FEFF 		bl	ip_reass_tmr
 249              	.L27:
 250 0046 2068     		ldr	r0, [r4, #0]
 251 0048 6423     		movs	r3, #100
 252 004a B0FBF3F1 		udiv	r1, r0, r3
 253 004e 03FB1102 		mls	r2, r3, r1, r0
 254 0052 0AB9     		cbnz	r2, .L28
 255 0054 FFF7FEFF 		bl	igmp_tmr
 256              	.L28:
 257 0058 0648     		ldr	r0, .L30
 258 005a 0268     		ldr	r2, [r0, #0]
 259 005c 4FF47A73 		mov	r3, #1000
 260 0060 B2FBF3F1 		udiv	r1, r2, r3
 261 0064 03FB1120 		mls	r0, r3, r1, r2
 262 0068 18B9     		cbnz	r0, .L24
 263 006a BDE81040 		pop	{r4, lr}
 264 006e FFF7FEBF 		b	dns_tmr
 265              	.L24:
 266 0072 10BD     		pop	{r4, pc}
 267              	.L31:
 268              		.align	2
 269              	.L30:
 270 0074 00000000 		.word	lwip250mStimer
 272              		.section	.text.Periodic_Timer_CallBack,"ax",%progbits
 273              		.align	1
 274              		.global	Periodic_Timer_CallBack
 275              		.thumb
 276              		.thumb_func
 278              	Periodic_Timer_CallBack:
 279              		@ args = 0, pretend = 0, frame = 0
 280              		@ frame_needed = 0, uses_anonymous_args = 0
 281              		@ link register save eliminated.
 282 0000 0020     		movs	r0, #0
 283 0002 FFF7FEBF 		b	LwIP_Periodic_Timer_CallBack
 285              		.section	.text.lwIPStack_UnInit,"ax",%progbits
 286              		.align	1
 287              		.global	lwIPStack_UnInit
 288              		.thumb
 289              		.thumb_func
 291              	lwIPStack_UnInit:
 292              		@ args = 0, pretend = 0, frame = 0
 293              		@ frame_needed = 0, uses_anonymous_args = 0
 294 0000 08B5     		push	{r3, lr}
 295 0002 0448     		ldr	r0, .L34
 296 0004 FFF7FEFF 		bl	netif_remove
 297 0008 FFF7FEFF 		bl	Eth_CloseNetworkInterface
 298 000c FFF7FEFF 		bl	Eth_ExitNetworkInterface
 299 0010 0020     		movs	r0, #0
 300 0012 08BD     		pop	{r3, pc}
 301              	.L35:
 302              		.align	2
 303              	.L34:
 304 0014 00000000 		.word	netif
 306              		.global	ARPTimer
 307              		.global	TCPTimer
 308              		.global	StatusCallback
 309              		.global	LinkCallback
 310              		.global	EthernetTimer
 311              		.comm	lwip250mStimer,4,4
 312              		.comm	netif,52,4
 313              		.comm	Eth_TimerHandle,4,4
 314              		.data
 315              		.set	.LANCHOR0,. + 0
 318              	EthernetTimer:
 319 0000 01       		.byte	1
 320              		.bss
 321              		.align	2
 324              	ARPTimer:
 325 0000 00000000 		.space	4
 328              	TCPTimer:
 329 0004 00000000 		.space	4
 332              	StatusCallback:
 333 0008 00000000 		.space	4
 336              	LinkCallback:
 337 000c 00000000 		.space	4
 338              		.ident	"GCC: (GNU Tools for ARM Embedded Processors) 4.7.4 20130913 (release) [ARM/embedded-4_7-br