   1              		.syntax unified
   2              		.cpu cortex-m4
   3              		.eabi_attribute 27, 3
   4              		.fpu fpv4-sp-d16
   5              		.eabi_attribute 20, 1
   6              		.eabi_attribute 21, 1
   7              		.eabi_attribute 23, 3
   8              		.eabi_attribute 24, 1
   9              		.eabi_attribute 25, 1
  10              		.eabi_attribute 26, 1
  11              		.eabi_attribute 30, 4
  12              		.eabi_attribute 34, 1
  13              		.eabi_attribute 18, 4
  14              		.thumb
  15              		.file	"pbuf.c"
  16              		.section	.text.pbuf_header,"ax",%progbits
  17              		.align	1
  18              		.global	pbuf_header
  19              		.thumb
  20              		.thumb_func
  22              	pbuf_header:
  23              		@ args = 0, pretend = 0, frame = 0
  24              		@ frame_needed = 0, uses_anonymous_args = 0
  25 0000 10B5     		push	{r4, lr}
  26 0002 29B3     		cbz	r1, .L19
  27 0004 38B3     		cbz	r0, .L2
  28 0006 0029     		cmp	r1, #0
  29 0008 05DA     		bge	.L3
  30 000a 4A42     		negs	r2, r1
  31 000c 93B2     		uxth	r3, r2
  32 000e 4289     		ldrh	r2, [r0, #10]
  33 0010 9A42     		cmp	r2, r3
  34 0012 01D2     		bcs	.L4
  35 0014 1EE0     		b	.L14
  36              	.L3:
  37 0016 8BB2     		uxth	r3, r1
  38              	.L4:
  39 0018 027B     		ldrb	r2, [r0, #12]	@ zero_extendqisi2
  40 001a 4468     		ldr	r4, [r0, #4]
  41 001c 0AB1     		cbz	r2, .L5
  42 001e 032A     		cmp	r2, #3
  43 0020 05D1     		bne	.L6
  44              	.L5:
  45 0022 641A     		subs	r4, r4, r1
  46 0024 00F11003 		add	r3, r0, #16
  47 0028 9C42     		cmp	r4, r3
  48 002a 09D2     		bcs	.L18
  49 002c 12E0     		b	.L14
  50              	.L6:
  51 002e 013A     		subs	r2, r2, #1
  52 0030 012A     		cmp	r2, #1
  53 0032 0FD8     		bhi	.L14
  54 0034 0029     		cmp	r1, #0
  55 0036 0DDA     		bge	.L14
  56 0038 4289     		ldrh	r2, [r0, #10]
  57 003a 9A42     		cmp	r2, r3
  58 003c 0AD3     		bcc	.L14
  59 003e 641A     		subs	r4, r4, r1
  60              	.L18:
  61 0040 4289     		ldrh	r2, [r0, #10]
  62 0042 4460     		str	r4, [r0, #4]
  63 0044 89B2     		uxth	r1, r1
  64 0046 8B18     		adds	r3, r1, r2
  65 0048 0289     		ldrh	r2, [r0, #8]
  66 004a 4381     		strh	r3, [r0, #10]	@ movhi
  67 004c 8918     		adds	r1, r1, r2
  68 004e 0181     		strh	r1, [r0, #8]	@ movhi
  69              	.L19:
  70 0050 0020     		movs	r0, #0
  71 0052 10BD     		pop	{r4, pc}
  72              	.L14:
  73 0054 0120     		movs	r0, #1
  74              	.L2:
  75 0056 10BD     		pop	{r4, pc}
  77              		.section	.text.pbuf_free,"ax",%progbits
  78              		.align	1
  79              		.global	pbuf_free
  80              		.thumb
  81              		.thumb_func
  83              	pbuf_free:
  84              		@ args = 0, pretend = 0, frame = 0
  85              		@ frame_needed = 0, uses_anonymous_args = 0
  86 0000 38B5     		push	{r3, r4, r5, lr}
  87 0002 70B1     		cbz	r0, .L27
  88 0004 0024     		movs	r4, #0
  89              	.L26:
  90 0006 C389     		ldrh	r3, [r0, #14]
  91 0008 591E     		subs	r1, r3, #1
  92 000a 8AB2     		uxth	r2, r1
  93 000c C281     		strh	r2, [r0, #14]	@ movhi
  94 000e 4AB9     		cbnz	r2, .L22
  95 0010 0568     		ldr	r5, [r0, #0]
  96 0012 0134     		adds	r4, r4, #1
  97 0014 FFF7FEFF 		bl	mem_free
  98 0018 E4B2     		uxtb	r4, r4
  99 001a 2846     		mov	r0, r5
 100 001c 002D     		cmp	r5, #0
 101 001e F2D1     		bne	.L26
 102 0020 00E0     		b	.L22
 103              	.L27:
 104 0022 0446     		mov	r4, r0
 105              	.L22:
 106 0024 2046     		mov	r0, r4
 107 0026 38BD     		pop	{r3, r4, r5, pc}
 109              		.section	.text.pbuf_realloc,"ax",%progbits
 110              		.align	1
 111              		.global	pbuf_realloc
 112              		.thumb
 113              		.thumb_func
 115              	pbuf_realloc:
 116              		@ args = 0, pretend = 0, frame = 0
 117              		@ frame_needed = 0, uses_anonymous_args = 0
 118 0000 38B5     		push	{r3, r4, r5, lr}
 119 0002 0389     		ldrh	r3, [r0, #8]
 120 0004 9942     		cmp	r1, r3
 121 0006 20D2     		bcs	.L29
 122 0008 CA1A     		subs	r2, r1, r3
 123 000a 0D46     		mov	r5, r1
 124 000c 0446     		mov	r4, r0
 125              	.L31:
 126 000e 6089     		ldrh	r0, [r4, #10]
 127 0010 8542     		cmp	r5, r0
 128 0012 06D9     		bls	.L38
 129              	.L32:
 130 0014 2189     		ldrh	r1, [r4, #8]
 131 0016 2D1A     		subs	r5, r5, r0
 132 0018 5318     		adds	r3, r2, r1
 133 001a 2381     		strh	r3, [r4, #8]	@ movhi
 134 001c ADB2     		uxth	r5, r5
 135 001e 2468     		ldr	r4, [r4, #0]
 136 0020 F5E7     		b	.L31
 137              	.L38:
 138 0022 227B     		ldrb	r2, [r4, #12]	@ zero_extendqisi2
 139 0024 4AB9     		cbnz	r2, .L33
 140 0026 8542     		cmp	r5, r0
 141 0028 07D0     		beq	.L33
 142 002a 6168     		ldr	r1, [r4, #4]
 143 002c 0B1B     		subs	r3, r1, r4
 144 002e EA18     		adds	r2, r5, r3
 145 0030 2046     		mov	r0, r4
 146 0032 91B2     		uxth	r1, r2
 147 0034 FFF7FEFF 		bl	mem_realloc
 148 0038 0446     		mov	r4, r0
 149              	.L33:
 150 003a 2068     		ldr	r0, [r4, #0]
 151 003c 6581     		strh	r5, [r4, #10]	@ movhi
 152 003e 2581     		strh	r5, [r4, #8]	@ movhi
 153 0040 08B1     		cbz	r0, .L34
 154 0042 FFF7FEFF 		bl	pbuf_free
 155              	.L34:
 156 0046 0020     		movs	r0, #0
 157 0048 2060     		str	r0, [r4, #0]
 158              	.L29:
 159 004a 38BD     		pop	{r3, r4, r5, pc}
 161              		.section	.text.pbuf_alloc,"ax",%progbits
 162              		.align	1
 163              		.global	pbuf_alloc
 164              		.thumb
 165              		.thumb_func
 167              	pbuf_alloc:
 168              		@ args = 0, pretend = 0, frame = 0
 169              		@ frame_needed = 0, uses_anonymous_args = 0
 170 0000 2DE9F041 		push	{r4, r5, r6, r7, r8, lr}
 171 0004 0D46     		mov	r5, r1
 172 0006 1746     		mov	r7, r2
 173 0008 0328     		cmp	r0, #3
 174 000a 00F28180 		bhi	.L61
 175 000e DFE800F0 		tbb	[pc, r0]
 176              	.L45:
 177 0012 04       		.byte	(.L58-.L45)/2
 178 0013 02       		.byte	(.L42-.L45)/2
 179 0014 07       		.byte	(.L59-.L45)/2
 180 0015 0B       		.byte	(.L60-.L45)/2
 181              		.align	1
 182              	.L42:
 183 0016 0026     		movs	r6, #0
 184 0018 00E0     		b	.L41
 185              	.L58:
 186 001a 1426     		movs	r6, #20
 187              	.L41:
 188 001c 1436     		adds	r6, r6, #20
 189 001e 00E0     		b	.L43
 190              	.L59:
 191 0020 0026     		movs	r6, #0
 192              	.L43:
 193 0022 0E36     		adds	r6, r6, #14
 194 0024 B6B2     		uxth	r6, r6
 195 0026 00E0     		b	.L44
 196              	.L60:
 197 0028 0026     		movs	r6, #0
 198              	.L44:
 199 002a 032F     		cmp	r7, #3
 200 002c 70D8     		bhi	.L61
 201 002e DFE807F0 		tbb	[pc, r7]
 202              	.L49:
 203 0032 46       		.byte	(.L46-.L49)/2
 204 0033 5E       		.byte	(.L47-.L49)/2
 205 0034 5E       		.byte	(.L47-.L49)/2
 206 0035 02       		.byte	(.L48-.L49)/2
 207              		.align	1
 208              	.L48:
 209 0036 384B     		ldr	r3, .L69
 210 0038 5F8A     		ldrh	r7, [r3, #18]
 211 003a 3846     		mov	r0, r7
 212 003c FFF7FEFF 		bl	mem_malloc
 213 0040 0446     		mov	r4, r0
 214 0042 0028     		cmp	r0, #0
 215 0044 64D0     		beq	.L61
 216              	.L50:
 217 0046 0320     		movs	r0, #3
 218 0048 A219     		adds	r2, r4, r6
 219 004a 0336     		adds	r6, r6, #3
 220 004c 0021     		movs	r1, #0
 221 004e 2073     		strb	r0, [r4, #12]
 222 0050 26F00300 		bic	r0, r6, #3
 223 0054 1332     		adds	r2, r2, #19
 224 0056 2160     		str	r1, [r4, #0]
 225 0058 C0F5BB61 		rsb	r1, r0, #1496
 226 005c 22F00303 		bic	r3, r2, #3
 227 0060 0A1D     		adds	r2, r1, #4
 228 0062 AA42     		cmp	r2, r5
 229 0064 A8BF     		it	ge
 230 0066 2A46     		movge	r2, r5
 231 0068 6360     		str	r3, [r4, #4]
 232 006a 0123     		movs	r3, #1
 233 006c 2581     		strh	r5, [r4, #8]	@ movhi
 234 006e 6281     		strh	r2, [r4, #10]	@ movhi
 235 0070 E381     		strh	r3, [r4, #14]	@ movhi
 236 0072 AE1A     		subs	r6, r5, r2
 237 0074 A046     		mov	r8, r4
 238              	.L51:
 239 0076 002E     		cmp	r6, #0
 240 0078 45DD     		ble	.L55
 241              	.L54:
 242 007a 3846     		mov	r0, r7
 243 007c FFF7FEFF 		bl	mem_malloc
 244 0080 0546     		mov	r5, r0
 245 0082 0020     		movs	r0, #0
 246 0084 1DB9     		cbnz	r5, .L52
 247 0086 2046     		mov	r0, r4
 248 0088 FFF7FEFF 		bl	pbuf_free
 249 008c 40E0     		b	.L61
 250              	.L52:
 251 008e B3B2     		uxth	r3, r6
 252 0090 0321     		movs	r1, #3
 253 0092 2860     		str	r0, [r5, #0]
 254 0094 40F2DC52 		movw	r2, #1500
 255 0098 6873     		strb	r0, [r5, #13]
 256 009a 40F2DB50 		movw	r0, #1499
 257 009e 2973     		strb	r1, [r5, #12]
 258 00a0 2B81     		strh	r3, [r5, #8]	@ movhi
 259 00a2 05F11001 		add	r1, r5, #16
 260 00a6 8342     		cmp	r3, r0
 261 00a8 88BF     		it	hi
 262 00aa 1346     		movhi	r3, r2
 263 00ac 0122     		movs	r2, #1
 264 00ae C8F80050 		str	r5, [r8, #0]
 265 00b2 6B81     		strh	r3, [r5, #10]	@ movhi
 266 00b4 6960     		str	r1, [r5, #4]
 267 00b6 EA81     		strh	r2, [r5, #14]	@ movhi
 268 00b8 F61A     		subs	r6, r6, r3
 269 00ba A846     		mov	r8, r5
 270 00bc DBE7     		b	.L51
 271              	.L46:
 272 00be 06F11300 		add	r0, r6, #19
 273 00c2 EA1C     		adds	r2, r5, #3
 274 00c4 20F00301 		bic	r1, r0, #3
 275 00c8 22F00304 		bic	r4, r2, #3
 276 00cc 0B19     		adds	r3, r1, r4
 277 00ce 98B2     		uxth	r0, r3
 278 00d0 FFF7FEFF 		bl	mem_malloc
 279 00d4 0446     		mov	r4, r0
 280 00d6 D8B1     		cbz	r0, .L61
 281 00d8 8619     		adds	r6, r0, r6
 282 00da 1336     		adds	r6, r6, #19
 283 00dc 26F00306 		bic	r6, r6, #3
 284 00e0 4660     		str	r6, [r0, #4]
 285 00e2 0581     		strh	r5, [r0, #8]	@ movhi
 286 00e4 4581     		strh	r5, [r0, #10]	@ movhi
 287 00e6 0020     		movs	r0, #0
 288 00e8 2060     		str	r0, [r4, #0]
 289 00ea 2073     		strb	r0, [r4, #12]
 290 00ec 0BE0     		b	.L55
 291              	.L47:
 292 00ee 0A4C     		ldr	r4, .L69
 293 00f0 208A     		ldrh	r0, [r4, #16]
 294 00f2 FFF7FEFF 		bl	mem_malloc
 295 00f6 0446     		mov	r4, r0
 296 00f8 50B1     		cbz	r0, .L61
 297 00fa 0023     		movs	r3, #0
 298 00fc 4360     		str	r3, [r0, #4]
 299 00fe 0581     		strh	r5, [r0, #8]	@ movhi
 300 0100 4581     		strh	r5, [r0, #10]	@ movhi
 301 0102 0360     		str	r3, [r0, #0]
 302 0104 0773     		strb	r7, [r0, #12]
 303              	.L55:
 304 0106 0121     		movs	r1, #1
 305 0108 0022     		movs	r2, #0
 306 010a E181     		strh	r1, [r4, #14]	@ movhi
 307 010c 6273     		strb	r2, [r4, #13]
 308 010e 00E0     		b	.L40
 309              	.L61:
 310 0110 0024     		movs	r4, #0
 311              	.L40:
 312 0112 2046     		mov	r0, r4
 313 0114 BDE8F081 		pop	{r4, r5, r6, r7, r8, pc}
 314              	.L70:
 315              		.align	2
 316              	.L69:
 317 0118 00000000 		.word	memp_sizes
 319              		.section	.text.pbuf_clen,"ax",%progbits
 320              		.align	1
 321              		.global	pbuf_clen
 322              		.thumb
 323              		.thumb_func
 325              	pbuf_clen:
 326              		@ args = 0, pretend = 0, frame = 0
 327              		@ frame_needed = 0, uses_anonymous_args = 0
 328              		@ link register save eliminated.
 329 0000 0346     		mov	r3, r0
 330 0002 0020     		movs	r0, #0
 331              	.L72:
 332 0004 1BB1     		cbz	r3, .L74
 333              	.L73:
 334 0006 0130     		adds	r0, r0, #1
 335 0008 C0B2     		uxtb	r0, r0
 336 000a 1B68     		ldr	r3, [r3, #0]
 337 000c FAE7     		b	.L72
 338              	.L74:
 339 000e 7047     		bx	lr
 341              		.section	.text.pbuf_ref,"ax",%progbits
 342              		.align	1
 343              		.global	pbuf_ref
 344              		.thumb
 345              		.thumb_func
 347              	pbuf_ref:
 348              		@ args = 0, pretend = 0, frame = 0
 349              		@ frame_needed = 0, uses_anonymous_args = 0
 350              		@ link register save eliminated.
 351 0000 10B1     		cbz	r0, .L75
 352 0002 C389     		ldrh	r3, [r0, #14]
 353 0004 591C     		adds	r1, r3, #1
 354 0006 C181     		strh	r1, [r0, #14]	@ movhi
 355              	.L75:
 356 0008 7047     		bx	lr
 358              		.section	.text.pbuf_cat,"ax",%progbits
 359              		.align	1
 360              		.global	pbuf_cat
 361              		.thumb
 362              		.thumb_func
 364              	pbuf_cat:
 365              		@ args = 0, pretend = 0, frame = 0
 366              		@ frame_needed = 0, uses_anonymous_args = 0
 367 0000 10B5     		push	{r4, lr}
 368 0002 60B1     		cbz	r0, .L80
 369 0004 59B1     		cbz	r1, .L80
 370              	.L82:
 371 0006 0268     		ldr	r2, [r0, #0]
 372 0008 0B89     		ldrh	r3, [r1, #8]
 373 000a 22B1     		cbz	r2, .L90
 374              	.L83:
 375 000c 0489     		ldrh	r4, [r0, #8]
 376 000e 1B19     		adds	r3, r3, r4
 377 0010 0381     		strh	r3, [r0, #8]	@ movhi
 378 0012 1046     		mov	r0, r2
 379 0014 F7E7     		b	.L82
 380              	.L90:
 381 0016 0289     		ldrh	r2, [r0, #8]
 382 0018 0160     		str	r1, [r0, #0]
 383 001a 9B18     		adds	r3, r3, r2
 384 001c 0381     		strh	r3, [r0, #8]	@ movhi
 385              	.L80:
 386 001e 10BD     		pop	{r4, pc}
 388              		.section	.text.pbuf_chain,"ax",%progbits
 389              		.align	1
 390              		.global	pbuf_chain
 391              		.thumb
 392              		.thumb_func
 394              	pbuf_chain:
 395              		@ args = 0, pretend = 0, frame = 0
 396              		@ frame_needed = 0, uses_anonymous_args = 0
 397 0000 10B5     		push	{r4, lr}
 398 0002 0C46     		mov	r4, r1
 399 0004 FFF7FEFF 		bl	pbuf_cat
 400 0008 2046     		mov	r0, r4
 401 000a BDE81040 		pop	{r4, lr}
 402 000e FFF7FEBF 		b	pbuf_ref
 404              		.section	.text.pbuf_dechain,"ax",%progbits
 405              		.align	1
 406              		.global	pbuf_dechain
 407              		.thumb
 408              		.thumb_func
 410              	pbuf_dechain:
 411              		@ args = 0, pretend = 0, frame = 0
 412              		@ frame_needed = 0, uses_anonymous_args = 0
 413 0000 10B5     		push	{r4, lr}
 414 0002 0468     		ldr	r4, [r0, #0]
 415 0004 0CB9     		cbnz	r4, .L93
 416              	.L95:
 417 0006 0024     		movs	r4, #0
 418 0008 0BE0     		b	.L94
 419              	.L93:
 420 000a 0289     		ldrh	r2, [r0, #8]
 421 000c 4389     		ldrh	r3, [r0, #10]
 422 000e D11A     		subs	r1, r2, r3
 423 0010 0022     		movs	r2, #0
 424 0012 2181     		strh	r1, [r4, #8]	@ movhi
 425 0014 0260     		str	r2, [r0, #0]
 426 0016 0381     		strh	r3, [r0, #8]	@ movhi
 427 0018 2046     		mov	r0, r4
 428 001a FFF7FEFF 		bl	pbuf_free
 429 001e 0028     		cmp	r0, #0
 430 0020 F1D1     		bne	.L95
 431              	.L94:
 432 0022 2046     		mov	r0, r4
 433 0024 10BD     		pop	{r4, pc}
 435              		.section	.text.pbuf_copy,"ax",%progbits
 436              		.align	1
 437              		.global	pbuf_copy
 438              		.thumb
 439              		.thumb_func
 441              	pbuf_copy:
 442              		@ args = 0, pretend = 0, frame = 0
 443              		@ frame_needed = 0, uses_anonymous_args = 0
 444 0000 2DE9F041 		push	{r4, r5, r6, r7, r8, lr}
 445 0004 0C46     		mov	r4, r1
 446 0006 0546     		mov	r5, r0
 447 0008 0028     		cmp	r0, #0
 448 000a 3CD0     		beq	.L107
 449 000c 0029     		cmp	r1, #0
 450 000e 3AD0     		beq	.L107
 451 0010 0289     		ldrh	r2, [r0, #8]
 452 0012 0B89     		ldrh	r3, [r1, #8]
 453 0014 9A42     		cmp	r2, r3
 454 0016 36D3     		bcc	.L107
 455 0018 0026     		movs	r6, #0
 456 001a 3746     		mov	r7, r6
 457              	.L104:
 458 001c 6889     		ldrh	r0, [r5, #10]
 459 001e B4F80A80 		ldrh	r8, [r4, #10]
 460 0022 6A68     		ldr	r2, [r5, #4]
 461 0024 6368     		ldr	r3, [r4, #4]
 462 0026 C6EB0808 		rsb	r8, r6, r8
 463 002a C11B     		subs	r1, r0, r7
 464 002c 4145     		cmp	r1, r8
 465 002e B4BF     		ite	lt
 466 0030 1FFA81F8 		uxthlt	r8, r1
 467 0034 1FFA88F8 		uxthge	r8, r8
 468 0038 D019     		adds	r0, r2, r7
 469 003a 9919     		adds	r1, r3, r6
 470 003c 4246     		mov	r2, r8
 471 003e FFF7FEFF 		bl	memcpy
 472 0042 4744     		add	r7, r8, r7
 473 0044 6889     		ldrh	r0, [r5, #10]
 474 0046 6189     		ldrh	r1, [r4, #10]
 475 0048 BFB2     		uxth	r7, r7
 476 004a 4644     		add	r6, r8, r6
 477 004c B842     		cmp	r0, r7
 478 004e B6B2     		uxth	r6, r6
 479 0050 04BF     		itt	eq
 480 0052 2D68     		ldreq	r5, [r5, #0]
 481 0054 0027     		moveq	r7, #0
 482 0056 B142     		cmp	r1, r6
 483 0058 02D8     		bhi	.L101
 484 005a 2468     		ldr	r4, [r4, #0]
 485 005c 3CB1     		cbz	r4, .L108
 486 005e 0026     		movs	r6, #0
 487              	.L101:
 488 0060 6289     		ldrh	r2, [r4, #10]
 489 0062 2389     		ldrh	r3, [r4, #8]
 490 0064 9A42     		cmp	r2, r3
 491 0066 03D1     		bne	.L102
 492 0068 2068     		ldr	r0, [r4, #0]
 493 006a 08B1     		cbz	r0, .L102
 494 006c 0DE0     		b	.L110
 495              	.L108:
 496 006e 2646     		mov	r6, r4
 497              	.L102:
 498 0070 2DB1     		cbz	r5, .L103
 499 0072 6989     		ldrh	r1, [r5, #10]
 500 0074 2A89     		ldrh	r2, [r5, #8]
 501 0076 9142     		cmp	r1, r2
 502 0078 01D1     		bne	.L103
 503 007a 2B68     		ldr	r3, [r5, #0]
 504 007c 2BB9     		cbnz	r3, .L110
 505              	.L103:
 506 007e 002C     		cmp	r4, #0
 507 0080 CCD1     		bne	.L104
 508 0082 2046     		mov	r0, r4
 509 0084 02E0     		b	.L97
 510              	.L107:
 511 0086 F620     		movs	r0, #246
 512 0088 00E0     		b	.L97
 513              	.L110:
 514 008a F720     		movs	r0, #247
 515              	.L97:
 516 008c 40B2     		sxtb	r0, r0
 517 008e BDE8F081 		pop	{r4, r5, r6, r7, r8, pc}
 519              		.section	.text.pbuf_copy_partial,"ax",%progbits
 520              		.align	1
 521              		.global	pbuf_copy_partial
 522              		.thumb
 523              		.thumb_func
 525              	pbuf_copy_partial:
 526              		@ args = 0, pretend = 0, frame = 0
 527              		@ frame_needed = 0, uses_anonymous_args = 0
 528 0000 2DE9F843 		push	{r3, r4, r5, r6, r7, r8, r9, lr}
 529 0004 8846     		mov	r8, r1
 530 0006 1646     		mov	r6, r2
 531 0008 18B3     		cbz	r0, .L121
 532 000a 21B3     		cbz	r1, .L122
 533 000c 0024     		movs	r4, #0
 534 000e 0546     		mov	r5, r0
 535 0010 A146     		mov	r9, r4
 536              	.L117:
 537 0012 0EB3     		cbz	r6, .L116
 538 0014 05B3     		cbz	r5, .L116
 539              	.L120:
 540 0016 2BB1     		cbz	r3, .L118
 541 0018 6A89     		ldrh	r2, [r5, #10]
 542 001a 9342     		cmp	r3, r2
 543 001c 02D3     		bcc	.L118
 544 001e 9B1A     		subs	r3, r3, r2
 545 0020 9BB2     		uxth	r3, r3
 546 0022 14E0     		b	.L119
 547              	.L118:
 548 0024 6F89     		ldrh	r7, [r5, #10]
 549 0026 6968     		ldr	r1, [r5, #4]
 550 0028 F81A     		subs	r0, r7, r3
 551 002a 87B2     		uxth	r7, r0
 552 002c B742     		cmp	r7, r6
 553 002e 28BF     		it	cs
 554 0030 3746     		movcs	r7, r6
 555 0032 08EB0900 		add	r0, r8, r9
 556 0036 C918     		adds	r1, r1, r3
 557 0038 3A46     		mov	r2, r7
 558 003a 3C19     		adds	r4, r7, r4
 559 003c B944     		add	r9, r7, r9
 560 003e F61B     		subs	r6, r6, r7
 561 0040 FFF7FEFF 		bl	memcpy
 562 0044 A4B2     		uxth	r4, r4
 563 0046 1FFA89F9 		uxth	r9, r9
 564 004a B6B2     		uxth	r6, r6
 565 004c 0023     		movs	r3, #0
 566              	.L119:
 567 004e 2D68     		ldr	r5, [r5, #0]
 568 0050 DFE7     		b	.L117
 569              	.L121:
 570 0052 0446     		mov	r4, r0
 571 0054 00E0     		b	.L116
 572              	.L122:
 573 0056 0C46     		mov	r4, r1
 574              	.L116:
 575 0058 2046     		mov	r0, r4
 576 005a BDE8F883 		pop	{r3, r4, r5, r6, r7, r8, r9, pc}
 578              		.section	.text.pbuf_take,"ax",%progbits
 579              		.align	1
 580              		.global	pbuf_take
 581              		.thumb
 582              		.thumb_func
 584              	pbuf_take:
 585              		@ args = 0, pretend = 0, frame = 0
 586              		@ frame_needed = 0, uses_anonymous_args = 0
 587 0000 2DE9F041 		push	{r4, r5, r6, r7, r8, lr}
 588 0004 8846     		mov	r8, r1
 589 0006 08B9     		cbnz	r0, .L130
 590              	.L132:
 591 0008 0020     		movs	r0, #0
 592 000a 1AE0     		b	.L131
 593              	.L130:
 594 000c 0029     		cmp	r1, #0
 595 000e FBD0     		beq	.L132
 596 0010 0389     		ldrh	r3, [r0, #8]
 597 0012 9342     		cmp	r3, r2
 598 0014 14D3     		bcc	.L135
 599 0016 1446     		mov	r4, r2
 600 0018 0546     		mov	r5, r0
 601 001a 0026     		movs	r6, #0
 602              	.L133:
 603 001c 002C     		cmp	r4, #0
 604 001e F3D0     		beq	.L132
 605              	.L134:
 606 0020 6F89     		ldrh	r7, [r5, #10]
 607 0022 6868     		ldr	r0, [r5, #4]
 608 0024 BC42     		cmp	r4, r7
 609 0026 38BF     		it	cc
 610 0028 2746     		movcc	r7, r4
 611 002a 08EB0601 		add	r1, r8, r6
 612 002e 3A46     		mov	r2, r7
 613 0030 E41B     		subs	r4, r4, r7
 614 0032 BE19     		adds	r6, r7, r6
 615 0034 FFF7FEFF 		bl	memcpy
 616 0038 A4B2     		uxth	r4, r4
 617 003a B6B2     		uxth	r6, r6
 618 003c 2D68     		ldr	r5, [r5, #0]
 619 003e EDE7     		b	.L133
 620              	.L135:
 621 0040 F620     		movs	r0, #246
 622              	.L131:
 623 0042 40B2     		sxtb	r0, r0
 624 0044 BDE8F081 		pop	{r4, r5, r6, r7, r8, pc}
 626              		.section	.text.pbuf_coalesce,"ax",%progbits
 627              		.align	1
 628              		.global	pbuf_coalesce
 629              		.thumb
 630              		.thumb_func
 632              	pbuf_coalesce:
 633              		@ args = 0, pretend = 0, frame = 0
 634              		@ frame_needed = 0, uses_anonymous_args = 0
 635 0000 38B5     		push	{r3, r4, r5, lr}
 636 0002 0368     		ldr	r3, [r0, #0]
 637 0004 0446     		mov	r4, r0
 638 0006 6BB1     		cbz	r3, .L141
 639 0008 0846     		mov	r0, r1
 640 000a 0022     		movs	r2, #0
 641 000c 2189     		ldrh	r1, [r4, #8]
 642 000e FFF7FEFF 		bl	pbuf_alloc
 643 0012 0546     		mov	r5, r0
 644 0014 30B1     		cbz	r0, .L141
 645 0016 2146     		mov	r1, r4
 646 0018 FFF7FEFF 		bl	pbuf_copy
 647 001c 2046     		mov	r0, r4
 648 001e FFF7FEFF 		bl	pbuf_free
 649 0022 2C46     		mov	r4, r5
 650              	.L141:
 651 0024 2046     		mov	r0, r4
 652 0026 38BD     		pop	{r3, r4, r5, pc}
 654              		.ident	"GCC: (GNU Tools for ARM Embedded Processors) 4.7.4 20130913 (release) [ARM/embedded-4_7-br