   1              		.syntax unified
   2              		.cpu cortex-m4
   3              		.eabi_attribute 27, 3
   4              		.fpu fpv4-sp-d16
   5              		.eabi_attribute 20, 1
   6              		.eabi_attribute 21, 1
   7              		.eabi_attribute 23, 3
   8              		.eabi_attribute 24, 1
   9              		.eabi_attribute 25, 1
  10              		.eabi_attribute 26, 1
  11              		.eabi_attribute 30, 4
  12              		.eabi_attribute 34, 1
  13              		.eabi_attribute 18, 4
  14              		.thumb
  15              		.file	"raw.c"
  16              		.section	.text.raw_input,"ax",%progbits
  17              		.align	1
  18              		.global	raw_input
  19              		.thumb
  20              		.thumb_func
  22              	raw_input:
  23              		@ args = 0, pretend = 0, frame = 0
  24              		@ frame_needed = 0, uses_anonymous_args = 0
  25 0000 2DE9F843 		push	{r3, r4, r5, r6, r7, r8, r9, lr}
  26 0004 D0F80480 		ldr	r8, [r0, #4]
  27 0008 0646     		mov	r6, r0
  28 000a B8F80800 		ldrh	r0, [r8, #8]	@ unaligned
  29 000e FFF7FEFF 		bl	ntohs
  30 0012 154B     		ldr	r3, .L13
  31 0014 1C68     		ldr	r4, [r3, #0]
  32 0016 5FFA80F9 		uxtb	r9, r0
  33 001a 0025     		movs	r5, #0
  34              	.L2:
  35 001c F4B1     		cbz	r4, .L12
  36              	.L5:
  37 001e 207C     		ldrb	r0, [r4, #16]	@ zero_extendqisi2
  38 0020 4845     		cmp	r0, r9
  39 0022 12D1     		bne	.L6
  40 0024 6769     		ldr	r7, [r4, #20]
  41 0026 87B1     		cbz	r7, .L6
  42 0028 A069     		ldr	r0, [r4, #24]
  43 002a 2146     		mov	r1, r4
  44 002c 3246     		mov	r2, r6
  45 002e 08F10C03 		add	r3, r8, #12
  46 0032 B847     		blx	r7
  47 0034 48B1     		cbz	r0, .L6
  48 0036 55B1     		cbz	r5, .L9
  49 0038 E268     		ldr	r2, [r4, #12]
  50 003a EA60     		str	r2, [r5, #12]
  51 003c 0A4D     		ldr	r5, .L13
  52 003e 2E68     		ldr	r6, [r5, #0]
  53 0040 2C60     		str	r4, [r5, #0]
  54 0042 E660     		str	r6, [r4, #12]
  55 0044 0121     		movs	r1, #1
  56 0046 0026     		movs	r6, #0
  57 0048 03E0     		b	.L3
  58              	.L6:
  59 004a 0021     		movs	r1, #0
  60 004c 01E0     		b	.L3
  61              	.L9:
  62 004e 0121     		movs	r1, #1
  63 0050 2E46     		mov	r6, r5
  64              	.L3:
  65 0052 E368     		ldr	r3, [r4, #12]
  66 0054 2546     		mov	r5, r4
  67 0056 21B9     		cbnz	r1, .L10
  68 0058 1C46     		mov	r4, r3
  69 005a DFE7     		b	.L2
  70              	.L12:
  71 005c 2046     		mov	r0, r4
  72 005e BDE8F883 		pop	{r3, r4, r5, r6, r7, r8, r9, pc}
  73              	.L10:
  74 0062 0120     		movs	r0, #1
  75 0064 BDE8F883 		pop	{r3, r4, r5, r6, r7, r8, r9, pc}
  76              	.L14:
  77              		.align	2
  78              	.L13:
  79 0068 00000000 		.word	.LANCHOR0
  81              		.section	.text.raw_bind,"ax",%progbits
  82              		.align	1
  83              		.global	raw_bind
  84              		.thumb
  85              		.thumb_func
  87              	raw_bind:
  88              		@ args = 0, pretend = 0, frame = 0
  89              		@ frame_needed = 0, uses_anonymous_args = 0
  90              		@ link register save eliminated.
  91 0000 01B1     		cbz	r1, .L16
  92 0002 0968     		ldr	r1, [r1, #0]	@ unaligned
  93              	.L16:
  94 0004 0160     		str	r1, [r0, #0]
  95 0006 0020     		movs	r0, #0
  96 0008 7047     		bx	lr
  98              		.section	.text.raw_connect,"ax",%progbits
  99              		.align	1
 100              		.global	raw_connect
 101              		.thumb
 102              		.thumb_func
 104              	raw_connect:
 105              		@ args = 0, pretend = 0, frame = 0
 106              		@ frame_needed = 0, uses_anonymous_args = 0
 107              		@ link register save eliminated.
 108 0000 01B1     		cbz	r1, .L19
 109 0002 0968     		ldr	r1, [r1, #0]	@ unaligned
 110              	.L19:
 111 0004 4160     		str	r1, [r0, #4]
 112 0006 0020     		movs	r0, #0
 113 0008 7047     		bx	lr
 115              		.section	.text.raw_recv,"ax",%progbits
 116              		.align	1
 117              		.global	raw_recv
 118              		.thumb
 119              		.thumb_func
 121              	raw_recv:
 122              		@ args = 0, pretend = 0, frame = 0
 123              		@ frame_needed = 0, uses_anonymous_args = 0
 124              		@ link register save eliminated.
 125 0000 4161     		str	r1, [r0, #20]
 126 0002 8261     		str	r2, [r0, #24]
 127 0004 7047     		bx	lr
 129              		.section	.text.raw_sendto,"ax",%progbits
 130              		.align	1
 131              		.global	raw_sendto
 132              		.thumb
 133              		.thumb_func
 135              	raw_sendto:
 136              		@ args = 0, pretend = 0, frame = 0
 137              		@ frame_needed = 0, uses_anonymous_args = 0
 138 0000 F0B5     		push	{r4, r5, r6, r7, lr}
 139 0002 0546     		mov	r5, r0
 140 0004 85B0     		sub	sp, sp, #20
 141 0006 0C46     		mov	r4, r1
 142 0008 0846     		mov	r0, r1
 143 000a 1421     		movs	r1, #20
 144 000c 1746     		mov	r7, r2
 145 000e FFF7FEFF 		bl	pbuf_header
 146 0012 60B1     		cbz	r0, .L23
 147 0014 0021     		movs	r1, #0
 148 0016 0120     		movs	r0, #1
 149 0018 0A46     		mov	r2, r1
 150 001a FFF7FEFF 		bl	pbuf_alloc
 151 001e 0646     		mov	r6, r0
 152 0020 08B9     		cbnz	r0, .L24
 153              	.L27:
 154 0022 FF25     		movs	r5, #255
 155 0024 2CE0     		b	.L25
 156              	.L24:
 157 0026 2146     		mov	r1, r4
 158 0028 FFF7FEFF 		bl	pbuf_chain
 159 002c 07E0     		b	.L26
 160              	.L23:
 161 002e 2046     		mov	r0, r4
 162 0030 6FF01301 		mvn	r1, #19
 163 0034 FFF7FEFF 		bl	pbuf_header
 164 0038 0028     		cmp	r0, #0
 165 003a F2D1     		bne	.L27
 166 003c 2646     		mov	r6, r4
 167              	.L26:
 168 003e 3846     		mov	r0, r7
 169 0040 FFF7FEFF 		bl	ip_route
 170 0044 28B9     		cbnz	r0, .L28
 171 0046 A642     		cmp	r6, r4
 172 0048 19D0     		beq	.L31
 173 004a 3046     		mov	r0, r6
 174 004c FFF7FEFF 		bl	pbuf_free
 175 0050 15E0     		b	.L31
 176              	.L28:
 177 0052 2946     		mov	r1, r5
 178 0054 0DB1     		cbz	r5, .L29
 179 0056 2B68     		ldr	r3, [r5, #0]
 180 0058 03B9     		cbnz	r3, .L30
 181              	.L29:
 182 005a 011D     		adds	r1, r0, #4
 183              	.L30:
 184 005c AA7A     		ldrb	r2, [r5, #10]	@ zero_extendqisi2
 185 005e EB7A     		ldrb	r3, [r5, #11]	@ zero_extendqisi2
 186 0060 0092     		str	r2, [sp, #0]
 187 0062 2D7C     		ldrb	r5, [r5, #16]	@ zero_extendqisi2
 188 0064 0290     		str	r0, [sp, #8]
 189 0066 0195     		str	r5, [sp, #4]
 190 0068 3046     		mov	r0, r6
 191 006a 3A46     		mov	r2, r7
 192 006c FFF7FEFF 		bl	ip_output_if
 193 0070 A642     		cmp	r6, r4
 194 0072 0546     		mov	r5, r0
 195 0074 04D0     		beq	.L25
 196 0076 3046     		mov	r0, r6
 197 0078 FFF7FEFF 		bl	pbuf_free
 198 007c 00E0     		b	.L25
 199              	.L31:
 200 007e FC25     		movs	r5, #252
 201              	.L25:
 202 0080 68B2     		sxtb	r0, r5
 203 0082 05B0     		add	sp, sp, #20
 204 0084 F0BD     		pop	{r4, r5, r6, r7, pc}
 206              		.section	.text.raw_send,"ax",%progbits
 207              		.align	1
 208              		.global	raw_send
 209              		.thumb
 210              		.thumb_func
 212              	raw_send:
 213              		@ args = 0, pretend = 0, frame = 0
 214              		@ frame_needed = 0, uses_anonymous_args = 0
 215              		@ link register save eliminated.
 216 0000 021D     		adds	r2, r0, #4
 217 0002 FFF7FEBF 		b	raw_sendto
 219              		.section	.text.raw_remove,"ax",%progbits
 220              		.align	1
 221              		.global	raw_remove
 222              		.thumb
 223              		.thumb_func
 225              	raw_remove:
 226              		@ args = 0, pretend = 0, frame = 0
 227              		@ frame_needed = 0, uses_anonymous_args = 0
 228              		@ link register save eliminated.
 229 0000 084A     		ldr	r2, .L46
 230 0002 1368     		ldr	r3, [r2, #0]
 231 0004 8342     		cmp	r3, r0
 232 0006 09D1     		bne	.L45
 233 0008 C168     		ldr	r1, [r0, #12]
 234 000a 1160     		str	r1, [r2, #0]
 235 000c 08E0     		b	.L39
 236              	.L41:
 237 000e D968     		ldr	r1, [r3, #12]
 238 0010 19B1     		cbz	r1, .L40
 239 0012 8142     		cmp	r1, r0
 240 0014 04BF     		itt	eq
 241 0016 C168     		ldreq	r1, [r0, #12]
 242 0018 D960     		streq	r1, [r3, #12]
 243              	.L40:
 244 001a DB68     		ldr	r3, [r3, #12]
 245              	.L45:
 246 001c 002B     		cmp	r3, #0
 247 001e F6D1     		bne	.L41
 248              	.L39:
 249 0020 FFF7FEBF 		b	mem_free
 250              	.L47:
 251              		.align	2
 252              	.L46:
 253 0024 00000000 		.word	.LANCHOR0
 255              		.section	.text.raw_new,"ax",%progbits
 256              		.align	1
 257              		.global	raw_new
 258              		.thumb
 259              		.thumb_func
 261              	raw_new:
 262              		@ args = 0, pretend = 0, frame = 0
 263              		@ frame_needed = 0, uses_anonymous_args = 0
 264 0000 38B5     		push	{r3, r4, r5, lr}
 265 0002 0A4B     		ldr	r3, .L53
 266 0004 0546     		mov	r5, r0
 267 0006 1888     		ldrh	r0, [r3, #0]
 268 0008 FFF7FEFF 		bl	mem_malloc
 269 000c 0446     		mov	r4, r0
 270 000e 50B1     		cbz	r0, .L49
 271 0010 0021     		movs	r1, #0
 272 0012 1C22     		movs	r2, #28
 273 0014 FFF7FEFF 		bl	memset
 274 0018 0549     		ldr	r1, .L53+4
 275 001a 2574     		strb	r5, [r4, #16]
 276 001c 0A68     		ldr	r2, [r1, #0]
 277 001e 0C60     		str	r4, [r1, #0]
 278 0020 FF20     		movs	r0, #255
 279 0022 E072     		strb	r0, [r4, #11]
 280 0024 E260     		str	r2, [r4, #12]
 281              	.L49:
 282 0026 2046     		mov	r0, r4
 283 0028 38BD     		pop	{r3, r4, r5, pc}
 284              	.L54:
 285 002a 00BF     		.align	2
 286              	.L53:
 287 002c 00000000 		.word	memp_sizes
 288 0030 00000000 		.word	.LANCHOR0
 290              		.bss
 291              		.align	2
 292              		.set	.LANCHOR0,. + 0
 295              	raw_pcbs:
 296 0000 00000000 		.space	4
 297              		.ident	"GCC: (GNU Tools for ARM Embedded Processors) 4.7.4 20130913 (release) [ARM/embedded-4_7-br