   1              		.syntax unified
   2              		.cpu cortex-m4
   3              		.eabi_attribute 27, 3
   4              		.fpu fpv4-sp-d16
   5              		.eabi_attribute 20, 1
   6              		.eabi_attribute 21, 1
   7              		.eabi_attribute 23, 3
   8              		.eabi_attribute 24, 1
   9              		.eabi_attribute 25, 1
  10              		.eabi_attribute 26, 1
  11              		.eabi_attribute 30, 4
  12              		.eabi_attribute 34, 1
  13              		.eabi_attribute 18, 4
  14              		.thumb
  15              		.file	"tcp.c"
  16              		.section	.text.tcp_accept_null,"ax",%progbits
  17              		.align	1
  18              		.thumb
  19              		.thumb_func
  21              	tcp_accept_null:
  22              		@ args = 0, pretend = 0, frame = 0
  23              		@ frame_needed = 0, uses_anonymous_args = 0
  24              		@ link register save eliminated.
  25 0000 6FF00400 		mvn	r0, #4
  26 0004 7047     		bx	lr
  28              		.section	.text.tcp_new_port,"ax",%progbits
  29              		.align	1
  30              		.thumb
  31              		.thumb_func
  33              	tcp_new_port:
  34              		@ args = 0, pretend = 0, frame = 0
  35              		@ frame_needed = 0, uses_anonymous_args = 0
  36 0000 30B5     		push	{r4, r5, lr}
  37 0002 134B     		ldr	r3, .L19
  38 0004 1348     		ldr	r0, .L19+4
  39 0006 1A68     		ldr	r2, [r3, #0]
  40 0008 134C     		ldr	r4, .L19+8
  41 000a 144B     		ldr	r3, .L19+12
  42 000c 0168     		ldr	r1, [r0, #0]
  43 000e 2468     		ldr	r4, [r4, #0]
  44 0010 1888     		ldrh	r0, [r3, #0]
  45              	.L14:
  46 0012 0130     		adds	r0, r0, #1
  47 0014 80B2     		uxth	r0, r0
  48 0016 10F4004F 		tst	r0, #32768
  49 001a 18BF     		it	ne
  50 001c 4FF48050 		movne	r0, #4096
  51 0020 1346     		mov	r3, r2
  52              	.L5:
  53 0022 23B1     		cbz	r3, .L16
  54              	.L7:
  55 0024 1D8B     		ldrh	r5, [r3, #24]
  56 0026 8542     		cmp	r5, r0
  57 0028 F3D0     		beq	.L14
  58 002a DB68     		ldr	r3, [r3, #12]
  59 002c F9E7     		b	.L5
  60              	.L16:
  61 002e 0B46     		mov	r3, r1
  62              	.L8:
  63 0030 23B1     		cbz	r3, .L17
  64              	.L9:
  65 0032 1D8B     		ldrh	r5, [r3, #24]
  66 0034 8542     		cmp	r5, r0
  67 0036 ECD0     		beq	.L14
  68 0038 DB68     		ldr	r3, [r3, #12]
  69 003a F9E7     		b	.L8
  70              	.L17:
  71 003c 2346     		mov	r3, r4
  72              	.L10:
  73 003e 23B1     		cbz	r3, .L18
  74              	.L11:
  75 0040 1D8B     		ldrh	r5, [r3, #24]
  76 0042 8542     		cmp	r5, r0
  77 0044 E5D0     		beq	.L14
  78 0046 DB68     		ldr	r3, [r3, #12]
  79 0048 F9E7     		b	.L10
  80              	.L18:
  81 004a 0449     		ldr	r1, .L19+12
  82 004c 0880     		strh	r0, [r1, #0]	@ movhi
  83 004e 30BD     		pop	{r4, r5, pc}
  84              	.L20:
  85              		.align	2
  86              	.L19:
  87 0050 00000000 		.word	tcp_active_pcbs
  88 0054 00000000 		.word	tcp_tw_pcbs
  89 0058 00000000 		.word	tcp_listen_pcbs
  90 005c 00000000 		.word	.LANCHOR0
  92              		.section	.text.tcp_bind,"ax",%progbits
  93              		.align	1
  94              		.global	tcp_bind
  95              		.thumb
  96              		.thumb_func
  98              	tcp_bind:
  99              		@ args = 0, pretend = 0, frame = 0
 100              		@ frame_needed = 0, uses_anonymous_args = 0
 101 0000 037C     		ldrb	r3, [r0, #16]	@ zero_extendqisi2
 102 0002 70B5     		push	{r4, r5, r6, lr}
 103 0004 0546     		mov	r5, r0
 104 0006 0C46     		mov	r4, r1
 105 0008 002B     		cmp	r3, #0
 106 000a 4AD1     		bne	.L37
 107 000c 12B9     		cbnz	r2, .L23
 108 000e FFF7FEFF 		bl	tcp_new_port
 109 0012 0246     		mov	r2, r0
 110              	.L23:
 111 0014 2548     		ldr	r0, .L61
 112 0016 0368     		ldr	r3, [r0, #0]
 113              	.L24:
 114 0018 73B1     		cbz	r3, .L57
 115              	.L26:
 116 001a 188B     		ldrh	r0, [r3, #24]
 117 001c 9042     		cmp	r0, r2
 118 001e 09D1     		bne	.L25
 119 0020 1868     		ldr	r0, [r3, #0]
 120 0022 0028     		cmp	r0, #0
 121 0024 3FD0     		beq	.L50
 122 0026 002C     		cmp	r4, #0
 123 0028 3DD0     		beq	.L50
 124 002a 2168     		ldr	r1, [r4, #0]	@ unaligned
 125 002c 0029     		cmp	r1, #0
 126 002e 3AD0     		beq	.L50
 127 0030 8842     		cmp	r0, r1
 128 0032 38D0     		beq	.L50
 129              	.L25:
 130 0034 DB68     		ldr	r3, [r3, #12]
 131 0036 EFE7     		b	.L24
 132              	.L57:
 133 0038 1D49     		ldr	r1, .L61+4
 134 003a 0B68     		ldr	r3, [r1, #0]
 135              	.L27:
 136 003c 5BB1     		cbz	r3, .L58
 137              	.L29:
 138 003e 198B     		ldrh	r1, [r3, #24]
 139 0040 9142     		cmp	r1, r2
 140 0042 06D1     		bne	.L28
 141 0044 1868     		ldr	r0, [r3, #0]
 142 0046 70B3     		cbz	r0, .L50
 143 0048 6CB3     		cbz	r4, .L50
 144 004a 2168     		ldr	r1, [r4, #0]	@ unaligned
 145 004c 59B3     		cbz	r1, .L50
 146 004e 8842     		cmp	r0, r1
 147 0050 29D0     		beq	.L50
 148              	.L28:
 149 0052 DB68     		ldr	r3, [r3, #12]
 150 0054 F2E7     		b	.L27
 151              	.L58:
 152 0056 174B     		ldr	r3, .L61+8
 153 0058 1968     		ldr	r1, [r3, #0]
 154 005a 0B46     		mov	r3, r1
 155              	.L30:
 156 005c 5BB1     		cbz	r3, .L59
 157              	.L32:
 158 005e 188B     		ldrh	r0, [r3, #24]
 159 0060 9042     		cmp	r0, r2
 160 0062 06D1     		bne	.L31
 161 0064 1E68     		ldr	r6, [r3, #0]
 162 0066 F6B1     		cbz	r6, .L50
 163 0068 ECB1     		cbz	r4, .L50
 164 006a 2068     		ldr	r0, [r4, #0]	@ unaligned
 165 006c D8B1     		cbz	r0, .L50
 166 006e 8642     		cmp	r6, r0
 167 0070 19D0     		beq	.L50
 168              	.L31:
 169 0072 DB68     		ldr	r3, [r3, #12]
 170 0074 F2E7     		b	.L30
 171              	.L59:
 172 0076 1048     		ldr	r0, .L61+12
 173 0078 0368     		ldr	r3, [r0, #0]
 174              	.L33:
 175 007a 43B1     		cbz	r3, .L60
 176              	.L35:
 177 007c 188B     		ldrh	r0, [r3, #24]
 178 007e 9042     		cmp	r0, r2
 179 0080 03D1     		bne	.L34
 180 0082 2668     		ldr	r6, [r4, #0]	@ unaligned
 181 0084 1868     		ldr	r0, [r3, #0]
 182 0086 B042     		cmp	r0, r6
 183 0088 0DD0     		beq	.L50
 184              	.L34:
 185 008a DB68     		ldr	r3, [r3, #12]
 186 008c F5E7     		b	.L33
 187              	.L60:
 188 008e 14B1     		cbz	r4, .L36
 189 0090 2368     		ldr	r3, [r4, #0]	@ unaligned
 190 0092 03B1     		cbz	r3, .L36
 191 0094 2B60     		str	r3, [r5, #0]	@ unaligned
 192              	.L36:
 193 0096 2A83     		strh	r2, [r5, #24]	@ movhi
 194 0098 064A     		ldr	r2, .L61+8
 195 009a E960     		str	r1, [r5, #12]
 196 009c 1560     		str	r5, [r2, #0]
 197 009e 0022     		movs	r2, #0
 198 00a0 02E0     		b	.L22
 199              	.L37:
 200 00a2 F322     		movs	r2, #243
 201 00a4 00E0     		b	.L22
 202              	.L50:
 203 00a6 F522     		movs	r2, #245
 204              	.L22:
 205 00a8 50B2     		sxtb	r0, r2
 206 00aa 70BD     		pop	{r4, r5, r6, pc}
 207              	.L62:
 208              		.align	2
 209              	.L61:
 210 00ac 00000000 		.word	tcp_listen_pcbs
 211 00b0 00000000 		.word	tcp_active_pcbs
 212 00b4 00000000 		.word	tcp_bound_pcbs
 213 00b8 00000000 		.word	tcp_tw_pcbs
 215              		.section	.text.tcp_listen_with_backlog,"ax",%progbits
 216              		.align	1
 217              		.global	tcp_listen_with_backlog
 218              		.thumb
 219              		.thumb_func
 221              	tcp_listen_with_backlog:
 222              		@ args = 0, pretend = 0, frame = 0
 223              		@ frame_needed = 0, uses_anonymous_args = 0
 224 0000 38B5     		push	{r3, r4, r5, lr}
 225 0002 037C     		ldrb	r3, [r0, #16]	@ zero_extendqisi2
 226 0004 0446     		mov	r4, r0
 227 0006 0BB1     		cbz	r3, .L64
 228              	.L66:
 229 0008 0020     		movs	r0, #0
 230 000a 38BD     		pop	{r3, r4, r5, pc}
 231              	.L64:
 232 000c 1B48     		ldr	r0, .L76
 233 000e C088     		ldrh	r0, [r0, #6]
 234 0010 FFF7FEFF 		bl	mem_malloc
 235 0014 0546     		mov	r5, r0
 236 0016 0028     		cmp	r0, #0
 237 0018 F6D0     		beq	.L66
 238 001a 6169     		ldr	r1, [r4, #20]
 239 001c 228B     		ldrh	r2, [r4, #24]
 240 001e 4161     		str	r1, [r0, #20]
 241 0020 0123     		movs	r3, #1
 242 0022 0283     		strh	r2, [r0, #24]	@ movhi
 243 0024 0374     		strb	r3, [r0, #16]
 244 0026 2089     		ldrh	r0, [r4, #8]
 245 0028 40F00201 		orr	r1, r0, #2
 246 002c 2981     		strh	r1, [r5, #8]	@ movhi
 247 002e E27A     		ldrb	r2, [r4, #11]	@ zero_extendqisi2
 248 0030 EA72     		strb	r2, [r5, #11]
 249 0032 A37A     		ldrb	r3, [r4, #10]	@ zero_extendqisi2
 250 0034 124A     		ldr	r2, .L76+4
 251 0036 AB72     		strb	r3, [r5, #10]
 252 0038 1368     		ldr	r3, [r2, #0]
 253 003a 2068     		ldr	r0, [r4, #0]
 254 003c A342     		cmp	r3, r4
 255 003e 2860     		str	r0, [r5, #0]
 256 0040 01D1     		bne	.L67
 257 0042 E368     		ldr	r3, [r4, #12]
 258 0044 0BE0     		b	.L75
 259              	.L67:
 260 0046 0F4A     		ldr	r2, .L76+8
 261 0048 1360     		str	r3, [r2, #0]
 262              	.L69:
 263 004a 43B1     		cbz	r3, .L75
 264              	.L70:
 265 004c D968     		ldr	r1, [r3, #12]
 266 004e A142     		cmp	r1, r4
 267 0050 03D1     		bne	.L71
 268 0052 E068     		ldr	r0, [r4, #12]
 269 0054 1360     		str	r3, [r2, #0]
 270 0056 D860     		str	r0, [r3, #12]
 271 0058 02E0     		b	.L68
 272              	.L71:
 273 005a 0B46     		mov	r3, r1
 274 005c F5E7     		b	.L69
 275              	.L75:
 276 005e 1360     		str	r3, [r2, #0]
 277              	.L68:
 278 0060 0022     		movs	r2, #0
 279 0062 2046     		mov	r0, r4
 280 0064 E260     		str	r2, [r4, #12]
 281 0066 FFF7FEFF 		bl	mem_free
 282 006a 074B     		ldr	r3, .L76+12
 283 006c 0749     		ldr	r1, .L76+16
 284 006e 1868     		ldr	r0, [r3, #0]
 285 0070 E961     		str	r1, [r5, #28]
 286 0072 E860     		str	r0, [r5, #12]
 287 0074 1D60     		str	r5, [r3, #0]
 288 0076 2846     		mov	r0, r5
 289 0078 38BD     		pop	{r3, r4, r5, pc}
 290              	.L77:
 291 007a 00BF     		.align	2
 292              	.L76:
 293 007c 00000000 		.word	memp_sizes
 294 0080 00000000 		.word	tcp_bound_pcbs
 295 0084 00000000 		.word	tcp_tmp_pcb
 296 0088 00000000 		.word	tcp_listen_pcbs
 297 008c 00000000 		.word	tcp_accept_null
 299              		.section	.text.tcp_update_rcv_ann_wnd,"ax",%progbits
 300              		.align	1
 301              		.global	tcp_update_rcv_ann_wnd
 302              		.thumb
 303              		.thumb_func
 305              	tcp_update_rcv_ann_wnd:
 306              		@ args = 0, pretend = 0, frame = 0
 307              		@ frame_needed = 0, uses_anonymous_args = 0
 308 0000 30B5     		push	{r4, r5, lr}
 309 0002 C16A     		ldr	r1, [r0, #44]
 310 0004 048D     		ldrh	r4, [r0, #40]
 311 0006 058F     		ldrh	r5, [r0, #56]
 312 0008 426A     		ldr	r2, [r0, #36]
 313 000a 0346     		mov	r3, r0
 314 000c 40F2A650 		movw	r0, #1446
 315 0010 8542     		cmp	r5, r0
 316 0012 28BF     		it	cs
 317 0014 0546     		movcs	r5, r0
 318 0016 601A     		subs	r0, r4, r1
 319 0018 8018     		adds	r0, r0, r2
 320 001a 451B     		subs	r5, r0, r5
 321 001c 002D     		cmp	r5, #0
 322 001e 01DB     		blt	.L80
 323 0020 5C85     		strh	r4, [r3, #42]	@ movhi
 324 0022 30BD     		pop	{r4, r5, pc}
 325              	.L80:
 326 0024 501A     		subs	r0, r2, r1
 327 0026 0028     		cmp	r0, #0
 328 0028 4FF00000 		mov	r0, #0
 329 002c 01DD     		ble	.L82
 330 002e 5885     		strh	r0, [r3, #42]	@ movhi
 331 0030 30BD     		pop	{r4, r5, pc}
 332              	.L82:
 333 0032 8A1A     		subs	r2, r1, r2
 334 0034 5A85     		strh	r2, [r3, #42]	@ movhi
 335 0036 30BD     		pop	{r4, r5, pc}
 337              		.section	.text.tcp_recved,"ax",%progbits
 338              		.align	1
 339              		.global	tcp_recved
 340              		.thumb
 341              		.thumb_func
 343              	tcp_recved:
 344              		@ args = 0, pretend = 0, frame = 0
 345              		@ frame_needed = 0, uses_anonymous_args = 0
 346 0000 038D     		ldrh	r3, [r0, #40]
 347 0002 C918     		adds	r1, r1, r3
 348 0004 40F64C32 		movw	r2, #2892
 349 0008 10B5     		push	{r4, lr}
 350 000a 0446     		mov	r4, r0
 351 000c 88B2     		uxth	r0, r1
 352 000e 9042     		cmp	r0, r2
 353 0010 94BF     		ite	ls
 354 0012 2085     		strhls	r0, [r4, #40]	@ movhi
 355 0014 2285     		strhhi	r2, [r4, #40]	@ movhi
 356 0016 2046     		mov	r0, r4
 357 0018 FFF7FEFF 		bl	tcp_update_rcv_ann_wnd
 358 001c 40F2D223 		movw	r3, #722
 359 0020 9842     		cmp	r0, r3
 360 0022 0ADD     		ble	.L84
 361 0024 94F82210 		ldrb	r1, [r4, #34]	@ zero_extendqisi2
 362 0028 41F00200 		orr	r0, r1, #2
 363 002c 84F82200 		strb	r0, [r4, #34]
 364 0030 2046     		mov	r0, r4
 365 0032 BDE81040 		pop	{r4, lr}
 366 0036 FFF7FEBF 		b	tcp_output
 367              	.L84:
 368 003a 10BD     		pop	{r4, pc}
 370              		.section	.text.tcp_seg_free,"ax",%progbits
 371              		.align	1
 372              		.global	tcp_seg_free
 373              		.thumb
 374              		.thumb_func
 376              	tcp_seg_free:
 377              		@ args = 0, pretend = 0, frame = 0
 378              		@ frame_needed = 0, uses_anonymous_args = 0
 379 0000 38B5     		push	{r3, r4, r5, lr}
 380 0002 0446     		mov	r4, r0
 381 0004 40B1     		cbz	r0, .L91
 382 0006 4068     		ldr	r0, [r0, #4]
 383 0008 08B1     		cbz	r0, .L92
 384 000a FFF7FEFF 		bl	pbuf_free
 385              	.L92:
 386 000e 0546     		mov	r5, r0
 387 0010 2046     		mov	r0, r4
 388 0012 FFF7FEFF 		bl	mem_free
 389 0016 00E0     		b	.L89
 390              	.L91:
 391 0018 0546     		mov	r5, r0
 392              	.L89:
 393 001a 2846     		mov	r0, r5
 394 001c 38BD     		pop	{r3, r4, r5, pc}
 396              		.section	.text.tcp_segs_free,"ax",%progbits
 397              		.align	1
 398              		.global	tcp_segs_free
 399              		.thumb
 400              		.thumb_func
 402              	tcp_segs_free:
 403              		@ args = 0, pretend = 0, frame = 0
 404              		@ frame_needed = 0, uses_anonymous_args = 0
 405 0000 38B5     		push	{r3, r4, r5, lr}
 406 0002 0024     		movs	r4, #0
 407              	.L94:
 408 0004 30B1     		cbz	r0, .L96
 409              	.L95:
 410 0006 0568     		ldr	r5, [r0, #0]
 411 0008 FFF7FEFF 		bl	tcp_seg_free
 412 000c 0019     		adds	r0, r0, r4
 413 000e C4B2     		uxtb	r4, r0
 414 0010 2846     		mov	r0, r5
 415 0012 F7E7     		b	.L94
 416              	.L96:
 417 0014 2046     		mov	r0, r4
 418 0016 38BD     		pop	{r3, r4, r5, pc}
 420              		.section	.text.tcp_setprio,"ax",%progbits
 421              		.align	1
 422              		.global	tcp_setprio
 423              		.thumb
 424              		.thumb_func
 426              	tcp_setprio:
 427              		@ args = 0, pretend = 0, frame = 0
 428              		@ frame_needed = 0, uses_anonymous_args = 0
 429              		@ link register save eliminated.
 430 0000 4174     		strb	r1, [r0, #17]
 431 0002 7047     		bx	lr
 433              		.section	.text.tcp_arg,"ax",%progbits
 434              		.align	1
 435              		.global	tcp_arg
 436              		.thumb
 437              		.thumb_func
 439              	tcp_arg:
 440              		@ args = 0, pretend = 0, frame = 0
 441              		@ frame_needed = 0, uses_anonymous_args = 0
 442              		@ link register save eliminated.
 443 0000 4161     		str	r1, [r0, #20]
 444 0002 7047     		bx	lr
 446              		.section	.text.tcp_recv,"ax",%progbits
 447              		.align	1
 448              		.global	tcp_recv
 449              		.thumb
 450              		.thumb_func
 452              	tcp_recv:
 453              		@ args = 0, pretend = 0, frame = 0
 454              		@ frame_needed = 0, uses_anonymous_args = 0
 455              		@ link register save eliminated.
 456 0000 C0F88410 		str	r1, [r0, #132]
 457 0004 7047     		bx	lr
 459              		.section	.text.tcp_sent,"ax",%progbits
 460              		.align	1
 461              		.global	tcp_sent
 462              		.thumb
 463              		.thumb_func
 465              	tcp_sent:
 466              		@ args = 0, pretend = 0, frame = 0
 467              		@ frame_needed = 0, uses_anonymous_args = 0
 468              		@ link register save eliminated.
 469 0000 C0F88010 		str	r1, [r0, #128]
 470 0004 7047     		bx	lr
 472              		.section	.text.tcp_err,"ax",%progbits
 473              		.align	1
 474              		.global	tcp_err
 475              		.thumb
 476              		.thumb_func
 478              	tcp_err:
 479              		@ args = 0, pretend = 0, frame = 0
 480              		@ frame_needed = 0, uses_anonymous_args = 0
 481              		@ link register save eliminated.
 482 0000 C0F89010 		str	r1, [r0, #144]
 483 0004 7047     		bx	lr
 485              		.section	.text.tcp_accept,"ax",%progbits
 486              		.align	1
 487              		.global	tcp_accept
 488              		.thumb
 489              		.thumb_func
 491              	tcp_accept:
 492              		@ args = 0, pretend = 0, frame = 0
 493              		@ frame_needed = 0, uses_anonymous_args = 0
 494              		@ link register save eliminated.
 495 0000 C161     		str	r1, [r0, #28]
 496 0002 7047     		bx	lr
 498              		.section	.text.tcp_poll,"ax",%progbits
 499              		.align	1
 500              		.global	tcp_poll
 501              		.thumb
 502              		.thumb_func
 504              	tcp_poll:
 505              		@ args = 0, pretend = 0, frame = 0
 506              		@ frame_needed = 0, uses_anonymous_args = 0
 507              		@ link register save eliminated.
 508 0000 C0F88C10 		str	r1, [r0, #140]
 509 0004 80F83520 		strb	r2, [r0, #53]
 510 0008 7047     		bx	lr
 512              		.section	.text.tcp_pcb_purge,"ax",%progbits
 513              		.align	1
 514              		.global	tcp_pcb_purge
 515              		.thumb
 516              		.thumb_func
 518              	tcp_pcb_purge:
 519              		@ args = 0, pretend = 0, frame = 0
 520              		@ frame_needed = 0, uses_anonymous_args = 0
 521 0000 037C     		ldrb	r3, [r0, #16]	@ zero_extendqisi2
 522 0002 10B5     		push	{r4, lr}
 523 0004 0446     		mov	r4, r0
 524 0006 93B1     		cbz	r3, .L104
 525 0008 0A2B     		cmp	r3, #10
 526 000a 10D0     		beq	.L104
 527 000c 012B     		cmp	r3, #1
 528 000e 0ED0     		beq	.L104
 529 0010 C06F     		ldr	r0, [r0, #124]
 530 0012 18B1     		cbz	r0, .L106
 531 0014 FFF7FEFF 		bl	pbuf_free
 532 0018 0020     		movs	r0, #0
 533 001a E067     		str	r0, [r4, #124]
 534              	.L106:
 535 001c 606F     		ldr	r0, [r4, #116]
 536 001e FFF7FEFF 		bl	tcp_segs_free
 537 0022 A06F     		ldr	r0, [r4, #120]
 538 0024 FFF7FEFF 		bl	tcp_segs_free
 539 0028 0021     		movs	r1, #0
 540 002a 6167     		str	r1, [r4, #116]
 541 002c A167     		str	r1, [r4, #120]
 542              	.L104:
 543 002e 10BD     		pop	{r4, pc}
 545              		.section	.text.tcp_slowtmr,"ax",%progbits
 546              		.align	1
 547              		.global	tcp_slowtmr
 548              		.thumb
 549              		.thumb_func
 551              	tcp_slowtmr:
 552              		@ args = 0, pretend = 0, frame = 0
 553              		@ frame_needed = 0, uses_anonymous_args = 0
 554 0000 854B     		ldr	r3, .L191
 555 0002 F7B5     		push	{r0, r1, r2, r4, r5, r6, r7, lr}
 556 0004 1A68     		ldr	r2, [r3, #0]
 557 0006 8549     		ldr	r1, .L191+4
 558 0008 501C     		adds	r0, r2, #1
 559 000a 0C68     		ldr	r4, [r1, #0]
 560 000c 1860     		str	r0, [r3, #0]
 561 000e 0027     		movs	r7, #0
 562              	.L181:
 563 0010 002C     		cmp	r4, #0
 564 0012 00F0E480 		beq	.L187
 565              	.L149:
 566 0016 257C     		ldrb	r5, [r4, #16]	@ zero_extendqisi2
 567 0018 94F84A20 		ldrb	r2, [r4, #74]	@ zero_extendqisi2
 568 001c 022D     		cmp	r5, #2
 569 001e 01D1     		bne	.L121
 570 0020 062A     		cmp	r2, #6
 571 0022 50D0     		beq	.L159
 572              	.L121:
 573 0024 0C2A     		cmp	r2, #12
 574 0026 4ED0     		beq	.L159
 575 0028 94F89C00 		ldrb	r0, [r4, #156]	@ zero_extendqisi2
 576 002c B0B1     		cbz	r0, .L123
 577 002e 7C4B     		ldr	r3, .L191+8
 578 0030 D4F89850 		ldr	r5, [r4, #152]
 579 0034 1918     		adds	r1, r3, r0
 580 0036 6E1C     		adds	r6, r5, #1
 581 0038 11F8012C 		ldrb	r2, [r1, #-1]	@ zero_extendqisi2
 582 003c C4F89860 		str	r6, [r4, #152]
 583 0040 9642     		cmp	r6, r2
 584 0042 3ED3     		bcc	.L186
 585              	.L124:
 586 0044 0025     		movs	r5, #0
 587 0046 0628     		cmp	r0, #6
 588 0048 C4F89850 		str	r5, [r4, #152]
 589 004c 02D8     		bhi	.L125
 590 004e 0130     		adds	r0, r0, #1
 591 0050 84F89C00 		strb	r0, [r4, #156]
 592              	.L125:
 593 0054 2046     		mov	r0, r4
 594 0056 FFF7FEFF 		bl	tcp_zero_window_probe
 595 005a 32E0     		b	.L186
 596              	.L123:
 597 005c E18E     		ldrh	r1, [r4, #54]
 598 005e 0804     		lsls	r0, r1, #16
 599 0060 01D4     		bmi	.L126
 600 0062 4E1C     		adds	r6, r1, #1
 601 0064 E686     		strh	r6, [r4, #54]	@ movhi
 602              	.L126:
 603 0066 A36F     		ldr	r3, [r4, #120]
 604 0068 5BB3     		cbz	r3, .L186
 605 006a B4F93600 		ldrsh	r0, [r4, #54]
 606 006e B4F94810 		ldrsh	r1, [r4, #72]
 607 0072 8842     		cmp	r0, r1
 608 0074 25DB     		blt	.L186
 609 0076 022D     		cmp	r5, #2
 610 0078 0CD0     		beq	.L128
 611 007a 6948     		ldr	r0, .L191+8
 612 007c B4F94450 		ldrsh	r5, [r4, #68]
 613 0080 B4F94660 		ldrsh	r6, [r4, #70]
 614 0084 8218     		adds	r2, r0, r2
 615 0086 06EBE503 		add	r3, r6, r5, asr #3
 616 008a D179     		ldrb	r1, [r2, #7]	@ zero_extendqisi2
 617 008c 03FA01F3 		lsl	r3, r3, r1
 618 0090 A4F84830 		strh	r3, [r4, #72]	@ movhi
 619              	.L128:
 620 0094 B4F85260 		ldrh	r6, [r4, #82]
 621 0098 B4F85C30 		ldrh	r3, [r4, #92]
 622 009c 218F     		ldrh	r1, [r4, #56]
 623 009e 9E42     		cmp	r6, r3
 624 00a0 28BF     		it	cs
 625 00a2 1E46     		movcs	r6, r3
 626 00a4 7008     		lsrs	r0, r6, #1
 627 00a6 0025     		movs	r5, #0
 628 00a8 8842     		cmp	r0, r1
 629 00aa E586     		strh	r5, [r4, #54]	@ movhi
 630 00ac A4F85400 		strh	r0, [r4, #84]	@ movhi
 631 00b0 02D2     		bcs	.L129
 632 00b2 4A00     		lsls	r2, r1, #1
 633 00b4 A4F85420 		strh	r2, [r4, #84]	@ movhi
 634              	.L129:
 635 00b8 A4F85210 		strh	r1, [r4, #82]	@ movhi
 636 00bc 2046     		mov	r0, r4
 637 00be FFF7FEFF 		bl	tcp_rexmit_rto
 638              	.L186:
 639 00c2 0025     		movs	r5, #0
 640 00c4 00E0     		b	.L122
 641              	.L159:
 642 00c6 0125     		movs	r5, #1
 643              	.L122:
 644 00c8 237C     		ldrb	r3, [r4, #16]	@ zero_extendqisi2
 645 00ca 062B     		cmp	r3, #6
 646 00cc 07D1     		bne	.L130
 647 00ce 524E     		ldr	r6, .L191
 648 00d0 226B     		ldr	r2, [r4, #48]
 649 00d2 3168     		ldr	r1, [r6, #0]
 650 00d4 881A     		subs	r0, r1, r2
 651 00d6 2828     		cmp	r0, #40
 652 00d8 01D9     		bls	.L130
 653 00da 0135     		adds	r5, r5, #1
 654 00dc EDB2     		uxtb	r5, r5
 655              	.L130:
 656 00de 2689     		ldrh	r6, [r4, #8]
 657 00e0 06F00801 		and	r1, r6, #8
 658 00e4 8EB2     		uxth	r6, r1
 659 00e6 4EB3     		cbz	r6, .L131
 660 00e8 042B     		cmp	r3, #4
 661 00ea 01D0     		beq	.L132
 662 00ec 072B     		cmp	r3, #7
 663 00ee 24D1     		bne	.L162
 664              	.L132:
 665 00f0 494B     		ldr	r3, .L191
 666 00f2 206B     		ldr	r0, [r4, #48]
 667 00f4 1A68     		ldr	r2, [r3, #0]
 668 00f6 121A     		subs	r2, r2, r0
 669 00f8 D4F89400 		ldr	r0, [r4, #148]
 670 00fc 00F52426 		add	r6, r0, #671744
 671 0100 06F6B843 		addw	r3, r6, #3256
 672 0104 4FF4FA71 		mov	r1, #500
 673 0108 B3FBF1F6 		udiv	r6, r3, r1
 674 010c B242     		cmp	r2, r6
 675 010e 03D9     		bls	.L133
 676 0110 0135     		adds	r5, r5, #1
 677 0112 EDB2     		uxtb	r5, r5
 678 0114 0126     		movs	r6, #1
 679 0116 11E0     		b	.L131
 680              	.L133:
 681 0118 94F89D30 		ldrb	r3, [r4, #157]	@ zero_extendqisi2
 682 011c 414E     		ldr	r6, .L191+12
 683 011e 06FB0300 		mla	r0, r6, r3, r0
 684 0122 B0FBF1F1 		udiv	r1, r0, r1
 685 0126 8A42     		cmp	r2, r1
 686 0128 07D9     		bls	.L162
 687 012a 2046     		mov	r0, r4
 688 012c FFF7FEFF 		bl	tcp_keepalive
 689 0130 94F89D20 		ldrb	r2, [r4, #157]	@ zero_extendqisi2
 690 0134 531C     		adds	r3, r2, #1
 691 0136 84F89D30 		strb	r3, [r4, #157]
 692              	.L162:
 693 013a 0026     		movs	r6, #0
 694              	.L131:
 695 013c 207C     		ldrb	r0, [r4, #16]	@ zero_extendqisi2
 696 013e 0328     		cmp	r0, #3
 697 0140 08D1     		bne	.L134
 698 0142 3549     		ldr	r1, .L191
 699 0144 236B     		ldr	r3, [r4, #48]
 700 0146 0A68     		ldr	r2, [r1, #0]
 701 0148 D01A     		subs	r0, r2, r3
 702 014a 2828     		cmp	r0, #40
 703 014c 0AD9     		bls	.L136
 704 014e 0135     		adds	r5, r5, #1
 705 0150 EDB2     		uxtb	r5, r5
 706 0152 07E0     		b	.L136
 707              	.L134:
 708 0154 0928     		cmp	r0, #9
 709 0156 05D1     		bne	.L136
 710 0158 2F49     		ldr	r1, .L191
 711 015a 236B     		ldr	r3, [r4, #48]
 712 015c 0A68     		ldr	r2, [r1, #0]
 713 015e D01A     		subs	r0, r2, r3
 714 0160 F028     		cmp	r0, #240
 715 0162 00D8     		bhi	.L137
 716              	.L136:
 717 0164 05B3     		cbz	r5, .L138
 718              	.L137:
 719 0166 2046     		mov	r0, r4
 720 0168 FFF7FEFF 		bl	tcp_pcb_purge
 721 016c E068     		ldr	r0, [r4, #12]
 722 016e 0FB1     		cbz	r7, .L139
 723 0170 F860     		str	r0, [r7, #12]
 724 0172 01E0     		b	.L140
 725              	.L139:
 726 0174 2949     		ldr	r1, .L191+4
 727 0176 0860     		str	r0, [r1, #0]
 728              	.L140:
 729 0178 D4F89030 		ldr	r3, [r4, #144]
 730 017c 1BB1     		cbz	r3, .L141
 731 017e 6069     		ldr	r0, [r4, #20]
 732 0180 6FF00401 		mvn	r1, #4
 733 0184 9847     		blx	r3
 734              	.L141:
 735 0186 4EB1     		cbz	r6, .L142
 736 0188 228B     		ldrh	r2, [r4, #24]
 737 018a 0092     		str	r2, [sp, #0]
 738 018c 258C     		ldrh	r5, [r4, #32]
 739 018e 0195     		str	r5, [sp, #4]
 740 0190 A06D     		ldr	r0, [r4, #88]
 741 0192 616A     		ldr	r1, [r4, #36]
 742 0194 2246     		mov	r2, r4
 743 0196 231D     		adds	r3, r4, #4
 744 0198 FFF7FEFF 		bl	tcp_rst
 745              	.L142:
 746 019c E568     		ldr	r5, [r4, #12]
 747 019e 2046     		mov	r0, r4
 748 01a0 FFF7FEFF 		bl	mem_free
 749 01a4 2C46     		mov	r4, r5
 750 01a6 33E7     		b	.L181
 751              	.L138:
 752 01a8 94F83470 		ldrb	r7, [r4, #52]	@ zero_extendqisi2
 753 01ac 94F83520 		ldrb	r2, [r4, #53]	@ zero_extendqisi2
 754 01b0 791C     		adds	r1, r7, #1
 755 01b2 CBB2     		uxtb	r3, r1
 756 01b4 9A42     		cmp	r2, r3
 757 01b6 84F83430 		strb	r3, [r4, #52]
 758 01ba 0DD8     		bhi	.L145
 759 01bc 84F83450 		strb	r5, [r4, #52]
 760 01c0 D4F88C50 		ldr	r5, [r4, #140]
 761 01c4 1DB9     		cbnz	r5, .L146
 762              	.L147:
 763 01c6 2046     		mov	r0, r4
 764 01c8 FFF7FEFF 		bl	tcp_output
 765 01cc 04E0     		b	.L145
 766              	.L146:
 767 01ce 6069     		ldr	r0, [r4, #20]
 768 01d0 2146     		mov	r1, r4
 769 01d2 A847     		blx	r5
 770 01d4 0028     		cmp	r0, #0
 771 01d6 F6D0     		beq	.L147
 772              	.L145:
 773 01d8 2746     		mov	r7, r4
 774 01da E468     		ldr	r4, [r4, #12]
 775 01dc 18E7     		b	.L181
 776              	.L187:
 777 01de 124D     		ldr	r5, .L191+16
 778 01e0 2D68     		ldr	r5, [r5, #0]
 779              	.L182:
 780 01e2 BDB1     		cbz	r5, .L188
 781              	.L154:
 782 01e4 0C4B     		ldr	r3, .L191
 783 01e6 286B     		ldr	r0, [r5, #48]
 784 01e8 1A68     		ldr	r2, [r3, #0]
 785 01ea 111A     		subs	r1, r2, r0
 786 01ec F029     		cmp	r1, #240
 787 01ee 0ED9     		bls	.L189
 788              	.L151:
 789 01f0 2846     		mov	r0, r5
 790 01f2 FFF7FEFF 		bl	tcp_pcb_purge
 791 01f6 EE68     		ldr	r6, [r5, #12]
 792 01f8 0CB1     		cbz	r4, .L190
 793              	.L155:
 794 01fa E660     		str	r6, [r4, #12]
 795 01fc 01E0     		b	.L153
 796              	.L190:
 797 01fe 0A4B     		ldr	r3, .L191+16
 798 0200 1E60     		str	r6, [r3, #0]
 799              	.L153:
 800 0202 EE68     		ldr	r6, [r5, #12]
 801 0204 2846     		mov	r0, r5
 802 0206 FFF7FEFF 		bl	mem_free
 803 020a 3546     		mov	r5, r6
 804 020c E9E7     		b	.L182
 805              	.L189:
 806 020e 2C46     		mov	r4, r5
 807 0210 ED68     		ldr	r5, [r5, #12]
 808 0212 E6E7     		b	.L182
 809              	.L188:
 810 0214 FEBD     		pop	{r1, r2, r3, r4, r5, r6, r7, pc}
 811              	.L192:
 812 0216 00BF     		.align	2
 813              	.L191:
 814 0218 00000000 		.word	tcp_ticks
 815 021c 00000000 		.word	tcp_active_pcbs
 816 0220 00000000 		.word	.LANCHOR1
 817 0224 F8240100 		.word	75000
 818 0228 00000000 		.word	tcp_tw_pcbs
 820              		.section	.text.tcp_pcb_remove,"ax",%progbits
 821              		.align	1
 822              		.global	tcp_pcb_remove
 823              		.thumb
 824              		.thumb_func
 826              	tcp_pcb_remove:
 827              		@ args = 0, pretend = 0, frame = 0
 828              		@ frame_needed = 0, uses_anonymous_args = 0
 829 0000 0368     		ldr	r3, [r0, #0]
 830 0002 8B42     		cmp	r3, r1
 831 0004 10B5     		push	{r4, lr}
 832 0006 0C46     		mov	r4, r1
 833 0008 02D1     		bne	.L194
 834 000a CA68     		ldr	r2, [r1, #12]
 835 000c 0260     		str	r2, [r0, #0]
 836 000e 0CE0     		b	.L195
 837              	.L194:
 838 0010 124A     		ldr	r2, .L210
 839 0012 1360     		str	r3, [r2, #0]
 840              	.L196:
 841 0014 43B1     		cbz	r3, .L209
 842              	.L197:
 843 0016 D968     		ldr	r1, [r3, #12]
 844 0018 A142     		cmp	r1, r4
 845 001a 03D1     		bne	.L199
 846 001c E068     		ldr	r0, [r4, #12]
 847 001e 1360     		str	r3, [r2, #0]
 848 0020 D860     		str	r0, [r3, #12]
 849 0022 02E0     		b	.L195
 850              	.L199:
 851 0024 0B46     		mov	r3, r1
 852 0026 F5E7     		b	.L196
 853              	.L209:
 854 0028 1360     		str	r3, [r2, #0]
 855              	.L195:
 856 002a 0021     		movs	r1, #0
 857 002c E160     		str	r1, [r4, #12]
 858 002e 2046     		mov	r0, r4
 859 0030 FFF7FEFF 		bl	tcp_pcb_purge
 860 0034 237C     		ldrb	r3, [r4, #16]	@ zero_extendqisi2
 861 0036 0A2B     		cmp	r3, #10
 862 0038 0CD0     		beq	.L198
 863 003a 012B     		cmp	r3, #1
 864 003c 0AD0     		beq	.L198
 865 003e 94F82200 		ldrb	r0, [r4, #34]	@ zero_extendqisi2
 866 0042 C207     		lsls	r2, r0, #31
 867 0044 06D5     		bpl	.L198
 868 0046 40F00202 		orr	r2, r0, #2
 869 004a 84F82220 		strb	r2, [r4, #34]
 870 004e 2046     		mov	r0, r4
 871 0050 FFF7FEFF 		bl	tcp_output
 872              	.L198:
 873 0054 0021     		movs	r1, #0
 874 0056 2174     		strb	r1, [r4, #16]
 875 0058 10BD     		pop	{r4, pc}
 876              	.L211:
 877 005a 00BF     		.align	2
 878              	.L210:
 879 005c 00000000 		.word	tcp_tmp_pcb
 881              		.section	.text.tcp_abandon,"ax",%progbits
 882              		.align	1
 883              		.global	tcp_abandon
 884              		.thumb
 885              		.thumb_func
 887              	tcp_abandon:
 888              		@ args = 0, pretend = 0, frame = 8
 889              		@ frame_needed = 0, uses_anonymous_args = 0
 890 0000 2DE9F04F 		push	{r4, r5, r6, r7, r8, r9, sl, fp, lr}
 891 0004 037C     		ldrb	r3, [r0, #16]	@ zero_extendqisi2
 892 0006 0A2B     		cmp	r3, #10
 893 0008 85B0     		sub	sp, sp, #20
 894 000a 0446     		mov	r4, r0
 895 000c 8A46     		mov	sl, r1
 896 000e 07D1     		bne	.L213
 897 0010 1C48     		ldr	r0, .L230
 898 0012 2146     		mov	r1, r4
 899 0014 FFF7FEFF 		bl	tcp_pcb_remove
 900 0018 2046     		mov	r0, r4
 901 001a FFF7FEFF 		bl	mem_free
 902 001e 2EE0     		b	.L212
 903              	.L213:
 904 0020 6168     		ldr	r1, [r4, #4]
 905 0022 876D     		ldr	r7, [r0, #88]
 906 0024 466A     		ldr	r6, [r0, #36]
 907 0026 0068     		ldr	r0, [r0, #0]
 908 0028 0291     		str	r1, [sp, #8]
 909 002a 0390     		str	r0, [sp, #12]
 910 002c 2146     		mov	r1, r4
 911 002e 1648     		ldr	r0, .L230+4
 912 0030 B4F81890 		ldrh	r9, [r4, #24]
 913 0034 B4F82080 		ldrh	r8, [r4, #32]
 914 0038 D4F89050 		ldr	r5, [r4, #144]
 915 003c D4F814B0 		ldr	fp, [r4, #20]
 916 0040 FFF7FEFF 		bl	tcp_pcb_remove
 917 0044 A06F     		ldr	r0, [r4, #120]
 918 0046 08B1     		cbz	r0, .L215
 919 0048 FFF7FEFF 		bl	tcp_segs_free
 920              	.L215:
 921 004c 606F     		ldr	r0, [r4, #116]
 922 004e 08B1     		cbz	r0, .L216
 923 0050 FFF7FEFF 		bl	tcp_segs_free
 924              	.L216:
 925 0054 2046     		mov	r0, r4
 926 0056 FFF7FEFF 		bl	mem_free
 927 005a 1DB1     		cbz	r5, .L217
 928 005c 5846     		mov	r0, fp
 929 005e 6FF00401 		mvn	r1, #4
 930 0062 A847     		blx	r5
 931              	.L217:
 932 0064 BAF1000F 		cmp	sl, #0
 933 0068 09D0     		beq	.L212
 934 006a CDF80090 		str	r9, [sp, #0]
 935 006e CDF80480 		str	r8, [sp, #4]
 936 0072 3846     		mov	r0, r7
 937 0074 3146     		mov	r1, r6
 938 0076 03AA     		add	r2, sp, #12
 939 0078 02AB     		add	r3, sp, #8
 940 007a FFF7FEFF 		bl	tcp_rst
 941              	.L212:
 942 007e 05B0     		add	sp, sp, #20
 943 0080 BDE8F08F 		pop	{r4, r5, r6, r7, r8, r9, sl, fp, pc}
 944              	.L231:
 945              		.align	2
 946              	.L230:
 947 0084 00000000 		.word	tcp_tw_pcbs
 948 0088 00000000 		.word	tcp_active_pcbs
 950              		.section	.text.tcp_close,"ax",%progbits
 951              		.align	1
 952              		.global	tcp_close
 953              		.thumb
 954              		.thumb_func
 956              	tcp_close:
 957              		@ args = 0, pretend = 0, frame = 0
 958              		@ frame_needed = 0, uses_anonymous_args = 0
 959 0000 037C     		ldrb	r3, [r0, #16]	@ zero_extendqisi2
 960 0002 10B5     		push	{r4, lr}
 961 0004 0446     		mov	r4, r0
 962 0006 072B     		cmp	r3, #7
 963 0008 34D8     		bhi	.L251
 964 000a DFE803F0 		tbb	[pc, r3]
 965              	.L240:
 966 000e 04       		.byte	(.L234-.L240)/2
 967 000f 1A       		.byte	(.L235-.L240)/2
 968 0010 1C       		.byte	(.L236-.L240)/2
 969 0011 24       		.byte	(.L238-.L240)/2
 970 0012 24       		.byte	(.L238-.L240)/2
 971 0013 33       		.byte	(.L251-.L240)/2
 972 0014 33       		.byte	(.L251-.L240)/2
 973 0015 2A       		.byte	(.L239-.L240)/2
 974              		.align	1
 975              	.L234:
 976 0016 194A     		ldr	r2, .L257
 977 0018 1368     		ldr	r3, [r2, #0]
 978 001a 8342     		cmp	r3, r0
 979 001c 01D1     		bne	.L241
 980 001e C368     		ldr	r3, [r0, #12]
 981 0020 0BE0     		b	.L250
 982              	.L241:
 983 0022 174A     		ldr	r2, .L257+4
 984 0024 1360     		str	r3, [r2, #0]
 985              	.L243:
 986 0026 43B1     		cbz	r3, .L250
 987              	.L244:
 988 0028 D968     		ldr	r1, [r3, #12]
 989 002a A142     		cmp	r1, r4
 990 002c 03D1     		bne	.L248
 991 002e E068     		ldr	r0, [r4, #12]
 992 0030 1360     		str	r3, [r2, #0]
 993 0032 D860     		str	r0, [r3, #12]
 994 0034 02E0     		b	.L242
 995              	.L248:
 996 0036 0B46     		mov	r3, r1
 997 0038 F5E7     		b	.L243
 998              	.L250:
 999 003a 1360     		str	r3, [r2, #0]
 1000              	.L242:
 1001 003c 0022     		movs	r2, #0
 1002 003e E260     		str	r2, [r4, #12]
 1003 0040 05E0     		b	.L253
 1004              	.L235:
 1005 0042 1048     		ldr	r0, .L257+8
 1006 0044 00E0     		b	.L252
 1007              	.L236:
 1008 0046 1048     		ldr	r0, .L257+12
 1009              	.L252:
 1010 0048 2146     		mov	r1, r4
 1011 004a FFF7FEFF 		bl	tcp_pcb_remove
 1012              	.L253:
 1013 004e 2046     		mov	r0, r4
 1014 0050 FFF7FEFF 		bl	mem_free
 1015 0054 0EE0     		b	.L251
 1016              	.L238:
 1017 0056 0121     		movs	r1, #1
 1018 0058 FFF7FEFF 		bl	tcp_send_ctrl
 1019 005c 58B9     		cbnz	r0, .L247
 1020 005e 0520     		movs	r0, #5
 1021 0060 04E0     		b	.L254
 1022              	.L239:
 1023 0062 0121     		movs	r1, #1
 1024 0064 FFF7FEFF 		bl	tcp_send_ctrl
 1025 0068 28B9     		cbnz	r0, .L247
 1026 006a 0920     		movs	r0, #9
 1027              	.L254:
 1028 006c 2074     		strb	r0, [r4, #16]
 1029 006e 2046     		mov	r0, r4
 1030 0070 FFF7FEFF 		bl	tcp_output
 1031              	.L251:
 1032 0074 0020     		movs	r0, #0
 1033              	.L247:
 1034 0076 40B2     		sxtb	r0, r0
 1035 0078 10BD     		pop	{r4, pc}
 1036              	.L258:
 1037 007a 00BF     		.align	2
 1038              	.L257:
 1039 007c 00000000 		.word	tcp_bound_pcbs
 1040 0080 00000000 		.word	tcp_tmp_pcb
 1041 0084 00000000 		.word	tcp_listen_pcbs
 1042 0088 00000000 		.word	tcp_active_pcbs
 1044              		.section	.text.tcp_recv_null,"ax",%progbits
 1045              		.align	1
 1046              		.global	tcp_recv_null
 1047              		.thumb
 1048              		.thumb_func
 1050              	tcp_recv_null:
 1051              		@ args = 0, pretend = 0, frame = 0
 1052              		@ frame_needed = 0, uses_anonymous_args = 0
 1053 0000 10B5     		push	{r4, lr}
 1054 0002 0846     		mov	r0, r1
 1055 0004 1446     		mov	r4, r2
 1056 0006 32B1     		cbz	r2, .L260
 1057 0008 1189     		ldrh	r1, [r2, #8]
 1058 000a FFF7FEFF 		bl	tcp_recved
 1059 000e 2046     		mov	r0, r4
 1060 0010 FFF7FEFF 		bl	pbuf_free
 1061 0014 04E0     		b	.L261
 1062              	.L260:
 1063 0016 1BB9     		cbnz	r3, .L261
 1064 0018 BDE81040 		pop	{r4, lr}
 1065 001c FFF7FEBF 		b	tcp_close
 1066              	.L261:
 1067 0020 0020     		movs	r0, #0
 1068 0022 10BD     		pop	{r4, pc}
 1070              		.section	.text.tcp_fasttmr,"ax",%progbits
 1071              		.align	1
 1072              		.global	tcp_fasttmr
 1073              		.thumb
 1074              		.thumb_func
 1076              	tcp_fasttmr:
 1077              		@ args = 0, pretend = 0, frame = 0
 1078              		@ frame_needed = 0, uses_anonymous_args = 0
 1079 0000 38B5     		push	{r3, r4, r5, lr}
 1080 0002 144B     		ldr	r3, .L276
 1081 0004 1C68     		ldr	r4, [r3, #0]
 1082              	.L264:
 1083 0006 1CB3     		cbz	r4, .L275
 1084              	.L271:
 1085 0008 E26F     		ldr	r2, [r4, #124]
 1086 000a 72B1     		cbz	r2, .L266
 1087 000c D4F88450 		ldr	r5, [r4, #132]
 1088 0010 25B1     		cbz	r5, .L267
 1089 0012 6069     		ldr	r0, [r4, #20]
 1090 0014 2146     		mov	r1, r4
 1091 0016 0023     		movs	r3, #0
 1092 0018 A847     		blx	r5
 1093 001a 04E0     		b	.L268
 1094              	.L267:
 1095 001c 2846     		mov	r0, r5
 1096 001e 2146     		mov	r1, r4
 1097 0020 2B46     		mov	r3, r5
 1098 0022 FFF7FEFF 		bl	tcp_recv_null
 1099              	.L268:
 1100 0026 00B9     		cbnz	r0, .L266
 1101 0028 E067     		str	r0, [r4, #124]
 1102              	.L266:
 1103 002a 94F82200 		ldrb	r0, [r4, #34]	@ zero_extendqisi2
 1104 002e C107     		lsls	r1, r0, #31
 1105 0030 0CD5     		bpl	.L270
 1106 0032 40F00201 		orr	r1, r0, #2
 1107 0036 84F82210 		strb	r1, [r4, #34]
 1108 003a 2046     		mov	r0, r4
 1109 003c FFF7FEFF 		bl	tcp_output
 1110 0040 94F82220 		ldrb	r2, [r4, #34]	@ zero_extendqisi2
 1111 0044 22F00303 		bic	r3, r2, #3
 1112 0048 84F82230 		strb	r3, [r4, #34]
 1113              	.L270:
 1114 004c E468     		ldr	r4, [r4, #12]
 1115 004e DAE7     		b	.L264
 1116              	.L275:
 1117 0050 38BD     		pop	{r3, r4, r5, pc}
 1118              	.L277:
 1119 0052 00BF     		.align	2
 1120              	.L276:
 1121 0054 00000000 		.word	tcp_active_pcbs
 1123              		.section	.text.tcp_tmr,"ax",%progbits
 1124              		.align	1
 1125              		.global	tcp_tmr
 1126              		.thumb
 1127              		.thumb_func
 1129              	tcp_tmr:
 1130              		@ args = 0, pretend = 0, frame = 0
 1131              		@ frame_needed = 0, uses_anonymous_args = 0
 1132 0000 08B5     		push	{r3, lr}
 1133 0002 FFF7FEFF 		bl	tcp_fasttmr
 1134 0006 064A     		ldr	r2, .L280
 1135 0008 1378     		ldrb	r3, [r2, #0]	@ zero_extendqisi2
 1136 000a 581C     		adds	r0, r3, #1
 1137 000c C1B2     		uxtb	r1, r0
 1138 000e C807     		lsls	r0, r1, #31
 1139 0010 1170     		strb	r1, [r2, #0]
 1140 0012 03D5     		bpl	.L278
 1141 0014 BDE80840 		pop	{r3, lr}
 1142 0018 FFF7FEBF 		b	tcp_slowtmr
 1143              	.L278:
 1144 001c 08BD     		pop	{r3, pc}
 1145              	.L281:
 1146 001e 00BF     		.align	2
 1147              	.L280:
 1148 0020 00000000 		.word	.LANCHOR2
 1150              		.section	.text.tcp_next_iss,"ax",%progbits
 1151              		.align	1
 1152              		.global	tcp_next_iss
 1153              		.thumb
 1154              		.thumb_func
 1156              	tcp_next_iss:
 1157              		@ args = 0, pretend = 0, frame = 0
 1158              		@ frame_needed = 0, uses_anonymous_args = 0
 1159              		@ link register save eliminated.
 1160 0000 034B     		ldr	r3, .L283
 1161 0002 044A     		ldr	r2, .L283+4
 1162 0004 5968     		ldr	r1, [r3, #4]
 1163 0006 1068     		ldr	r0, [r2, #0]
 1164 0008 4018     		adds	r0, r0, r1
 1165 000a 5860     		str	r0, [r3, #4]
 1166 000c 7047     		bx	lr
 1167              	.L284:
 1168 000e 00BF     		.align	2
 1169              	.L283:
 1170 0010 00000000 		.word	.LANCHOR0
 1171 0014 00000000 		.word	tcp_ticks
 1173              		.section	.text.tcp_alloc,"ax",%progbits
 1174              		.align	1
 1175              		.global	tcp_alloc
 1176              		.thumb
 1177              		.thumb_func
 1179              	tcp_alloc:
 1180              		@ args = 0, pretend = 0, frame = 0
 1181              		@ frame_needed = 0, uses_anonymous_args = 0
 1182 0000 F8B5     		push	{r3, r4, r5, r6, r7, lr}
 1183 0002 3E4B     		ldr	r3, .L310
 1184 0004 9D88     		ldrh	r5, [r3, #4]
 1185 0006 0646     		mov	r6, r0
 1186 0008 2846     		mov	r0, r5
 1187 000a FFF7FEFF 		bl	mem_malloc
 1188 000e 0446     		mov	r4, r0
 1189 0010 0028     		cmp	r0, #0
 1190 0012 39D1     		bne	.L296
 1191 0014 3A4A     		ldr	r2, .L310+4
 1192 0016 3B48     		ldr	r0, .L310+8
 1193 0018 1168     		ldr	r1, [r2, #0]
 1194 001a 0368     		ldr	r3, [r0, #0]
 1195 001c 2046     		mov	r0, r4
 1196              	.L287:
 1197 001e 43B1     		cbz	r3, .L308
 1198              	.L289:
 1199 0020 1A6B     		ldr	r2, [r3, #48]
 1200 0022 8A1A     		subs	r2, r1, r2
 1201 0024 A242     		cmp	r2, r4
 1202 0026 34BF     		ite	cc
 1203 0028 2246     		movcc	r2, r4
 1204 002a 1846     		movcs	r0, r3
 1205 002c 1446     		mov	r4, r2
 1206 002e DB68     		ldr	r3, [r3, #12]
 1207 0030 F5E7     		b	.L287
 1208              	.L308:
 1209 0032 10B1     		cbz	r0, .L290
 1210 0034 0121     		movs	r1, #1
 1211 0036 FFF7FEFF 		bl	tcp_abandon
 1212              	.L290:
 1213 003a 2846     		mov	r0, r5
 1214 003c FFF7FEFF 		bl	mem_malloc
 1215 0040 0446     		mov	r4, r0
 1216 0042 08BB     		cbnz	r0, .L296
 1217 0044 3049     		ldr	r1, .L310+12
 1218 0046 2E48     		ldr	r0, .L310+4
 1219 0048 0B68     		ldr	r3, [r1, #0]
 1220 004a D0F800E0 		ldr	lr, [r0, #0]
 1221 004e 2246     		mov	r2, r4
 1222 0050 7F20     		movs	r0, #127
 1223              	.L291:
 1224 0052 73B1     		cbz	r3, .L309
 1225              	.L293:
 1226 0054 597C     		ldrb	r1, [r3, #17]	@ zero_extendqisi2
 1227 0056 B142     		cmp	r1, r6
 1228 0058 09D8     		bhi	.L292
 1229 005a 8142     		cmp	r1, r0
 1230 005c 07D8     		bhi	.L292
 1231 005e 1F6B     		ldr	r7, [r3, #48]
 1232 0060 C7EB0E07 		rsb	r7, r7, lr
 1233 0064 A742     		cmp	r7, r4
 1234 0066 02D3     		bcc	.L292
 1235 0068 0846     		mov	r0, r1
 1236 006a 3C46     		mov	r4, r7
 1237 006c 1A46     		mov	r2, r3
 1238              	.L292:
 1239 006e DB68     		ldr	r3, [r3, #12]
 1240 0070 EFE7     		b	.L291
 1241              	.L309:
 1242 0072 1AB1     		cbz	r2, .L294
 1243 0074 1046     		mov	r0, r2
 1244 0076 0121     		movs	r1, #1
 1245 0078 FFF7FEFF 		bl	tcp_abandon
 1246              	.L294:
 1247 007c 2846     		mov	r0, r5
 1248 007e FFF7FEFF 		bl	mem_malloc
 1249 0082 0446     		mov	r4, r0
 1250 0084 0028     		cmp	r0, #0
 1251 0086 36D0     		beq	.L295
 1252              	.L296:
 1253 0088 0021     		movs	r1, #0
 1254 008a A022     		movs	r2, #160
 1255 008c 2046     		mov	r0, r4
 1256 008e FFF7FEFF 		bl	memset
 1257 0092 4025     		movs	r5, #64
 1258 0094 0023     		movs	r3, #0
 1259 0096 40F64C32 		movw	r2, #2892
 1260 009a FF21     		movs	r1, #255
 1261 009c 6574     		strb	r5, [r4, #17]
 1262 009e A4F86E20 		strh	r2, [r4, #110]	@ movhi
 1263 00a2 1D46     		mov	r5, r3	@ movhi
 1264 00a4 A4F87030 		strh	r3, [r4, #112]	@ movhi
 1265 00a8 2285     		strh	r2, [r4, #40]	@ movhi
 1266 00aa 6285     		strh	r2, [r4, #42]	@ movhi
 1267 00ac A372     		strb	r3, [r4, #10]
 1268 00ae 0622     		movs	r2, #6
 1269 00b0 E172     		strb	r1, [r4, #11]
 1270 00b2 4FF40670 		mov	r0, #536
 1271 00b6 0121     		movs	r1, #1
 1272 00b8 A4F84430 		strh	r3, [r4, #68]	@ movhi
 1273 00bc 4FF6FF73 		movw	r3, #65535
 1274 00c0 A4F84820 		strh	r2, [r4, #72]	@ movhi
 1275 00c4 A4F84620 		strh	r2, [r4, #70]	@ movhi
 1276 00c8 E386     		strh	r3, [r4, #54]	@ movhi
 1277 00ca A4F85210 		strh	r1, [r4, #82]	@ movhi
 1278 00ce 2087     		strh	r0, [r4, #56]	@ movhi
 1279 00d0 FFF7FEFF 		bl	tcp_next_iss
 1280 00d4 6066     		str	r0, [r4, #100]
 1281 00d6 A065     		str	r0, [r4, #88]
 1282 00d8 E064     		str	r0, [r4, #76]
 1283 00da A066     		str	r0, [r4, #104]
 1284 00dc 0848     		ldr	r0, .L310+4
 1285 00de 0B4B     		ldr	r3, .L310+16
 1286 00e0 0268     		ldr	r2, [r0, #0]
 1287 00e2 0B49     		ldr	r1, .L310+20
 1288 00e4 2263     		str	r2, [r4, #48]
 1289 00e6 84F83450 		strb	r5, [r4, #52]
 1290 00ea C4F88430 		str	r3, [r4, #132]
 1291 00ee C4F89410 		str	r1, [r4, #148]
 1292 00f2 84F89D50 		strb	r5, [r4, #157]
 1293              	.L295:
 1294 00f6 2046     		mov	r0, r4
 1295 00f8 F8BD     		pop	{r3, r4, r5, r6, r7, pc}
 1296              	.L311:
 1297 00fa 00BF     		.align	2
 1298              	.L310:
 1299 00fc 00000000 		.word	memp_sizes
 1300 0100 00000000 		.word	tcp_ticks
 1301 0104 00000000 		.word	tcp_tw_pcbs
 1302 0108 00000000 		.word	tcp_active_pcbs
 1303 010c 00000000 		.word	tcp_recv_null
 1304 0110 00DD6D00 		.word	7200000
 1306              		.section	.text.tcp_new,"ax",%progbits
 1307              		.align	1
 1308              		.global	tcp_new
 1309              		.thumb
 1310              		.thumb_func
 1312              	tcp_new:
 1313              		@ args = 0, pretend = 0, frame = 0
 1314              		@ frame_needed = 0, uses_anonymous_args = 0
 1315              		@ link register save eliminated.
 1316 0000 4020     		movs	r0, #64
 1317 0002 FFF7FEBF 		b	tcp_alloc
 1319              		.section	.text.tcp_eff_send_mss,"ax",%progbits
 1320              		.align	1
 1321              		.global	tcp_eff_send_mss
 1322              		.thumb
 1323              		.thumb_func
 1325              	tcp_eff_send_mss:
 1326              		@ args = 0, pretend = 0, frame = 0
 1327              		@ frame_needed = 0, uses_anonymous_args = 0
 1328 0000 10B5     		push	{r4, lr}
 1329 0002 0446     		mov	r4, r0
 1330 0004 0846     		mov	r0, r1
 1331 0006 FFF7FEFF 		bl	ip_route
 1332 000a 30B1     		cbz	r0, .L314
 1333 000c 038C     		ldrh	r3, [r0, #32]
 1334 000e 23B1     		cbz	r3, .L314
 1335 0010 283B     		subs	r3, r3, #40
 1336 0012 98B2     		uxth	r0, r3
 1337 0014 8442     		cmp	r4, r0
 1338 0016 28BF     		it	cs
 1339 0018 0446     		movcs	r4, r0
 1340              	.L314:
 1341 001a 2046     		mov	r0, r4
 1342 001c 10BD     		pop	{r4, pc}
 1344              		.section	.text.tcp_connect,"ax",%progbits
 1345              		.align	1
 1346              		.global	tcp_connect
 1347              		.thumb
 1348              		.thumb_func
 1350              	tcp_connect:
 1351              		@ args = 0, pretend = 0, frame = 0
 1352              		@ frame_needed = 0, uses_anonymous_args = 0
 1353 0000 73B5     		push	{r0, r1, r4, r5, r6, lr}
 1354 0002 1E46     		mov	r6, r3
 1355 0004 037C     		ldrb	r3, [r0, #16]	@ zero_extendqisi2
 1356 0006 0446     		mov	r4, r0
 1357 0008 0D46     		mov	r5, r1
 1358 000a 002B     		cmp	r3, #0
 1359 000c 50D1     		bne	.L328
 1360 000e 0029     		cmp	r1, #0
 1361 0010 50D0     		beq	.L329
 1362 0012 0868     		ldr	r0, [r1, #0]	@ unaligned
 1363 0014 218B     		ldrh	r1, [r4, #24]
 1364 0016 6060     		str	r0, [r4, #4]	@ unaligned
 1365 0018 2284     		strh	r2, [r4, #32]	@ movhi
 1366 001a 11B9     		cbnz	r1, .L323
 1367 001c FFF7FEFF 		bl	tcp_new_port
 1368 0020 2083     		strh	r0, [r4, #24]	@ movhi
 1369              	.L323:
 1370 0022 FFF7FEFF 		bl	tcp_next_iss
 1371 0026 421E     		subs	r2, r0, #1
 1372 0028 A065     		str	r0, [r4, #88]
 1373 002a 40F64C30 		movw	r0, #2892
 1374 002e 0023     		movs	r3, #0
 1375 0030 2085     		strh	r0, [r4, #40]	@ movhi
 1376 0032 6085     		strh	r0, [r4, #42]	@ movhi
 1377 0034 A4F85C00 		strh	r0, [r4, #92]	@ movhi
 1378 0038 4FF40670 		mov	r0, #536
 1379 003c 2946     		mov	r1, r5
 1380 003e 6362     		str	r3, [r4, #36]
 1381 0040 E264     		str	r2, [r4, #76]
 1382 0042 A266     		str	r2, [r4, #104]
 1383 0044 E362     		str	r3, [r4, #44]
 1384 0046 2087     		strh	r0, [r4, #56]	@ movhi
 1385 0048 FFF7FEFF 		bl	tcp_eff_send_mss
 1386 004c 1B4A     		ldr	r2, .L332
 1387 004e 2087     		strh	r0, [r4, #56]	@ movhi
 1388 0050 0125     		movs	r5, #1
 1389 0052 A4F85250 		strh	r5, [r4, #82]	@ movhi
 1390 0056 1568     		ldr	r5, [r2, #0]
 1391 0058 C4F88860 		str	r6, [r4, #136]
 1392 005c 0A21     		movs	r1, #10
 1393 005e 4843     		muls	r0, r1, r0
 1394 0060 0223     		movs	r3, #2
 1395 0062 A542     		cmp	r5, r4
 1396 0064 A4F85400 		strh	r0, [r4, #84]	@ movhi
 1397 0068 2374     		strb	r3, [r4, #16]
 1398 006a 01D1     		bne	.L324
 1399 006c E568     		ldr	r5, [r4, #12]
 1400 006e 0BE0     		b	.L331
 1401              	.L324:
 1402 0070 134A     		ldr	r2, .L332+4
 1403 0072 1560     		str	r5, [r2, #0]
 1404              	.L326:
 1405 0074 45B1     		cbz	r5, .L331
 1406              	.L327:
 1407 0076 E868     		ldr	r0, [r5, #12]
 1408 0078 A042     		cmp	r0, r4
 1409 007a 03D1     		bne	.L330
 1410 007c E168     		ldr	r1, [r4, #12]
 1411 007e 1560     		str	r5, [r2, #0]
 1412 0080 E960     		str	r1, [r5, #12]
 1413 0082 02E0     		b	.L325
 1414              	.L330:
 1415 0084 0546     		mov	r5, r0
 1416 0086 F5E7     		b	.L326
 1417              	.L331:
 1418 0088 1560     		str	r5, [r2, #0]
 1419              	.L325:
 1420 008a 0E4B     		ldr	r3, .L332+8
 1421 008c 1A68     		ldr	r2, [r3, #0]
 1422 008e 1C60     		str	r4, [r3, #0]
 1423 0090 0021     		movs	r1, #0
 1424 0092 0123     		movs	r3, #1
 1425 0094 E260     		str	r2, [r4, #12]
 1426 0096 8DE80A00 		stmia	sp, {r1, r3}
 1427 009a 2046     		mov	r0, r4
 1428 009c 0A46     		mov	r2, r1
 1429 009e 0223     		movs	r3, #2
 1430 00a0 FFF7FEFF 		bl	tcp_enqueue
 1431 00a4 0546     		mov	r5, r0
 1432 00a6 30B9     		cbnz	r0, .L322
 1433 00a8 2046     		mov	r0, r4
 1434 00aa FFF7FEFF 		bl	tcp_output
 1435 00ae 02E0     		b	.L322
 1436              	.L328:
 1437 00b0 F325     		movs	r5, #243
 1438 00b2 00E0     		b	.L322
 1439              	.L329:
 1440 00b4 F725     		movs	r5, #247
 1441              	.L322:
 1442 00b6 68B2     		sxtb	r0, r5
 1443 00b8 7CBD     		pop	{r2, r3, r4, r5, r6, pc}
 1444              	.L333:
 1445 00ba 00BF     		.align	2
 1446              	.L332:
 1447 00bc 00000000 		.word	tcp_bound_pcbs
 1448 00c0 00000000 		.word	tcp_tmp_pcb
 1449 00c4 00000000 		.word	tcp_active_pcbs
 1451              		.section	.text.tcp_debug_state_str,"ax",%progbits
 1452              		.align	1
 1453              		.global	tcp_debug_state_str
 1454              		.thumb
 1455              		.thumb_func
 1457              	tcp_debug_state_str:
 1458              		@ args = 0, pretend = 0, frame = 0
 1459              		@ frame_needed = 0, uses_anonymous_args = 0
 1460              		@ link register save eliminated.
 1461 0000 024B     		ldr	r3, .L335
 1462 0002 03EB8000 		add	r0, r3, r0, lsl #2
 1463 0006 8068     		ldr	r0, [r0, #8]
 1464 0008 7047     		bx	lr
 1465              	.L336:
 1466 000a 00BF     		.align	2
 1467              	.L335:
 1468 000c 00000000 		.word	.LANCHOR0
 1470              		.comm	tcp_tmp_pcb,4,4
 1471              		.comm	tcp_tw_pcbs,4,4
 1472              		.comm	tcp_active_pcbs,4,4
 1473              		.comm	tcp_listen_pcbs,4,4
 1474              		.comm	tcp_bound_pcbs,4,4
 1475              		.global	tcp_persist_backoff
 1476              		.global	tcp_backoff
 1477              		.comm	tcp_ticks,4,4
 1478              		.global	tcp_state_str
 1479              		.section	.rodata
 1480              		.set	.LANCHOR1,. + 0
 1483              	tcp_persist_backoff:
 1484 0000 03       		.byte	3
 1485 0001 06       		.byte	6
 1486 0002 0C       		.byte	12
 1487 0003 18       		.byte	24
 1488 0004 30       		.byte	48
 1489 0005 60       		.byte	96
 1490 0006 78       		.byte	120
 1493              	tcp_backoff:
 1494 0007 01       		.byte	1
 1495 0008 02       		.byte	2
 1496 0009 03       		.byte	3
 1497 000a 04       		.byte	4
 1498 000b 05       		.byte	5
 1499 000c 06       		.byte	6
 1500 000d 07       		.byte	7
 1501 000e 07       		.byte	7
 1502 000f 07       		.byte	7
 1503 0010 07       		.byte	7
 1504 0011 07       		.byte	7
 1505 0012 07       		.byte	7
 1506 0013 07       		.byte	7
 1507              		.section	.rodata.str1.1,"aMS",%progbits,1
 1508              	.LC0:
 1509 0000 434C4F53 		.ascii	"CLOSED\000"
 1509      454400
 1510              	.LC1:
 1511 0007 4C495354 		.ascii	"LISTEN\000"
 1511      454E00
 1512              	.LC2:
 1513 000e 53594E5F 		.ascii	"SYN_SENT\000"
 1513      53454E54 
 1513      00
 1514              	.LC3:
 1515 0017 53594E5F 		.ascii	"SYN_RCVD\000"
 1515      52435644 
 1515      00
 1516              	.LC4:
 1517 0020 45535441 		.ascii	"ESTABLISHED\000"
 1517      424C4953 
 1517      48454400 
 1518              	.LC5:
 1519 002c 46494E5F 		.ascii	"FIN_WAIT_1\000"
 1519      57414954 
 1519      5F3100
 1520              	.LC6:
 1521 0037 46494E5F 		.ascii	"FIN_WAIT_2\000"
 1521      57414954 
 1521      5F3200
 1522              	.LC7:
 1523 0042 434C4F53 		.ascii	"CLOSE_WAIT\000"
 1523      455F5741 
 1523      495400
 1524              	.LC8:
 1525 004d 434C4F53 		.ascii	"CLOSING\000"
 1525      494E4700 
 1526              	.LC9:
 1527 0055 4C415354 		.ascii	"LAST_ACK\000"
 1527      5F41434B 
 1527      00
 1528              	.LC10:
 1529 005e 54494D45 		.ascii	"TIME_WAIT\000"
 1529      5F574149 
 1529      5400
 1530              		.data
 1531              		.align	2
 1532              		.set	.LANCHOR0,. + 0
 1535              	port.5104:
 1536 0000 0010     		.short	4096
 1537 0002 0000     		.space	2
 1540              	iss.5266:
 1541 0004 6E190000 		.word	6510
 1544              	tcp_state_str:
 1545 0008 00000000 		.word	.LC0
 1546 000c 07000000 		.word	.LC1
 1547 0010 0E000000 		.word	.LC2
 1548 0014 17000000 		.word	.LC3
 1549 0018 20000000 		.word	.LC4
 1550 001c 2C000000 		.word	.LC5
 1551 0020 37000000 		.word	.LC6
 1552 0024 42000000 		.word	.LC7
 1553 0028 4D000000 		.word	.LC8
 1554 002c 55000000 		.word	.LC9
 1555 0030 5E000000 		.word	.LC10
 1556              		.bss
 1557              		.set	.LANCHOR2,. + 0
 1560              	tcp_timer:
 1561 0000 00       		.space	1
 1562              		.ident	"GCC: (GNU Tools for ARM Embedded Processors) 4.7.4 20130913 (release) [ARM/embedded-4_7-br