   1              		.syntax unified
   2              		.cpu cortex-m4
   3              		.eabi_attribute 27, 3
   4              		.fpu fpv4-sp-d16
   5              		.eabi_attribute 20, 1
   6              		.eabi_attribute 21, 1
   7              		.eabi_attribute 23, 3
   8              		.eabi_attribute 24, 1
   9              		.eabi_attribute 25, 1
  10              		.eabi_attribute 26, 1
  11              		.eabi_attribute 30, 4
  12              		.eabi_attribute 34, 1
  13              		.eabi_attribute 18, 4
  14              		.thumb
  15              		.file	"udp.c"
  16              		.section	.text.udp_input,"ax",%progbits
  17              		.align	1
  18              		.global	udp_input
  19              		.thumb
  20              		.thumb_func
  22              	udp_input:
  23              		@ args = 0, pretend = 0, frame = 8
  24              		@ frame_needed = 0, uses_anonymous_args = 0
  25 0000 2DE9F04F 		push	{r4, r5, r6, r7, r8, r9, sl, fp, lr}
  26 0004 4568     		ldr	r5, [r0, #4]
  27 0006 0489     		ldrh	r4, [r0, #8]
  28 0008 85B0     		sub	sp, sp, #20
  29 000a 0646     		mov	r6, r0
  30 000c 2888     		ldrh	r0, [r5, #0]	@ unaligned
  31 000e 8B46     		mov	fp, r1
  32 0010 FFF7FEFF 		bl	ntohs
  33 0014 C0F30320 		ubfx	r0, r0, #8, #4
  34 0018 811C     		adds	r1, r0, #2
  35 001a B4EB810F 		cmp	r4, r1, lsl #2
  36 001e 0BDB     		blt	.L3
  37 0020 2888     		ldrh	r0, [r5, #0]	@ unaligned
  38 0022 FFF7FEFF 		bl	ntohs
  39 0026 C0F30322 		ubfx	r2, r0, #8, #4
  40 002a 9300     		lsls	r3, r2, #2
  41 002c 3046     		mov	r0, r6
  42 002e 5942     		negs	r1, r3
  43 0030 FFF7FEFF 		bl	pbuf_header
  44 0034 0746     		mov	r7, r0
  45 0036 28B1     		cbz	r0, .L30
  46              	.L3:
  47 0038 3046     		mov	r0, r6
  48 003a 05B0     		add	sp, sp, #20
  49 003c BDE8F04F 		pop	{r4, r5, r6, r7, r8, r9, sl, fp, lr}
  50 0040 FFF7FEBF 		b	pbuf_free
  51              	.L30:
  52 0044 5946     		mov	r1, fp
  53 0046 05F11000 		add	r0, r5, #16
  54 004a 7468     		ldr	r4, [r6, #4]
  55 004c FFF7FEFF 		bl	ip_addr_isbroadcast
  56 0050 8046     		mov	r8, r0
  57 0052 2088     		ldrh	r0, [r4, #0]	@ unaligned
  58 0054 FFF7FEFF 		bl	ntohs
  59 0058 8246     		mov	sl, r0
  60 005a 6088     		ldrh	r0, [r4, #2]	@ unaligned
  61 005c FFF7FEFF 		bl	ntohs
  62 0060 0246     		mov	r2, r0
  63 0062 4148     		ldr	r0, .L34
  64 0064 0468     		ldr	r4, [r0, #0]
  65 0066 B946     		mov	r9, r7
  66              	.L6:
  67 0068 002C     		cmp	r4, #0
  68 006a 36D0     		beq	.L33
  69              	.L17:
  70 006c 638A     		ldrh	r3, [r4, #18]
  71 006e 9342     		cmp	r3, r2
  72 0070 30D1     		bne	.L16
  73 0072 B8F1000F 		cmp	r8, #0
  74 0076 0BD1     		bne	.L8
  75 0078 2068     		ldr	r0, [r4, #0]
  76 007a 48B9     		cbnz	r0, .L8
  77              	.L11:
  78 007c 0FBB     		cbnz	r7, .L10
  79 007e 277C     		ldrb	r7, [r4, #16]	@ zero_extendqisi2
  80 0080 07F00400 		and	r0, r7, #4
  81 0084 C1B2     		uxtb	r1, r0
  82 0086 0029     		cmp	r1, #0
  83 0088 0CBF     		ite	eq
  84 008a 2746     		moveq	r7, r4
  85 008c 0027     		movne	r7, #0
  86 008e 18E0     		b	.L10
  87              	.L8:
  88 0090 2B69     		ldr	r3, [r5, #16]	@ unaligned
  89 0092 2168     		ldr	r1, [r4, #0]
  90 0094 9942     		cmp	r1, r3
  91 0096 F1D0     		beq	.L11
  92 0098 4FF07040 		mov	r0, #-268435456
  93 009c 0293     		str	r3, [sp, #8]
  94 009e 0392     		str	r2, [sp, #12]
  95 00a0 FFF7FEFF 		bl	ntohl
  96 00a4 029A     		ldr	r2, [sp, #8]
  97 00a6 0240     		ands	r2, r2, r0
  98 00a8 4FF06040 		mov	r0, #-536870912
  99 00ac 0292     		str	r2, [sp, #8]
 100 00ae FFF7FEFF 		bl	ntohl
 101 00b2 029B     		ldr	r3, [sp, #8]
 102 00b4 039A     		ldr	r2, [sp, #12]
 103 00b6 8342     		cmp	r3, r0
 104 00b8 E0D0     		beq	.L11
 105 00ba B8F1000F 		cmp	r8, #0
 106 00be DDD1     		bne	.L11
 107 00c0 08E0     		b	.L16
 108              	.L10:
 109 00c2 A38A     		ldrh	r3, [r4, #20]
 110 00c4 5345     		cmp	r3, sl
 111 00c6 05D1     		bne	.L16
 112 00c8 6068     		ldr	r0, [r4, #4]
 113 00ca 0028     		cmp	r0, #0
 114 00cc 41D0     		beq	.L15
 115              	.L12:
 116 00ce E968     		ldr	r1, [r5, #12]	@ unaligned
 117 00d0 8842     		cmp	r0, r1
 118 00d2 3ED0     		beq	.L15
 119              	.L16:
 120 00d4 A146     		mov	r9, r4
 121 00d6 E468     		ldr	r4, [r4, #12]
 122 00d8 C6E7     		b	.L6
 123              	.L33:
 124 00da 2FB9     		cbnz	r7, .L26
 125 00dc 2969     		ldr	r1, [r5, #16]	@ unaligned
 126 00de DBF80420 		ldr	r2, [fp, #4]
 127 00e2 8A42     		cmp	r2, r1
 128 00e4 A8D1     		bne	.L3
 129 00e6 00E0     		b	.L22
 130              	.L26:
 131 00e8 3C46     		mov	r4, r7
 132              	.L22:
 133 00ea 3046     		mov	r0, r6
 134 00ec 6FF00701 		mvn	r1, #7
 135 00f0 FFF7FEFF 		bl	pbuf_header
 136 00f4 0028     		cmp	r0, #0
 137 00f6 9FD1     		bne	.L3
 138 00f8 6CB1     		cbz	r4, .L19
 139 00fa E769     		ldr	r7, [r4, #28]
 140 00fc 002F     		cmp	r7, #0
 141 00fe 9BD0     		beq	.L3
 142              	.L20:
 143 0100 CDF800A0 		str	sl, [sp, #0]
 144 0104 206A     		ldr	r0, [r4, #32]
 145 0106 2146     		mov	r1, r4
 146 0108 3246     		mov	r2, r6
 147 010a 05F10C03 		add	r3, r5, #12
 148 010e B847     		blx	r7
 149 0110 05B0     		add	sp, sp, #20
 150 0112 BDE8F08F 		pop	{r4, r5, r6, r7, r8, r9, sl, fp, pc}
 151              	.L19:
 152 0116 B8F1000F 		cmp	r8, #0
 153 011a 8DD1     		bne	.L3
 154 011c 4FF07040 		mov	r0, #-268435456
 155 0120 2C69     		ldr	r4, [r5, #16]	@ unaligned
 156 0122 FFF7FEFF 		bl	ntohl
 157 0126 0440     		ands	r4, r4, r0
 158 0128 4FF06040 		mov	r0, #-536870912
 159 012c FFF7FEFF 		bl	ntohl
 160 0130 8442     		cmp	r4, r0
 161 0132 81D0     		beq	.L3
 162 0134 2888     		ldrh	r0, [r5, #0]	@ unaligned
 163 0136 FFF7FEFF 		bl	ntohs
 164 013a C0F30321 		ubfx	r1, r0, #8, #4
 165 013e 8B1C     		adds	r3, r1, #2
 166 0140 9900     		lsls	r1, r3, #2
 167 0142 3046     		mov	r0, r6
 168 0144 FFF7FEFF 		bl	pbuf_header
 169 0148 3046     		mov	r0, r6
 170 014a 0321     		movs	r1, #3
 171 014c FFF7FEFF 		bl	icmp_dest_unreach
 172 0150 72E7     		b	.L3
 173              	.L15:
 174 0152 B9F1000F 		cmp	r9, #0
 175 0156 C8D0     		beq	.L22
 176              	.L13:
 177 0158 0348     		ldr	r0, .L34
 178 015a E368     		ldr	r3, [r4, #12]
 179 015c 0268     		ldr	r2, [r0, #0]
 180 015e C9F80C30 		str	r3, [r9, #12]
 181 0162 0460     		str	r4, [r0, #0]
 182 0164 E260     		str	r2, [r4, #12]
 183 0166 C0E7     		b	.L22
 184              	.L35:
 185              		.align	2
 186              	.L34:
 187 0168 00000000 		.word	udp_pcbs
 189              		.section	.text.udp_bind,"ax",%progbits
 190              		.align	1
 191              		.global	udp_bind
 192              		.thumb
 193              		.thumb_func
 195              	udp_bind:
 196              		@ args = 0, pretend = 0, frame = 0
 197              		@ frame_needed = 0, uses_anonymous_args = 0
 198 0000 144B     		ldr	r3, .L57
 199 0002 30B5     		push	{r4, r5, lr}
 200 0004 1D68     		ldr	r5, [r3, #0]
 201 0006 0024     		movs	r4, #0
 202 0008 2B46     		mov	r3, r5
 203              	.L37:
 204 000a 23B1     		cbz	r3, .L55
 205              	.L39:
 206 000c 9842     		cmp	r0, r3
 207 000e 08BF     		it	eq
 208 0010 0124     		moveq	r4, #1
 209 0012 DB68     		ldr	r3, [r3, #12]
 210 0014 F9E7     		b	.L37
 211              	.L55:
 212 0016 01B1     		cbz	r1, .L40
 213 0018 0968     		ldr	r1, [r1, #0]	@ unaligned
 214              	.L40:
 215 001a 0160     		str	r1, [r0, #0]
 216 001c 92B9     		cbnz	r2, .L42
 217              	.L49:
 218 001e 2B46     		mov	r3, r5
 219 0020 4FF48052 		mov	r2, #4096
 220              	.L54:
 221 0024 73B1     		cbz	r3, .L42
 222 0026 47F6FF71 		movw	r1, #32767
 223 002a 8A42     		cmp	r2, r1
 224 002c 08D0     		beq	.L56
 225              	.L45:
 226 002e 598A     		ldrh	r1, [r3, #18]
 227 0030 9142     		cmp	r1, r2
 228 0032 03D1     		bne	.L43
 229 0034 0132     		adds	r2, r2, #1
 230 0036 92B2     		uxth	r2, r2
 231 0038 2B46     		mov	r3, r5
 232 003a F3E7     		b	.L54
 233              	.L43:
 234 003c DB68     		ldr	r3, [r3, #12]
 235 003e F1E7     		b	.L54
 236              	.L56:
 237 0040 F520     		movs	r0, #245
 238 0042 05E0     		b	.L46
 239              	.L42:
 240 0044 4282     		strh	r2, [r0, #18]	@ movhi
 241 0046 14B9     		cbnz	r4, .L50
 242 0048 0249     		ldr	r1, .L57
 243 004a C560     		str	r5, [r0, #12]
 244 004c 0860     		str	r0, [r1, #0]
 245              	.L50:
 246 004e 0020     		movs	r0, #0
 247              	.L46:
 248 0050 40B2     		sxtb	r0, r0
 249 0052 30BD     		pop	{r4, r5, pc}
 250              	.L58:
 251              		.align	2
 252              	.L57:
 253 0054 00000000 		.word	udp_pcbs
 255              		.section	.text.udp_sendto_if,"ax",%progbits
 256              		.align	1
 257              		.global	udp_sendto_if
 258              		.thumb
 259              		.thumb_func
 261              	udp_sendto_if:
 262              		@ args = 4, pretend = 0, frame = 0
 263              		@ frame_needed = 0, uses_anonymous_args = 0
 264 0000 2DE9FF47 		push	{r0, r1, r2, r3, r4, r5, r6, r7, r8, r9, sl, lr}
 265 0004 9246     		mov	sl, r2
 266 0006 428A     		ldrh	r2, [r0, #18]
 267 0008 DDF83080 		ldr	r8, [sp, #48]
 268 000c 0546     		mov	r5, r0
 269 000e 0F46     		mov	r7, r1
 270 0010 9946     		mov	r9, r3
 271 0012 32B1     		cbz	r2, .L60
 272              	.L64:
 273 0014 3846     		mov	r0, r7
 274 0016 0821     		movs	r1, #8
 275 0018 FFF7FEFF 		bl	pbuf_header
 276 001c 40B9     		cbnz	r0, .L61
 277 001e 3C46     		mov	r4, r7
 278 0020 11E0     		b	.L62
 279              	.L60:
 280 0022 0146     		mov	r1, r0
 281 0024 FFF7FEFF 		bl	udp_bind
 282 0028 0646     		mov	r6, r0
 283 002a 0028     		cmp	r0, #0
 284 002c F2D0     		beq	.L64
 285 002e 40E0     		b	.L63
 286              	.L61:
 287 0030 0120     		movs	r0, #1
 288 0032 0821     		movs	r1, #8
 289 0034 0022     		movs	r2, #0
 290 0036 FFF7FEFF 		bl	pbuf_alloc
 291 003a 0446     		mov	r4, r0
 292 003c 0028     		cmp	r0, #0
 293 003e 35D0     		beq	.L68
 294 0040 3946     		mov	r1, r7
 295 0042 FFF7FEFF 		bl	pbuf_chain
 296              	.L62:
 297 0046 688A     		ldrh	r0, [r5, #18]
 298 0048 6668     		ldr	r6, [r4, #4]
 299 004a FFF7FEFF 		bl	htons
 300 004e 3080     		strh	r0, [r6, #0]	@ unaligned
 301 0050 4846     		mov	r0, r9
 302 0052 FFF7FEFF 		bl	htons
 303 0056 0023     		movs	r3, #0
 304 0058 7080     		strh	r0, [r6, #2]	@ unaligned
 305 005a B371     		strb	r3, [r6, #6]
 306 005c F371     		strb	r3, [r6, #7]
 307 005e 2868     		ldr	r0, [r5, #0]
 308 0060 10B9     		cbnz	r0, .L65
 309 0062 08F10409 		add	r9, r8, #4
 310 0066 0AE0     		b	.L66
 311              	.L65:
 312 0068 D8F80420 		ldr	r2, [r8, #4]
 313 006c 9042     		cmp	r0, r2
 314 006e 05D0     		beq	.L67
 315 0070 BC42     		cmp	r4, r7
 316 0072 1DD0     		beq	.L69
 317 0074 2046     		mov	r0, r4
 318 0076 FFF7FEFF 		bl	pbuf_free
 319 007a 19E0     		b	.L69
 320              	.L67:
 321 007c A946     		mov	r9, r5
 322              	.L66:
 323 007e 2089     		ldrh	r0, [r4, #8]
 324 0080 FFF7FEFF 		bl	htons
 325 0084 B080     		strh	r0, [r6, #4]	@ unaligned
 326 0086 A97A     		ldrb	r1, [r5, #10]	@ zero_extendqisi2
 327 0088 EB7A     		ldrb	r3, [r5, #11]	@ zero_extendqisi2
 328 008a 0091     		str	r1, [sp, #0]
 329 008c 1126     		movs	r6, #17
 330 008e 0196     		str	r6, [sp, #4]
 331 0090 CDF80880 		str	r8, [sp, #8]
 332 0094 2046     		mov	r0, r4
 333 0096 4946     		mov	r1, r9
 334 0098 5246     		mov	r2, sl
 335 009a FFF7FEFF 		bl	ip_output_if
 336 009e BC42     		cmp	r4, r7
 337 00a0 0646     		mov	r6, r0
 338 00a2 06D0     		beq	.L63
 339 00a4 2046     		mov	r0, r4
 340 00a6 FFF7FEFF 		bl	pbuf_free
 341 00aa 02E0     		b	.L63
 342              	.L68:
 343 00ac FF26     		movs	r6, #255
 344 00ae 00E0     		b	.L63
 345              	.L69:
 346 00b0 F726     		movs	r6, #247
 347              	.L63:
 348 00b2 70B2     		sxtb	r0, r6
 349 00b4 04B0     		add	sp, sp, #16
 350 00b6 BDE8F087 		pop	{r4, r5, r6, r7, r8, r9, sl, pc}
 352              		.section	.text.udp_sendto,"ax",%progbits
 353              		.align	1
 354              		.global	udp_sendto
 355              		.thumb
 356              		.thumb_func
 358              	udp_sendto:
 359              		@ args = 0, pretend = 0, frame = 0
 360              		@ frame_needed = 0, uses_anonymous_args = 0
 361 0000 2DE9F341 		push	{r0, r1, r4, r5, r6, r7, r8, lr}
 362 0004 0546     		mov	r5, r0
 363 0006 4FF07040 		mov	r0, #-268435456
 364 000a 1446     		mov	r4, r2
 365 000c D2F80080 		ldr	r8, [r2, #0]	@ unaligned
 366 0010 0F46     		mov	r7, r1
 367 0012 1E46     		mov	r6, r3
 368 0014 FFF7FEFF 		bl	ntohl
 369 0018 00EA0808 		and	r8, r0, r8
 370 001c 4FF06040 		mov	r0, #-536870912
 371 0020 FFF7FEFF 		bl	ntohl
 372 0024 8045     		cmp	r8, r0
 373 0026 0CBF     		ite	eq
 374 0028 05F11600 		addeq	r0, r5, #22
 375 002c 2046     		movne	r0, r4
 376 002e FFF7FEFF 		bl	ip_route
 377 0032 38B1     		cbz	r0, .L74
 378 0034 0090     		str	r0, [sp, #0]
 379 0036 3946     		mov	r1, r7
 380 0038 2846     		mov	r0, r5
 381 003a 2246     		mov	r2, r4
 382 003c 3346     		mov	r3, r6
 383 003e FFF7FEFF 		bl	udp_sendto_if
 384 0042 00E0     		b	.L72
 385              	.L74:
 386 0044 FC20     		movs	r0, #252
 387              	.L72:
 388 0046 40B2     		sxtb	r0, r0
 389 0048 BDE8FC81 		pop	{r2, r3, r4, r5, r6, r7, r8, pc}
 391              		.section	.text.udp_send,"ax",%progbits
 392              		.align	1
 393              		.global	udp_send
 394              		.thumb
 395              		.thumb_func
 397              	udp_send:
 398              		@ args = 0, pretend = 0, frame = 0
 399              		@ frame_needed = 0, uses_anonymous_args = 0
 400              		@ link register save eliminated.
 401 0000 838A     		ldrh	r3, [r0, #20]
 402 0002 021D     		adds	r2, r0, #4
 403 0004 FFF7FEBF 		b	udp_sendto
 405              		.section	.text.udp_connect,"ax",%progbits
 406              		.align	1
 407              		.global	udp_connect
 408              		.thumb
 409              		.thumb_func
 411              	udp_connect:
 412              		@ args = 0, pretend = 0, frame = 0
 413              		@ frame_needed = 0, uses_anonymous_args = 0
 414 0000 70B5     		push	{r4, r5, r6, lr}
 415 0002 1646     		mov	r6, r2
 416 0004 428A     		ldrh	r2, [r0, #18]
 417 0006 0446     		mov	r4, r0
 418 0008 0D46     		mov	r5, r1
 419 000a 12B1     		cbz	r2, .L77
 420              	.L81:
 421 000c 3DB1     		cbz	r5, .L79
 422              	.L78:
 423 000e 2D68     		ldr	r5, [r5, #0]	@ unaligned
 424 0010 05E0     		b	.L79
 425              	.L77:
 426 0012 0146     		mov	r1, r0
 427 0014 FFF7FEFF 		bl	udp_bind
 428 0018 0028     		cmp	r0, #0
 429 001a F7D0     		beq	.L81
 430 001c 11E0     		b	.L80
 431              	.L79:
 432 001e 0A4A     		ldr	r2, .L86
 433 0020 237C     		ldrb	r3, [r4, #16]	@ zero_extendqisi2
 434 0022 1168     		ldr	r1, [r2, #0]
 435 0024 6560     		str	r5, [r4, #4]
 436 0026 43F00400 		orr	r0, r3, #4
 437 002a 2074     		strb	r0, [r4, #16]
 438 002c A682     		strh	r6, [r4, #20]	@ movhi
 439 002e 0846     		mov	r0, r1
 440              	.L82:
 441 0030 18B1     		cbz	r0, .L85
 442              	.L83:
 443 0032 8442     		cmp	r4, r0
 444 0034 04D0     		beq	.L84
 445 0036 C068     		ldr	r0, [r0, #12]
 446 0038 FAE7     		b	.L82
 447              	.L85:
 448 003a E160     		str	r1, [r4, #12]
 449 003c 1460     		str	r4, [r2, #0]
 450 003e 00E0     		b	.L80
 451              	.L84:
 452 0040 0020     		movs	r0, #0
 453              	.L80:
 454 0042 40B2     		sxtb	r0, r0
 455 0044 70BD     		pop	{r4, r5, r6, pc}
 456              	.L87:
 457 0046 00BF     		.align	2
 458              	.L86:
 459 0048 00000000 		.word	udp_pcbs
 461              		.section	.text.udp_disconnect,"ax",%progbits
 462              		.align	1
 463              		.global	udp_disconnect
 464              		.thumb
 465              		.thumb_func
 467              	udp_disconnect:
 468              		@ args = 0, pretend = 0, frame = 0
 469              		@ frame_needed = 0, uses_anonymous_args = 0
 470              		@ link register save eliminated.
 471 0000 044B     		ldr	r3, .L89
 472 0002 1968     		ldr	r1, [r3, #0]	@ unaligned
 473 0004 037C     		ldrb	r3, [r0, #16]	@ zero_extendqisi2
 474 0006 4160     		str	r1, [r0, #4]
 475 0008 0022     		movs	r2, #0
 476 000a 23F00401 		bic	r1, r3, #4
 477 000e 8282     		strh	r2, [r0, #20]	@ movhi
 478 0010 0174     		strb	r1, [r0, #16]
 479 0012 7047     		bx	lr
 480              	.L90:
 481              		.align	2
 482              	.L89:
 483 0014 00000000 		.word	ip_addr_any
 485              		.section	.text.udp_recv,"ax",%progbits
 486              		.align	1
 487              		.global	udp_recv
 488              		.thumb
 489              		.thumb_func
 491              	udp_recv:
 492              		@ args = 0, pretend = 0, frame = 0
 493              		@ frame_needed = 0, uses_anonymous_args = 0
 494              		@ link register save eliminated.
 495 0000 C161     		str	r1, [r0, #28]
 496 0002 0262     		str	r2, [r0, #32]
 497 0004 7047     		bx	lr
 499              		.section	.text.udp_remove,"ax",%progbits
 500              		.align	1
 501              		.global	udp_remove
 502              		.thumb
 503              		.thumb_func
 505              	udp_remove:
 506              		@ args = 0, pretend = 0, frame = 0
 507              		@ frame_needed = 0, uses_anonymous_args = 0
 508              		@ link register save eliminated.
 509 0000 084A     		ldr	r2, .L102
 510 0002 1368     		ldr	r3, [r2, #0]
 511 0004 8342     		cmp	r3, r0
 512 0006 09D1     		bne	.L101
 513 0008 C168     		ldr	r1, [r0, #12]
 514 000a 1160     		str	r1, [r2, #0]
 515 000c 08E0     		b	.L95
 516              	.L97:
 517 000e D968     		ldr	r1, [r3, #12]
 518 0010 19B1     		cbz	r1, .L96
 519 0012 8142     		cmp	r1, r0
 520 0014 04BF     		itt	eq
 521 0016 C168     		ldreq	r1, [r0, #12]
 522 0018 D960     		streq	r1, [r3, #12]
 523              	.L96:
 524 001a DB68     		ldr	r3, [r3, #12]
 525              	.L101:
 526 001c 002B     		cmp	r3, #0
 527 001e F6D1     		bne	.L97
 528              	.L95:
 529 0020 FFF7FEBF 		b	mem_free
 530              	.L103:
 531              		.align	2
 532              	.L102:
 533 0024 00000000 		.word	udp_pcbs
 535              		.section	.text.udp_new,"ax",%progbits
 536              		.align	1
 537              		.global	udp_new
 538              		.thumb
 539              		.thumb_func
 541              	udp_new:
 542              		@ args = 0, pretend = 0, frame = 0
 543              		@ frame_needed = 0, uses_anonymous_args = 0
 544 0000 074B     		ldr	r3, .L109
 545 0002 10B5     		push	{r4, lr}
 546 0004 5888     		ldrh	r0, [r3, #2]
 547 0006 FFF7FEFF 		bl	mem_malloc
 548 000a 0446     		mov	r4, r0
 549 000c 28B1     		cbz	r0, .L105
 550 000e 0021     		movs	r1, #0
 551 0010 2422     		movs	r2, #36
 552 0012 FFF7FEFF 		bl	memset
 553 0016 FF20     		movs	r0, #255
 554 0018 E072     		strb	r0, [r4, #11]
 555              	.L105:
 556 001a 2046     		mov	r0, r4
 557 001c 10BD     		pop	{r4, pc}
 558              	.L110:
 559 001e 00BF     		.align	2
 560              	.L109:
 561 0020 00000000 		.word	memp_sizes
 563              		.comm	udp_pcbs,4,4
 564              		.ident	"GCC: (GNU Tools for ARM Embedded Processors) 4.7.4 20130913 (release) [ARM/embedded-4_7-br