   1              		.syntax unified
   2              		.cpu cortex-m4
   3              		.eabi_attribute 27, 3
   4              		.fpu fpv4-sp-d16
   5              		.eabi_attribute 20, 1
   6              		.eabi_attribute 21, 1
   7              		.eabi_attribute 23, 3
   8              		.eabi_attribute 24, 1
   9              		.eabi_attribute 25, 1
  10              		.eabi_attribute 26, 1
  11              		.eabi_attribute 30, 4
  12              		.eabi_attribute 34, 1
  13              		.eabi_attribute 18, 4
  14              		.thumb
  15              		.file	"GMM001.c"
  16              		.section	.text.GMM001_Init,"ax",%progbits
  17              		.align	1
  18              		.global	GMM001_Init
  19              		.thumb
  20              		.thumb_func
  22              	GMM001_Init:
  23              		@ args = 0, pretend = 0, frame = 0
  24              		@ frame_needed = 0, uses_anonymous_args = 0
  25 0000 F8B5     		push	{r3, r4, r5, r6, r7, lr}
  26 0002 114C     		ldr	r4, .L2
  27 0004 114F     		ldr	r7, .L2+4
  28 0006 124E     		ldr	r6, .L2+8
  29 0008 2268     		ldr	r2, [r4, #0]
  30 000a 124D     		ldr	r5, .L2+12
  31 000c 0021     		movs	r1, #0
  32 000e 3846     		mov	r0, r7
  33 0010 FFF7FEFF 		bl	memset
  34 0014 0021     		movs	r1, #0
  35 0016 6268     		ldr	r2, [r4, #4]
  36 0018 3046     		mov	r0, r6
  37 001a FFF7FEFF 		bl	memset
  38 001e 0021     		movs	r1, #0
  39 0020 A268     		ldr	r2, [r4, #8]
  40 0022 2846     		mov	r0, r5
  41 0024 FFF7FEFF 		bl	memset
  42 0028 0B4A     		ldr	r2, .L2+16
  43 002a 0C4B     		ldr	r3, .L2+20
  44 002c 0C49     		ldr	r1, .L2+24
  45 002e 1F60     		str	r7, [r3, #0]	@ unaligned
  46 0030 D008     		lsrs	r0, r2, #3
  47 0032 9880     		strh	r0, [r3, #4]	@ unaligned
  48 0034 0B4B     		ldr	r3, .L2+28
  49 0036 0E60     		str	r6, [r1, #0]	@ unaligned
  50 0038 DA08     		lsrs	r2, r3, #3
  51 003a 8A80     		strh	r2, [r1, #4]	@ unaligned
  52 003c 0A49     		ldr	r1, .L2+32
  53 003e 0B48     		ldr	r0, .L2+36
  54 0040 CB08     		lsrs	r3, r1, #3
  55 0042 0560     		str	r5, [r0, #0]	@ unaligned
  56 0044 8380     		strh	r3, [r0, #4]	@ unaligned
  57 0046 F8BD     		pop	{r3, r4, r5, r6, r7, pc}
  58              	.L3:
  59              		.align	2
  60              	.L2:
  61 0048 00000000 		.word	.LANCHOR0
  62 004c 00000000 		.word	Heap_Bank1_Start
  63 0050 00000000 		.word	Heap_Bank2_Start
  64 0054 00000000 		.word	Heap_Bank3_Start
  65 0058 00000000 		.word	Heap_Bank1_Size
  66 005c 00000000 		.word	GMM001_handle0
  67 0060 00000000 		.word	GMM001_handle1
  68 0064 00000000 		.word	Heap_Bank2_Size
  69 0068 00000000 		.word	Heap_Bank3_Size
  70 006c 00000000 		.word	GMM001_handle2
  72              		.section	.text.GMM001_malloc,"ax",%progbits
  73              		.align	1
  74              		.global	GMM001_malloc
  75              		.thumb
  76              		.thumb_func
  78              	GMM001_malloc:
  79              		@ args = 0, pretend = 0, frame = 0
  80              		@ frame_needed = 0, uses_anonymous_args = 0
  81 0000 10B5     		push	{r4, lr}
  82 0002 0446     		mov	r4, r0
  83 0004 2146     		mov	r1, r4
  84 0006 0848     		ldr	r0, .L7
  85 0008 FFF7FEFF 		bl	LMM001_malloc
  86 000c 50B9     		cbnz	r0, .L5
  87 000e 0748     		ldr	r0, .L7+4
  88 0010 2146     		mov	r1, r4
  89 0012 FFF7FEFF 		bl	LMM001_malloc
  90 0016 28B9     		cbnz	r0, .L5
  91 0018 0548     		ldr	r0, .L7+8
  92 001a 2146     		mov	r1, r4
  93 001c BDE81040 		pop	{r4, lr}
  94 0020 FFF7FEBF 		b	LMM001_malloc
  95              	.L5:
  96 0024 10BD     		pop	{r4, pc}
  97              	.L8:
  98 0026 00BF     		.align	2
  99              	.L7:
 100 0028 00000000 		.word	GMM001_handle0
 101 002c 00000000 		.word	GMM001_handle1
 102 0030 00000000 		.word	GMM001_handle2
 104              		.section	.text.GMM001_realloc,"ax",%progbits
 105              		.align	1
 106              		.global	GMM001_realloc
 107              		.thumb
 108              		.thumb_func
 110              	GMM001_realloc:
 111              		@ args = 0, pretend = 0, frame = 0
 112              		@ frame_needed = 0, uses_anonymous_args = 0
 113 0000 10B5     		push	{r4, lr}
 114 0002 0246     		mov	r2, r0
 115 0004 0B46     		mov	r3, r1
 116 0006 19B9     		cbnz	r1, .L10
 117 0008 BDE81040 		pop	{r4, lr}
 118 000c FFF7FEBF 		b	GMM001_malloc
 119              	.L10:
 120 0010 1048     		ldr	r0, .L18
 121 0012 8142     		cmp	r1, r0
 122 0014 05D3     		bcc	.L11
 123 0016 104C     		ldr	r4, .L18+4
 124 0018 0019     		adds	r0, r0, r4
 125 001a 8142     		cmp	r1, r0
 126 001c 01D8     		bhi	.L11
 127 001e 0F48     		ldr	r0, .L18+8
 128 0020 11E0     		b	.L16
 129              	.L11:
 130 0022 0F49     		ldr	r1, .L18+12
 131 0024 8B42     		cmp	r3, r1
 132 0026 05D3     		bcc	.L12
 133 0028 0E48     		ldr	r0, .L18+16
 134 002a 0918     		adds	r1, r1, r0
 135 002c 8B42     		cmp	r3, r1
 136 002e 01D8     		bhi	.L12
 137 0030 0D48     		ldr	r0, .L18+20
 138 0032 07E0     		b	.L17
 139              	.L12:
 140 0034 0D49     		ldr	r1, .L18+24
 141 0036 8B42     		cmp	r3, r1
 142 0038 09D3     		bcc	.L13
 143 003a 0D48     		ldr	r0, .L18+28
 144 003c 0918     		adds	r1, r1, r0
 145 003e 8B42     		cmp	r3, r1
 146 0040 05D8     		bhi	.L13
 147 0042 0C48     		ldr	r0, .L18+32
 148              	.L17:
 149 0044 1946     		mov	r1, r3
 150              	.L16:
 151 0046 BDE81040 		pop	{r4, lr}
 152 004a FFF7FEBF 		b	LMM001_realloc
 153              	.L13:
 154 004e 0020     		movs	r0, #0
 155 0050 10BD     		pop	{r4, pc}
 156              	.L19:
 157 0052 00BF     		.align	2
 158              	.L18:
 159 0054 00000000 		.word	Heap_Bank1_Start
 160 0058 00000000 		.word	Heap_Bank1_Size
 161 005c 00000000 		.word	GMM001_handle0
 162 0060 00000000 		.word	Heap_Bank2_Start
 163 0064 00000000 		.word	Heap_Bank2_Size
 164 0068 00000000 		.word	GMM001_handle1
 165 006c 00000000 		.word	Heap_Bank3_Start
 166 0070 00000000 		.word	Heap_Bank3_Size
 167 0074 00000000 		.word	GMM001_handle2
 169              		.section	.text.GMM001_free,"ax",%progbits
 170              		.align	1
 171              		.global	GMM001_free
 172              		.thumb
 173              		.thumb_func
 175              	GMM001_free:
 176              		@ args = 0, pretend = 0, frame = 0
 177              		@ frame_needed = 0, uses_anonymous_args = 0
 178              		@ link register save eliminated.
 179 0000 0E4B     		ldr	r3, .L25
 180 0002 9842     		cmp	r0, r3
 181 0004 0146     		mov	r1, r0
 182 0006 05D3     		bcc	.L21
 183 0008 0D4A     		ldr	r2, .L25+4
 184 000a 9818     		adds	r0, r3, r2
 185 000c 8142     		cmp	r1, r0
 186 000e 01D8     		bhi	.L21
 187 0010 0C48     		ldr	r0, .L25+8
 188 0012 10E0     		b	.L24
 189              	.L21:
 190 0014 0C4B     		ldr	r3, .L25+12
 191 0016 9942     		cmp	r1, r3
 192 0018 05D3     		bcc	.L22
 193 001a 0C4A     		ldr	r2, .L25+16
 194 001c 9818     		adds	r0, r3, r2
 195 001e 8142     		cmp	r1, r0
 196 0020 01D8     		bhi	.L22
 197 0022 0B48     		ldr	r0, .L25+20
 198 0024 07E0     		b	.L24
 199              	.L22:
 200 0026 0B4B     		ldr	r3, .L25+24
 201 0028 9942     		cmp	r1, r3
 202 002a 06D3     		bcc	.L20
 203 002c 0A4A     		ldr	r2, .L25+28
 204 002e 9818     		adds	r0, r3, r2
 205 0030 8142     		cmp	r1, r0
 206 0032 02D8     		bhi	.L20
 207 0034 0948     		ldr	r0, .L25+32
 208              	.L24:
 209 0036 FFF7FEBF 		b	LMM001_free
 210              	.L20:
 211 003a 7047     		bx	lr
 212              	.L26:
 213              		.align	2
 214              	.L25:
 215 003c 00000000 		.word	Heap_Bank1_Start
 216 0040 00000000 		.word	Heap_Bank1_Size
 217 0044 00000000 		.word	GMM001_handle0
 218 0048 00000000 		.word	Heap_Bank2_Start
 219 004c 00000000 		.word	Heap_Bank2_Size
 220 0050 00000000 		.word	GMM001_handle1
 221 0054 00000000 		.word	Heap_Bank3_Start
 222 0058 00000000 		.word	Heap_Bank3_Size
 223 005c 00000000 		.word	GMM001_handle2
 225              		.comm	GMM001_handle2,6,1
 226              		.comm	GMM001_handle1,6,1
 227              		.comm	GMM001_handle0,6,1
 228              		.global	LENGTH3
 229              		.global	LENGTH2
 230              		.global	LENGTH1
 231              		.section	.rodata
 232              		.align	2
 233              		.set	.LANCHOR0,. + 0
 236              	LENGTH1:
 237 0000 00000000 		.word	Heap_Bank1_Size
 240              	LENGTH2:
 241 0004 00000000 		.word	Heap_Bank2_Size
 244              	LENGTH3:
 245 0008 00000000 		.word	Heap_Bank3_Size
 246              		.ident	"GCC: (GNU Tools for ARM Embedded Processors) 4.7.4 20130913 (release) [ARM/embedded-4_7-br