   1              		.syntax unified
   2              		.cpu cortex-m4
   3              		.eabi_attribute 27, 3
   4              		.fpu fpv4-sp-d16
   5              		.eabi_attribute 20, 1
   6              		.eabi_attribute 21, 1
   7              		.eabi_attribute 23, 3
   8              		.eabi_attribute 24, 1
   9              		.eabi_attribute 25, 1
  10              		.eabi_attribute 26, 1
  11              		.eabi_attribute 30, 6
  12              		.eabi_attribute 34, 1
  13              		.eabi_attribute 18, 4
  14              		.thumb
  15              		.file	"httpd.c"
  16              		.text
  17              	.Ltext0:
  18              		.cfi_sections	.debug_frame
  19              		.global	g_psDefaultFilenames
  20              		.section	.rodata
  21              		.align	2
  22              	.LC0:
  23 0000 5C696E64 		.ascii	"\\index.shtml\000"
  23      65782E73 
  23      68746D6C 
  23      00
  24 000d 000000   		.align	2
  25              	.LC1:
  26 0010 5C696E64 		.ascii	"\\index.ssi\000"
  26      65782E73 
  26      736900
  27 001b 00       		.align	2
  28              	.LC2:
  29 001c 5C696E64 		.ascii	"\\index.shtm\000"
  29      65782E73 
  29      68746D00 
  30              		.align	2
  31              	.LC3:
  32 0028 5C696E64 		.ascii	"\\index.html\000"
  32      65782E68 
  32      746D6C00 
  33              		.align	2
  34              	.LC4:
  35 0034 5C696E64 		.ascii	"\\index.htm\000"
  35      65782E68 
  35      746D00
  36 003f 00       		.align	2
  39              	g_psDefaultFilenames:
  40 0040 00000000 		.word	.LC0
  41 0044 01       		.byte	1
  42 0045 000000   		.space	3
  43 0048 10000000 		.word	.LC1
  44 004c 01       		.byte	1
  45 004d 000000   		.space	3
  46 0050 1C000000 		.word	.LC2
  47 0054 01       		.byte	1
  48 0055 000000   		.space	3
  49 0058 28000000 		.word	.LC3
  50 005c 00       		.byte	0
  51 005d 000000   		.space	3
  52 0060 34000000 		.word	.LC4
  53 0064 00       		.byte	0
  54 0065 000000   		.space	3
  55              		.comm	myfsObject,564,4
  56              		.bss
  57              		.align	2
  58              	httpd_req_buf:
  59 0000 00000000 		.space	1024
  59      00000000 
  59      00000000 
  59      00000000 
  59      00000000 
  60              		.global	g_pcSSIExtensions
  61              		.section	.rodata
  62              		.align	2
  63              	.LC5:
  64 0068 2E736874 		.ascii	".shtml\000"
  64      6D6C00
  65 006f 00       		.align	2
  66              	.LC6:
  67 0070 2E736874 		.ascii	".shtm\000"
  67      6D00
  68 0076 0000     		.align	2
  69              	.LC7:
  70 0078 2E737369 		.ascii	".ssi\000"
  70      00
  71 007d 000000   		.align	2
  72              	.LC8:
  73 0080 2E786D6C 		.ascii	".xml\000"
  73      00
  74              		.data
  75              		.align	2
  78              	g_pcSSIExtensions:
  79 0000 68000000 		.word	.LC5
  80 0004 70000000 		.word	.LC6
  81 0008 78000000 		.word	.LC7
  82 000c 80000000 		.word	.LC8
  83              		.global	g_pfnSSIHandler
  84              		.bss
  85              		.align	2
  88              	g_pfnSSIHandler:
  89 0400 00000000 		.space	4
  90              		.global	g_iNumTags
  91              		.align	2
  94              	g_iNumTags:
  95 0404 00000000 		.space	4
  96              		.global	g_ppcTags
  97              		.align	2
 100              	g_ppcTags:
 101 0408 00000000 		.space	4
 102              		.global	g_pcTagLeadIn
 103              		.section	.rodata
 104 0085 000000   		.align	2
 105              	.LC9:
 106 0088 3C212D2D 		.ascii	"<!--#\000"
 106      2300
 107 008e 0000     		.align	2
 110              	g_pcTagLeadIn:
 111 0090 88000000 		.word	.LC9
 112              		.global	g_pcTagLeadOut
 113              		.align	2
 114              	.LC10:
 115 0094 2D2D3E00 		.ascii	"-->\000"
 116              		.align	2
 119              	g_pcTagLeadOut:
 120 0098 94000000 		.word	.LC10
 121              		.global	g_pCGIs
 122              		.bss
 123              		.align	2
 126              	g_pCGIs:
 127 040c 00000000 		.space	4
 128              		.global	g_iNumCGIs
 129              		.align	2
 132              	g_iNumCGIs:
 133 0410 00000000 		.space	4
 134              		.section	.text.strnstr,"ax",%progbits
 135              		.align	2
 136              		.thumb
 137              		.thumb_func
 139              	strnstr:
 140              	.LFB117:
 141              		.file 1 "../Dave/Generated/src/WEBSERVER001/HTTPServer/httpd.c"
   1:../Dave/Generated/src/WEBSERVER001/HTTPServer/httpd.c **** /*
   2:../Dave/Generated/src/WEBSERVER001/HTTPServer/httpd.c ****  * Copyright (c) 2001-2003 Swedish Institute of Computer Science.
   3:../Dave/Generated/src/WEBSERVER001/HTTPServer/httpd.c ****  * All rights reserved.
   4:../Dave/Generated/src/WEBSERVER001/HTTPServer/httpd.c ****  *
   5:../Dave/Generated/src/WEBSERVER001/HTTPServer/httpd.c ****  * Redistribution and use in source and binary forms, with or without modification,
   6:../Dave/Generated/src/WEBSERVER001/HTTPServer/httpd.c ****  * are permitted provided that the following conditions are met:
   7:../Dave/Generated/src/WEBSERVER001/HTTPServer/httpd.c ****  *
   8:../Dave/Generated/src/WEBSERVER001/HTTPServer/httpd.c ****  * 1. Redistributions of source code must retain the above copyright notice,
   9:../Dave/Generated/src/WEBSERVER001/HTTPServer/httpd.c ****  *    this list of conditions and the following disclaimer.
  10:../Dave/Generated/src/WEBSERVER001/HTTPServer/httpd.c ****  * 2. Redistributions in binary form must reproduce the above copyright notice,
  11:../Dave/Generated/src/WEBSERVER001/HTTPServer/httpd.c ****  *    this list of conditions and the following disclaimer in the documentation
  12:../Dave/Generated/src/WEBSERVER001/HTTPServer/httpd.c ****  *    and/or other materials provided with the distribution.
  13:../Dave/Generated/src/WEBSERVER001/HTTPServer/httpd.c ****  * 3. The name of the author may not be used to endorse or promote products
  14:../Dave/Generated/src/WEBSERVER001/HTTPServer/httpd.c ****  *    derived from this software without specific prior written permission.
  15:../Dave/Generated/src/WEBSERVER001/HTTPServer/httpd.c ****  *
  16:../Dave/Generated/src/WEBSERVER001/HTTPServer/httpd.c ****  * THIS SOFTWARE IS PROVIDED BY THE AUTHOR ``AS IS'' AND ANY EXPRESS OR IMPLIED
  17:../Dave/Generated/src/WEBSERVER001/HTTPServer/httpd.c ****  * WARRANTIES, INCLUDING, BUT NOT LIMITED TO, THE IMPLIED WARRANTIES OF
  18:../Dave/Generated/src/WEBSERVER001/HTTPServer/httpd.c ****  * MERCHANTABILITY AND FITNESS FOR A PARTICULAR PURPOSE ARE DISCLAIMED. IN NO EVENT
  19:../Dave/Generated/src/WEBSERVER001/HTTPServer/httpd.c ****  * SHALL THE AUTHOR BE LIABLE FOR ANY DIRECT, INDIRECT, INCIDENTAL, SPECIAL,
  20:../Dave/Generated/src/WEBSERVER001/HTTPServer/httpd.c ****  * EXEMPLARY, OR CONSEQUENTIAL DAMAGES (INCLUDING, BUT NOT LIMITED TO, PROCUREMENT
  21:../Dave/Generated/src/WEBSERVER001/HTTPServer/httpd.c ****  * OF SUBSTITUTE GOODS OR SERVICES; LOSS OF USE, DATA, OR PROFITS; OR BUSINESS
  22:../Dave/Generated/src/WEBSERVER001/HTTPServer/httpd.c ****  * INTERRUPTION) HOWEVER CAUSED AND ON ANY THEORY OF LIABILITY, WHETHER IN
  23:../Dave/Generated/src/WEBSERVER001/HTTPServer/httpd.c ****  * CONTRACT, STRICT LIABILITY, OR TORT (INCLUDING NEGLIGENCE OR OTHERWISE) ARISING
  24:../Dave/Generated/src/WEBSERVER001/HTTPServer/httpd.c ****  * IN ANY WAY OUT OF THE USE OF THIS SOFTWARE, EVEN IF ADVISED OF THE POSSIBILITY
  25:../Dave/Generated/src/WEBSERVER001/HTTPServer/httpd.c ****  * OF SUCH DAMAGE.
  26:../Dave/Generated/src/WEBSERVER001/HTTPServer/httpd.c ****  *
  27:../Dave/Generated/src/WEBSERVER001/HTTPServer/httpd.c ****  * This file is part of the lwIP TCP/IP stack.
  28:../Dave/Generated/src/WEBSERVER001/HTTPServer/httpd.c ****  *
  29:../Dave/Generated/src/WEBSERVER001/HTTPServer/httpd.c ****  * Author: Adam Dunkels <adam@sics.se>
  30:../Dave/Generated/src/WEBSERVER001/HTTPServer/httpd.c ****  *
  31:../Dave/Generated/src/WEBSERVER001/HTTPServer/httpd.c ****  */
  32:../Dave/Generated/src/WEBSERVER001/HTTPServer/httpd.c **** /* ===================================================================================
  33:../Dave/Generated/src/WEBSERVER001/HTTPServer/httpd.c ****  * Copyright (c) 2011, Infineon Technologies AG
  34:../Dave/Generated/src/WEBSERVER001/HTTPServer/httpd.c ****  * All rights reserved.
  35:../Dave/Generated/src/WEBSERVER001/HTTPServer/httpd.c ****  *
  36:../Dave/Generated/src/WEBSERVER001/HTTPServer/httpd.c ****  * Redistribution and use in source and binary forms, with or without modification,
  37:../Dave/Generated/src/WEBSERVER001/HTTPServer/httpd.c ****  * are permitted provided that the following conditions are met:
  38:../Dave/Generated/src/WEBSERVER001/HTTPServer/httpd.c ****  * Redistributions of source code must retain the above copyright notice, this list
  39:../Dave/Generated/src/WEBSERVER001/HTTPServer/httpd.c ****  * of conditions and the following disclaimer.
  40:../Dave/Generated/src/WEBSERVER001/HTTPServer/httpd.c ****  * Redistributions in binary form must reproduce the above copyright notice, this
  41:../Dave/Generated/src/WEBSERVER001/HTTPServer/httpd.c ****  * list of conditions and the following disclaimer in the documentation and/or other
  42:../Dave/Generated/src/WEBSERVER001/HTTPServer/httpd.c ****  * materials provided with the distribution.
  43:../Dave/Generated/src/WEBSERVER001/HTTPServer/httpd.c ****  * Neither the name of the copyright holders nor the names of its contributors
  44:../Dave/Generated/src/WEBSERVER001/HTTPServer/httpd.c ****  * may be used to endorse or promote products derived from this software without
  45:../Dave/Generated/src/WEBSERVER001/HTTPServer/httpd.c ****  * specific prior written permission.
  46:../Dave/Generated/src/WEBSERVER001/HTTPServer/httpd.c **** 
  47:../Dave/Generated/src/WEBSERVER001/HTTPServer/httpd.c ****  * THIS SOFTWARE IS PROVIDED BY THE COPYRIGHT HOLDERS AND CONTRIBUTORS "AS IS"
  48:../Dave/Generated/src/WEBSERVER001/HTTPServer/httpd.c ****  * AND ANY EXPRESS OR IMPLIED WARRANTIES, INCLUDING, BUT NOT LIMITED TO,
  49:../Dave/Generated/src/WEBSERVER001/HTTPServer/httpd.c ****  * THE IMPLIED WARRANTIES OF MERCHANTABILITY AND FITNESS FOR A PARTICULAR
  50:../Dave/Generated/src/WEBSERVER001/HTTPServer/httpd.c ****  * PURPOSE ARE DISCLAIMED. IN NO EVENT SHALL THE COPYRIGHT HOLDER OR CONTRIBUTORS
  51:../Dave/Generated/src/WEBSERVER001/HTTPServer/httpd.c ****  * BE LIABLE FOR ANY DIRECT, INDIRECT, INCIDENTAL, SPECIAL, EXEMPLARY,
  52:../Dave/Generated/src/WEBSERVER001/HTTPServer/httpd.c ****  * OR CONSEQUENTIAL DAMAGES (INCLUDING, BUT NOT LIMITED TO, PROCUREMENT OF
  53:../Dave/Generated/src/WEBSERVER001/HTTPServer/httpd.c ****  * SUBSTITUTE GOODS OR SERVICES; LOSS OF USE, DATA, OR PROFITS; OR BUSINESS INTERRUPTION)
  54:../Dave/Generated/src/WEBSERVER001/HTTPServer/httpd.c ****  * HOWEVER CAUSED AND ON ANY THEORY OF LIABILITY, WHETHER IN CONTRACT, STRICT LIABILITY,
  55:../Dave/Generated/src/WEBSERVER001/HTTPServer/httpd.c ****  * OR TORT (INCLUDING NEGLIGENCE OR OTHERWISE) ARISING IN ANY WAY OUT OF THE USE OF
  56:../Dave/Generated/src/WEBSERVER001/HTTPServer/httpd.c ****  * THIS SOFTWARE, EVEN IF ADVISED OF THE POSSIBILITY OF SUCH DAMAGE.
  57:../Dave/Generated/src/WEBSERVER001/HTTPServer/httpd.c **** 
  58:../Dave/Generated/src/WEBSERVER001/HTTPServer/httpd.c ****  * To improve the quality of the software, users are encouraged to share modifications,
  59:../Dave/Generated/src/WEBSERVER001/HTTPServer/httpd.c ****  * enhancements or bug fixes with Infineon Technologies AG (dave@infineon.com).
  60:../Dave/Generated/src/WEBSERVER001/HTTPServer/httpd.c ****  *
  61:../Dave/Generated/src/WEBSERVER001/HTTPServer/httpd.c ****  * =================================================================================== */
  62:../Dave/Generated/src/WEBSERVER001/HTTPServer/httpd.c **** /* This httpd supports for a
  63:../Dave/Generated/src/WEBSERVER001/HTTPServer/httpd.c ****  * rudimentary server-side-include facility which will replace tags of the form
  64:../Dave/Generated/src/WEBSERVER001/HTTPServer/httpd.c ****  * <!--#tag--> in any file whose extension is .shtml, .shtm or .ssi with
  65:../Dave/Generated/src/WEBSERVER001/HTTPServer/httpd.c ****  * strings provided by an include handler whose pointer is provided to the
  66:../Dave/Generated/src/WEBSERVER001/HTTPServer/httpd.c ****  * module via function http_set_ssi_handler().
  67:../Dave/Generated/src/WEBSERVER001/HTTPServer/httpd.c ****  * Additionally, a simple common
  68:../Dave/Generated/src/WEBSERVER001/HTTPServer/httpd.c ****  * gateway interface (CGI) handling mechanism has been added to allow clients
  69:../Dave/Generated/src/WEBSERVER001/HTTPServer/httpd.c ****  * to hook functions to particular request URIs.
  70:../Dave/Generated/src/WEBSERVER001/HTTPServer/httpd.c ****  *
  71:../Dave/Generated/src/WEBSERVER001/HTTPServer/httpd.c ****  * To enable SSI support, define label LWIP_HTTPD_SSI in lwipopts.h.
  72:../Dave/Generated/src/WEBSERVER001/HTTPServer/httpd.c ****  * To enable CGI support, define label LWIP_HTTPD_CGI in lwipopts.h.
  73:../Dave/Generated/src/WEBSERVER001/HTTPServer/httpd.c ****  *
  74:../Dave/Generated/src/WEBSERVER001/HTTPServer/httpd.c ****  * By default, the server assumes that HTTP headers are already present in
  75:../Dave/Generated/src/WEBSERVER001/HTTPServer/httpd.c ****  * each file stored in the file system.  By defining LWIP_HTTPD_DYNAMIC_HEADERS in
  76:../Dave/Generated/src/WEBSERVER001/HTTPServer/httpd.c ****  * lwipopts.h, this behavior can be changed such that the server inserts the
  77:../Dave/Generated/src/WEBSERVER001/HTTPServer/httpd.c ****  * headers automatically based on the extension of the file being served.  If
  78:../Dave/Generated/src/WEBSERVER001/HTTPServer/httpd.c ****  * this mode is used, be careful to ensure that the file system image used
  79:../Dave/Generated/src/WEBSERVER001/HTTPServer/httpd.c ****  * does not already contain the header information.
  80:../Dave/Generated/src/WEBSERVER001/HTTPServer/httpd.c ****  *
  81:../Dave/Generated/src/WEBSERVER001/HTTPServer/httpd.c ****  * File system images without headers can be created using the makefsfile
  82:../Dave/Generated/src/WEBSERVER001/HTTPServer/httpd.c ****  * tool with the -h command line option.
  83:../Dave/Generated/src/WEBSERVER001/HTTPServer/httpd.c ****  *
  84:../Dave/Generated/src/WEBSERVER001/HTTPServer/httpd.c ****  *
  85:../Dave/Generated/src/WEBSERVER001/HTTPServer/httpd.c ****  * Notes about valid SSI tags
  86:../Dave/Generated/src/WEBSERVER001/HTTPServer/httpd.c ****  * --------------------------
  87:../Dave/Generated/src/WEBSERVER001/HTTPServer/httpd.c ****  *
  88:../Dave/Generated/src/WEBSERVER001/HTTPServer/httpd.c ****  * The following assumptions are made about tags used in SSI markers:
  89:../Dave/Generated/src/WEBSERVER001/HTTPServer/httpd.c ****  *
  90:../Dave/Generated/src/WEBSERVER001/HTTPServer/httpd.c ****  * 1. No tag may contain '-' or whitespace characters within the tag name.
  91:../Dave/Generated/src/WEBSERVER001/HTTPServer/httpd.c ****  * 2. Whitespace is allowed between the tag leadin "<!--#" and the start of
  92:../Dave/Generated/src/WEBSERVER001/HTTPServer/httpd.c ****  *    the tag name and between the tag name and the leadout string "-->".
  93:../Dave/Generated/src/WEBSERVER001/HTTPServer/httpd.c ****  * 3. The maximum tag name length is LWIP_HTTPD_MAX_TAG_NAME_LEN, currently 8 characters.
  94:../Dave/Generated/src/WEBSERVER001/HTTPServer/httpd.c ****  *
  95:../Dave/Generated/src/WEBSERVER001/HTTPServer/httpd.c ****  * Notes on CGI usage
  96:../Dave/Generated/src/WEBSERVER001/HTTPServer/httpd.c ****  * ------------------
  97:../Dave/Generated/src/WEBSERVER001/HTTPServer/httpd.c ****  *
  98:../Dave/Generated/src/WEBSERVER001/HTTPServer/httpd.c ****  * The simple CGI support offered here works with GET method requests only
  99:../Dave/Generated/src/WEBSERVER001/HTTPServer/httpd.c ****  * and can handle up to 16 parameters encoded into the URI. The handler
 100:../Dave/Generated/src/WEBSERVER001/HTTPServer/httpd.c ****  * function may not write directly to the HTTP output but must return a
 101:../Dave/Generated/src/WEBSERVER001/HTTPServer/httpd.c ****  * filename that the HTTP server will send to the browser as a response to
 102:../Dave/Generated/src/WEBSERVER001/HTTPServer/httpd.c ****  * the incoming CGI request.
 103:../Dave/Generated/src/WEBSERVER001/HTTPServer/httpd.c ****  *
 104:../Dave/Generated/src/WEBSERVER001/HTTPServer/httpd.c ****  * @todo:
 105:../Dave/Generated/src/WEBSERVER001/HTTPServer/httpd.c ****  * - don't use mem_malloc() (for SSI/dynamic headers)
 106:../Dave/Generated/src/WEBSERVER001/HTTPServer/httpd.c ****  * - split too long functions into multiple smaller functions?
 107:../Dave/Generated/src/WEBSERVER001/HTTPServer/httpd.c ****  * - support more file types?
 108:../Dave/Generated/src/WEBSERVER001/HTTPServer/httpd.c ****  */
 109:../Dave/Generated/src/WEBSERVER001/HTTPServer/httpd.c **** #include "lwip/debug.h"
 110:../Dave/Generated/src/WEBSERVER001/HTTPServer/httpd.c **** #include "lwip/stats.h"
 111:../Dave/Generated/src/WEBSERVER001/HTTPServer/httpd.c **** #include "httpd.h"
 112:../Dave/Generated/src/WEBSERVER001/HTTPServer/httpd.c **** #include "httpd_structs.h"
 113:../Dave/Generated/src/WEBSERVER001/HTTPServer/httpd.c **** #include "lwip/tcp.h"
 114:../Dave/Generated/src/WEBSERVER001/HTTPServer/httpd.c **** #include "fs.h"
 115:../Dave/Generated/src/WEBSERVER001/HTTPServer/httpd.c **** #include "lwip/ip_addr.h"
 116:../Dave/Generated/src/WEBSERVER001/HTTPServer/httpd.c **** #include <DAVE3.h>
 117:../Dave/Generated/src/WEBSERVER001/HTTPServer/httpd.c **** #include <string.h>
 118:../Dave/Generated/src/WEBSERVER001/HTTPServer/httpd.c **** #include <stdlib.h>
 119:../Dave/Generated/src/WEBSERVER001/HTTPServer/httpd.c **** 
 120:../Dave/Generated/src/WEBSERVER001/HTTPServer/httpd.c **** #if LWIP_TCP
 121:../Dave/Generated/src/WEBSERVER001/HTTPServer/httpd.c **** 
 122:../Dave/Generated/src/WEBSERVER001/HTTPServer/httpd.c **** #ifndef HTTPD_DEBUG
 123:../Dave/Generated/src/WEBSERVER001/HTTPServer/httpd.c **** #define HTTPD_DEBUG         LWIP_DBG_OFF
 124:../Dave/Generated/src/WEBSERVER001/HTTPServer/httpd.c **** #endif
 125:../Dave/Generated/src/WEBSERVER001/HTTPServer/httpd.c **** 
 126:../Dave/Generated/src/WEBSERVER001/HTTPServer/httpd.c **** /** Set this to 1 and add the next line to lwippools.h to use a memp pool
 127:../Dave/Generated/src/WEBSERVER001/HTTPServer/httpd.c ****  * for allocating struct http_state instead of the heap:
 128:../Dave/Generated/src/WEBSERVER001/HTTPServer/httpd.c ****  *
 129:../Dave/Generated/src/WEBSERVER001/HTTPServer/httpd.c ****  * LWIP_MEMPOOL(HTTPD_STATE, 20, 100, "HTTPD_STATE")
 130:../Dave/Generated/src/WEBSERVER001/HTTPServer/httpd.c ****  */
 131:../Dave/Generated/src/WEBSERVER001/HTTPServer/httpd.c **** #ifndef HTTPD_USE_MEM_POOL
 132:../Dave/Generated/src/WEBSERVER001/HTTPServer/httpd.c **** #define HTTPD_USE_MEM_POOL  0
 133:../Dave/Generated/src/WEBSERVER001/HTTPServer/httpd.c **** #endif
 134:../Dave/Generated/src/WEBSERVER001/HTTPServer/httpd.c **** 
 135:../Dave/Generated/src/WEBSERVER001/HTTPServer/httpd.c **** /** The server port for HTTPD to use */
 136:../Dave/Generated/src/WEBSERVER001/HTTPServer/httpd.c **** #ifndef HTTPD_SERVER_PORT
 137:../Dave/Generated/src/WEBSERVER001/HTTPServer/httpd.c **** #define HTTPD_SERVER_PORT                   80
 138:../Dave/Generated/src/WEBSERVER001/HTTPServer/httpd.c **** #endif
 139:../Dave/Generated/src/WEBSERVER001/HTTPServer/httpd.c **** 
 140:../Dave/Generated/src/WEBSERVER001/HTTPServer/httpd.c **** /** Maximum retries before the connection is aborted/closed.
 141:../Dave/Generated/src/WEBSERVER001/HTTPServer/httpd.c ****  * - number of times pcb->poll is called -> default is 4*500ms = 2s;
 142:../Dave/Generated/src/WEBSERVER001/HTTPServer/httpd.c ****  * - reset when pcb->sent is called
 143:../Dave/Generated/src/WEBSERVER001/HTTPServer/httpd.c ****  */
 144:../Dave/Generated/src/WEBSERVER001/HTTPServer/httpd.c **** #ifndef HTTPD_MAX_RETRIES
 145:../Dave/Generated/src/WEBSERVER001/HTTPServer/httpd.c **** #define HTTPD_MAX_RETRIES                   4
 146:../Dave/Generated/src/WEBSERVER001/HTTPServer/httpd.c **** #endif
 147:../Dave/Generated/src/WEBSERVER001/HTTPServer/httpd.c **** 
 148:../Dave/Generated/src/WEBSERVER001/HTTPServer/httpd.c **** /** The poll delay is X*500ms */
 149:../Dave/Generated/src/WEBSERVER001/HTTPServer/httpd.c **** #ifndef HTTPD_POLL_INTERVAL
 150:../Dave/Generated/src/WEBSERVER001/HTTPServer/httpd.c **** #define HTTPD_POLL_INTERVAL                 4
 151:../Dave/Generated/src/WEBSERVER001/HTTPServer/httpd.c **** #endif
 152:../Dave/Generated/src/WEBSERVER001/HTTPServer/httpd.c **** 
 153:../Dave/Generated/src/WEBSERVER001/HTTPServer/httpd.c **** /** Priority for tcp pcbs created by HTTPD (very low by default).
 154:../Dave/Generated/src/WEBSERVER001/HTTPServer/httpd.c ****  *  Lower priorities get killed first when running out of memroy.
 155:../Dave/Generated/src/WEBSERVER001/HTTPServer/httpd.c ****  */
 156:../Dave/Generated/src/WEBSERVER001/HTTPServer/httpd.c **** #ifndef HTTPD_TCP_PRIO
 157:../Dave/Generated/src/WEBSERVER001/HTTPServer/httpd.c **** #define HTTPD_TCP_PRIO                      TCP_PRIO_MIN
 158:../Dave/Generated/src/WEBSERVER001/HTTPServer/httpd.c **** #endif
 159:../Dave/Generated/src/WEBSERVER001/HTTPServer/httpd.c **** 
 160:../Dave/Generated/src/WEBSERVER001/HTTPServer/httpd.c **** /** Set this to 1 to enabled timing each file sent */
 161:../Dave/Generated/src/WEBSERVER001/HTTPServer/httpd.c **** #ifndef LWIP_HTTPD_TIMING
 162:../Dave/Generated/src/WEBSERVER001/HTTPServer/httpd.c **** #define LWIP_HTTPD_TIMING                   0
 163:../Dave/Generated/src/WEBSERVER001/HTTPServer/httpd.c **** #endif
 164:../Dave/Generated/src/WEBSERVER001/HTTPServer/httpd.c **** #ifndef HTTPD_DEBUG_TIMING
 165:../Dave/Generated/src/WEBSERVER001/HTTPServer/httpd.c **** #define HTTPD_DEBUG_TIMING                  LWIP_DBG_OFF
 166:../Dave/Generated/src/WEBSERVER001/HTTPServer/httpd.c **** #endif
 167:../Dave/Generated/src/WEBSERVER001/HTTPServer/httpd.c **** 
 168:../Dave/Generated/src/WEBSERVER001/HTTPServer/httpd.c **** /** Set this to 1 on platforms where strnstr is not available */
 169:../Dave/Generated/src/WEBSERVER001/HTTPServer/httpd.c **** #ifndef LWIP_HTTPD_STRNSTR_PRIVATE
 170:../Dave/Generated/src/WEBSERVER001/HTTPServer/httpd.c **** #define LWIP_HTTPD_STRNSTR_PRIVATE          1
 171:../Dave/Generated/src/WEBSERVER001/HTTPServer/httpd.c **** #endif
 172:../Dave/Generated/src/WEBSERVER001/HTTPServer/httpd.c **** 
 173:../Dave/Generated/src/WEBSERVER001/HTTPServer/httpd.c **** /** Set this to one to show error pages when parsing a request fails instead
 174:../Dave/Generated/src/WEBSERVER001/HTTPServer/httpd.c ****     of simply closing the connection. */
 175:../Dave/Generated/src/WEBSERVER001/HTTPServer/httpd.c **** #ifndef LWIP_HTTPD_SUPPORT_EXTSTATUS
 176:../Dave/Generated/src/WEBSERVER001/HTTPServer/httpd.c **** #define LWIP_HTTPD_SUPPORT_EXTSTATUS        1
 177:../Dave/Generated/src/WEBSERVER001/HTTPServer/httpd.c **** #endif
 178:../Dave/Generated/src/WEBSERVER001/HTTPServer/httpd.c **** 
 179:../Dave/Generated/src/WEBSERVER001/HTTPServer/httpd.c **** #if HTTPD_FAT_FS //IF using FAT_FS this define must be 0
 180:../Dave/Generated/src/WEBSERVER001/HTTPServer/httpd.c **** #define LWIP_HTTPD_SUPPORT_V09              0
 181:../Dave/Generated/src/WEBSERVER001/HTTPServer/httpd.c **** #else
 182:../Dave/Generated/src/WEBSERVER001/HTTPServer/httpd.c **** /** Set this to 0 to drop support for HTTP/0.9 clients (to save some bytes) */
 183:../Dave/Generated/src/WEBSERVER001/HTTPServer/httpd.c **** #ifndef LWIP_HTTPD_SUPPORT_V09
 184:../Dave/Generated/src/WEBSERVER001/HTTPServer/httpd.c **** #define LWIP_HTTPD_SUPPORT_V09              1
 185:../Dave/Generated/src/WEBSERVER001/HTTPServer/httpd.c **** #endif
 186:../Dave/Generated/src/WEBSERVER001/HTTPServer/httpd.c **** #endif //HTTPD_FAT_FS
 187:../Dave/Generated/src/WEBSERVER001/HTTPServer/httpd.c **** 
 188:../Dave/Generated/src/WEBSERVER001/HTTPServer/httpd.c **** /** Set this to 1 to support HTTP request coming in in multiple packets/pbufs */
 189:../Dave/Generated/src/WEBSERVER001/HTTPServer/httpd.c **** #ifndef LWIP_HTTPD_SUPPORT_REQUESTLIST
 190:../Dave/Generated/src/WEBSERVER001/HTTPServer/httpd.c **** #define LWIP_HTTPD_SUPPORT_REQUESTLIST      1
 191:../Dave/Generated/src/WEBSERVER001/HTTPServer/httpd.c **** #endif
 192:../Dave/Generated/src/WEBSERVER001/HTTPServer/httpd.c **** 
 193:../Dave/Generated/src/WEBSERVER001/HTTPServer/httpd.c **** #if LWIP_HTTPD_SUPPORT_REQUESTLIST
 194:../Dave/Generated/src/WEBSERVER001/HTTPServer/httpd.c **** /** Number of rx pbufs to enqueue to parse an incoming request (up to the first
 195:../Dave/Generated/src/WEBSERVER001/HTTPServer/httpd.c ****     newline) */
 196:../Dave/Generated/src/WEBSERVER001/HTTPServer/httpd.c **** #ifndef LWIP_HTTPD_REQ_QUEUELEN
 197:../Dave/Generated/src/WEBSERVER001/HTTPServer/httpd.c **** #define LWIP_HTTPD_REQ_QUEUELEN             10
 198:../Dave/Generated/src/WEBSERVER001/HTTPServer/httpd.c **** #endif
 199:../Dave/Generated/src/WEBSERVER001/HTTPServer/httpd.c **** 
 200:../Dave/Generated/src/WEBSERVER001/HTTPServer/httpd.c **** /** Number of (TCP payload-) bytes (in pbufs) to enqueue to parse and incoming
 201:../Dave/Generated/src/WEBSERVER001/HTTPServer/httpd.c ****     request (up to the first double-newline) */
 202:../Dave/Generated/src/WEBSERVER001/HTTPServer/httpd.c **** #ifndef LWIP_HTTPD_REQ_BUFSIZE
 203:../Dave/Generated/src/WEBSERVER001/HTTPServer/httpd.c **** #define LWIP_HTTPD_REQ_BUFSIZE              LWIP_HTTPD_MAX_REQ_LENGTH
 204:../Dave/Generated/src/WEBSERVER001/HTTPServer/httpd.c **** #endif
 205:../Dave/Generated/src/WEBSERVER001/HTTPServer/httpd.c **** 
 206:../Dave/Generated/src/WEBSERVER001/HTTPServer/httpd.c **** /** Defines the maximum length of a HTTP request line (up to the first CRLF,
 207:../Dave/Generated/src/WEBSERVER001/HTTPServer/httpd.c ****     copied from pbuf into this a global buffer when pbuf- or packet-queues
 208:../Dave/Generated/src/WEBSERVER001/HTTPServer/httpd.c ****     are received - otherwise the input pbuf is used directly) */
 209:../Dave/Generated/src/WEBSERVER001/HTTPServer/httpd.c **** #ifndef LWIP_HTTPD_MAX_REQ_LENGTH
 210:../Dave/Generated/src/WEBSERVER001/HTTPServer/httpd.c **** #define LWIP_HTTPD_MAX_REQ_LENGTH           1023
 211:../Dave/Generated/src/WEBSERVER001/HTTPServer/httpd.c **** #endif
 212:../Dave/Generated/src/WEBSERVER001/HTTPServer/httpd.c **** #endif /* LWIP_HTTPD_SUPPORT_REQUESTLIST */
 213:../Dave/Generated/src/WEBSERVER001/HTTPServer/httpd.c **** 
 214:../Dave/Generated/src/WEBSERVER001/HTTPServer/httpd.c **** /** Maximum length of the filename to send as response to a POST request,
 215:../Dave/Generated/src/WEBSERVER001/HTTPServer/httpd.c ****  * filled in by the application when a POST is finished.
 216:../Dave/Generated/src/WEBSERVER001/HTTPServer/httpd.c ****  */
 217:../Dave/Generated/src/WEBSERVER001/HTTPServer/httpd.c **** #ifndef LWIP_HTTPD_POST_MAX_RESPONSE_URI_LEN
 218:../Dave/Generated/src/WEBSERVER001/HTTPServer/httpd.c **** #define LWIP_HTTPD_POST_MAX_RESPONSE_URI_LEN 63
 219:../Dave/Generated/src/WEBSERVER001/HTTPServer/httpd.c **** #endif
 220:../Dave/Generated/src/WEBSERVER001/HTTPServer/httpd.c **** 
 221:../Dave/Generated/src/WEBSERVER001/HTTPServer/httpd.c **** /** Set this to 0 to not send the SSI tag (default is on, so the tag will
 222:../Dave/Generated/src/WEBSERVER001/HTTPServer/httpd.c ****  * be sent in the HTML page */
 223:../Dave/Generated/src/WEBSERVER001/HTTPServer/httpd.c **** #ifndef LWIP_HTTPD_SSI_INCLUDE_TAG
 224:../Dave/Generated/src/WEBSERVER001/HTTPServer/httpd.c **** #define LWIP_HTTPD_SSI_INCLUDE_TAG           1
 225:../Dave/Generated/src/WEBSERVER001/HTTPServer/httpd.c **** #endif
 226:../Dave/Generated/src/WEBSERVER001/HTTPServer/httpd.c **** 
 227:../Dave/Generated/src/WEBSERVER001/HTTPServer/httpd.c **** /** Set this to 1 to call tcp_abort when tcp_close fails with memory error.
 228:../Dave/Generated/src/WEBSERVER001/HTTPServer/httpd.c ****  * This can be used to prevent consuming all memory in situations where the
 229:../Dave/Generated/src/WEBSERVER001/HTTPServer/httpd.c ****  * HTTP server has low priority compared to other communication. */
 230:../Dave/Generated/src/WEBSERVER001/HTTPServer/httpd.c **** #ifndef LWIP_HTTPD_ABORT_ON_CLOSE_MEM_ERROR
 231:../Dave/Generated/src/WEBSERVER001/HTTPServer/httpd.c **** #define LWIP_HTTPD_ABORT_ON_CLOSE_MEM_ERROR  0
 232:../Dave/Generated/src/WEBSERVER001/HTTPServer/httpd.c **** #endif
 233:../Dave/Generated/src/WEBSERVER001/HTTPServer/httpd.c **** 
 234:../Dave/Generated/src/WEBSERVER001/HTTPServer/httpd.c **** #ifndef true
 235:../Dave/Generated/src/WEBSERVER001/HTTPServer/httpd.c **** #define true ((u8_t)1)
 236:../Dave/Generated/src/WEBSERVER001/HTTPServer/httpd.c **** #endif
 237:../Dave/Generated/src/WEBSERVER001/HTTPServer/httpd.c **** 
 238:../Dave/Generated/src/WEBSERVER001/HTTPServer/httpd.c **** #ifndef false
 239:../Dave/Generated/src/WEBSERVER001/HTTPServer/httpd.c **** #define false ((u8_t)0)
 240:../Dave/Generated/src/WEBSERVER001/HTTPServer/httpd.c **** #endif
 241:../Dave/Generated/src/WEBSERVER001/HTTPServer/httpd.c **** 
 242:../Dave/Generated/src/WEBSERVER001/HTTPServer/httpd.c **** /** Minimum length for a valid HTTP/0.9 request: "GET /\r\n" -> 7 bytes */
 243:../Dave/Generated/src/WEBSERVER001/HTTPServer/httpd.c **** #define MIN_REQ_LEN   7
 244:../Dave/Generated/src/WEBSERVER001/HTTPServer/httpd.c **** 
 245:../Dave/Generated/src/WEBSERVER001/HTTPServer/httpd.c **** #define CRLF "\r\n"
 246:../Dave/Generated/src/WEBSERVER001/HTTPServer/httpd.c **** 
 247:../Dave/Generated/src/WEBSERVER001/HTTPServer/httpd.c **** /** These defines check whether tcp_write has to copy data or not */
 248:../Dave/Generated/src/WEBSERVER001/HTTPServer/httpd.c **** 
 249:../Dave/Generated/src/WEBSERVER001/HTTPServer/httpd.c **** /** Always volatile if used file system on SD*/
 250:../Dave/Generated/src/WEBSERVER001/HTTPServer/httpd.c **** #if HTTPD_FAT_FS
 251:../Dave/Generated/src/WEBSERVER001/HTTPServer/httpd.c **** #define HTTP_IS_DATA_VOLATILE(hs) (1)
 252:../Dave/Generated/src/WEBSERVER001/HTTPServer/httpd.c **** #define HTTP_IS_HDR_VOLATILE (1)
 253:../Dave/Generated/src/WEBSERVER001/HTTPServer/httpd.c **** #endif
 254:../Dave/Generated/src/WEBSERVER001/HTTPServer/httpd.c **** 
 255:../Dave/Generated/src/WEBSERVER001/HTTPServer/httpd.c **** #ifndef HTTP_IS_DATA_VOLATILE
 256:../Dave/Generated/src/WEBSERVER001/HTTPServer/httpd.c **** #if LWIP_HTTPD_SSI
 257:../Dave/Generated/src/WEBSERVER001/HTTPServer/httpd.c **** /* Copy for SSI files, no copy for non-SSI files */
 258:../Dave/Generated/src/WEBSERVER001/HTTPServer/httpd.c **** #define HTTP_IS_DATA_VOLATILE(hs)   ((hs)->tag_check ? TCP_WRITE_FLAG_COPY : 0)
 259:../Dave/Generated/src/WEBSERVER001/HTTPServer/httpd.c **** #else /* LWIP_HTTPD_SSI */
 260:../Dave/Generated/src/WEBSERVER001/HTTPServer/httpd.c **** /** Default: don't copy if the data is sent from file-system directly */
 261:../Dave/Generated/src/WEBSERVER001/HTTPServer/httpd.c **** #define HTTP_IS_DATA_VOLATILE(hs) (((hs->file != NULL) && (hs->handle != NULL) && (hs->file == \
 262:../Dave/Generated/src/WEBSERVER001/HTTPServer/httpd.c ****                                    (char*)hs->handle->data + hs->handle->len - hs->left)) \
 263:../Dave/Generated/src/WEBSERVER001/HTTPServer/httpd.c ****                                    ? 0 : TCP_WRITE_FLAG_COPY)
 264:../Dave/Generated/src/WEBSERVER001/HTTPServer/httpd.c **** #endif /* LWIP_HTTPD_SSI */
 265:../Dave/Generated/src/WEBSERVER001/HTTPServer/httpd.c **** #endif
 266:../Dave/Generated/src/WEBSERVER001/HTTPServer/httpd.c **** 
 267:../Dave/Generated/src/WEBSERVER001/HTTPServer/httpd.c **** /** Default: headers are sent from ROM */
 268:../Dave/Generated/src/WEBSERVER001/HTTPServer/httpd.c **** #ifndef HTTP_IS_HDR_VOLATILE
 269:../Dave/Generated/src/WEBSERVER001/HTTPServer/httpd.c **** #define HTTP_IS_HDR_VOLATILE(hs, ptr) 0
 270:../Dave/Generated/src/WEBSERVER001/HTTPServer/httpd.c **** #endif
 271:../Dave/Generated/src/WEBSERVER001/HTTPServer/httpd.c **** 
 272:../Dave/Generated/src/WEBSERVER001/HTTPServer/httpd.c **** #if LWIP_HTTPD_SSI
 273:../Dave/Generated/src/WEBSERVER001/HTTPServer/httpd.c **** /** Default: Tags are sent from struct http_state and are therefore volatile */
 274:../Dave/Generated/src/WEBSERVER001/HTTPServer/httpd.c **** #ifndef HTTP_IS_TAG_VOLATILE
 275:../Dave/Generated/src/WEBSERVER001/HTTPServer/httpd.c **** #define HTTP_IS_TAG_VOLATILE(ptr) TCP_WRITE_FLAG_COPY
 276:../Dave/Generated/src/WEBSERVER001/HTTPServer/httpd.c **** #endif
 277:../Dave/Generated/src/WEBSERVER001/HTTPServer/httpd.c **** #endif /* LWIP_HTTPD_SSI */
 278:../Dave/Generated/src/WEBSERVER001/HTTPServer/httpd.c **** 
 279:../Dave/Generated/src/WEBSERVER001/HTTPServer/httpd.c **** typedef struct
 280:../Dave/Generated/src/WEBSERVER001/HTTPServer/httpd.c **** {
 281:../Dave/Generated/src/WEBSERVER001/HTTPServer/httpd.c ****   const char *name;
 282:../Dave/Generated/src/WEBSERVER001/HTTPServer/httpd.c ****   u8_t shtml;
 283:../Dave/Generated/src/WEBSERVER001/HTTPServer/httpd.c **** } default_filename;
 284:../Dave/Generated/src/WEBSERVER001/HTTPServer/httpd.c **** 
 285:../Dave/Generated/src/WEBSERVER001/HTTPServer/httpd.c **** const default_filename g_psDefaultFilenames[] = {
 286:../Dave/Generated/src/WEBSERVER001/HTTPServer/httpd.c **** #if HTTPD_FAT_FS
 287:../Dave/Generated/src/WEBSERVER001/HTTPServer/httpd.c ****   {"\\index.shtml", true },
 288:../Dave/Generated/src/WEBSERVER001/HTTPServer/httpd.c ****   {"\\index.ssi", true },
 289:../Dave/Generated/src/WEBSERVER001/HTTPServer/httpd.c ****   {"\\index.shtm", true },
 290:../Dave/Generated/src/WEBSERVER001/HTTPServer/httpd.c ****   {"\\index.html", false },
 291:../Dave/Generated/src/WEBSERVER001/HTTPServer/httpd.c ****   {"\\index.htm", false }
 292:../Dave/Generated/src/WEBSERVER001/HTTPServer/httpd.c **** #else
 293:../Dave/Generated/src/WEBSERVER001/HTTPServer/httpd.c ****   {"/index.shtml", true },
 294:../Dave/Generated/src/WEBSERVER001/HTTPServer/httpd.c ****   {"/index.ssi", true },
 295:../Dave/Generated/src/WEBSERVER001/HTTPServer/httpd.c ****   {"/index.shtm", true },
 296:../Dave/Generated/src/WEBSERVER001/HTTPServer/httpd.c ****   {"/index.html", false },
 297:../Dave/Generated/src/WEBSERVER001/HTTPServer/httpd.c ****   {"/index.htm", false }
 298:../Dave/Generated/src/WEBSERVER001/HTTPServer/httpd.c **** #endif
 299:../Dave/Generated/src/WEBSERVER001/HTTPServer/httpd.c **** };
 300:../Dave/Generated/src/WEBSERVER001/HTTPServer/httpd.c **** 
 301:../Dave/Generated/src/WEBSERVER001/HTTPServer/httpd.c **** #if HTTPD_FAT_FS
 302:../Dave/Generated/src/WEBSERVER001/HTTPServer/httpd.c **** FATFS myfsObject ;
 303:../Dave/Generated/src/WEBSERVER001/HTTPServer/httpd.c **** #endif
 304:../Dave/Generated/src/WEBSERVER001/HTTPServer/httpd.c **** 
 305:../Dave/Generated/src/WEBSERVER001/HTTPServer/httpd.c **** #define NUM_DEFAULT_FILENAMES (sizeof(g_psDefaultFilenames) /   \
 306:../Dave/Generated/src/WEBSERVER001/HTTPServer/httpd.c ****                                sizeof(default_filename))
 307:../Dave/Generated/src/WEBSERVER001/HTTPServer/httpd.c **** 
 308:../Dave/Generated/src/WEBSERVER001/HTTPServer/httpd.c **** #if LWIP_HTTPD_SUPPORT_REQUESTLIST
 309:../Dave/Generated/src/WEBSERVER001/HTTPServer/httpd.c **** /** HTTP request is copied here from pbufs for simple parsing */
 310:../Dave/Generated/src/WEBSERVER001/HTTPServer/httpd.c **** static char httpd_req_buf[LWIP_HTTPD_MAX_REQ_LENGTH+1];
 311:../Dave/Generated/src/WEBSERVER001/HTTPServer/httpd.c **** #endif /* LWIP_HTTPD_SUPPORT_REQUESTLIST */
 312:../Dave/Generated/src/WEBSERVER001/HTTPServer/httpd.c **** 
 313:../Dave/Generated/src/WEBSERVER001/HTTPServer/httpd.c **** #if LWIP_HTTPD_SUPPORT_POST
 314:../Dave/Generated/src/WEBSERVER001/HTTPServer/httpd.c **** /** Filename for response file to send when POST is finished */
 315:../Dave/Generated/src/WEBSERVER001/HTTPServer/httpd.c **** static char http_post_response_filename[LWIP_HTTPD_POST_MAX_RESPONSE_URI_LEN+1];
 316:../Dave/Generated/src/WEBSERVER001/HTTPServer/httpd.c **** #endif /* LWIP_HTTPD_SUPPORT_POST */
 317:../Dave/Generated/src/WEBSERVER001/HTTPServer/httpd.c **** 
 318:../Dave/Generated/src/WEBSERVER001/HTTPServer/httpd.c **** #if LWIP_HTTPD_DYNAMIC_HEADERS
 319:../Dave/Generated/src/WEBSERVER001/HTTPServer/httpd.c **** /* The number of individual strings that comprise the headers sent before each
 320:../Dave/Generated/src/WEBSERVER001/HTTPServer/httpd.c ****  * requested file.
 321:../Dave/Generated/src/WEBSERVER001/HTTPServer/httpd.c ****  */
 322:../Dave/Generated/src/WEBSERVER001/HTTPServer/httpd.c **** #define NUM_FILE_HDR_STRINGS 3
 323:../Dave/Generated/src/WEBSERVER001/HTTPServer/httpd.c **** #endif /* LWIP_HTTPD_DYNAMIC_HEADERS */
 324:../Dave/Generated/src/WEBSERVER001/HTTPServer/httpd.c **** 
 325:../Dave/Generated/src/WEBSERVER001/HTTPServer/httpd.c **** #if LWIP_HTTPD_SSI
 326:../Dave/Generated/src/WEBSERVER001/HTTPServer/httpd.c **** 
 327:../Dave/Generated/src/WEBSERVER001/HTTPServer/httpd.c **** #define HTTPD_LAST_TAG_PART 0xFFFF
 328:../Dave/Generated/src/WEBSERVER001/HTTPServer/httpd.c **** 
 329:../Dave/Generated/src/WEBSERVER001/HTTPServer/httpd.c **** const char *g_pcSSIExtensions[] = {
 330:../Dave/Generated/src/WEBSERVER001/HTTPServer/httpd.c ****   ".shtml", ".shtm", ".ssi", ".xml"
 331:../Dave/Generated/src/WEBSERVER001/HTTPServer/httpd.c **** };
 332:../Dave/Generated/src/WEBSERVER001/HTTPServer/httpd.c **** 
 333:../Dave/Generated/src/WEBSERVER001/HTTPServer/httpd.c **** #define NUM_SHTML_EXTENSIONS (sizeof(g_pcSSIExtensions) / sizeof(const char *))
 334:../Dave/Generated/src/WEBSERVER001/HTTPServer/httpd.c **** 
 335:../Dave/Generated/src/WEBSERVER001/HTTPServer/httpd.c **** enum tag_check_state {
 336:../Dave/Generated/src/WEBSERVER001/HTTPServer/httpd.c ****   TAG_NONE,       /* Not processing an SSI tag */
 337:../Dave/Generated/src/WEBSERVER001/HTTPServer/httpd.c ****   TAG_LEADIN,     /* Tag lead in "<!--#" being processed */
 338:../Dave/Generated/src/WEBSERVER001/HTTPServer/httpd.c ****   TAG_FOUND,      /* Tag name being read, looking for lead-out start */
 339:../Dave/Generated/src/WEBSERVER001/HTTPServer/httpd.c ****   TAG_LEADOUT,    /* Tag lead out "-->" being processed */
 340:../Dave/Generated/src/WEBSERVER001/HTTPServer/httpd.c ****   TAG_SENDING     /* Sending tag replacement string */
 341:../Dave/Generated/src/WEBSERVER001/HTTPServer/httpd.c **** };
 342:../Dave/Generated/src/WEBSERVER001/HTTPServer/httpd.c **** #endif /* LWIP_HTTPD_SSI */
 343:../Dave/Generated/src/WEBSERVER001/HTTPServer/httpd.c **** 
 344:../Dave/Generated/src/WEBSERVER001/HTTPServer/httpd.c **** struct http_state {
 345:../Dave/Generated/src/WEBSERVER001/HTTPServer/httpd.c ****   struct fs_file *handle;
 346:../Dave/Generated/src/WEBSERVER001/HTTPServer/httpd.c ****   char *file;       /* Pointer to first unsent byte in buf. */
 347:../Dave/Generated/src/WEBSERVER001/HTTPServer/httpd.c **** 
 348:../Dave/Generated/src/WEBSERVER001/HTTPServer/httpd.c **** #if LWIP_HTTPD_SUPPORT_REQUESTLIST
 349:../Dave/Generated/src/WEBSERVER001/HTTPServer/httpd.c ****   struct pbuf *req;
 350:../Dave/Generated/src/WEBSERVER001/HTTPServer/httpd.c **** #endif /* LWIP_HTTPD_SUPPORT_REQUESTLIST */
 351:../Dave/Generated/src/WEBSERVER001/HTTPServer/httpd.c **** 
 352:../Dave/Generated/src/WEBSERVER001/HTTPServer/httpd.c **** #if LWIP_HTTPD_SSI || LWIP_HTTPD_DYNAMIC_HEADERS
 353:../Dave/Generated/src/WEBSERVER001/HTTPServer/httpd.c ****   char *buf;        /* File read buffer. */
 354:../Dave/Generated/src/WEBSERVER001/HTTPServer/httpd.c ****   int buf_len;      /* Size of file read buffer, buf. */
 355:../Dave/Generated/src/WEBSERVER001/HTTPServer/httpd.c **** #endif /* LWIP_HTTPD_SSI || LWIP_HTTPD_DYNAMIC_HEADERS */
 356:../Dave/Generated/src/WEBSERVER001/HTTPServer/httpd.c ****   u32_t left;       /* Number of unsent bytes in buf. */
 357:../Dave/Generated/src/WEBSERVER001/HTTPServer/httpd.c ****   u8_t retries;
 358:../Dave/Generated/src/WEBSERVER001/HTTPServer/httpd.c **** #if LWIP_HTTPD_SSI
 359:../Dave/Generated/src/WEBSERVER001/HTTPServer/httpd.c ****   const char *parsed;     /* Pointer to the first unparsed byte in buf. */
 360:../Dave/Generated/src/WEBSERVER001/HTTPServer/httpd.c **** #if !LWIP_HTTPD_SSI_INCLUDE_TAG
 361:../Dave/Generated/src/WEBSERVER001/HTTPServer/httpd.c ****   const char *tag_started;/* Poitner to the first opening '<' of the tag. */
 362:../Dave/Generated/src/WEBSERVER001/HTTPServer/httpd.c **** #endif /* !LWIP_HTTPD_SSI_INCLUDE_TAG */
 363:../Dave/Generated/src/WEBSERVER001/HTTPServer/httpd.c ****   const char *tag_end;    /* Pointer to char after the closing '>' of the tag. */
 364:../Dave/Generated/src/WEBSERVER001/HTTPServer/httpd.c ****   u32_t parse_left; /* Number of unparsed bytes in buf. */
 365:../Dave/Generated/src/WEBSERVER001/HTTPServer/httpd.c ****   u16_t tag_index;   /* Counter used by tag parsing state machine */
 366:../Dave/Generated/src/WEBSERVER001/HTTPServer/httpd.c ****   u16_t tag_insert_len; /* Length of insert in string tag_insert */
 367:../Dave/Generated/src/WEBSERVER001/HTTPServer/httpd.c **** #if LWIP_HTTPD_SSI_MULTIPART
 368:../Dave/Generated/src/WEBSERVER001/HTTPServer/httpd.c ****   u16_t tag_part; /* Counter passed to and changed by tag insertion function to insert multiple tim
 369:../Dave/Generated/src/WEBSERVER001/HTTPServer/httpd.c **** #endif /* LWIP_HTTPD_SSI_MULTIPART */
 370:../Dave/Generated/src/WEBSERVER001/HTTPServer/httpd.c ****   u8_t tag_check;   /* true if we are processing a .shtml file else false */
 371:../Dave/Generated/src/WEBSERVER001/HTTPServer/httpd.c ****   u8_t tag_name_len; /* Length of the tag name in string tag_name */
 372:../Dave/Generated/src/WEBSERVER001/HTTPServer/httpd.c ****   char tag_name[LWIP_HTTPD_MAX_TAG_NAME_LEN + 1]; /* Last tag name extracted */
 373:../Dave/Generated/src/WEBSERVER001/HTTPServer/httpd.c ****   char tag_insert[LWIP_HTTPD_MAX_TAG_INSERT_LEN + 1]; /* Insert string for tag_name */
 374:../Dave/Generated/src/WEBSERVER001/HTTPServer/httpd.c ****   enum tag_check_state tag_state; /* State of the tag processor */
 375:../Dave/Generated/src/WEBSERVER001/HTTPServer/httpd.c **** #endif /* LWIP_HTTPD_SSI */
 376:../Dave/Generated/src/WEBSERVER001/HTTPServer/httpd.c **** #if LWIP_HTTPD_CGI
 377:../Dave/Generated/src/WEBSERVER001/HTTPServer/httpd.c ****   char *params[LWIP_HTTPD_MAX_CGI_PARAMETERS]; /* Params extracted from the request URI */
 378:../Dave/Generated/src/WEBSERVER001/HTTPServer/httpd.c ****   char *param_vals[LWIP_HTTPD_MAX_CGI_PARAMETERS]; /* Values for each extracted param */
 379:../Dave/Generated/src/WEBSERVER001/HTTPServer/httpd.c **** #endif /* LWIP_HTTPD_CGI */
 380:../Dave/Generated/src/WEBSERVER001/HTTPServer/httpd.c **** #if LWIP_HTTPD_DYNAMIC_HEADERS
 381:../Dave/Generated/src/WEBSERVER001/HTTPServer/httpd.c ****   const char *hdrs[NUM_FILE_HDR_STRINGS]; /* HTTP headers to be sent. */
 382:../Dave/Generated/src/WEBSERVER001/HTTPServer/httpd.c ****   u16_t hdr_pos;     /* The position of the first unsent header byte in the
 383:../Dave/Generated/src/WEBSERVER001/HTTPServer/httpd.c ****                         current string */
 384:../Dave/Generated/src/WEBSERVER001/HTTPServer/httpd.c ****   u16_t hdr_index;   /* The index of the hdr string currently being sent. */
 385:../Dave/Generated/src/WEBSERVER001/HTTPServer/httpd.c **** #endif /* LWIP_HTTPD_DYNAMIC_HEADERS */
 386:../Dave/Generated/src/WEBSERVER001/HTTPServer/httpd.c **** #if LWIP_HTTPD_TIMING
 387:../Dave/Generated/src/WEBSERVER001/HTTPServer/httpd.c ****   u32_t time_started;
 388:../Dave/Generated/src/WEBSERVER001/HTTPServer/httpd.c **** #endif /* LWIP_HTTPD_TIMING */
 389:../Dave/Generated/src/WEBSERVER001/HTTPServer/httpd.c **** #if LWIP_HTTPD_SUPPORT_POST
 390:../Dave/Generated/src/WEBSERVER001/HTTPServer/httpd.c ****   u32_t post_content_len_left;
 391:../Dave/Generated/src/WEBSERVER001/HTTPServer/httpd.c **** #if LWIP_HTTPD_POST_MANUAL_WND
 392:../Dave/Generated/src/WEBSERVER001/HTTPServer/httpd.c ****   u32_t unrecved_bytes;
 393:../Dave/Generated/src/WEBSERVER001/HTTPServer/httpd.c ****   struct tcp_pcb *pcb;
 394:../Dave/Generated/src/WEBSERVER001/HTTPServer/httpd.c ****   u8_t no_auto_wnd;
 395:../Dave/Generated/src/WEBSERVER001/HTTPServer/httpd.c **** #endif /* LWIP_HTTPD_POST_MANUAL_WND */
 396:../Dave/Generated/src/WEBSERVER001/HTTPServer/httpd.c **** #endif /* LWIP_HTTPD_SUPPORT_POST*/
 397:../Dave/Generated/src/WEBSERVER001/HTTPServer/httpd.c **** };
 398:../Dave/Generated/src/WEBSERVER001/HTTPServer/httpd.c **** 
 399:../Dave/Generated/src/WEBSERVER001/HTTPServer/httpd.c **** static err_t http_find_file(struct http_state *hs, const char *uri, int is_09);
 400:../Dave/Generated/src/WEBSERVER001/HTTPServer/httpd.c **** static err_t http_init_file(struct http_state *hs, struct fs_file *file, int is_09, const char *uri
 401:../Dave/Generated/src/WEBSERVER001/HTTPServer/httpd.c **** static err_t http_poll(void *arg, struct tcp_pcb *pcb);
 402:../Dave/Generated/src/WEBSERVER001/HTTPServer/httpd.c **** 
 403:../Dave/Generated/src/WEBSERVER001/HTTPServer/httpd.c **** #if LWIP_HTTPD_SSI
 404:../Dave/Generated/src/WEBSERVER001/HTTPServer/httpd.c **** /* SSI insert handler function pointer. */
 405:../Dave/Generated/src/WEBSERVER001/HTTPServer/httpd.c **** tSSIHandler g_pfnSSIHandler = NULL;
 406:../Dave/Generated/src/WEBSERVER001/HTTPServer/httpd.c **** int g_iNumTags = 0;
 407:../Dave/Generated/src/WEBSERVER001/HTTPServer/httpd.c **** const char **g_ppcTags = NULL;
 408:../Dave/Generated/src/WEBSERVER001/HTTPServer/httpd.c **** 
 409:../Dave/Generated/src/WEBSERVER001/HTTPServer/httpd.c **** #define LEN_TAG_LEAD_IN 5
 410:../Dave/Generated/src/WEBSERVER001/HTTPServer/httpd.c **** const char * const g_pcTagLeadIn = "<!--#";
 411:../Dave/Generated/src/WEBSERVER001/HTTPServer/httpd.c **** 
 412:../Dave/Generated/src/WEBSERVER001/HTTPServer/httpd.c **** #define LEN_TAG_LEAD_OUT 3
 413:../Dave/Generated/src/WEBSERVER001/HTTPServer/httpd.c **** const char * const g_pcTagLeadOut = "-->";
 414:../Dave/Generated/src/WEBSERVER001/HTTPServer/httpd.c **** #endif /* LWIP_HTTPD_SSI */
 415:../Dave/Generated/src/WEBSERVER001/HTTPServer/httpd.c **** 
 416:../Dave/Generated/src/WEBSERVER001/HTTPServer/httpd.c **** #if LWIP_HTTPD_CGI
 417:../Dave/Generated/src/WEBSERVER001/HTTPServer/httpd.c **** /* CGI handler information */
 418:../Dave/Generated/src/WEBSERVER001/HTTPServer/httpd.c **** const tCGI *g_pCGIs = NULL;
 419:../Dave/Generated/src/WEBSERVER001/HTTPServer/httpd.c **** int g_iNumCGIs = 0;
 420:../Dave/Generated/src/WEBSERVER001/HTTPServer/httpd.c **** #endif /* LWIP_HTTPD_CGI */
 421:../Dave/Generated/src/WEBSERVER001/HTTPServer/httpd.c **** 
 422:../Dave/Generated/src/WEBSERVER001/HTTPServer/httpd.c **** #if LWIP_HTTPD_STRNSTR_PRIVATE
 423:../Dave/Generated/src/WEBSERVER001/HTTPServer/httpd.c **** /** Like strstr but does not need 'buffer' to be NULL-terminated */
 424:../Dave/Generated/src/WEBSERVER001/HTTPServer/httpd.c **** static char*
 425:../Dave/Generated/src/WEBSERVER001/HTTPServer/httpd.c **** strnstr(const char* buffer, const char* token, size_t n)
 426:../Dave/Generated/src/WEBSERVER001/HTTPServer/httpd.c **** {
 142              		.loc 1 426 0
 143              		.cfi_startproc
 144              		@ args = 0, pretend = 0, frame = 24
 145              		@ frame_needed = 1, uses_anonymous_args = 0
 146 0000 80B5     		push	{r7, lr}
 147              	.LCFI0:
 148              		.cfi_def_cfa_offset 8
 149              		.cfi_offset 7, -8
 150              		.cfi_offset 14, -4
 151 0002 86B0     		sub	sp, sp, #24
 152              	.LCFI1:
 153              		.cfi_def_cfa_offset 32
 154 0004 00AF     		add	r7, sp, #0
 155              	.LCFI2:
 156              		.cfi_def_cfa_register 7
 157 0006 F860     		str	r0, [r7, #12]
 158 0008 B960     		str	r1, [r7, #8]
 159 000a 7A60     		str	r2, [r7, #4]
 427:../Dave/Generated/src/WEBSERVER001/HTTPServer/httpd.c ****   const char* p;
 428:../Dave/Generated/src/WEBSERVER001/HTTPServer/httpd.c ****   int tokenlen = (int)strlen(token);
 160              		.loc 1 428 0
 161 000c B868     		ldr	r0, [r7, #8]
 162 000e FFF7FEFF 		bl	strlen
 163 0012 0346     		mov	r3, r0
 164 0014 3B61     		str	r3, [r7, #16]
 429:../Dave/Generated/src/WEBSERVER001/HTTPServer/httpd.c ****   if (tokenlen == 0) {
 165              		.loc 1 429 0
 166 0016 3B69     		ldr	r3, [r7, #16]
 167 0018 002B     		cmp	r3, #0
 168 001a 01D1     		bne	.L2
 430:../Dave/Generated/src/WEBSERVER001/HTTPServer/httpd.c ****     return (char *)buffer;
 169              		.loc 1 430 0
 170 001c FB68     		ldr	r3, [r7, #12]
 171 001e 25E0     		b	.L3
 172              	.L2:
 431:../Dave/Generated/src/WEBSERVER001/HTTPServer/httpd.c ****   }
 432:../Dave/Generated/src/WEBSERVER001/HTTPServer/httpd.c ****   for (p = buffer; *p && (p + tokenlen <= buffer + n); p++) {
 173              		.loc 1 432 0
 174 0020 FB68     		ldr	r3, [r7, #12]
 175 0022 7B61     		str	r3, [r7, #20]
 176 0024 14E0     		b	.L4
 177              	.L7:
 433:../Dave/Generated/src/WEBSERVER001/HTTPServer/httpd.c ****     if ((*p == *token) && (strncmp(p, token, tokenlen) == 0)) {
 178              		.loc 1 433 0
 179 0026 7B69     		ldr	r3, [r7, #20]
 180 0028 1A78     		ldrb	r2, [r3, #0]	@ zero_extendqisi2
 181 002a BB68     		ldr	r3, [r7, #8]
 182 002c 1B78     		ldrb	r3, [r3, #0]	@ zero_extendqisi2
 183 002e 9A42     		cmp	r2, r3
 184 0030 0AD1     		bne	.L5
 185              		.loc 1 433 0 is_stmt 0 discriminator 1
 186 0032 3B69     		ldr	r3, [r7, #16]
 187 0034 7869     		ldr	r0, [r7, #20]
 188 0036 B968     		ldr	r1, [r7, #8]
 189 0038 1A46     		mov	r2, r3
 190 003a FFF7FEFF 		bl	strncmp
 191 003e 0346     		mov	r3, r0
 192 0040 002B     		cmp	r3, #0
 193 0042 01D1     		bne	.L5
 434:../Dave/Generated/src/WEBSERVER001/HTTPServer/httpd.c ****       return (char *)p;
 194              		.loc 1 434 0 is_stmt 1
 195 0044 7B69     		ldr	r3, [r7, #20]
 196 0046 11E0     		b	.L3
 197              	.L5:
 432:../Dave/Generated/src/WEBSERVER001/HTTPServer/httpd.c ****   for (p = buffer; *p && (p + tokenlen <= buffer + n); p++) {
 198              		.loc 1 432 0
 199 0048 7B69     		ldr	r3, [r7, #20]
 200 004a 03F10103 		add	r3, r3, #1
 201 004e 7B61     		str	r3, [r7, #20]
 202              	.L4:
 432:../Dave/Generated/src/WEBSERVER001/HTTPServer/httpd.c ****   for (p = buffer; *p && (p + tokenlen <= buffer + n); p++) {
 203              		.loc 1 432 0 is_stmt 0 discriminator 1
 204 0050 7B69     		ldr	r3, [r7, #20]
 205 0052 1B78     		ldrb	r3, [r3, #0]	@ zero_extendqisi2
 206 0054 002B     		cmp	r3, #0
 207 0056 07D0     		beq	.L6
 432:../Dave/Generated/src/WEBSERVER001/HTTPServer/httpd.c ****   for (p = buffer; *p && (p + tokenlen <= buffer + n); p++) {
 208              		.loc 1 432 0 discriminator 2
 209 0058 3B69     		ldr	r3, [r7, #16]
 210 005a 7A69     		ldr	r2, [r7, #20]
 211 005c D218     		adds	r2, r2, r3
 212 005e F968     		ldr	r1, [r7, #12]
 213 0060 7B68     		ldr	r3, [r7, #4]
 214 0062 CB18     		adds	r3, r1, r3
 215 0064 9A42     		cmp	r2, r3
 216 0066 DED9     		bls	.L7
 217              	.L6:
 435:../Dave/Generated/src/WEBSERVER001/HTTPServer/httpd.c ****     }
 436:../Dave/Generated/src/WEBSERVER001/HTTPServer/httpd.c ****   }
 437:../Dave/Generated/src/WEBSERVER001/HTTPServer/httpd.c ****   return NULL;
 218              		.loc 1 437 0 is_stmt 1
 219 0068 4FF00003 		mov	r3, #0
 220              	.L3:
 438:../Dave/Generated/src/WEBSERVER001/HTTPServer/httpd.c **** } 
 221              		.loc 1 438 0
 222 006c 1846     		mov	r0, r3
 223 006e 07F11807 		add	r7, r7, #24
 224 0072 BD46     		mov	sp, r7
 225 0074 80BD     		pop	{r7, pc}
 226              		.cfi_endproc
 227              	.LFE117:
 229 0076 00BF     		.section	.text.http_state_alloc,"ax",%progbits
 230              		.align	2
 231              		.thumb
 232              		.thumb_func
 234              	http_state_alloc:
 235              	.LFB118:
 439:../Dave/Generated/src/WEBSERVER001/HTTPServer/httpd.c **** #endif /* LWIP_HTTPD_STRNSTR_PRIVATE */
 440:../Dave/Generated/src/WEBSERVER001/HTTPServer/httpd.c **** 
 441:../Dave/Generated/src/WEBSERVER001/HTTPServer/httpd.c **** /** Allocate a struct http_state. */
 442:../Dave/Generated/src/WEBSERVER001/HTTPServer/httpd.c **** static struct http_state*
 443:../Dave/Generated/src/WEBSERVER001/HTTPServer/httpd.c **** http_state_alloc(void)
 444:../Dave/Generated/src/WEBSERVER001/HTTPServer/httpd.c **** {
 236              		.loc 1 444 0
 237              		.cfi_startproc
 238              		@ args = 0, pretend = 0, frame = 8
 239              		@ frame_needed = 1, uses_anonymous_args = 0
 240 0000 80B5     		push	{r7, lr}
 241              	.LCFI3:
 242              		.cfi_def_cfa_offset 8
 243              		.cfi_offset 7, -8
 244              		.cfi_offset 14, -4
 245 0002 82B0     		sub	sp, sp, #8
 246              	.LCFI4:
 247              		.cfi_def_cfa_offset 16
 248 0004 00AF     		add	r7, sp, #0
 249              	.LCFI5:
 250              		.cfi_def_cfa_register 7
 445:../Dave/Generated/src/WEBSERVER001/HTTPServer/httpd.c ****   struct http_state *ret;
 446:../Dave/Generated/src/WEBSERVER001/HTTPServer/httpd.c **** #if HTTPD_USE_MEM_POOL
 447:../Dave/Generated/src/WEBSERVER001/HTTPServer/httpd.c ****   ret = (struct http_state *)memp_malloc(MEMP_HTTPD_STATE);
 448:../Dave/Generated/src/WEBSERVER001/HTTPServer/httpd.c **** #else /* HTTPD_USE_MEM_POOL */
 449:../Dave/Generated/src/WEBSERVER001/HTTPServer/httpd.c ****   ret = (struct http_state *)mem_malloc(sizeof(struct http_state));
 251              		.loc 1 449 0
 252 0006 4FF4BE70 		mov	r0, #380
 253 000a FFF7FEFF 		bl	mem_malloc
 254 000e 7860     		str	r0, [r7, #4]
 450:../Dave/Generated/src/WEBSERVER001/HTTPServer/httpd.c **** #endif /* HTTPD_USE_MEM_POOL */
 451:../Dave/Generated/src/WEBSERVER001/HTTPServer/httpd.c ****   if (ret != NULL) {
 255              		.loc 1 451 0
 256 0010 7B68     		ldr	r3, [r7, #4]
 257 0012 002B     		cmp	r3, #0
 258 0014 06D0     		beq	.L9
 452:../Dave/Generated/src/WEBSERVER001/HTTPServer/httpd.c ****     /* Initialize the structure. */
 453:../Dave/Generated/src/WEBSERVER001/HTTPServer/httpd.c ****     memset(ret, 0, sizeof(struct http_state));
 259              		.loc 1 453 0
 260 0016 7868     		ldr	r0, [r7, #4]
 261 0018 4FF00001 		mov	r1, #0
 262 001c 4FF4BE72 		mov	r2, #380
 263 0020 FFF7FEFF 		bl	memset
 264              	.L9:
 454:../Dave/Generated/src/WEBSERVER001/HTTPServer/httpd.c **** #if LWIP_HTTPD_DYNAMIC_HEADERS
 455:../Dave/Generated/src/WEBSERVER001/HTTPServer/httpd.c ****     /* Indicate that the headers are not yet valid */
 456:../Dave/Generated/src/WEBSERVER001/HTTPServer/httpd.c ****     ret->hdr_index = NUM_FILE_HDR_STRINGS;
 457:../Dave/Generated/src/WEBSERVER001/HTTPServer/httpd.c **** #endif /* LWIP_HTTPD_DYNAMIC_HEADERS */
 458:../Dave/Generated/src/WEBSERVER001/HTTPServer/httpd.c ****   }
 459:../Dave/Generated/src/WEBSERVER001/HTTPServer/httpd.c ****   return ret;
 265              		.loc 1 459 0
 266 0024 7B68     		ldr	r3, [r7, #4]
 460:../Dave/Generated/src/WEBSERVER001/HTTPServer/httpd.c **** }
 267              		.loc 1 460 0
 268 0026 1846     		mov	r0, r3
 269 0028 07F10807 		add	r7, r7, #8
 270 002c BD46     		mov	sp, r7
 271 002e 80BD     		pop	{r7, pc}
 272              		.cfi_endproc
 273              	.LFE118:
 275              		.section	.text.http_state_free,"ax",%progbits
 276              		.align	2
 277              		.thumb
 278              		.thumb_func
 280              	http_state_free:
 281              	.LFB119:
 461:../Dave/Generated/src/WEBSERVER001/HTTPServer/httpd.c **** 
 462:../Dave/Generated/src/WEBSERVER001/HTTPServer/httpd.c **** /** Free a struct http_state.
 463:../Dave/Generated/src/WEBSERVER001/HTTPServer/httpd.c ****  * Also frees the file data if dynamic.
 464:../Dave/Generated/src/WEBSERVER001/HTTPServer/httpd.c ****  */
 465:../Dave/Generated/src/WEBSERVER001/HTTPServer/httpd.c **** static void
 466:../Dave/Generated/src/WEBSERVER001/HTTPServer/httpd.c **** http_state_free(struct http_state *hs)
 467:../Dave/Generated/src/WEBSERVER001/HTTPServer/httpd.c **** {
 282              		.loc 1 467 0
 283              		.cfi_startproc
 284              		@ args = 0, pretend = 0, frame = 8
 285              		@ frame_needed = 1, uses_anonymous_args = 0
 286 0000 80B5     		push	{r7, lr}
 287              	.LCFI6:
 288              		.cfi_def_cfa_offset 8
 289              		.cfi_offset 7, -8
 290              		.cfi_offset 14, -4
 291 0002 82B0     		sub	sp, sp, #8
 292              	.LCFI7:
 293              		.cfi_def_cfa_offset 16
 294 0004 00AF     		add	r7, sp, #0
 295              	.LCFI8:
 296              		.cfi_def_cfa_register 7
 297 0006 7860     		str	r0, [r7, #4]
 468:../Dave/Generated/src/WEBSERVER001/HTTPServer/httpd.c ****   if (hs != NULL) {
 298              		.loc 1 468 0
 299 0008 7B68     		ldr	r3, [r7, #4]
 300 000a 002B     		cmp	r3, #0
 301 000c 1CD0     		beq	.L11
 469:../Dave/Generated/src/WEBSERVER001/HTTPServer/httpd.c ****     if(hs->handle) {
 302              		.loc 1 469 0
 303 000e 7B68     		ldr	r3, [r7, #4]
 304 0010 1B68     		ldr	r3, [r3, #0]
 305 0012 002B     		cmp	r3, #0
 306 0014 08D0     		beq	.L13
 470:../Dave/Generated/src/WEBSERVER001/HTTPServer/httpd.c **** #if LWIP_HTTPD_TIMING
 471:../Dave/Generated/src/WEBSERVER001/HTTPServer/httpd.c ****       u32_t ms_needed = sys_now() - hs->time_started;
 472:../Dave/Generated/src/WEBSERVER001/HTTPServer/httpd.c ****       u32_t needed = LWIP_MAX(1, (ms_needed/100));
 473:../Dave/Generated/src/WEBSERVER001/HTTPServer/httpd.c ****       LWIP_DEBUGF(HTTPD_DEBUG_TIMING, ("httpd: needed %"U32_F" ms to send file of %d bytes -> %"U32
 474:../Dave/Generated/src/WEBSERVER001/HTTPServer/httpd.c ****         ms_needed, hs->handle->len, ((((u32_t)hs->handle->len) * 10) / needed)));
 475:../Dave/Generated/src/WEBSERVER001/HTTPServer/httpd.c **** #endif /* LWIP_HTTPD_TIMING */
 476:../Dave/Generated/src/WEBSERVER001/HTTPServer/httpd.c ****       fs_close(hs->handle);
 307              		.loc 1 476 0
 308 0016 7B68     		ldr	r3, [r7, #4]
 309 0018 1B68     		ldr	r3, [r3, #0]
 310 001a 1846     		mov	r0, r3
 311 001c FFF7FEFF 		bl	fs_close
 477:../Dave/Generated/src/WEBSERVER001/HTTPServer/httpd.c ****       hs->handle = NULL;
 312              		.loc 1 477 0
 313 0020 7B68     		ldr	r3, [r7, #4]
 314 0022 4FF00002 		mov	r2, #0
 315 0026 1A60     		str	r2, [r3, #0]
 316              	.L13:
 478:../Dave/Generated/src/WEBSERVER001/HTTPServer/httpd.c ****     }
 479:../Dave/Generated/src/WEBSERVER001/HTTPServer/httpd.c **** #if LWIP_HTTPD_SSI || LWIP_HTTPD_DYNAMIC_HEADERS
 480:../Dave/Generated/src/WEBSERVER001/HTTPServer/httpd.c ****     if (hs->buf != NULL) {
 317              		.loc 1 480 0
 318 0028 7B68     		ldr	r3, [r7, #4]
 319 002a DB68     		ldr	r3, [r3, #12]
 320 002c 002B     		cmp	r3, #0
 321 002e 08D0     		beq	.L14
 481:../Dave/Generated/src/WEBSERVER001/HTTPServer/httpd.c ****       mem_free(hs->buf);
 322              		.loc 1 481 0
 323 0030 7B68     		ldr	r3, [r7, #4]
 324 0032 DB68     		ldr	r3, [r3, #12]
 325 0034 1846     		mov	r0, r3
 326 0036 FFF7FEFF 		bl	mem_free
 482:../Dave/Generated/src/WEBSERVER001/HTTPServer/httpd.c ****       hs->buf = NULL;
 327              		.loc 1 482 0
 328 003a 7B68     		ldr	r3, [r7, #4]
 329 003c 4FF00002 		mov	r2, #0
 330 0040 DA60     		str	r2, [r3, #12]
 331              	.L14:
 483:../Dave/Generated/src/WEBSERVER001/HTTPServer/httpd.c ****     }
 484:../Dave/Generated/src/WEBSERVER001/HTTPServer/httpd.c **** #endif /* LWIP_HTTPD_SSI || LWIP_HTTPD_DYNAMIC_HEADERS */
 485:../Dave/Generated/src/WEBSERVER001/HTTPServer/httpd.c **** #if HTTPD_USE_MEM_POOL
 486:../Dave/Generated/src/WEBSERVER001/HTTPServer/httpd.c ****     memp_free(MEMP_HTTPD_STATE, hs);
 487:../Dave/Generated/src/WEBSERVER001/HTTPServer/httpd.c **** #else /* HTTPD_USE_MEM_POOL */
 488:../Dave/Generated/src/WEBSERVER001/HTTPServer/httpd.c ****     mem_free(hs);
 332              		.loc 1 488 0
 333 0042 7868     		ldr	r0, [r7, #4]
 334 0044 FFF7FEFF 		bl	mem_free
 335              	.L11:
 489:../Dave/Generated/src/WEBSERVER001/HTTPServer/httpd.c **** #endif /* HTTPD_USE_MEM_POOL */
 490:../Dave/Generated/src/WEBSERVER001/HTTPServer/httpd.c ****   }
 491:../Dave/Generated/src/WEBSERVER001/HTTPServer/httpd.c **** }
 336              		.loc 1 491 0
 337 0048 07F10807 		add	r7, r7, #8
 338 004c BD46     		mov	sp, r7
 339 004e 80BD     		pop	{r7, pc}
 340              		.cfi_endproc
 341              	.LFE119:
 343              		.section	.text.http_write,"ax",%progbits
 344              		.align	2
 345              		.thumb
 346              		.thumb_func
 348              	http_write:
 349              	.LFB120:
 492:../Dave/Generated/src/WEBSERVER001/HTTPServer/httpd.c **** 
 493:../Dave/Generated/src/WEBSERVER001/HTTPServer/httpd.c **** /** Call tcp_write() in a loop trying smaller and smaller length
 494:../Dave/Generated/src/WEBSERVER001/HTTPServer/httpd.c ****  *
 495:../Dave/Generated/src/WEBSERVER001/HTTPServer/httpd.c ****  * @param pcb tcp_pcb to send
 496:../Dave/Generated/src/WEBSERVER001/HTTPServer/httpd.c ****  * @param ptr Data to send
 497:../Dave/Generated/src/WEBSERVER001/HTTPServer/httpd.c ****  * @param length Length of data to send (in/out: on return, contains the
 498:../Dave/Generated/src/WEBSERVER001/HTTPServer/httpd.c ****  *        amount of data sent)
 499:../Dave/Generated/src/WEBSERVER001/HTTPServer/httpd.c ****  * @param apiflags directly passed to tcp_write
 500:../Dave/Generated/src/WEBSERVER001/HTTPServer/httpd.c ****  * @return the return value of tcp_write
 501:../Dave/Generated/src/WEBSERVER001/HTTPServer/httpd.c ****  */
 502:../Dave/Generated/src/WEBSERVER001/HTTPServer/httpd.c **** static err_t
 503:../Dave/Generated/src/WEBSERVER001/HTTPServer/httpd.c **** http_write(struct tcp_pcb *pcb, const void* ptr, u16_t *length, u8_t apiflags)
 504:../Dave/Generated/src/WEBSERVER001/HTTPServer/httpd.c **** {
 350              		.loc 1 504 0
 351              		.cfi_startproc
 352              		@ args = 0, pretend = 0, frame = 24
 353              		@ frame_needed = 1, uses_anonymous_args = 0
 354 0000 80B5     		push	{r7, lr}
 355              	.LCFI9:
 356              		.cfi_def_cfa_offset 8
 357              		.cfi_offset 7, -8
 358              		.cfi_offset 14, -4
 359 0002 86B0     		sub	sp, sp, #24
 360              	.LCFI10:
 361              		.cfi_def_cfa_offset 32
 362 0004 00AF     		add	r7, sp, #0
 363              	.LCFI11:
 364              		.cfi_def_cfa_register 7
 365 0006 F860     		str	r0, [r7, #12]
 366 0008 B960     		str	r1, [r7, #8]
 367 000a 7A60     		str	r2, [r7, #4]
 368 000c FB70     		strb	r3, [r7, #3]
 505:../Dave/Generated/src/WEBSERVER001/HTTPServer/httpd.c ****    u16_t len;
 506:../Dave/Generated/src/WEBSERVER001/HTTPServer/httpd.c ****    err_t err;
 507:../Dave/Generated/src/WEBSERVER001/HTTPServer/httpd.c ****    LWIP_ASSERT("length != NULL", length != NULL);
 508:../Dave/Generated/src/WEBSERVER001/HTTPServer/httpd.c ****    len = *length;
 369              		.loc 1 508 0
 370 000e 7B68     		ldr	r3, [r7, #4]
 371 0010 1B88     		ldrh	r3, [r3, #0]	@ movhi
 372 0012 FB82     		strh	r3, [r7, #22]	@ movhi
 373              	.L19:
 509:../Dave/Generated/src/WEBSERVER001/HTTPServer/httpd.c ****    do {
 510:../Dave/Generated/src/WEBSERVER001/HTTPServer/httpd.c ****      LWIP_DEBUGF(HTTPD_DEBUG | LWIP_DBG_TRACE, ("Trying go send %d bytes\n", len));
 511:../Dave/Generated/src/WEBSERVER001/HTTPServer/httpd.c ****      err = tcp_write(pcb, ptr, len, apiflags);
 374              		.loc 1 511 0
 375 0014 FA8A     		ldrh	r2, [r7, #22]
 376 0016 FB78     		ldrb	r3, [r7, #3]	@ zero_extendqisi2
 377 0018 F868     		ldr	r0, [r7, #12]
 378 001a B968     		ldr	r1, [r7, #8]
 379 001c FFF7FEFF 		bl	tcp_write
 380 0020 0346     		mov	r3, r0
 381 0022 7B75     		strb	r3, [r7, #21]
 512:../Dave/Generated/src/WEBSERVER001/HTTPServer/httpd.c ****      if (err == ERR_MEM) {
 382              		.loc 1 512 0
 383 0024 97F91530 		ldrsb	r3, [r7, #21]
 384 0028 B3F1FF3F 		cmp	r3, #-1
 385 002c 0CD1     		bne	.L16
 513:../Dave/Generated/src/WEBSERVER001/HTTPServer/httpd.c ****        if ((tcp_sndbuf(pcb) == 0))// ||            (tcp_sndqueuelen(pcb) >= TCP_SND_QUEUELEN)) {
 386              		.loc 1 513 0
 387 002e FB68     		ldr	r3, [r7, #12]
 388 0030 B3F86E30 		ldrh	r3, [r3, #110]
 389 0034 002B     		cmp	r3, #0
 390 0036 03D1     		bne	.L17
 514:../Dave/Generated/src/WEBSERVER001/HTTPServer/httpd.c ****        {/* no need to try smaller sizes */
 515:../Dave/Generated/src/WEBSERVER001/HTTPServer/httpd.c ****          len = 1;
 391              		.loc 1 515 0
 392 0038 4FF00103 		mov	r3, #1
 393 003c FB82     		strh	r3, [r7, #22]	@ movhi
 394 003e 03E0     		b	.L16
 395              	.L17:
 516:../Dave/Generated/src/WEBSERVER001/HTTPServer/httpd.c ****        } else {
 517:../Dave/Generated/src/WEBSERVER001/HTTPServer/httpd.c ****          len /= 2;
 396              		.loc 1 517 0
 397 0040 FB8A     		ldrh	r3, [r7, #22]
 398 0042 4FEA5303 		lsr	r3, r3, #1
 399 0046 FB82     		strh	r3, [r7, #22]	@ movhi
 400              	.L16:
 518:../Dave/Generated/src/WEBSERVER001/HTTPServer/httpd.c ****        }
 519:../Dave/Generated/src/WEBSERVER001/HTTPServer/httpd.c ****        LWIP_DEBUGF(HTTPD_DEBUG | LWIP_DBG_TRACE, 
 520:../Dave/Generated/src/WEBSERVER001/HTTPServer/httpd.c ****                    ("Send failed, trying less (%d bytes)\n", len));
 521:../Dave/Generated/src/WEBSERVER001/HTTPServer/httpd.c ****      }
 522:../Dave/Generated/src/WEBSERVER001/HTTPServer/httpd.c ****    } while ((err == ERR_MEM) && (len > 1));
 401              		.loc 1 522 0
 402 0048 97F91530 		ldrsb	r3, [r7, #21]
 403 004c B3F1FF3F 		cmp	r3, #-1
 404 0050 02D1     		bne	.L18
 405              		.loc 1 522 0 is_stmt 0 discriminator 1
 406 0052 FB8A     		ldrh	r3, [r7, #22]
 407 0054 012B     		cmp	r3, #1
 408 0056 DDD8     		bhi	.L19
 409              	.L18:
 523:../Dave/Generated/src/WEBSERVER001/HTTPServer/httpd.c **** 
 524:../Dave/Generated/src/WEBSERVER001/HTTPServer/httpd.c ****    if (err == ERR_OK) {
 525:../Dave/Generated/src/WEBSERVER001/HTTPServer/httpd.c ****      LWIP_DEBUGF(HTTPD_DEBUG | LWIP_DBG_TRACE, ("Sent %d bytes\n", len));
 526:../Dave/Generated/src/WEBSERVER001/HTTPServer/httpd.c ****    } else {
 527:../Dave/Generated/src/WEBSERVER001/HTTPServer/httpd.c ****      LWIP_DEBUGF(HTTPD_DEBUG | LWIP_DBG_TRACE, ("Send failed with err %d (\"%s\")\n", err, lwip_str
 528:../Dave/Generated/src/WEBSERVER001/HTTPServer/httpd.c ****    }
 529:../Dave/Generated/src/WEBSERVER001/HTTPServer/httpd.c **** 
 530:../Dave/Generated/src/WEBSERVER001/HTTPServer/httpd.c ****    *length = len;
 410              		.loc 1 530 0 is_stmt 1
 411 0058 7B68     		ldr	r3, [r7, #4]
 412 005a FA8A     		ldrh	r2, [r7, #22]	@ movhi
 413 005c 1A80     		strh	r2, [r3, #0]	@ movhi
 531:../Dave/Generated/src/WEBSERVER001/HTTPServer/httpd.c ****    return err;
 414              		.loc 1 531 0
 415 005e 7B7D     		ldrb	r3, [r7, #21]	@ zero_extendqisi2
 416 0060 5BB2     		sxtb	r3, r3
 532:../Dave/Generated/src/WEBSERVER001/HTTPServer/httpd.c **** }
 417              		.loc 1 532 0
 418 0062 1846     		mov	r0, r3
 419 0064 07F11807 		add	r7, r7, #24
 420 0068 BD46     		mov	sp, r7
 421 006a 80BD     		pop	{r7, pc}
 422              		.cfi_endproc
 423              	.LFE120:
 425              		.section	.text.http_close_conn,"ax",%progbits
 426              		.align	2
 427              		.thumb
 428              		.thumb_func
 430              	http_close_conn:
 431              	.LFB121:
 533:../Dave/Generated/src/WEBSERVER001/HTTPServer/httpd.c **** 
 534:../Dave/Generated/src/WEBSERVER001/HTTPServer/httpd.c **** /**
 535:../Dave/Generated/src/WEBSERVER001/HTTPServer/httpd.c ****  * The connection shall be actively closed.
 536:../Dave/Generated/src/WEBSERVER001/HTTPServer/httpd.c ****  * Reset the sent- and recv-callbacks.
 537:../Dave/Generated/src/WEBSERVER001/HTTPServer/httpd.c ****  *
 538:../Dave/Generated/src/WEBSERVER001/HTTPServer/httpd.c ****  * @param pcb the tcp pcb to reset callbacks
 539:../Dave/Generated/src/WEBSERVER001/HTTPServer/httpd.c ****  * @param hs connection state to free
 540:../Dave/Generated/src/WEBSERVER001/HTTPServer/httpd.c ****  */
 541:../Dave/Generated/src/WEBSERVER001/HTTPServer/httpd.c **** static err_t
 542:../Dave/Generated/src/WEBSERVER001/HTTPServer/httpd.c **** http_close_conn(struct tcp_pcb *pcb, struct http_state *hs)
 543:../Dave/Generated/src/WEBSERVER001/HTTPServer/httpd.c **** {
 432              		.loc 1 543 0
 433              		.cfi_startproc
 434              		@ args = 0, pretend = 0, frame = 16
 435              		@ frame_needed = 1, uses_anonymous_args = 0
 436 0000 80B5     		push	{r7, lr}
 437              	.LCFI12:
 438              		.cfi_def_cfa_offset 8
 439              		.cfi_offset 7, -8
 440              		.cfi_offset 14, -4
 441 0002 84B0     		sub	sp, sp, #16
 442              	.LCFI13:
 443              		.cfi_def_cfa_offset 24
 444 0004 00AF     		add	r7, sp, #0
 445              	.LCFI14:
 446              		.cfi_def_cfa_register 7
 447 0006 7860     		str	r0, [r7, #4]
 448 0008 3960     		str	r1, [r7, #0]
 544:../Dave/Generated/src/WEBSERVER001/HTTPServer/httpd.c ****   err_t err;
 545:../Dave/Generated/src/WEBSERVER001/HTTPServer/httpd.c ****   LWIP_DEBUGF(HTTPD_DEBUG, ("Closing connection %p\n", (void*)pcb));
 546:../Dave/Generated/src/WEBSERVER001/HTTPServer/httpd.c **** 
 547:../Dave/Generated/src/WEBSERVER001/HTTPServer/httpd.c **** #if LWIP_HTTPD_SUPPORT_POST
 548:../Dave/Generated/src/WEBSERVER001/HTTPServer/httpd.c ****   if (hs != NULL) {
 549:../Dave/Generated/src/WEBSERVER001/HTTPServer/httpd.c ****     if ((hs->post_content_len_left != 0)
 550:../Dave/Generated/src/WEBSERVER001/HTTPServer/httpd.c **** #if LWIP_HTTPD_POST_MANUAL_WND
 551:../Dave/Generated/src/WEBSERVER001/HTTPServer/httpd.c ****        || ((hs->no_auto_wnd != 0) && (hs->unrecved_bytes != 0))
 552:../Dave/Generated/src/WEBSERVER001/HTTPServer/httpd.c **** #endif /* LWIP_HTTPD_POST_MANUAL_WND */
 553:../Dave/Generated/src/WEBSERVER001/HTTPServer/httpd.c ****        ) {
 554:../Dave/Generated/src/WEBSERVER001/HTTPServer/httpd.c ****       /* make sure the post code knows that the connection is closed */
 555:../Dave/Generated/src/WEBSERVER001/HTTPServer/httpd.c ****       http_post_response_filename[0] = 0;
 556:../Dave/Generated/src/WEBSERVER001/HTTPServer/httpd.c ****       httpd_post_finished(hs, http_post_response_filename, LWIP_HTTPD_POST_MAX_RESPONSE_URI_LEN);
 557:../Dave/Generated/src/WEBSERVER001/HTTPServer/httpd.c ****     }
 558:../Dave/Generated/src/WEBSERVER001/HTTPServer/httpd.c ****   }
 559:../Dave/Generated/src/WEBSERVER001/HTTPServer/httpd.c **** #endif /* LWIP_HTTPD_SUPPORT_POST*/
 560:../Dave/Generated/src/WEBSERVER001/HTTPServer/httpd.c **** 
 561:../Dave/Generated/src/WEBSERVER001/HTTPServer/httpd.c **** 
 562:../Dave/Generated/src/WEBSERVER001/HTTPServer/httpd.c ****   tcp_arg(pcb, NULL);
 449              		.loc 1 562 0
 450 000a 7868     		ldr	r0, [r7, #4]
 451 000c 4FF00001 		mov	r1, #0
 452 0010 FFF7FEFF 		bl	tcp_arg
 563:../Dave/Generated/src/WEBSERVER001/HTTPServer/httpd.c ****   tcp_recv(pcb, NULL);
 453              		.loc 1 563 0
 454 0014 7868     		ldr	r0, [r7, #4]
 455 0016 4FF00001 		mov	r1, #0
 456 001a FFF7FEFF 		bl	tcp_recv
 564:../Dave/Generated/src/WEBSERVER001/HTTPServer/httpd.c ****   tcp_err(pcb, NULL);
 457              		.loc 1 564 0
 458 001e 7868     		ldr	r0, [r7, #4]
 459 0020 4FF00001 		mov	r1, #0
 460 0024 FFF7FEFF 		bl	tcp_err
 565:../Dave/Generated/src/WEBSERVER001/HTTPServer/httpd.c ****   tcp_poll(pcb, NULL, 0);
 461              		.loc 1 565 0
 462 0028 7868     		ldr	r0, [r7, #4]
 463 002a 4FF00001 		mov	r1, #0
 464 002e 4FF00002 		mov	r2, #0
 465 0032 FFF7FEFF 		bl	tcp_poll
 566:../Dave/Generated/src/WEBSERVER001/HTTPServer/httpd.c ****   tcp_sent(pcb, NULL);
 466              		.loc 1 566 0
 467 0036 7868     		ldr	r0, [r7, #4]
 468 0038 4FF00001 		mov	r1, #0
 469 003c FFF7FEFF 		bl	tcp_sent
 567:../Dave/Generated/src/WEBSERVER001/HTTPServer/httpd.c ****   if(hs != NULL) {
 470              		.loc 1 567 0
 471 0040 3B68     		ldr	r3, [r7, #0]
 472 0042 002B     		cmp	r3, #0
 473 0044 02D0     		beq	.L22
 568:../Dave/Generated/src/WEBSERVER001/HTTPServer/httpd.c ****     http_state_free(hs);
 474              		.loc 1 568 0
 475 0046 3868     		ldr	r0, [r7, #0]
 476 0048 FFF7FEFF 		bl	http_state_free
 477              	.L22:
 569:../Dave/Generated/src/WEBSERVER001/HTTPServer/httpd.c ****   }
 570:../Dave/Generated/src/WEBSERVER001/HTTPServer/httpd.c **** 
 571:../Dave/Generated/src/WEBSERVER001/HTTPServer/httpd.c ****   err = tcp_close(pcb);
 478              		.loc 1 571 0
 479 004c 7868     		ldr	r0, [r7, #4]
 480 004e FFF7FEFF 		bl	tcp_close
 481 0052 0346     		mov	r3, r0
 482 0054 FB73     		strb	r3, [r7, #15]
 572:../Dave/Generated/src/WEBSERVER001/HTTPServer/httpd.c ****   if (err != ERR_OK) {
 483              		.loc 1 572 0
 484 0056 97F90F30 		ldrsb	r3, [r7, #15]
 485 005a 002B     		cmp	r3, #0
 486 005c 08D0     		beq	.L23
 573:../Dave/Generated/src/WEBSERVER001/HTTPServer/httpd.c ****     LWIP_DEBUGF(HTTPD_DEBUG, ("Error %d closing %p\n", err, (void*)pcb));
 574:../Dave/Generated/src/WEBSERVER001/HTTPServer/httpd.c ****     /* error closing, try again later in poll */
 575:../Dave/Generated/src/WEBSERVER001/HTTPServer/httpd.c ****     tcp_poll(pcb, http_poll, HTTPD_POLL_INTERVAL);
 487              		.loc 1 575 0
 488 005e 7868     		ldr	r0, [r7, #4]
 489 0060 40F20001 		movw	r1, #:lower16:http_poll
 490 0064 C0F20001 		movt	r1, #:upper16:http_poll
 491 0068 4FF00402 		mov	r2, #4
 492 006c FFF7FEFF 		bl	tcp_poll
 493              	.L23:
 576:../Dave/Generated/src/WEBSERVER001/HTTPServer/httpd.c ****   }
 577:../Dave/Generated/src/WEBSERVER001/HTTPServer/httpd.c ****   return err;
 494              		.loc 1 577 0
 495 0070 FB7B     		ldrb	r3, [r7, #15]	@ zero_extendqisi2
 496 0072 5BB2     		sxtb	r3, r3
 578:../Dave/Generated/src/WEBSERVER001/HTTPServer/httpd.c **** }
 497              		.loc 1 578 0
 498 0074 1846     		mov	r0, r3
 499 0076 07F11007 		add	r7, r7, #16
 500 007a BD46     		mov	sp, r7
 501 007c 80BD     		pop	{r7, pc}
 502              		.cfi_endproc
 503              	.LFE121:
 505 007e 00BF     		.section	.text.extract_uri_parameters,"ax",%progbits
 506              		.align	2
 507              		.thumb
 508              		.thumb_func
 510              	extract_uri_parameters:
 511              	.LFB122:
 579:../Dave/Generated/src/WEBSERVER001/HTTPServer/httpd.c **** #if LWIP_HTTPD_CGI
 580:../Dave/Generated/src/WEBSERVER001/HTTPServer/httpd.c **** /**
 581:../Dave/Generated/src/WEBSERVER001/HTTPServer/httpd.c ****  * Extract URI parameters from the parameter-part of an URI in the form
 582:../Dave/Generated/src/WEBSERVER001/HTTPServer/httpd.c ****  * "test.cgi?x=y" @todo: better explanation!
 583:../Dave/Generated/src/WEBSERVER001/HTTPServer/httpd.c ****  * Pointers to the parameters are stored in hs->param_vals.
 584:../Dave/Generated/src/WEBSERVER001/HTTPServer/httpd.c ****  *
 585:../Dave/Generated/src/WEBSERVER001/HTTPServer/httpd.c ****  * @param hs http connection state
 586:../Dave/Generated/src/WEBSERVER001/HTTPServer/httpd.c ****  * @param params pointer to the NULL-terminated parameter string from the URI
 587:../Dave/Generated/src/WEBSERVER001/HTTPServer/httpd.c ****  * @return number of parameters extracted
 588:../Dave/Generated/src/WEBSERVER001/HTTPServer/httpd.c ****  */
 589:../Dave/Generated/src/WEBSERVER001/HTTPServer/httpd.c **** static int
 590:../Dave/Generated/src/WEBSERVER001/HTTPServer/httpd.c **** extract_uri_parameters(struct http_state *hs, char *params)
 591:../Dave/Generated/src/WEBSERVER001/HTTPServer/httpd.c **** {
 512              		.loc 1 591 0
 513              		.cfi_startproc
 514              		@ args = 0, pretend = 0, frame = 24
 515              		@ frame_needed = 1, uses_anonymous_args = 0
 516 0000 80B5     		push	{r7, lr}
 517              	.LCFI15:
 518              		.cfi_def_cfa_offset 8
 519              		.cfi_offset 7, -8
 520              		.cfi_offset 14, -4
 521 0002 86B0     		sub	sp, sp, #24
 522              	.LCFI16:
 523              		.cfi_def_cfa_offset 32
 524 0004 00AF     		add	r7, sp, #0
 525              	.LCFI17:
 526              		.cfi_def_cfa_register 7
 527 0006 7860     		str	r0, [r7, #4]
 528 0008 3960     		str	r1, [r7, #0]
 592:../Dave/Generated/src/WEBSERVER001/HTTPServer/httpd.c ****   char *pair;
 593:../Dave/Generated/src/WEBSERVER001/HTTPServer/httpd.c ****   char *equals;
 594:../Dave/Generated/src/WEBSERVER001/HTTPServer/httpd.c ****   int loop;
 595:../Dave/Generated/src/WEBSERVER001/HTTPServer/httpd.c **** 
 596:../Dave/Generated/src/WEBSERVER001/HTTPServer/httpd.c ****   /* If we have no parameters at all, return immediately. */
 597:../Dave/Generated/src/WEBSERVER001/HTTPServer/httpd.c ****   if(!params || (params[0] == '\0')) {
 529              		.loc 1 597 0
 530 000a 3B68     		ldr	r3, [r7, #0]
 531 000c 002B     		cmp	r3, #0
 532 000e 03D0     		beq	.L26
 533              		.loc 1 597 0 is_stmt 0 discriminator 1
 534 0010 3B68     		ldr	r3, [r7, #0]
 535 0012 1B78     		ldrb	r3, [r3, #0]	@ zero_extendqisi2
 536 0014 002B     		cmp	r3, #0
 537 0016 02D1     		bne	.L27
 538              	.L26:
 598:../Dave/Generated/src/WEBSERVER001/HTTPServer/httpd.c ****       return(0);
 539              		.loc 1 598 0 is_stmt 1
 540 0018 4FF00003 		mov	r3, #0
 541 001c 60E0     		b	.L28
 542              	.L27:
 599:../Dave/Generated/src/WEBSERVER001/HTTPServer/httpd.c ****   }
 600:../Dave/Generated/src/WEBSERVER001/HTTPServer/httpd.c **** 
 601:../Dave/Generated/src/WEBSERVER001/HTTPServer/httpd.c ****   /* Get a pointer to our first parameter */
 602:../Dave/Generated/src/WEBSERVER001/HTTPServer/httpd.c ****   pair = params;
 543              		.loc 1 602 0
 544 001e 3B68     		ldr	r3, [r7, #0]
 545 0020 7B61     		str	r3, [r7, #20]
 603:../Dave/Generated/src/WEBSERVER001/HTTPServer/httpd.c **** 
 604:../Dave/Generated/src/WEBSERVER001/HTTPServer/httpd.c ****   /* Parse up to LWIP_HTTPD_MAX_CGI_PARAMETERS from the passed string and ignore the
 605:../Dave/Generated/src/WEBSERVER001/HTTPServer/httpd.c ****    * remainder (if any) */
 606:../Dave/Generated/src/WEBSERVER001/HTTPServer/httpd.c ****   for(loop = 0; (loop < LWIP_HTTPD_MAX_CGI_PARAMETERS) && pair; loop++) {
 546              		.loc 1 606 0
 547 0022 4FF00003 		mov	r3, #0
 548 0026 3B61     		str	r3, [r7, #16]
 549 0028 53E0     		b	.L29
 550              	.L36:
 607:../Dave/Generated/src/WEBSERVER001/HTTPServer/httpd.c **** 
 608:../Dave/Generated/src/WEBSERVER001/HTTPServer/httpd.c ****     /* Save the name of the parameter */
 609:../Dave/Generated/src/WEBSERVER001/HTTPServer/httpd.c ****     hs->params[loop] = pair;
 551              		.loc 1 609 0
 552 002a 7A68     		ldr	r2, [r7, #4]
 553 002c 3B69     		ldr	r3, [r7, #16]
 554 002e 03F13E03 		add	r3, r3, #62
 555 0032 4FEA8303 		lsl	r3, r3, #2
 556 0036 D318     		adds	r3, r2, r3
 557 0038 7A69     		ldr	r2, [r7, #20]
 558 003a 5A60     		str	r2, [r3, #4]
 610:../Dave/Generated/src/WEBSERVER001/HTTPServer/httpd.c **** 
 611:../Dave/Generated/src/WEBSERVER001/HTTPServer/httpd.c ****     /* Remember the start of this name=value pair */
 612:../Dave/Generated/src/WEBSERVER001/HTTPServer/httpd.c ****     equals = pair;
 559              		.loc 1 612 0
 560 003c 7B69     		ldr	r3, [r7, #20]
 561 003e FB60     		str	r3, [r7, #12]
 613:../Dave/Generated/src/WEBSERVER001/HTTPServer/httpd.c **** 
 614:../Dave/Generated/src/WEBSERVER001/HTTPServer/httpd.c ****     /* Find the start of the next name=value pair and replace the delimiter
 615:../Dave/Generated/src/WEBSERVER001/HTTPServer/httpd.c ****      * with a 0 to terminate the previous pair string. */
 616:../Dave/Generated/src/WEBSERVER001/HTTPServer/httpd.c ****     pair = strchr(pair, '&');
 562              		.loc 1 616 0
 563 0040 7869     		ldr	r0, [r7, #20]
 564 0042 4FF02601 		mov	r1, #38
 565 0046 FFF7FEFF 		bl	strchr
 566 004a 7861     		str	r0, [r7, #20]
 617:../Dave/Generated/src/WEBSERVER001/HTTPServer/httpd.c ****     if(pair) {
 567              		.loc 1 617 0
 568 004c 7B69     		ldr	r3, [r7, #20]
 569 004e 002B     		cmp	r3, #0
 570 0050 08D0     		beq	.L30
 618:../Dave/Generated/src/WEBSERVER001/HTTPServer/httpd.c ****       *pair = '\0';
 571              		.loc 1 618 0
 572 0052 7B69     		ldr	r3, [r7, #20]
 573 0054 4FF00002 		mov	r2, #0
 574 0058 1A70     		strb	r2, [r3, #0]
 619:../Dave/Generated/src/WEBSERVER001/HTTPServer/httpd.c ****       pair++;
 575              		.loc 1 619 0
 576 005a 7B69     		ldr	r3, [r7, #20]
 577 005c 03F10103 		add	r3, r3, #1
 578 0060 7B61     		str	r3, [r7, #20]
 579 0062 0FE0     		b	.L31
 580              	.L30:
 620:../Dave/Generated/src/WEBSERVER001/HTTPServer/httpd.c ****     } else {
 621:../Dave/Generated/src/WEBSERVER001/HTTPServer/httpd.c ****        /* We didn't find a new parameter so find the end of the URI and
 622:../Dave/Generated/src/WEBSERVER001/HTTPServer/httpd.c ****         * replace the space with a '\0' */
 623:../Dave/Generated/src/WEBSERVER001/HTTPServer/httpd.c ****         pair = strchr(equals, ' ');
 581              		.loc 1 623 0
 582 0064 F868     		ldr	r0, [r7, #12]
 583 0066 4FF02001 		mov	r1, #32
 584 006a FFF7FEFF 		bl	strchr
 585 006e 7861     		str	r0, [r7, #20]
 624:../Dave/Generated/src/WEBSERVER001/HTTPServer/httpd.c ****         if(pair) {
 586              		.loc 1 624 0
 587 0070 7B69     		ldr	r3, [r7, #20]
 588 0072 002B     		cmp	r3, #0
 589 0074 03D0     		beq	.L32
 625:../Dave/Generated/src/WEBSERVER001/HTTPServer/httpd.c ****             *pair = '\0';
 590              		.loc 1 625 0
 591 0076 7B69     		ldr	r3, [r7, #20]
 592 0078 4FF00002 		mov	r2, #0
 593 007c 1A70     		strb	r2, [r3, #0]
 594              	.L32:
 626:../Dave/Generated/src/WEBSERVER001/HTTPServer/httpd.c ****         }
 627:../Dave/Generated/src/WEBSERVER001/HTTPServer/httpd.c **** 
 628:../Dave/Generated/src/WEBSERVER001/HTTPServer/httpd.c ****         /* Revert to NULL so that we exit the loop as expected. */
 629:../Dave/Generated/src/WEBSERVER001/HTTPServer/httpd.c ****         pair = NULL;
 595              		.loc 1 629 0
 596 007e 4FF00003 		mov	r3, #0
 597 0082 7B61     		str	r3, [r7, #20]
 598              	.L31:
 630:../Dave/Generated/src/WEBSERVER001/HTTPServer/httpd.c ****     }
 631:../Dave/Generated/src/WEBSERVER001/HTTPServer/httpd.c **** 
 632:../Dave/Generated/src/WEBSERVER001/HTTPServer/httpd.c ****     /* Now find the '=' in the previous pair, replace it with '\0' and save
 633:../Dave/Generated/src/WEBSERVER001/HTTPServer/httpd.c ****      * the parameter value string. */
 634:../Dave/Generated/src/WEBSERVER001/HTTPServer/httpd.c ****     equals = strchr(equals, '=');
 599              		.loc 1 634 0
 600 0084 F868     		ldr	r0, [r7, #12]
 601 0086 4FF03D01 		mov	r1, #61
 602 008a FFF7FEFF 		bl	strchr
 603 008e F860     		str	r0, [r7, #12]
 635:../Dave/Generated/src/WEBSERVER001/HTTPServer/httpd.c ****     if(equals) {
 604              		.loc 1 635 0
 605 0090 FB68     		ldr	r3, [r7, #12]
 606 0092 002B     		cmp	r3, #0
 607 0094 0FD0     		beq	.L33
 636:../Dave/Generated/src/WEBSERVER001/HTTPServer/httpd.c ****       *equals = '\0';
 608              		.loc 1 636 0
 609 0096 FB68     		ldr	r3, [r7, #12]
 610 0098 4FF00002 		mov	r2, #0
 611 009c 1A70     		strb	r2, [r3, #0]
 637:../Dave/Generated/src/WEBSERVER001/HTTPServer/httpd.c ****       hs->param_vals[loop] = equals + 1;
 612              		.loc 1 637 0
 613 009e FB68     		ldr	r3, [r7, #12]
 614 00a0 03F10102 		add	r2, r3, #1
 615 00a4 7968     		ldr	r1, [r7, #4]
 616 00a6 3B69     		ldr	r3, [r7, #16]
 617 00a8 03F14E03 		add	r3, r3, #78
 618 00ac 4FEA8303 		lsl	r3, r3, #2
 619 00b0 CB18     		adds	r3, r1, r3
 620 00b2 5A60     		str	r2, [r3, #4]
 621 00b4 09E0     		b	.L34
 622              	.L33:
 638:../Dave/Generated/src/WEBSERVER001/HTTPServer/httpd.c ****     } else {
 639:../Dave/Generated/src/WEBSERVER001/HTTPServer/httpd.c ****       hs->param_vals[loop] = NULL;
 623              		.loc 1 639 0
 624 00b6 7A68     		ldr	r2, [r7, #4]
 625 00b8 3B69     		ldr	r3, [r7, #16]
 626 00ba 03F14E03 		add	r3, r3, #78
 627 00be 4FEA8303 		lsl	r3, r3, #2
 628 00c2 D318     		adds	r3, r2, r3
 629 00c4 4FF00002 		mov	r2, #0
 630 00c8 5A60     		str	r2, [r3, #4]
 631              	.L34:
 606:../Dave/Generated/src/WEBSERVER001/HTTPServer/httpd.c ****   for(loop = 0; (loop < LWIP_HTTPD_MAX_CGI_PARAMETERS) && pair; loop++) {
 632              		.loc 1 606 0
 633 00ca 3B69     		ldr	r3, [r7, #16]
 634 00cc 03F10103 		add	r3, r3, #1
 635 00d0 3B61     		str	r3, [r7, #16]
 636              	.L29:
 606:../Dave/Generated/src/WEBSERVER001/HTTPServer/httpd.c ****   for(loop = 0; (loop < LWIP_HTTPD_MAX_CGI_PARAMETERS) && pair; loop++) {
 637              		.loc 1 606 0 is_stmt 0 discriminator 1
 638 00d2 3B69     		ldr	r3, [r7, #16]
 639 00d4 0F2B     		cmp	r3, #15
 640 00d6 02DC     		bgt	.L35
 606:../Dave/Generated/src/WEBSERVER001/HTTPServer/httpd.c ****   for(loop = 0; (loop < LWIP_HTTPD_MAX_CGI_PARAMETERS) && pair; loop++) {
 641              		.loc 1 606 0 discriminator 2
 642 00d8 7B69     		ldr	r3, [r7, #20]
 643 00da 002B     		cmp	r3, #0
 644 00dc A5D1     		bne	.L36
 645              	.L35:
 640:../Dave/Generated/src/WEBSERVER001/HTTPServer/httpd.c ****     }
 641:../Dave/Generated/src/WEBSERVER001/HTTPServer/httpd.c ****   }
 642:../Dave/Generated/src/WEBSERVER001/HTTPServer/httpd.c **** 
 643:../Dave/Generated/src/WEBSERVER001/HTTPServer/httpd.c ****   return loop;
 646              		.loc 1 643 0 is_stmt 1
 647 00de 3B69     		ldr	r3, [r7, #16]
 648              	.L28:
 644:../Dave/Generated/src/WEBSERVER001/HTTPServer/httpd.c **** }
 649              		.loc 1 644 0
 650 00e0 1846     		mov	r0, r3
 651 00e2 07F11807 		add	r7, r7, #24
 652 00e6 BD46     		mov	sp, r7
 653 00e8 80BD     		pop	{r7, pc}
 654              		.cfi_endproc
 655              	.LFE122:
 657 00ea 00BF     		.section	.rodata
 658              		.align	2
 659              	.LC11:
 660 009c 3C623E2A 		.ascii	"<b>***UNKNOWN TAG \000"
 660      2A2A554E 
 660      4B4E4F57 
 660      4E205441 
 660      472000
 661 00af 00       		.align	2
 662              	.LC12:
 663 00b0 2A2A2A3C 		.ascii	"***</b>\000"
 663      2F623E00 
 664              		.section	.text.get_tag_insert,"ax",%progbits
 665              		.align	2
 666              		.thumb
 667              		.thumb_func
 669              	get_tag_insert:
 670              	.LFB123:
 645:../Dave/Generated/src/WEBSERVER001/HTTPServer/httpd.c **** #endif /* LWIP_HTTPD_CGI */
 646:../Dave/Generated/src/WEBSERVER001/HTTPServer/httpd.c **** 
 647:../Dave/Generated/src/WEBSERVER001/HTTPServer/httpd.c **** #if LWIP_HTTPD_SSI
 648:../Dave/Generated/src/WEBSERVER001/HTTPServer/httpd.c **** /**
 649:../Dave/Generated/src/WEBSERVER001/HTTPServer/httpd.c ****  * Insert a tag (found in an shtml in the form of "<!--#tagname-->" into the file.
 650:../Dave/Generated/src/WEBSERVER001/HTTPServer/httpd.c ****  * The tag's name is stored in hs->tag_name (NULL-terminated), the replacement
 651:../Dave/Generated/src/WEBSERVER001/HTTPServer/httpd.c ****  * should be written to hs->tag_insert (up to a length of LWIP_HTTPD_MAX_TAG_INSERT_LEN).
 652:../Dave/Generated/src/WEBSERVER001/HTTPServer/httpd.c ****  * The amount of data written is stored to hs->tag_insert_len.
 653:../Dave/Generated/src/WEBSERVER001/HTTPServer/httpd.c ****  *
 654:../Dave/Generated/src/WEBSERVER001/HTTPServer/httpd.c ****  * @todo: return tag_insert_len - maybe it can be removed from struct http_state?
 655:../Dave/Generated/src/WEBSERVER001/HTTPServer/httpd.c ****  *
 656:../Dave/Generated/src/WEBSERVER001/HTTPServer/httpd.c ****  * @param hs http connection state
 657:../Dave/Generated/src/WEBSERVER001/HTTPServer/httpd.c ****  */
 658:../Dave/Generated/src/WEBSERVER001/HTTPServer/httpd.c **** static void
 659:../Dave/Generated/src/WEBSERVER001/HTTPServer/httpd.c **** get_tag_insert(struct http_state *hs)
 660:../Dave/Generated/src/WEBSERVER001/HTTPServer/httpd.c **** {
 671              		.loc 1 660 0
 672              		.cfi_startproc
 673              		@ args = 0, pretend = 0, frame = 16
 674              		@ frame_needed = 1, uses_anonymous_args = 0
 675 0000 80B5     		push	{r7, lr}
 676              	.LCFI18:
 677              		.cfi_def_cfa_offset 8
 678              		.cfi_offset 7, -8
 679              		.cfi_offset 14, -4
 680 0002 84B0     		sub	sp, sp, #16
 681              	.LCFI19:
 682              		.cfi_def_cfa_offset 24
 683 0004 00AF     		add	r7, sp, #0
 684              	.LCFI20:
 685              		.cfi_def_cfa_register 7
 686 0006 7860     		str	r0, [r7, #4]
 661:../Dave/Generated/src/WEBSERVER001/HTTPServer/httpd.c ****   int loop;
 662:../Dave/Generated/src/WEBSERVER001/HTTPServer/httpd.c ****   size_t len;
 663:../Dave/Generated/src/WEBSERVER001/HTTPServer/httpd.c **** #if LWIP_HTTPD_SSI_MULTIPART
 664:../Dave/Generated/src/WEBSERVER001/HTTPServer/httpd.c ****   u16_t current_tag_part = hs->tag_part;
 665:../Dave/Generated/src/WEBSERVER001/HTTPServer/httpd.c ****   hs->tag_part = HTTPD_LAST_TAG_PART;
 666:../Dave/Generated/src/WEBSERVER001/HTTPServer/httpd.c **** #endif /* LWIP_HTTPD_SSI_MULTIPART */
 667:../Dave/Generated/src/WEBSERVER001/HTTPServer/httpd.c **** 
 668:../Dave/Generated/src/WEBSERVER001/HTTPServer/httpd.c ****   if(g_pfnSSIHandler && g_ppcTags && g_iNumTags) {
 687              		.loc 1 668 0
 688 0008 40F20003 		movw	r3, #:lower16:g_pfnSSIHandler
 689 000c C0F20003 		movt	r3, #:upper16:g_pfnSSIHandler
 690 0010 1B68     		ldr	r3, [r3, #0]
 691 0012 002B     		cmp	r3, #0
 692 0014 43D0     		beq	.L38
 693              		.loc 1 668 0 is_stmt 0 discriminator 1
 694 0016 40F20003 		movw	r3, #:lower16:g_ppcTags
 695 001a C0F20003 		movt	r3, #:upper16:g_ppcTags
 696 001e 1B68     		ldr	r3, [r3, #0]
 697 0020 002B     		cmp	r3, #0
 698 0022 3CD0     		beq	.L38
 699 0024 40F20003 		movw	r3, #:lower16:g_iNumTags
 700 0028 C0F20003 		movt	r3, #:upper16:g_iNumTags
 701 002c 1B68     		ldr	r3, [r3, #0]
 702 002e 002B     		cmp	r3, #0
 703 0030 35D0     		beq	.L38
 669:../Dave/Generated/src/WEBSERVER001/HTTPServer/httpd.c **** 
 670:../Dave/Generated/src/WEBSERVER001/HTTPServer/httpd.c ****     /* Find this tag in the list we have been provided. */
 671:../Dave/Generated/src/WEBSERVER001/HTTPServer/httpd.c ****     for(loop = 0; loop < g_iNumTags; loop++) {
 704              		.loc 1 671 0 is_stmt 1
 705 0032 4FF00003 		mov	r3, #0
 706 0036 FB60     		str	r3, [r7, #12]
 707 0038 29E0     		b	.L39
 708              	.L42:
 672:../Dave/Generated/src/WEBSERVER001/HTTPServer/httpd.c ****       if(strcmp(hs->tag_name, g_ppcTags[loop]) == 0) {
 709              		.loc 1 672 0
 710 003a 7B68     		ldr	r3, [r7, #4]
 711 003c 03F12E02 		add	r2, r3, #46
 712 0040 40F20003 		movw	r3, #:lower16:g_ppcTags
 713 0044 C0F20003 		movt	r3, #:upper16:g_ppcTags
 714 0048 1968     		ldr	r1, [r3, #0]
 715 004a FB68     		ldr	r3, [r7, #12]
 716 004c 4FEA8303 		lsl	r3, r3, #2
 717 0050 CB18     		adds	r3, r1, r3
 718 0052 1B68     		ldr	r3, [r3, #0]
 719 0054 1046     		mov	r0, r2
 720 0056 1946     		mov	r1, r3
 721 0058 FFF7FEFF 		bl	strcmp
 722 005c 0346     		mov	r3, r0
 723 005e 002B     		cmp	r3, #0
 724 0060 11D1     		bne	.L40
 673:../Dave/Generated/src/WEBSERVER001/HTTPServer/httpd.c ****         hs->tag_insert_len = g_pfnSSIHandler(loop, hs->tag_insert,
 725              		.loc 1 673 0
 726 0062 40F20003 		movw	r3, #:lower16:g_pfnSSIHandler
 727 0066 C0F20003 		movt	r3, #:upper16:g_pfnSSIHandler
 728 006a 1B68     		ldr	r3, [r3, #0]
 729 006c 7A68     		ldr	r2, [r7, #4]
 730 006e 02F13702 		add	r2, r2, #55
 731 0072 F868     		ldr	r0, [r7, #12]
 732 0074 1146     		mov	r1, r2
 733 0076 4FF0C002 		mov	r2, #192
 734 007a 9847     		blx	r3
 735 007c 0346     		mov	r3, r0
 736 007e 1A46     		mov	r2, r3
 737 0080 7B68     		ldr	r3, [r7, #4]
 738 0082 5A85     		strh	r2, [r3, #42]	@ movhi
 674:../Dave/Generated/src/WEBSERVER001/HTTPServer/httpd.c ****            LWIP_HTTPD_MAX_TAG_INSERT_LEN
 675:../Dave/Generated/src/WEBSERVER001/HTTPServer/httpd.c **** #if LWIP_HTTPD_SSI_MULTIPART
 676:../Dave/Generated/src/WEBSERVER001/HTTPServer/httpd.c ****            , current_tag_part, &hs->tag_part
 677:../Dave/Generated/src/WEBSERVER001/HTTPServer/httpd.c **** #endif /* LWIP_HTTPD_SSI_MULTIPART */
 678:../Dave/Generated/src/WEBSERVER001/HTTPServer/httpd.c **** #if LWIP_HTTPD_FILE_STATE
 679:../Dave/Generated/src/WEBSERVER001/HTTPServer/httpd.c ****            , hs->handle->state
 680:../Dave/Generated/src/WEBSERVER001/HTTPServer/httpd.c **** #endif /* LWIP_HTTPD_FILE_STATE */
 681:../Dave/Generated/src/WEBSERVER001/HTTPServer/httpd.c ****            );
 682:../Dave/Generated/src/WEBSERVER001/HTTPServer/httpd.c ****         return;
 739              		.loc 1 682 0
 740 0084 5CE0     		b	.L37
 741              	.L40:
 671:../Dave/Generated/src/WEBSERVER001/HTTPServer/httpd.c ****     for(loop = 0; loop < g_iNumTags; loop++) {
 742              		.loc 1 671 0
 743 0086 FB68     		ldr	r3, [r7, #12]
 744 0088 03F10103 		add	r3, r3, #1
 745 008c FB60     		str	r3, [r7, #12]
 746              	.L39:
 671:../Dave/Generated/src/WEBSERVER001/HTTPServer/httpd.c ****     for(loop = 0; loop < g_iNumTags; loop++) {
 747              		.loc 1 671 0 is_stmt 0 discriminator 1
 748 008e 40F20003 		movw	r3, #:lower16:g_iNumTags
 749 0092 C0F20003 		movt	r3, #:upper16:g_iNumTags
 750 0096 1B68     		ldr	r3, [r3, #0]
 751 0098 FA68     		ldr	r2, [r7, #12]
 752 009a 9A42     		cmp	r2, r3
 753 009c CDDB     		blt	.L42
 754              	.L38:
 683:../Dave/Generated/src/WEBSERVER001/HTTPServer/httpd.c ****       }
 684:../Dave/Generated/src/WEBSERVER001/HTTPServer/httpd.c ****     }
 685:../Dave/Generated/src/WEBSERVER001/HTTPServer/httpd.c ****   }
 686:../Dave/Generated/src/WEBSERVER001/HTTPServer/httpd.c **** 
 687:../Dave/Generated/src/WEBSERVER001/HTTPServer/httpd.c ****   /* If we drop out, we were asked to serve a page which contains tags that
 688:../Dave/Generated/src/WEBSERVER001/HTTPServer/httpd.c ****    * we don't have a handler for. Merely echo back the tags with an error
 689:../Dave/Generated/src/WEBSERVER001/HTTPServer/httpd.c ****    * marker. */
 690:../Dave/Generated/src/WEBSERVER001/HTTPServer/httpd.c **** #define UNKNOWN_TAG1_TEXT "<b>***UNKNOWN TAG "
 691:../Dave/Generated/src/WEBSERVER001/HTTPServer/httpd.c **** #define UNKNOWN_TAG1_LEN  18
 692:../Dave/Generated/src/WEBSERVER001/HTTPServer/httpd.c **** #define UNKNOWN_TAG2_TEXT "***</b>"
 693:../Dave/Generated/src/WEBSERVER001/HTTPServer/httpd.c **** #define UNKNOWN_TAG2_LEN  7
 694:../Dave/Generated/src/WEBSERVER001/HTTPServer/httpd.c ****   len = LWIP_MIN(strlen(hs->tag_name),
 755              		.loc 1 694 0 is_stmt 1
 756 009e 7B68     		ldr	r3, [r7, #4]
 757 00a0 03F12E03 		add	r3, r3, #46
 758 00a4 1846     		mov	r0, r3
 759 00a6 FFF7FEFF 		bl	strlen
 760 00aa 0346     		mov	r3, r0
 761 00ac A62B     		cmp	r3, #166
 762 00ae 07D8     		bhi	.L43
 763              		.loc 1 694 0 is_stmt 0 discriminator 1
 764 00b0 7B68     		ldr	r3, [r7, #4]
 765 00b2 03F12E03 		add	r3, r3, #46
 766 00b6 1846     		mov	r0, r3
 767 00b8 FFF7FEFF 		bl	strlen
 768 00bc 0346     		mov	r3, r0
 769 00be 01E0     		b	.L44
 770              	.L43:
 771              		.loc 1 694 0 discriminator 2
 772 00c0 4FF0A703 		mov	r3, #167
 773              	.L44:
 774              		.loc 1 694 0 discriminator 3
 775 00c4 BB60     		str	r3, [r7, #8]
 695:../Dave/Generated/src/WEBSERVER001/HTTPServer/httpd.c ****     LWIP_HTTPD_MAX_TAG_INSERT_LEN - (UNKNOWN_TAG1_LEN + UNKNOWN_TAG2_LEN));
 696:../Dave/Generated/src/WEBSERVER001/HTTPServer/httpd.c ****   MEMCPY(hs->tag_insert, UNKNOWN_TAG1_TEXT, UNKNOWN_TAG1_LEN);
 776              		.loc 1 696 0 is_stmt 1 discriminator 3
 777 00c6 7B68     		ldr	r3, [r7, #4]
 778 00c8 03F13703 		add	r3, r3, #55
 779 00cc 1846     		mov	r0, r3
 780 00ce 40F20001 		movw	r1, #:lower16:.LC11
 781 00d2 C0F20001 		movt	r1, #:upper16:.LC11
 782 00d6 4FF01202 		mov	r2, #18
 783 00da FFF7FEFF 		bl	memcpy
 697:../Dave/Generated/src/WEBSERVER001/HTTPServer/httpd.c ****   MEMCPY(&hs->tag_insert[UNKNOWN_TAG1_LEN], hs->tag_name, len);
 784              		.loc 1 697 0 discriminator 3
 785 00de 7B68     		ldr	r3, [r7, #4]
 786 00e0 03F14902 		add	r2, r3, #73
 787 00e4 7B68     		ldr	r3, [r7, #4]
 788 00e6 03F12E03 		add	r3, r3, #46
 789 00ea 1046     		mov	r0, r2
 790 00ec 1946     		mov	r1, r3
 791 00ee BA68     		ldr	r2, [r7, #8]
 792 00f0 FFF7FEFF 		bl	memcpy
 698:../Dave/Generated/src/WEBSERVER001/HTTPServer/httpd.c ****   MEMCPY(&hs->tag_insert[UNKNOWN_TAG1_LEN + len], UNKNOWN_TAG2_TEXT, UNKNOWN_TAG2_LEN);
 793              		.loc 1 698 0 discriminator 3
 794 00f4 BB68     		ldr	r3, [r7, #8]
 795 00f6 03F11203 		add	r3, r3, #18
 796 00fa 03F13003 		add	r3, r3, #48
 797 00fe 7A68     		ldr	r2, [r7, #4]
 798 0100 D318     		adds	r3, r2, r3
 799 0102 03F10703 		add	r3, r3, #7
 800 0106 1846     		mov	r0, r3
 801 0108 40F20001 		movw	r1, #:lower16:.LC12
 802 010c C0F20001 		movt	r1, #:upper16:.LC12
 803 0110 4FF00702 		mov	r2, #7
 804 0114 FFF7FEFF 		bl	memcpy
 699:../Dave/Generated/src/WEBSERVER001/HTTPServer/httpd.c ****   hs->tag_insert[UNKNOWN_TAG1_LEN + len + UNKNOWN_TAG2_LEN] = 0;
 805              		.loc 1 699 0 discriminator 3
 806 0118 BB68     		ldr	r3, [r7, #8]
 807 011a 03F11903 		add	r3, r3, #25
 808 011e 7A68     		ldr	r2, [r7, #4]
 809 0120 D318     		adds	r3, r2, r3
 810 0122 4FF00002 		mov	r2, #0
 811 0126 83F83720 		strb	r2, [r3, #55]
 700:../Dave/Generated/src/WEBSERVER001/HTTPServer/httpd.c **** 
 701:../Dave/Generated/src/WEBSERVER001/HTTPServer/httpd.c ****   len = strlen(hs->tag_insert);
 812              		.loc 1 701 0 discriminator 3
 813 012a 7B68     		ldr	r3, [r7, #4]
 814 012c 03F13703 		add	r3, r3, #55
 815 0130 1846     		mov	r0, r3
 816 0132 FFF7FEFF 		bl	strlen
 817 0136 B860     		str	r0, [r7, #8]
 702:../Dave/Generated/src/WEBSERVER001/HTTPServer/httpd.c ****   LWIP_ASSERT("len <= 0xffff", len <= 0xffff);
 703:../Dave/Generated/src/WEBSERVER001/HTTPServer/httpd.c ****   hs->tag_insert_len = (u16_t)len;
 818              		.loc 1 703 0 discriminator 3
 819 0138 BB68     		ldr	r3, [r7, #8]
 820 013a 9AB2     		uxth	r2, r3
 821 013c 7B68     		ldr	r3, [r7, #4]
 822 013e 5A85     		strh	r2, [r3, #42]	@ movhi
 823              	.L37:
 704:../Dave/Generated/src/WEBSERVER001/HTTPServer/httpd.c **** }
 824              		.loc 1 704 0
 825 0140 07F11007 		add	r7, r7, #16
 826 0144 BD46     		mov	sp, r7
 827 0146 80BD     		pop	{r7, pc}
 828              		.cfi_endproc
 829              	.LFE123:
 831              		.section	.text.http_send_data,"ax",%progbits
 832              		.align	2
 833              		.thumb
 834              		.thumb_func
 836              	http_send_data:
 837              	.LFB124:
 705:../Dave/Generated/src/WEBSERVER001/HTTPServer/httpd.c **** #endif /* LWIP_HTTPD_SSI */
 706:../Dave/Generated/src/WEBSERVER001/HTTPServer/httpd.c **** 
 707:../Dave/Generated/src/WEBSERVER001/HTTPServer/httpd.c **** #if LWIP_HTTPD_DYNAMIC_HEADERS
 708:../Dave/Generated/src/WEBSERVER001/HTTPServer/httpd.c **** /**
 709:../Dave/Generated/src/WEBSERVER001/HTTPServer/httpd.c ****  * Generate the relevant HTTP headers for the given filename and write
 710:../Dave/Generated/src/WEBSERVER001/HTTPServer/httpd.c ****  * them into the supplied buffer.
 711:../Dave/Generated/src/WEBSERVER001/HTTPServer/httpd.c ****  */
 712:../Dave/Generated/src/WEBSERVER001/HTTPServer/httpd.c **** static void
 713:../Dave/Generated/src/WEBSERVER001/HTTPServer/httpd.c **** get_http_headers(struct http_state *pState, char *pszURI)
 714:../Dave/Generated/src/WEBSERVER001/HTTPServer/httpd.c **** {
 715:../Dave/Generated/src/WEBSERVER001/HTTPServer/httpd.c ****   unsigned int iLoop;
 716:../Dave/Generated/src/WEBSERVER001/HTTPServer/httpd.c ****   char *pszWork;
 717:../Dave/Generated/src/WEBSERVER001/HTTPServer/httpd.c ****   char *pszExt;
 718:../Dave/Generated/src/WEBSERVER001/HTTPServer/httpd.c ****   char *pszVars;
 719:../Dave/Generated/src/WEBSERVER001/HTTPServer/httpd.c **** 
 720:../Dave/Generated/src/WEBSERVER001/HTTPServer/httpd.c ****   /* Ensure that we initialize the loop counter. */
 721:../Dave/Generated/src/WEBSERVER001/HTTPServer/httpd.c ****   iLoop = 0;
 722:../Dave/Generated/src/WEBSERVER001/HTTPServer/httpd.c **** 
 723:../Dave/Generated/src/WEBSERVER001/HTTPServer/httpd.c ****   /* In all cases, the second header we send is the server identification
 724:../Dave/Generated/src/WEBSERVER001/HTTPServer/httpd.c ****      so set it here. */
 725:../Dave/Generated/src/WEBSERVER001/HTTPServer/httpd.c ****   pState->hdrs[1] = g_psHTTPHeaderStrings[HTTP_HDR_SERVER];
 726:../Dave/Generated/src/WEBSERVER001/HTTPServer/httpd.c **** 
 727:../Dave/Generated/src/WEBSERVER001/HTTPServer/httpd.c ****   /* Is this a normal file or the special case we use to send back the
 728:../Dave/Generated/src/WEBSERVER001/HTTPServer/httpd.c ****      default "404: Page not found" response? */
 729:../Dave/Generated/src/WEBSERVER001/HTTPServer/httpd.c ****   if (pszURI == NULL) {
 730:../Dave/Generated/src/WEBSERVER001/HTTPServer/httpd.c ****     pState->hdrs[0] = g_psHTTPHeaderStrings[HTTP_HDR_NOT_FOUND];
 731:../Dave/Generated/src/WEBSERVER001/HTTPServer/httpd.c ****     pState->hdrs[2] = g_psHTTPHeaderStrings[DEFAULT_404_HTML];
 732:../Dave/Generated/src/WEBSERVER001/HTTPServer/httpd.c **** 
 733:../Dave/Generated/src/WEBSERVER001/HTTPServer/httpd.c ****     /* Set up to send the first header string. */
 734:../Dave/Generated/src/WEBSERVER001/HTTPServer/httpd.c ****     pState->hdr_index = 0;
 735:../Dave/Generated/src/WEBSERVER001/HTTPServer/httpd.c ****     pState->hdr_pos = 0;
 736:../Dave/Generated/src/WEBSERVER001/HTTPServer/httpd.c ****     return;
 737:../Dave/Generated/src/WEBSERVER001/HTTPServer/httpd.c ****   } else {
 738:../Dave/Generated/src/WEBSERVER001/HTTPServer/httpd.c ****     /* We are dealing with a particular filename. Look for one other
 739:../Dave/Generated/src/WEBSERVER001/HTTPServer/httpd.c ****        special case.  We assume that any filename with "404" in it must be
 740:../Dave/Generated/src/WEBSERVER001/HTTPServer/httpd.c ****        indicative of a 404 server error whereas all other files require
 741:../Dave/Generated/src/WEBSERVER001/HTTPServer/httpd.c ****        the 200 OK header. */
 742:../Dave/Generated/src/WEBSERVER001/HTTPServer/httpd.c ****     if (strstr(pszURI, "404")) {
 743:../Dave/Generated/src/WEBSERVER001/HTTPServer/httpd.c ****       pState->hdrs[0] = g_psHTTPHeaderStrings[HTTP_HDR_NOT_FOUND];
 744:../Dave/Generated/src/WEBSERVER001/HTTPServer/httpd.c ****     } else if (strstr(pszURI, "400")) {
 745:../Dave/Generated/src/WEBSERVER001/HTTPServer/httpd.c ****       pState->hdrs[0] = g_psHTTPHeaderStrings[HTTP_HDR_BAD_REQUEST];
 746:../Dave/Generated/src/WEBSERVER001/HTTPServer/httpd.c ****     } else if (strstr(pszURI, "501")) {
 747:../Dave/Generated/src/WEBSERVER001/HTTPServer/httpd.c ****       pState->hdrs[0] = g_psHTTPHeaderStrings[HTTP_HDR_NOT_IMPL];
 748:../Dave/Generated/src/WEBSERVER001/HTTPServer/httpd.c ****     } else {
 749:../Dave/Generated/src/WEBSERVER001/HTTPServer/httpd.c ****       pState->hdrs[0] = g_psHTTPHeaderStrings[HTTP_HDR_OK];
 750:../Dave/Generated/src/WEBSERVER001/HTTPServer/httpd.c ****     }
 751:../Dave/Generated/src/WEBSERVER001/HTTPServer/httpd.c **** 
 752:../Dave/Generated/src/WEBSERVER001/HTTPServer/httpd.c ****     /* Determine if the URI has any variables and, if so, temporarily remove 
 753:../Dave/Generated/src/WEBSERVER001/HTTPServer/httpd.c ****        them. */
 754:../Dave/Generated/src/WEBSERVER001/HTTPServer/httpd.c ****     pszVars = strchr(pszURI, '?');
 755:../Dave/Generated/src/WEBSERVER001/HTTPServer/httpd.c ****     if(pszVars) {
 756:../Dave/Generated/src/WEBSERVER001/HTTPServer/httpd.c ****       *pszVars = '\0';
 757:../Dave/Generated/src/WEBSERVER001/HTTPServer/httpd.c ****     }
 758:../Dave/Generated/src/WEBSERVER001/HTTPServer/httpd.c **** 
 759:../Dave/Generated/src/WEBSERVER001/HTTPServer/httpd.c ****     /* Get a pointer to the file extension.  We find this by looking for the
 760:../Dave/Generated/src/WEBSERVER001/HTTPServer/httpd.c ****        last occurrence of "." in the filename passed. */
 761:../Dave/Generated/src/WEBSERVER001/HTTPServer/httpd.c ****     pszExt = NULL;
 762:../Dave/Generated/src/WEBSERVER001/HTTPServer/httpd.c ****     pszWork = strchr(pszURI, '.');
 763:../Dave/Generated/src/WEBSERVER001/HTTPServer/httpd.c ****     while(pszWork) {
 764:../Dave/Generated/src/WEBSERVER001/HTTPServer/httpd.c ****       pszExt = pszWork + 1;
 765:../Dave/Generated/src/WEBSERVER001/HTTPServer/httpd.c ****       pszWork = strchr(pszExt, '.');
 766:../Dave/Generated/src/WEBSERVER001/HTTPServer/httpd.c ****     }
 767:../Dave/Generated/src/WEBSERVER001/HTTPServer/httpd.c **** 
 768:../Dave/Generated/src/WEBSERVER001/HTTPServer/httpd.c ****     /* Now determine the content type and add the relevant header for that. */
 769:../Dave/Generated/src/WEBSERVER001/HTTPServer/httpd.c ****     for(iLoop = 0; (iLoop < NUM_HTTP_HEADERS) && pszExt; iLoop++) {
 770:../Dave/Generated/src/WEBSERVER001/HTTPServer/httpd.c ****       /* Have we found a matching extension? */
 771:../Dave/Generated/src/WEBSERVER001/HTTPServer/httpd.c ****       if(!strcmp(g_psHTTPHeaders[iLoop].extension, pszExt)) {
 772:../Dave/Generated/src/WEBSERVER001/HTTPServer/httpd.c ****         pState->hdrs[2] =
 773:../Dave/Generated/src/WEBSERVER001/HTTPServer/httpd.c ****           g_psHTTPHeaderStrings[g_psHTTPHeaders[iLoop].headerIndex];
 774:../Dave/Generated/src/WEBSERVER001/HTTPServer/httpd.c ****         break;
 775:../Dave/Generated/src/WEBSERVER001/HTTPServer/httpd.c ****       }
 776:../Dave/Generated/src/WEBSERVER001/HTTPServer/httpd.c ****     }
 777:../Dave/Generated/src/WEBSERVER001/HTTPServer/httpd.c **** 
 778:../Dave/Generated/src/WEBSERVER001/HTTPServer/httpd.c ****     /* Reinstate the parameter marker if there was one in the original URI. */
 779:../Dave/Generated/src/WEBSERVER001/HTTPServer/httpd.c ****     if(pszVars) {
 780:../Dave/Generated/src/WEBSERVER001/HTTPServer/httpd.c ****       *pszVars = '?';
 781:../Dave/Generated/src/WEBSERVER001/HTTPServer/httpd.c ****     }
 782:../Dave/Generated/src/WEBSERVER001/HTTPServer/httpd.c ****   }
 783:../Dave/Generated/src/WEBSERVER001/HTTPServer/httpd.c **** 
 784:../Dave/Generated/src/WEBSERVER001/HTTPServer/httpd.c ****   /* Does the URL passed have any file extension?  If not, we assume it
 785:../Dave/Generated/src/WEBSERVER001/HTTPServer/httpd.c ****      is a special-case URL used for control state notification and we do
 786:../Dave/Generated/src/WEBSERVER001/HTTPServer/httpd.c ****      not send any HTTP headers with the response. */
 787:../Dave/Generated/src/WEBSERVER001/HTTPServer/httpd.c ****   if(!pszExt) {
 788:../Dave/Generated/src/WEBSERVER001/HTTPServer/httpd.c ****     /* Force the header index to a value indicating that all headers
 789:../Dave/Generated/src/WEBSERVER001/HTTPServer/httpd.c ****        have already been sent. */
 790:../Dave/Generated/src/WEBSERVER001/HTTPServer/httpd.c ****     pState->hdr_index = NUM_FILE_HDR_STRINGS;
 791:../Dave/Generated/src/WEBSERVER001/HTTPServer/httpd.c ****   } else {
 792:../Dave/Generated/src/WEBSERVER001/HTTPServer/httpd.c ****     /* Did we find a matching extension? */
 793:../Dave/Generated/src/WEBSERVER001/HTTPServer/httpd.c ****     if(iLoop == NUM_HTTP_HEADERS) {
 794:../Dave/Generated/src/WEBSERVER001/HTTPServer/httpd.c ****       /* No - use the default, plain text file type. */
 795:../Dave/Generated/src/WEBSERVER001/HTTPServer/httpd.c ****       pState->hdrs[2] = g_psHTTPHeaderStrings[HTTP_HDR_DEFAULT_TYPE];
 796:../Dave/Generated/src/WEBSERVER001/HTTPServer/httpd.c ****     }
 797:../Dave/Generated/src/WEBSERVER001/HTTPServer/httpd.c **** 
 798:../Dave/Generated/src/WEBSERVER001/HTTPServer/httpd.c ****     /* Set up to send the first header string. */
 799:../Dave/Generated/src/WEBSERVER001/HTTPServer/httpd.c ****     pState->hdr_index = 0;
 800:../Dave/Generated/src/WEBSERVER001/HTTPServer/httpd.c ****     pState->hdr_pos = 0;
 801:../Dave/Generated/src/WEBSERVER001/HTTPServer/httpd.c ****   }
 802:../Dave/Generated/src/WEBSERVER001/HTTPServer/httpd.c **** }
 803:../Dave/Generated/src/WEBSERVER001/HTTPServer/httpd.c **** #endif /* LWIP_HTTPD_DYNAMIC_HEADERS */
 804:../Dave/Generated/src/WEBSERVER001/HTTPServer/httpd.c **** 
 805:../Dave/Generated/src/WEBSERVER001/HTTPServer/httpd.c **** /**
 806:../Dave/Generated/src/WEBSERVER001/HTTPServer/httpd.c ****  * Try to send more data on this pcb.
 807:../Dave/Generated/src/WEBSERVER001/HTTPServer/httpd.c ****  *
 808:../Dave/Generated/src/WEBSERVER001/HTTPServer/httpd.c ****  * @param pcb the pcb to send data
 809:../Dave/Generated/src/WEBSERVER001/HTTPServer/httpd.c ****  * @param hs connection state
 810:../Dave/Generated/src/WEBSERVER001/HTTPServer/httpd.c ****  */
 811:../Dave/Generated/src/WEBSERVER001/HTTPServer/httpd.c **** static u8_t
 812:../Dave/Generated/src/WEBSERVER001/HTTPServer/httpd.c **** http_send_data(struct tcp_pcb *pcb, struct http_state *hs)
 813:../Dave/Generated/src/WEBSERVER001/HTTPServer/httpd.c **** {
 838              		.loc 1 813 0
 839              		.cfi_startproc
 840              		@ args = 0, pretend = 0, frame = 24
 841              		@ frame_needed = 1, uses_anonymous_args = 0
 842 0000 80B5     		push	{r7, lr}
 843              	.LCFI21:
 844              		.cfi_def_cfa_offset 8
 845              		.cfi_offset 7, -8
 846              		.cfi_offset 14, -4
 847 0002 86B0     		sub	sp, sp, #24
 848              	.LCFI22:
 849              		.cfi_def_cfa_offset 32
 850 0004 00AF     		add	r7, sp, #0
 851              	.LCFI23:
 852              		.cfi_def_cfa_register 7
 853 0006 7860     		str	r0, [r7, #4]
 854 0008 3960     		str	r1, [r7, #0]
 814:../Dave/Generated/src/WEBSERVER001/HTTPServer/httpd.c ****   err_t err;
 815:../Dave/Generated/src/WEBSERVER001/HTTPServer/httpd.c ****   u16_t len;
 816:../Dave/Generated/src/WEBSERVER001/HTTPServer/httpd.c ****   u16_t mss;
 817:../Dave/Generated/src/WEBSERVER001/HTTPServer/httpd.c ****   u8_t data_to_send = false;
 855              		.loc 1 817 0
 856 000a 4FF00003 		mov	r3, #0
 857 000e BB75     		strb	r3, [r7, #22]
 818:../Dave/Generated/src/WEBSERVER001/HTTPServer/httpd.c **** #if LWIP_HTTPD_DYNAMIC_HEADERS
 819:../Dave/Generated/src/WEBSERVER001/HTTPServer/httpd.c ****   u16_t hdrlen, sendlen;
 820:../Dave/Generated/src/WEBSERVER001/HTTPServer/httpd.c **** #endif /* LWIP_HTTPD_DYNAMIC_HEADERS */
 821:../Dave/Generated/src/WEBSERVER001/HTTPServer/httpd.c **** 
 822:../Dave/Generated/src/WEBSERVER001/HTTPServer/httpd.c ****   LWIP_DEBUGF(HTTPD_DEBUG | LWIP_DBG_TRACE, ("http_send_data: pcb=%p hs=%p left=%d\n", (void*)pcb,
 823:../Dave/Generated/src/WEBSERVER001/HTTPServer/httpd.c ****     (void*)hs, hs != NULL ? hs->left : 0));
 824:../Dave/Generated/src/WEBSERVER001/HTTPServer/httpd.c **** 
 825:../Dave/Generated/src/WEBSERVER001/HTTPServer/httpd.c **** #if LWIP_HTTPD_SUPPORT_POST && LWIP_HTTPD_POST_MANUAL_WND
 826:../Dave/Generated/src/WEBSERVER001/HTTPServer/httpd.c ****   if (hs->unrecved_bytes != 0) {
 827:../Dave/Generated/src/WEBSERVER001/HTTPServer/httpd.c ****     return 0;
 828:../Dave/Generated/src/WEBSERVER001/HTTPServer/httpd.c ****   }
 829:../Dave/Generated/src/WEBSERVER001/HTTPServer/httpd.c **** #endif /* LWIP_HTTPD_SUPPORT_POST && LWIP_HTTPD_POST_MANUAL_WND */
 830:../Dave/Generated/src/WEBSERVER001/HTTPServer/httpd.c **** 
 831:../Dave/Generated/src/WEBSERVER001/HTTPServer/httpd.c **** #if LWIP_HTTPD_DYNAMIC_HEADERS
 832:../Dave/Generated/src/WEBSERVER001/HTTPServer/httpd.c ****   /* If we were passed a NULL state structure pointer, ignore the call. */
 833:../Dave/Generated/src/WEBSERVER001/HTTPServer/httpd.c ****   if (hs == NULL) {
 834:../Dave/Generated/src/WEBSERVER001/HTTPServer/httpd.c ****     return 0;
 835:../Dave/Generated/src/WEBSERVER001/HTTPServer/httpd.c ****   }
 836:../Dave/Generated/src/WEBSERVER001/HTTPServer/httpd.c **** 
 837:../Dave/Generated/src/WEBSERVER001/HTTPServer/httpd.c ****   /* Assume no error until we find otherwise */
 838:../Dave/Generated/src/WEBSERVER001/HTTPServer/httpd.c ****   err = ERR_OK;
 839:../Dave/Generated/src/WEBSERVER001/HTTPServer/httpd.c **** 
 840:../Dave/Generated/src/WEBSERVER001/HTTPServer/httpd.c ****   /* Do we have any more header data to send for this file? */
 841:../Dave/Generated/src/WEBSERVER001/HTTPServer/httpd.c ****   if(hs->hdr_index < NUM_FILE_HDR_STRINGS) {
 842:../Dave/Generated/src/WEBSERVER001/HTTPServer/httpd.c ****     /* How much data can we send? */
 843:../Dave/Generated/src/WEBSERVER001/HTTPServer/httpd.c ****     len = tcp_sndbuf(pcb);
 844:../Dave/Generated/src/WEBSERVER001/HTTPServer/httpd.c ****     sendlen = len;
 845:../Dave/Generated/src/WEBSERVER001/HTTPServer/httpd.c **** 
 846:../Dave/Generated/src/WEBSERVER001/HTTPServer/httpd.c ****     while(len && (hs->hdr_index < NUM_FILE_HDR_STRINGS) && sendlen) {
 847:../Dave/Generated/src/WEBSERVER001/HTTPServer/httpd.c ****       const void *ptr;
 848:../Dave/Generated/src/WEBSERVER001/HTTPServer/httpd.c ****       u16_t old_sendlen;
 849:../Dave/Generated/src/WEBSERVER001/HTTPServer/httpd.c ****       /* How much do we have to send from the current header? */
 850:../Dave/Generated/src/WEBSERVER001/HTTPServer/httpd.c ****       hdrlen = (u16_t)strlen(hs->hdrs[hs->hdr_index]);
 851:../Dave/Generated/src/WEBSERVER001/HTTPServer/httpd.c **** 
 852:../Dave/Generated/src/WEBSERVER001/HTTPServer/httpd.c ****       /* How much of this can we send? */
 853:../Dave/Generated/src/WEBSERVER001/HTTPServer/httpd.c ****       sendlen = (len < (hdrlen - hs->hdr_pos)) ? len : (hdrlen - hs->hdr_pos);
 854:../Dave/Generated/src/WEBSERVER001/HTTPServer/httpd.c **** 
 855:../Dave/Generated/src/WEBSERVER001/HTTPServer/httpd.c ****       /* Send this amount of data or as much as we can given memory
 856:../Dave/Generated/src/WEBSERVER001/HTTPServer/httpd.c ****       * constraints. */
 857:../Dave/Generated/src/WEBSERVER001/HTTPServer/httpd.c ****       ptr = (const void *)(hs->hdrs[hs->hdr_index] + hs->hdr_pos);
 858:../Dave/Generated/src/WEBSERVER001/HTTPServer/httpd.c ****       old_sendlen = sendlen;
 859:../Dave/Generated/src/WEBSERVER001/HTTPServer/httpd.c ****       err = http_write(pcb, ptr, &sendlen, HTTP_IS_HDR_VOLATILE(hs, ptr));
 860:../Dave/Generated/src/WEBSERVER001/HTTPServer/httpd.c ****       if ((err == ERR_OK) && (old_sendlen != sendlen)) {
 861:../Dave/Generated/src/WEBSERVER001/HTTPServer/httpd.c ****         /* Remember that we added some more data to be transmitted. */
 862:../Dave/Generated/src/WEBSERVER001/HTTPServer/httpd.c ****         data_to_send = true;
 863:../Dave/Generated/src/WEBSERVER001/HTTPServer/httpd.c ****       } else if (err != ERR_OK) {
 864:../Dave/Generated/src/WEBSERVER001/HTTPServer/httpd.c ****          /* special case: http_write does not try to send 1 byte */
 865:../Dave/Generated/src/WEBSERVER001/HTTPServer/httpd.c ****         sendlen = 0;
 866:../Dave/Generated/src/WEBSERVER001/HTTPServer/httpd.c ****       }
 867:../Dave/Generated/src/WEBSERVER001/HTTPServer/httpd.c **** 
 868:../Dave/Generated/src/WEBSERVER001/HTTPServer/httpd.c ****       /* Fix up the header position for the next time round. */
 869:../Dave/Generated/src/WEBSERVER001/HTTPServer/httpd.c ****       hs->hdr_pos += sendlen;
 870:../Dave/Generated/src/WEBSERVER001/HTTPServer/httpd.c ****       len -= sendlen;
 871:../Dave/Generated/src/WEBSERVER001/HTTPServer/httpd.c **** 
 872:../Dave/Generated/src/WEBSERVER001/HTTPServer/httpd.c ****       /* Have we finished sending this string? */
 873:../Dave/Generated/src/WEBSERVER001/HTTPServer/httpd.c ****       if(hs->hdr_pos == hdrlen) {
 874:../Dave/Generated/src/WEBSERVER001/HTTPServer/httpd.c ****         /* Yes - move on to the next one */
 875:../Dave/Generated/src/WEBSERVER001/HTTPServer/httpd.c ****         hs->hdr_index++;
 876:../Dave/Generated/src/WEBSERVER001/HTTPServer/httpd.c ****         hs->hdr_pos = 0;
 877:../Dave/Generated/src/WEBSERVER001/HTTPServer/httpd.c ****       }
 878:../Dave/Generated/src/WEBSERVER001/HTTPServer/httpd.c ****     }
 879:../Dave/Generated/src/WEBSERVER001/HTTPServer/httpd.c **** 
 880:../Dave/Generated/src/WEBSERVER001/HTTPServer/httpd.c ****     /* If we get here and there are still header bytes to send, we send
 881:../Dave/Generated/src/WEBSERVER001/HTTPServer/httpd.c ****     * the header information we just wrote immediately.  If there are no
 882:../Dave/Generated/src/WEBSERVER001/HTTPServer/httpd.c ****     * more headers to send, but we do have file data to send, drop through
 883:../Dave/Generated/src/WEBSERVER001/HTTPServer/httpd.c ****     * to try to send some file data too. */
 884:../Dave/Generated/src/WEBSERVER001/HTTPServer/httpd.c ****     if((hs->hdr_index < NUM_FILE_HDR_STRINGS) || !hs->file) {
 885:../Dave/Generated/src/WEBSERVER001/HTTPServer/httpd.c ****       LWIP_DEBUGF(HTTPD_DEBUG, ("tcp_output\n"));
 886:../Dave/Generated/src/WEBSERVER001/HTTPServer/httpd.c ****       return 1;
 887:../Dave/Generated/src/WEBSERVER001/HTTPServer/httpd.c ****     }
 888:../Dave/Generated/src/WEBSERVER001/HTTPServer/httpd.c ****   }
 889:../Dave/Generated/src/WEBSERVER001/HTTPServer/httpd.c **** #else /* LWIP_HTTPD_DYNAMIC_HEADERS */
 890:../Dave/Generated/src/WEBSERVER001/HTTPServer/httpd.c ****   /* Assume no error until we find otherwise */
 891:../Dave/Generated/src/WEBSERVER001/HTTPServer/httpd.c ****   err = ERR_OK;
 858              		.loc 1 891 0
 859 0010 4FF00003 		mov	r3, #0
 860 0014 FB75     		strb	r3, [r7, #23]
 892:../Dave/Generated/src/WEBSERVER001/HTTPServer/httpd.c **** #endif /* LWIP_HTTPD_DYNAMIC_HEADERS */
 893:../Dave/Generated/src/WEBSERVER001/HTTPServer/httpd.c **** 
 894:../Dave/Generated/src/WEBSERVER001/HTTPServer/httpd.c ****   /* Have we run out of file data to send? If so, we need to read the next
 895:../Dave/Generated/src/WEBSERVER001/HTTPServer/httpd.c ****    * block from the file. */
 896:../Dave/Generated/src/WEBSERVER001/HTTPServer/httpd.c ****   if (hs->left == 0) {
 861              		.loc 1 896 0
 862 0016 3B68     		ldr	r3, [r7, #0]
 863 0018 5B69     		ldr	r3, [r3, #20]
 864 001a 002B     		cmp	r3, #0
 865 001c 69D1     		bne	.L46
 866              	.LBB2:
 897:../Dave/Generated/src/WEBSERVER001/HTTPServer/httpd.c **** #if LWIP_HTTPD_SSI || LWIP_HTTPD_DYNAMIC_HEADERS
 898:../Dave/Generated/src/WEBSERVER001/HTTPServer/httpd.c ****     int count;
 899:../Dave/Generated/src/WEBSERVER001/HTTPServer/httpd.c **** #endif /* LWIP_HTTPD_SSI || LWIP_HTTPD_DYNAMIC_HEADERS */
 900:../Dave/Generated/src/WEBSERVER001/HTTPServer/httpd.c **** 
 901:../Dave/Generated/src/WEBSERVER001/HTTPServer/httpd.c ****     /* Do we have a valid file handle? */
 902:../Dave/Generated/src/WEBSERVER001/HTTPServer/httpd.c ****     if (hs->handle == NULL) {
 867              		.loc 1 902 0
 868 001e 3B68     		ldr	r3, [r7, #0]
 869 0020 1B68     		ldr	r3, [r3, #0]
 870 0022 002B     		cmp	r3, #0
 871 0024 06D1     		bne	.L47
 903:../Dave/Generated/src/WEBSERVER001/HTTPServer/httpd.c ****       /* No - close the connection. */
 904:../Dave/Generated/src/WEBSERVER001/HTTPServer/httpd.c ****       http_close_conn(pcb, hs);
 872              		.loc 1 904 0
 873 0026 7868     		ldr	r0, [r7, #4]
 874 0028 3968     		ldr	r1, [r7, #0]
 875 002a FFF7FEFF 		bl	http_close_conn
 905:../Dave/Generated/src/WEBSERVER001/HTTPServer/httpd.c ****       return 0;
 876              		.loc 1 905 0
 877 002e 4FF00003 		mov	r3, #0
 878 0032 ABE3     		b	.L107
 879              	.L47:
 906:../Dave/Generated/src/WEBSERVER001/HTTPServer/httpd.c ****     }
 907:../Dave/Generated/src/WEBSERVER001/HTTPServer/httpd.c ****     if (fs_bytes_left(hs->handle) <= 0) {
 880              		.loc 1 907 0
 881 0034 3B68     		ldr	r3, [r7, #0]
 882 0036 1B68     		ldr	r3, [r3, #0]
 883 0038 1846     		mov	r0, r3
 884 003a FFF7FEFF 		bl	fs_bytes_left
 885 003e 0346     		mov	r3, r0
 886 0040 002B     		cmp	r3, #0
 887 0042 06DC     		bgt	.L49
 908:../Dave/Generated/src/WEBSERVER001/HTTPServer/httpd.c ****       /* We reached the end of the file so this request is done.
 909:../Dave/Generated/src/WEBSERVER001/HTTPServer/httpd.c ****        * @todo: don't close here for HTTP/1.1? */
 910:../Dave/Generated/src/WEBSERVER001/HTTPServer/httpd.c ****       LWIP_DEBUGF(HTTPD_DEBUG, ("End of file.\n"));
 911:../Dave/Generated/src/WEBSERVER001/HTTPServer/httpd.c ****       http_close_conn(pcb, hs);
 888              		.loc 1 911 0
 889 0044 7868     		ldr	r0, [r7, #4]
 890 0046 3968     		ldr	r1, [r7, #0]
 891 0048 FFF7FEFF 		bl	http_close_conn
 912:../Dave/Generated/src/WEBSERVER001/HTTPServer/httpd.c ****       return 0;
 892              		.loc 1 912 0
 893 004c 4FF00003 		mov	r3, #0
 894 0050 9CE3     		b	.L107
 895              	.L49:
 913:../Dave/Generated/src/WEBSERVER001/HTTPServer/httpd.c ****     }
 914:../Dave/Generated/src/WEBSERVER001/HTTPServer/httpd.c **** #if LWIP_HTTPD_SSI || LWIP_HTTPD_DYNAMIC_HEADERS
 915:../Dave/Generated/src/WEBSERVER001/HTTPServer/httpd.c ****     /* Do we already have a send buffer allocated? */
 916:../Dave/Generated/src/WEBSERVER001/HTTPServer/httpd.c ****     if(hs->buf) {
 896              		.loc 1 916 0
 897 0052 3B68     		ldr	r3, [r7, #0]
 898 0054 DB68     		ldr	r3, [r3, #12]
 899 0056 002B     		cmp	r3, #0
 900 0058 03D0     		beq	.L50
 917:../Dave/Generated/src/WEBSERVER001/HTTPServer/httpd.c ****       /* Yes - get the length of the buffer */
 918:../Dave/Generated/src/WEBSERVER001/HTTPServer/httpd.c ****       count = hs->buf_len;
 901              		.loc 1 918 0
 902 005a 3B68     		ldr	r3, [r7, #0]
 903 005c 1B69     		ldr	r3, [r3, #16]
 904 005e 3B61     		str	r3, [r7, #16]
 905 0060 25E0     		b	.L51
 906              	.L50:
 919:../Dave/Generated/src/WEBSERVER001/HTTPServer/httpd.c ****     } else {
 920:../Dave/Generated/src/WEBSERVER001/HTTPServer/httpd.c ****       /* We don't have a send buffer so allocate one up to 2mss bytes long. */
 921:../Dave/Generated/src/WEBSERVER001/HTTPServer/httpd.c ****       count = 2 * tcp_mss(pcb);
 907              		.loc 1 921 0
 908 0062 7B68     		ldr	r3, [r7, #4]
 909 0064 1B8F     		ldrh	r3, [r3, #56]
 910 0066 4FEA4303 		lsl	r3, r3, #1
 911 006a 3B61     		str	r3, [r7, #16]
 912              	.L54:
 922:../Dave/Generated/src/WEBSERVER001/HTTPServer/httpd.c ****       do {
 923:../Dave/Generated/src/WEBSERVER001/HTTPServer/httpd.c ****         hs->buf = (char*)mem_malloc((mem_size_t)count);
 913              		.loc 1 923 0
 914 006c 3B69     		ldr	r3, [r7, #16]
 915 006e 9BB2     		uxth	r3, r3
 916 0070 1846     		mov	r0, r3
 917 0072 FFF7FEFF 		bl	mem_malloc
 918 0076 0246     		mov	r2, r0
 919 0078 3B68     		ldr	r3, [r7, #0]
 920 007a DA60     		str	r2, [r3, #12]
 924:../Dave/Generated/src/WEBSERVER001/HTTPServer/httpd.c ****         if (hs->buf != NULL) {
 921              		.loc 1 924 0
 922 007c 3B68     		ldr	r3, [r7, #0]
 923 007e DB68     		ldr	r3, [r3, #12]
 924 0080 002B     		cmp	r3, #0
 925 0082 03D0     		beq	.L52
 925:../Dave/Generated/src/WEBSERVER001/HTTPServer/httpd.c ****           hs->buf_len = count;
 926              		.loc 1 925 0
 927 0084 3B68     		ldr	r3, [r7, #0]
 928 0086 3A69     		ldr	r2, [r7, #16]
 929 0088 1A61     		str	r2, [r3, #16]
 926:../Dave/Generated/src/WEBSERVER001/HTTPServer/httpd.c ****           break;
 930              		.loc 1 926 0
 931 008a 09E0     		b	.L53
 932              	.L52:
 927:../Dave/Generated/src/WEBSERVER001/HTTPServer/httpd.c ****         }
 928:../Dave/Generated/src/WEBSERVER001/HTTPServer/httpd.c ****         count = count / 2;
 933              		.loc 1 928 0
 934 008c 3B69     		ldr	r3, [r7, #16]
 935 008e 4FEAD372 		lsr	r2, r3, #31
 936 0092 D318     		adds	r3, r2, r3
 937 0094 4FEA6303 		asr	r3, r3, #1
 938 0098 3B61     		str	r3, [r7, #16]
 929:../Dave/Generated/src/WEBSERVER001/HTTPServer/httpd.c ****       } while (count > 100);
 939              		.loc 1 929 0
 940 009a 3B69     		ldr	r3, [r7, #16]
 941 009c 642B     		cmp	r3, #100
 942 009e E5DC     		bgt	.L54
 943              	.L53:
 930:../Dave/Generated/src/WEBSERVER001/HTTPServer/httpd.c **** 
 931:../Dave/Generated/src/WEBSERVER001/HTTPServer/httpd.c ****       /* Did we get a send buffer? If not, return immediately. */
 932:../Dave/Generated/src/WEBSERVER001/HTTPServer/httpd.c ****       if (hs->buf == NULL) {
 944              		.loc 1 932 0
 945 00a0 3B68     		ldr	r3, [r7, #0]
 946 00a2 DB68     		ldr	r3, [r3, #12]
 947 00a4 002B     		cmp	r3, #0
 948 00a6 02D1     		bne	.L51
 933:../Dave/Generated/src/WEBSERVER001/HTTPServer/httpd.c ****         LWIP_DEBUGF(HTTPD_DEBUG, ("No buff\n"));
 934:../Dave/Generated/src/WEBSERVER001/HTTPServer/httpd.c ****         return 0;
 949              		.loc 1 934 0
 950 00a8 4FF00003 		mov	r3, #0
 951 00ac 6EE3     		b	.L107
 952              	.L51:
 935:../Dave/Generated/src/WEBSERVER001/HTTPServer/httpd.c ****       }
 936:../Dave/Generated/src/WEBSERVER001/HTTPServer/httpd.c ****     }
 937:../Dave/Generated/src/WEBSERVER001/HTTPServer/httpd.c **** 
 938:../Dave/Generated/src/WEBSERVER001/HTTPServer/httpd.c ****     /* Read a block of data from the file. */
 939:../Dave/Generated/src/WEBSERVER001/HTTPServer/httpd.c ****     LWIP_DEBUGF(HTTPD_DEBUG, ("Trying to read %d bytes.\n", count));
 940:../Dave/Generated/src/WEBSERVER001/HTTPServer/httpd.c **** 
 941:../Dave/Generated/src/WEBSERVER001/HTTPServer/httpd.c ****     count = fs_read(hs->handle, hs->buf, count);
 953              		.loc 1 941 0
 954 00ae 3B68     		ldr	r3, [r7, #0]
 955 00b0 1A68     		ldr	r2, [r3, #0]
 956 00b2 3B68     		ldr	r3, [r7, #0]
 957 00b4 DB68     		ldr	r3, [r3, #12]
 958 00b6 1046     		mov	r0, r2
 959 00b8 1946     		mov	r1, r3
 960 00ba 3A69     		ldr	r2, [r7, #16]
 961 00bc FFF7FEFF 		bl	fs_read
 962 00c0 3861     		str	r0, [r7, #16]
 942:../Dave/Generated/src/WEBSERVER001/HTTPServer/httpd.c ****     if(count < 0) {
 963              		.loc 1 942 0
 964 00c2 3B69     		ldr	r3, [r7, #16]
 965 00c4 002B     		cmp	r3, #0
 966 00c6 06DA     		bge	.L55
 943:../Dave/Generated/src/WEBSERVER001/HTTPServer/httpd.c ****       /* We reached the end of the file so this request is done.
 944:../Dave/Generated/src/WEBSERVER001/HTTPServer/httpd.c ****        * @todo: don't close here for HTTP/1.1? */
 945:../Dave/Generated/src/WEBSERVER001/HTTPServer/httpd.c ****       LWIP_DEBUGF(HTTPD_DEBUG, ("End of file.\n"));
 946:../Dave/Generated/src/WEBSERVER001/HTTPServer/httpd.c ****       http_close_conn(pcb, hs);
 967              		.loc 1 946 0
 968 00c8 7868     		ldr	r0, [r7, #4]
 969 00ca 3968     		ldr	r1, [r7, #0]
 970 00cc FFF7FEFF 		bl	http_close_conn
 947:../Dave/Generated/src/WEBSERVER001/HTTPServer/httpd.c ****       return 1;
 971              		.loc 1 947 0
 972 00d0 4FF00103 		mov	r3, #1
 973 00d4 5AE3     		b	.L107
 974              	.L55:
 948:../Dave/Generated/src/WEBSERVER001/HTTPServer/httpd.c ****     }
 949:../Dave/Generated/src/WEBSERVER001/HTTPServer/httpd.c **** 
 950:../Dave/Generated/src/WEBSERVER001/HTTPServer/httpd.c ****     /* Set up to send the block of data we just read */
 951:../Dave/Generated/src/WEBSERVER001/HTTPServer/httpd.c ****     LWIP_DEBUGF(HTTPD_DEBUG, ("Read %d bytes.\n", count));
 952:../Dave/Generated/src/WEBSERVER001/HTTPServer/httpd.c ****     hs->left = count;
 975              		.loc 1 952 0
 976 00d6 3A69     		ldr	r2, [r7, #16]
 977 00d8 3B68     		ldr	r3, [r7, #0]
 978 00da 5A61     		str	r2, [r3, #20]
 953:../Dave/Generated/src/WEBSERVER001/HTTPServer/httpd.c ****     hs->file = hs->buf;
 979              		.loc 1 953 0
 980 00dc 3B68     		ldr	r3, [r7, #0]
 981 00de DA68     		ldr	r2, [r3, #12]
 982 00e0 3B68     		ldr	r3, [r7, #0]
 983 00e2 5A60     		str	r2, [r3, #4]
 954:../Dave/Generated/src/WEBSERVER001/HTTPServer/httpd.c **** #if LWIP_HTTPD_SSI
 955:../Dave/Generated/src/WEBSERVER001/HTTPServer/httpd.c ****     hs->parse_left = count;
 984              		.loc 1 955 0
 985 00e4 3A69     		ldr	r2, [r7, #16]
 986 00e6 3B68     		ldr	r3, [r7, #0]
 987 00e8 5A62     		str	r2, [r3, #36]
 956:../Dave/Generated/src/WEBSERVER001/HTTPServer/httpd.c ****     hs->parsed = hs->buf;
 988              		.loc 1 956 0
 989 00ea 3B68     		ldr	r3, [r7, #0]
 990 00ec DA68     		ldr	r2, [r3, #12]
 991 00ee 3B68     		ldr	r3, [r7, #0]
 992 00f0 DA61     		str	r2, [r3, #28]
 993              	.L46:
 994              	.LBE2:
 957:../Dave/Generated/src/WEBSERVER001/HTTPServer/httpd.c **** #endif /* LWIP_HTTPD_SSI */
 958:../Dave/Generated/src/WEBSERVER001/HTTPServer/httpd.c **** #else /* LWIP_HTTPD_SSI || LWIP_HTTPD_DYNAMIC_HEADERS */
 959:../Dave/Generated/src/WEBSERVER001/HTTPServer/httpd.c ****     LWIP_ASSERT("SSI and DYNAMIC_HEADERS turned off but eof not reached", 0);
 960:../Dave/Generated/src/WEBSERVER001/HTTPServer/httpd.c **** #endif /* LWIP_HTTPD_SSI || LWIP_HTTPD_DYNAMIC_HEADERS */
 961:../Dave/Generated/src/WEBSERVER001/HTTPServer/httpd.c ****   }
 962:../Dave/Generated/src/WEBSERVER001/HTTPServer/httpd.c **** 
 963:../Dave/Generated/src/WEBSERVER001/HTTPServer/httpd.c **** #if LWIP_HTTPD_SSI
 964:../Dave/Generated/src/WEBSERVER001/HTTPServer/httpd.c ****   if(!hs->tag_check) {
 995              		.loc 1 964 0
 996 00f2 3B68     		ldr	r3, [r7, #0]
 997 00f4 93F82C30 		ldrb	r3, [r3, #44]	@ zero_extendqisi2
 998 00f8 002B     		cmp	r3, #0
 999 00fa 41D1     		bne	.L56
 965:../Dave/Generated/src/WEBSERVER001/HTTPServer/httpd.c **** #endif /* LWIP_HTTPD_SSI */
 966:../Dave/Generated/src/WEBSERVER001/HTTPServer/httpd.c ****     /* We are not processing an SHTML file so no tag checking is necessary.
 967:../Dave/Generated/src/WEBSERVER001/HTTPServer/httpd.c ****      * Just send the data as we received it from the file. */
 968:../Dave/Generated/src/WEBSERVER001/HTTPServer/httpd.c **** 
 969:../Dave/Generated/src/WEBSERVER001/HTTPServer/httpd.c ****     /* We cannot send more data than space available in the send
 970:../Dave/Generated/src/WEBSERVER001/HTTPServer/httpd.c ****        buffer. */
 971:../Dave/Generated/src/WEBSERVER001/HTTPServer/httpd.c ****     if (tcp_sndbuf(pcb) < hs->left) {
 1000              		.loc 1 971 0
 1001 00fc 7B68     		ldr	r3, [r7, #4]
 1002 00fe B3F86E30 		ldrh	r3, [r3, #110]
 1003 0102 1A46     		mov	r2, r3
 1004 0104 3B68     		ldr	r3, [r7, #0]
 1005 0106 5B69     		ldr	r3, [r3, #20]
 1006 0108 9A42     		cmp	r2, r3
 1007 010a 04D2     		bcs	.L57
 972:../Dave/Generated/src/WEBSERVER001/HTTPServer/httpd.c ****       len = tcp_sndbuf(pcb);
 1008              		.loc 1 972 0
 1009 010c 7B68     		ldr	r3, [r7, #4]
 1010 010e B3F86E30 		ldrh	r3, [r3, #110]
 1011 0112 BB81     		strh	r3, [r7, #12]	@ movhi
 1012 0114 03E0     		b	.L58
 1013              	.L57:
 973:../Dave/Generated/src/WEBSERVER001/HTTPServer/httpd.c ****     } else {
 974:../Dave/Generated/src/WEBSERVER001/HTTPServer/httpd.c ****       len = (u16_t)hs->left;
 1014              		.loc 1 974 0
 1015 0116 3B68     		ldr	r3, [r7, #0]
 1016 0118 5B69     		ldr	r3, [r3, #20]
 1017 011a 9BB2     		uxth	r3, r3
 1018 011c BB81     		strh	r3, [r7, #12]	@ movhi
 1019              	.L58:
 975:../Dave/Generated/src/WEBSERVER001/HTTPServer/httpd.c ****       LWIP_ASSERT("hs->left did not fit into u16_t!", (len == hs->left));
 976:../Dave/Generated/src/WEBSERVER001/HTTPServer/httpd.c ****     }
 977:../Dave/Generated/src/WEBSERVER001/HTTPServer/httpd.c ****     mss = tcp_mss(pcb);
 1020              		.loc 1 977 0
 1021 011e 7B68     		ldr	r3, [r7, #4]
 1022 0120 1B8F     		ldrh	r3, [r3, #56]	@ movhi
 1023 0122 FB81     		strh	r3, [r7, #14]	@ movhi
 978:../Dave/Generated/src/WEBSERVER001/HTTPServer/httpd.c ****     if(len > (2 * mss)) {
 1024              		.loc 1 978 0
 1025 0124 BB89     		ldrh	r3, [r7, #12]
 1026 0126 1A46     		mov	r2, r3
 1027 0128 FB89     		ldrh	r3, [r7, #14]
 1028 012a 4FEA4303 		lsl	r3, r3, #1
 1029 012e 9A42     		cmp	r2, r3
 1030 0130 04DD     		ble	.L59
 979:../Dave/Generated/src/WEBSERVER001/HTTPServer/httpd.c ****       len = 2 * mss;
 1031              		.loc 1 979 0
 1032 0132 FB89     		ldrh	r3, [r7, #14]	@ movhi
 1033 0134 4FEA4303 		lsl	r3, r3, #1
 1034 0138 9BB2     		uxth	r3, r3
 1035 013a BB81     		strh	r3, [r7, #12]	@ movhi
 1036              	.L59:
 980:../Dave/Generated/src/WEBSERVER001/HTTPServer/httpd.c ****     }
 981:../Dave/Generated/src/WEBSERVER001/HTTPServer/httpd.c **** 
 982:../Dave/Generated/src/WEBSERVER001/HTTPServer/httpd.c ****     err = http_write(pcb, hs->file, &len, HTTP_IS_DATA_VOLATILE(hs));
 1037              		.loc 1 982 0
 1038 013c 3B68     		ldr	r3, [r7, #0]
 1039 013e 5A68     		ldr	r2, [r3, #4]
 1040 0140 07F10C03 		add	r3, r7, #12
 1041 0144 7868     		ldr	r0, [r7, #4]
 1042 0146 1146     		mov	r1, r2
 1043 0148 1A46     		mov	r2, r3
 1044 014a 4FF00103 		mov	r3, #1
 1045 014e FFF7FEFF 		bl	http_write
 1046 0152 0346     		mov	r3, r0
 1047 0154 FB75     		strb	r3, [r7, #23]
 983:../Dave/Generated/src/WEBSERVER001/HTTPServer/httpd.c ****     if (err == ERR_OK) {
 1048              		.loc 1 983 0
 1049 0156 97F91730 		ldrsb	r3, [r7, #23]
 1050 015a 002B     		cmp	r3, #0
 1051 015c 40F00283 		bne	.L60
 984:../Dave/Generated/src/WEBSERVER001/HTTPServer/httpd.c ****       data_to_send = true;
 1052              		.loc 1 984 0
 1053 0160 4FF00103 		mov	r3, #1
 1054 0164 BB75     		strb	r3, [r7, #22]
 985:../Dave/Generated/src/WEBSERVER001/HTTPServer/httpd.c ****       hs->file += len;
 1055              		.loc 1 985 0
 1056 0166 3B68     		ldr	r3, [r7, #0]
 1057 0168 5A68     		ldr	r2, [r3, #4]
 1058 016a BB89     		ldrh	r3, [r7, #12]
 1059 016c D218     		adds	r2, r2, r3
 1060 016e 3B68     		ldr	r3, [r7, #0]
 1061 0170 5A60     		str	r2, [r3, #4]
 986:../Dave/Generated/src/WEBSERVER001/HTTPServer/httpd.c ****       hs->left -= len;
 1062              		.loc 1 986 0
 1063 0172 3B68     		ldr	r3, [r7, #0]
 1064 0174 5A69     		ldr	r2, [r3, #20]
 1065 0176 BB89     		ldrh	r3, [r7, #12]
 1066 0178 D21A     		subs	r2, r2, r3
 1067 017a 3B68     		ldr	r3, [r7, #0]
 1068 017c 5A61     		str	r2, [r3, #20]
 1069 017e F1E2     		b	.L60
 1070              	.L56:
 987:../Dave/Generated/src/WEBSERVER001/HTTPServer/httpd.c ****     }
 988:../Dave/Generated/src/WEBSERVER001/HTTPServer/httpd.c **** #if LWIP_HTTPD_SSI
 989:../Dave/Generated/src/WEBSERVER001/HTTPServer/httpd.c ****   } else {
 990:../Dave/Generated/src/WEBSERVER001/HTTPServer/httpd.c ****     /* We are processing an SHTML file so need to scan for tags and replace
 991:../Dave/Generated/src/WEBSERVER001/HTTPServer/httpd.c ****      * them with insert strings. We need to be careful here since a tag may
 992:../Dave/Generated/src/WEBSERVER001/HTTPServer/httpd.c ****      * straddle the boundary of two blocks read from the file and we may also
 993:../Dave/Generated/src/WEBSERVER001/HTTPServer/httpd.c ****      * have to split the insert string between two tcp_write operations. */
 994:../Dave/Generated/src/WEBSERVER001/HTTPServer/httpd.c **** 
 995:../Dave/Generated/src/WEBSERVER001/HTTPServer/httpd.c ****     /* How much data could we send? */
 996:../Dave/Generated/src/WEBSERVER001/HTTPServer/httpd.c ****     len = tcp_sndbuf(pcb);
 1071              		.loc 1 996 0
 1072 0180 7B68     		ldr	r3, [r7, #4]
 1073 0182 B3F86E30 		ldrh	r3, [r3, #110]
 1074 0186 BB81     		strh	r3, [r7, #12]	@ movhi
 997:../Dave/Generated/src/WEBSERVER001/HTTPServer/httpd.c **** 
 998:../Dave/Generated/src/WEBSERVER001/HTTPServer/httpd.c ****     /* Do we have remaining data to send before parsing more? */
 999:../Dave/Generated/src/WEBSERVER001/HTTPServer/httpd.c ****     if(hs->parsed > hs->file) {
 1075              		.loc 1 999 0
 1076 0188 3B68     		ldr	r3, [r7, #0]
 1077 018a DA69     		ldr	r2, [r3, #28]
 1078 018c 3B68     		ldr	r3, [r7, #0]
 1079 018e 5B68     		ldr	r3, [r3, #4]
 1080 0190 9A42     		cmp	r2, r3
 1081 0192 40F28782 		bls	.L108
1000:../Dave/Generated/src/WEBSERVER001/HTTPServer/httpd.c ****       /* We cannot send more data than space available in the send
1001:../Dave/Generated/src/WEBSERVER001/HTTPServer/httpd.c ****          buffer. */
1002:../Dave/Generated/src/WEBSERVER001/HTTPServer/httpd.c ****       if (tcp_sndbuf(pcb) < (hs->parsed - hs->file)) {
 1082              		.loc 1 1002 0
 1083 0196 7B68     		ldr	r3, [r7, #4]
 1084 0198 B3F86E30 		ldrh	r3, [r3, #110]
 1085 019c 1A46     		mov	r2, r3
 1086 019e 3B68     		ldr	r3, [r7, #0]
 1087 01a0 DB69     		ldr	r3, [r3, #28]
 1088 01a2 1946     		mov	r1, r3
 1089 01a4 3B68     		ldr	r3, [r7, #0]
 1090 01a6 5B68     		ldr	r3, [r3, #4]
 1091 01a8 CB1A     		subs	r3, r1, r3
 1092 01aa 9A42     		cmp	r2, r3
 1093 01ac 04DA     		bge	.L62
1003:../Dave/Generated/src/WEBSERVER001/HTTPServer/httpd.c ****         len = tcp_sndbuf(pcb);
 1094              		.loc 1 1003 0
 1095 01ae 7B68     		ldr	r3, [r7, #4]
 1096 01b0 B3F86E30 		ldrh	r3, [r3, #110]
 1097 01b4 BB81     		strh	r3, [r7, #12]	@ movhi
 1098 01b6 07E0     		b	.L63
 1099              	.L62:
1004:../Dave/Generated/src/WEBSERVER001/HTTPServer/httpd.c ****       } else {
1005:../Dave/Generated/src/WEBSERVER001/HTTPServer/httpd.c ****         LWIP_ASSERT("Data size does not fit into u16_t!",
1006:../Dave/Generated/src/WEBSERVER001/HTTPServer/httpd.c ****                     (hs->parsed - hs->file) <= 0xffff);
1007:../Dave/Generated/src/WEBSERVER001/HTTPServer/httpd.c ****         len = (u16_t)(hs->parsed - hs->file);
 1100              		.loc 1 1007 0
 1101 01b8 3B68     		ldr	r3, [r7, #0]
 1102 01ba DB69     		ldr	r3, [r3, #28]
 1103 01bc 1A46     		mov	r2, r3
 1104 01be 3B68     		ldr	r3, [r7, #0]
 1105 01c0 5B68     		ldr	r3, [r3, #4]
 1106 01c2 D31A     		subs	r3, r2, r3
 1107 01c4 9BB2     		uxth	r3, r3
 1108 01c6 BB81     		strh	r3, [r7, #12]	@ movhi
 1109              	.L63:
1008:../Dave/Generated/src/WEBSERVER001/HTTPServer/httpd.c ****       }
1009:../Dave/Generated/src/WEBSERVER001/HTTPServer/httpd.c ****       mss = tcp_mss(pcb);
 1110              		.loc 1 1009 0
 1111 01c8 7B68     		ldr	r3, [r7, #4]
 1112 01ca 1B8F     		ldrh	r3, [r3, #56]	@ movhi
 1113 01cc FB81     		strh	r3, [r7, #14]	@ movhi
1010:../Dave/Generated/src/WEBSERVER001/HTTPServer/httpd.c ****       if(len > (2 * mss)) {
 1114              		.loc 1 1010 0
 1115 01ce BB89     		ldrh	r3, [r7, #12]
 1116 01d0 1A46     		mov	r2, r3
 1117 01d2 FB89     		ldrh	r3, [r7, #14]
 1118 01d4 4FEA4303 		lsl	r3, r3, #1
 1119 01d8 9A42     		cmp	r2, r3
 1120 01da 04DD     		ble	.L64
1011:../Dave/Generated/src/WEBSERVER001/HTTPServer/httpd.c ****         len = 2 * mss;
 1121              		.loc 1 1011 0
 1122 01dc FB89     		ldrh	r3, [r7, #14]	@ movhi
 1123 01de 4FEA4303 		lsl	r3, r3, #1
 1124 01e2 9BB2     		uxth	r3, r3
 1125 01e4 BB81     		strh	r3, [r7, #12]	@ movhi
 1126              	.L64:
1012:../Dave/Generated/src/WEBSERVER001/HTTPServer/httpd.c ****       }
1013:../Dave/Generated/src/WEBSERVER001/HTTPServer/httpd.c **** 
1014:../Dave/Generated/src/WEBSERVER001/HTTPServer/httpd.c ****       err = http_write(pcb, hs->file, &len, HTTP_IS_DATA_VOLATILE(hs));
 1127              		.loc 1 1014 0
 1128 01e6 3B68     		ldr	r3, [r7, #0]
 1129 01e8 5A68     		ldr	r2, [r3, #4]
 1130 01ea 07F10C03 		add	r3, r7, #12
 1131 01ee 7868     		ldr	r0, [r7, #4]
 1132 01f0 1146     		mov	r1, r2
 1133 01f2 1A46     		mov	r2, r3
 1134 01f4 4FF00103 		mov	r3, #1
 1135 01f8 FFF7FEFF 		bl	http_write
 1136 01fc 0346     		mov	r3, r0
 1137 01fe FB75     		strb	r3, [r7, #23]
1015:../Dave/Generated/src/WEBSERVER001/HTTPServer/httpd.c ****       if (err == ERR_OK) {
 1138              		.loc 1 1015 0
 1139 0200 97F91730 		ldrsb	r3, [r7, #23]
 1140 0204 002B     		cmp	r3, #0
 1141 0206 0ED1     		bne	.L65
1016:../Dave/Generated/src/WEBSERVER001/HTTPServer/httpd.c ****         data_to_send = true;
 1142              		.loc 1 1016 0
 1143 0208 4FF00103 		mov	r3, #1
 1144 020c BB75     		strb	r3, [r7, #22]
1017:../Dave/Generated/src/WEBSERVER001/HTTPServer/httpd.c ****         hs->file += len;
 1145              		.loc 1 1017 0
 1146 020e 3B68     		ldr	r3, [r7, #0]
 1147 0210 5A68     		ldr	r2, [r3, #4]
 1148 0212 BB89     		ldrh	r3, [r7, #12]
 1149 0214 D218     		adds	r2, r2, r3
 1150 0216 3B68     		ldr	r3, [r7, #0]
 1151 0218 5A60     		str	r2, [r3, #4]
1018:../Dave/Generated/src/WEBSERVER001/HTTPServer/httpd.c ****         hs->left -= len;
 1152              		.loc 1 1018 0
 1153 021a 3B68     		ldr	r3, [r7, #0]
 1154 021c 5A69     		ldr	r2, [r3, #20]
 1155 021e BB89     		ldrh	r3, [r7, #12]
 1156 0220 D21A     		subs	r2, r2, r3
 1157 0222 3B68     		ldr	r3, [r7, #0]
 1158 0224 5A61     		str	r2, [r3, #20]
 1159              	.L65:
1019:../Dave/Generated/src/WEBSERVER001/HTTPServer/httpd.c ****       }
1020:../Dave/Generated/src/WEBSERVER001/HTTPServer/httpd.c **** 
1021:../Dave/Generated/src/WEBSERVER001/HTTPServer/httpd.c ****       /* If the send buffer is full, return now. */
1022:../Dave/Generated/src/WEBSERVER001/HTTPServer/httpd.c ****       if(tcp_sndbuf(pcb) == 0) {
 1160              		.loc 1 1022 0
 1161 0226 7B68     		ldr	r3, [r7, #4]
 1162 0228 B3F86E30 		ldrh	r3, [r3, #110]
 1163 022c 002B     		cmp	r3, #0
 1164 022e 40F03982 		bne	.L108
1023:../Dave/Generated/src/WEBSERVER001/HTTPServer/httpd.c ****         return data_to_send;
 1165              		.loc 1 1023 0
 1166 0232 BB7D     		ldrb	r3, [r7, #22]	@ zero_extendqisi2
 1167 0234 AAE2     		b	.L107
 1168              	.L102:
1024:../Dave/Generated/src/WEBSERVER001/HTTPServer/httpd.c ****       }
1025:../Dave/Generated/src/WEBSERVER001/HTTPServer/httpd.c ****     }
1026:../Dave/Generated/src/WEBSERVER001/HTTPServer/httpd.c **** 
1027:../Dave/Generated/src/WEBSERVER001/HTTPServer/httpd.c ****     LWIP_DEBUGF(HTTPD_DEBUG, ("State %d, %d left\n", hs->tag_state, hs->parse_left));
1028:../Dave/Generated/src/WEBSERVER001/HTTPServer/httpd.c **** 
1029:../Dave/Generated/src/WEBSERVER001/HTTPServer/httpd.c ****     /* We have sent all the data that was already parsed so continue parsing
1030:../Dave/Generated/src/WEBSERVER001/HTTPServer/httpd.c ****      * the buffer contents looking for SSI tags. */
1031:../Dave/Generated/src/WEBSERVER001/HTTPServer/httpd.c ****     while((hs->parse_left) && (err == ERR_OK)) {
1032:../Dave/Generated/src/WEBSERVER001/HTTPServer/httpd.c ****       /* @todo: somewhere in this loop, 'len' should grow again... */
1033:../Dave/Generated/src/WEBSERVER001/HTTPServer/httpd.c ****       if (len == 0) {
 1169              		.loc 1 1033 0
 1170 0236 BB89     		ldrh	r3, [r7, #12]
 1171 0238 002B     		cmp	r3, #0
 1172 023a 01D1     		bne	.L67
1034:../Dave/Generated/src/WEBSERVER001/HTTPServer/httpd.c ****         return data_to_send;
 1173              		.loc 1 1034 0
 1174 023c BB7D     		ldrb	r3, [r7, #22]	@ zero_extendqisi2
 1175 023e A5E2     		b	.L107
 1176              	.L67:
1035:../Dave/Generated/src/WEBSERVER001/HTTPServer/httpd.c ****       }
1036:../Dave/Generated/src/WEBSERVER001/HTTPServer/httpd.c ****       switch(hs->tag_state) {
 1177              		.loc 1 1036 0
 1178 0240 3B68     		ldr	r3, [r7, #0]
 1179 0242 93F8F830 		ldrb	r3, [r3, #248]	@ zero_extendqisi2
 1180 0246 042B     		cmp	r3, #4
 1181 0248 00F23182 		bhi	.L66
 1182 024c 01A2     		adr	r2, .L73
 1183 024e 52F823F0 		ldr	pc, [r2, r3, lsl #2]
 1184 0252 00BF     		.align	2
 1185              	.L73:
 1186 0254 69020000 		.word	.L68+1
 1187 0258 AB020000 		.word	.L69+1
 1188 025c 17030000 		.word	.L70+1
 1189 0260 4F040000 		.word	.L71+1
 1190 0264 9F050000 		.word	.L72+1
 1191              	.L68:
1037:../Dave/Generated/src/WEBSERVER001/HTTPServer/httpd.c ****         case TAG_NONE:
1038:../Dave/Generated/src/WEBSERVER001/HTTPServer/httpd.c ****           /* We are not currently processing an SSI tag so scan for the
1039:../Dave/Generated/src/WEBSERVER001/HTTPServer/httpd.c ****            * start of the lead-in marker. */
1040:../Dave/Generated/src/WEBSERVER001/HTTPServer/httpd.c ****           if(*hs->parsed == g_pcTagLeadIn[0]) {
 1192              		.loc 1 1040 0
 1193 0268 3B68     		ldr	r3, [r7, #0]
 1194 026a DB69     		ldr	r3, [r3, #28]
 1195 026c 1A78     		ldrb	r2, [r3, #0]	@ zero_extendqisi2
 1196 026e 40F20003 		movw	r3, #:lower16:g_pcTagLeadIn
 1197 0272 C0F20003 		movt	r3, #:upper16:g_pcTagLeadIn
 1198 0276 1B68     		ldr	r3, [r3, #0]
 1199 0278 1B78     		ldrb	r3, [r3, #0]	@ zero_extendqisi2
 1200 027a 9A42     		cmp	r2, r3
 1201 027c 08D1     		bne	.L74
1041:../Dave/Generated/src/WEBSERVER001/HTTPServer/httpd.c ****             /* We found what could be the lead-in for a new tag so change
1042:../Dave/Generated/src/WEBSERVER001/HTTPServer/httpd.c ****              * state appropriately. */
1043:../Dave/Generated/src/WEBSERVER001/HTTPServer/httpd.c ****             hs->tag_state = TAG_LEADIN;
 1202              		.loc 1 1043 0
 1203 027e 3B68     		ldr	r3, [r7, #0]
 1204 0280 4FF00102 		mov	r2, #1
 1205 0284 83F8F820 		strb	r2, [r3, #248]
1044:../Dave/Generated/src/WEBSERVER001/HTTPServer/httpd.c ****             hs->tag_index = 1;
 1206              		.loc 1 1044 0
 1207 0288 3B68     		ldr	r3, [r7, #0]
 1208 028a 4FF00102 		mov	r2, #1
 1209 028e 1A85     		strh	r2, [r3, #40]	@ movhi
 1210              	.L74:
1045:../Dave/Generated/src/WEBSERVER001/HTTPServer/httpd.c **** #if !LWIP_HTTPD_SSI_INCLUDE_TAG
1046:../Dave/Generated/src/WEBSERVER001/HTTPServer/httpd.c ****             hs->tag_started = hs->parsed;
1047:../Dave/Generated/src/WEBSERVER001/HTTPServer/httpd.c **** #endif /* !LWIP_HTTPD_SSI_INCLUDE_TAG */
1048:../Dave/Generated/src/WEBSERVER001/HTTPServer/httpd.c ****           }
1049:../Dave/Generated/src/WEBSERVER001/HTTPServer/httpd.c **** 
1050:../Dave/Generated/src/WEBSERVER001/HTTPServer/httpd.c ****           /* Move on to the next character in the buffer */
1051:../Dave/Generated/src/WEBSERVER001/HTTPServer/httpd.c ****           hs->parse_left--;
 1211              		.loc 1 1051 0
 1212 0290 3B68     		ldr	r3, [r7, #0]
 1213 0292 5B6A     		ldr	r3, [r3, #36]
 1214 0294 03F1FF32 		add	r2, r3, #-1
 1215 0298 3B68     		ldr	r3, [r7, #0]
 1216 029a 5A62     		str	r2, [r3, #36]
1052:../Dave/Generated/src/WEBSERVER001/HTTPServer/httpd.c ****           hs->parsed++;
 1217              		.loc 1 1052 0
 1218 029c 3B68     		ldr	r3, [r7, #0]
 1219 029e DB69     		ldr	r3, [r3, #28]
 1220 02a0 03F10102 		add	r2, r3, #1
 1221 02a4 3B68     		ldr	r3, [r7, #0]
 1222 02a6 DA61     		str	r2, [r3, #28]
1053:../Dave/Generated/src/WEBSERVER001/HTTPServer/httpd.c ****           break;
 1223              		.loc 1 1053 0
 1224 02a8 01E2     		b	.L66
 1225              	.L69:
1054:../Dave/Generated/src/WEBSERVER001/HTTPServer/httpd.c **** 
1055:../Dave/Generated/src/WEBSERVER001/HTTPServer/httpd.c ****         case TAG_LEADIN:
1056:../Dave/Generated/src/WEBSERVER001/HTTPServer/httpd.c ****           /* We are processing the lead-in marker, looking for the start of
1057:../Dave/Generated/src/WEBSERVER001/HTTPServer/httpd.c ****            * the tag name. */
1058:../Dave/Generated/src/WEBSERVER001/HTTPServer/httpd.c **** 
1059:../Dave/Generated/src/WEBSERVER001/HTTPServer/httpd.c ****           /* Have we reached the end of the leadin? */
1060:../Dave/Generated/src/WEBSERVER001/HTTPServer/httpd.c ****           if(hs->tag_index == LEN_TAG_LEAD_IN) {
 1226              		.loc 1 1060 0
 1227 02aa 3B68     		ldr	r3, [r7, #0]
 1228 02ac 1B8D     		ldrh	r3, [r3, #40]
 1229 02ae 052B     		cmp	r3, #5
 1230 02b0 09D1     		bne	.L75
1061:../Dave/Generated/src/WEBSERVER001/HTTPServer/httpd.c ****             hs->tag_index = 0;
 1231              		.loc 1 1061 0
 1232 02b2 3B68     		ldr	r3, [r7, #0]
 1233 02b4 4FF00002 		mov	r2, #0
 1234 02b8 1A85     		strh	r2, [r3, #40]	@ movhi
1062:../Dave/Generated/src/WEBSERVER001/HTTPServer/httpd.c ****             hs->tag_state = TAG_FOUND;
 1235              		.loc 1 1062 0
 1236 02ba 3B68     		ldr	r3, [r7, #0]
 1237 02bc 4FF00202 		mov	r2, #2
 1238 02c0 83F8F820 		strb	r2, [r3, #248]
1063:../Dave/Generated/src/WEBSERVER001/HTTPServer/httpd.c ****           } else {
1064:../Dave/Generated/src/WEBSERVER001/HTTPServer/httpd.c ****             /* Have we found the next character we expect for the tag leadin? */
1065:../Dave/Generated/src/WEBSERVER001/HTTPServer/httpd.c ****             if(*hs->parsed == g_pcTagLeadIn[hs->tag_index]) {
1066:../Dave/Generated/src/WEBSERVER001/HTTPServer/httpd.c ****               /* Yes - move to the next one unless we have found the complete
1067:../Dave/Generated/src/WEBSERVER001/HTTPServer/httpd.c ****                * leadin, in which case we start looking for the tag itself */
1068:../Dave/Generated/src/WEBSERVER001/HTTPServer/httpd.c ****               hs->tag_index++;
1069:../Dave/Generated/src/WEBSERVER001/HTTPServer/httpd.c ****             } else {
1070:../Dave/Generated/src/WEBSERVER001/HTTPServer/httpd.c ****               /* We found an unexpected character so this is not a tag. Move
1071:../Dave/Generated/src/WEBSERVER001/HTTPServer/httpd.c ****                * back to idle state. */
1072:../Dave/Generated/src/WEBSERVER001/HTTPServer/httpd.c ****               hs->tag_state = TAG_NONE;
1073:../Dave/Generated/src/WEBSERVER001/HTTPServer/httpd.c ****             }
1074:../Dave/Generated/src/WEBSERVER001/HTTPServer/httpd.c **** 
1075:../Dave/Generated/src/WEBSERVER001/HTTPServer/httpd.c ****             /* Move on to the next character in the buffer */
1076:../Dave/Generated/src/WEBSERVER001/HTTPServer/httpd.c ****             hs->parse_left--;
1077:../Dave/Generated/src/WEBSERVER001/HTTPServer/httpd.c ****             hs->parsed++;
1078:../Dave/Generated/src/WEBSERVER001/HTTPServer/httpd.c ****           }
1079:../Dave/Generated/src/WEBSERVER001/HTTPServer/httpd.c ****           break;
 1239              		.loc 1 1079 0
 1240 02c4 F3E1     		b	.L66
 1241              	.L75:
1065:../Dave/Generated/src/WEBSERVER001/HTTPServer/httpd.c ****             if(*hs->parsed == g_pcTagLeadIn[hs->tag_index]) {
 1242              		.loc 1 1065 0
 1243 02c6 3B68     		ldr	r3, [r7, #0]
 1244 02c8 DB69     		ldr	r3, [r3, #28]
 1245 02ca 1A78     		ldrb	r2, [r3, #0]	@ zero_extendqisi2
 1246 02cc 40F20003 		movw	r3, #:lower16:g_pcTagLeadIn
 1247 02d0 C0F20003 		movt	r3, #:upper16:g_pcTagLeadIn
 1248 02d4 1968     		ldr	r1, [r3, #0]
 1249 02d6 3B68     		ldr	r3, [r7, #0]
 1250 02d8 1B8D     		ldrh	r3, [r3, #40]
 1251 02da CB18     		adds	r3, r1, r3
 1252 02dc 1B78     		ldrb	r3, [r3, #0]	@ zero_extendqisi2
 1253 02de 9A42     		cmp	r2, r3
 1254 02e0 07D1     		bne	.L77
1068:../Dave/Generated/src/WEBSERVER001/HTTPServer/httpd.c ****               hs->tag_index++;
 1255              		.loc 1 1068 0
 1256 02e2 3B68     		ldr	r3, [r7, #0]
 1257 02e4 1B8D     		ldrh	r3, [r3, #40]
 1258 02e6 03F10103 		add	r3, r3, #1
 1259 02ea 9AB2     		uxth	r2, r3
 1260 02ec 3B68     		ldr	r3, [r7, #0]
 1261 02ee 1A85     		strh	r2, [r3, #40]	@ movhi
 1262 02f0 04E0     		b	.L78
 1263              	.L77:
1072:../Dave/Generated/src/WEBSERVER001/HTTPServer/httpd.c ****               hs->tag_state = TAG_NONE;
 1264              		.loc 1 1072 0
 1265 02f2 3B68     		ldr	r3, [r7, #0]
 1266 02f4 4FF00002 		mov	r2, #0
 1267 02f8 83F8F820 		strb	r2, [r3, #248]
 1268              	.L78:
1076:../Dave/Generated/src/WEBSERVER001/HTTPServer/httpd.c ****             hs->parse_left--;
 1269              		.loc 1 1076 0
 1270 02fc 3B68     		ldr	r3, [r7, #0]
 1271 02fe 5B6A     		ldr	r3, [r3, #36]
 1272 0300 03F1FF32 		add	r2, r3, #-1
 1273 0304 3B68     		ldr	r3, [r7, #0]
 1274 0306 5A62     		str	r2, [r3, #36]
1077:../Dave/Generated/src/WEBSERVER001/HTTPServer/httpd.c ****             hs->parsed++;
 1275              		.loc 1 1077 0
 1276 0308 3B68     		ldr	r3, [r7, #0]
 1277 030a DB69     		ldr	r3, [r3, #28]
 1278 030c 03F10102 		add	r2, r3, #1
 1279 0310 3B68     		ldr	r3, [r7, #0]
 1280 0312 DA61     		str	r2, [r3, #28]
 1281              		.loc 1 1079 0
 1282 0314 CBE1     		b	.L66
 1283              	.L70:
1080:../Dave/Generated/src/WEBSERVER001/HTTPServer/httpd.c **** 
1081:../Dave/Generated/src/WEBSERVER001/HTTPServer/httpd.c ****         case TAG_FOUND:
1082:../Dave/Generated/src/WEBSERVER001/HTTPServer/httpd.c ****           /* We are reading the tag name, looking for the start of the
1083:../Dave/Generated/src/WEBSERVER001/HTTPServer/httpd.c ****            * lead-out marker and removing any whitespace found. */
1084:../Dave/Generated/src/WEBSERVER001/HTTPServer/httpd.c **** 
1085:../Dave/Generated/src/WEBSERVER001/HTTPServer/httpd.c ****           /* Remove leading whitespace between the tag leading and the first
1086:../Dave/Generated/src/WEBSERVER001/HTTPServer/httpd.c ****            * tag name character. */
1087:../Dave/Generated/src/WEBSERVER001/HTTPServer/httpd.c ****           if((hs->tag_index == 0) && ((*hs->parsed == ' ') ||
 1284              		.loc 1 1087 0
 1285 0316 3B68     		ldr	r3, [r7, #0]
 1286 0318 1B8D     		ldrh	r3, [r3, #40]
 1287 031a 002B     		cmp	r3, #0
 1288 031c 20D1     		bne	.L79
 1289              		.loc 1 1087 0 is_stmt 0 discriminator 1
 1290 031e 3B68     		ldr	r3, [r7, #0]
 1291 0320 DB69     		ldr	r3, [r3, #28]
 1292 0322 1B78     		ldrb	r3, [r3, #0]	@ zero_extendqisi2
 1293 0324 202B     		cmp	r3, #32
 1294 0326 0ED0     		beq	.L80
1088:../Dave/Generated/src/WEBSERVER001/HTTPServer/httpd.c ****              (*hs->parsed == '\t') || (*hs->parsed == '\n') ||
 1295              		.loc 1 1088 0 is_stmt 1 discriminator 1
 1296 0328 3B68     		ldr	r3, [r7, #0]
 1297 032a DB69     		ldr	r3, [r3, #28]
 1298 032c 1B78     		ldrb	r3, [r3, #0]	@ zero_extendqisi2
1087:../Dave/Generated/src/WEBSERVER001/HTTPServer/httpd.c ****           if((hs->tag_index == 0) && ((*hs->parsed == ' ') ||
 1299              		.loc 1 1087 0 discriminator 1
 1300 032e 092B     		cmp	r3, #9
 1301 0330 09D0     		beq	.L80
 1302              		.loc 1 1088 0
 1303 0332 3B68     		ldr	r3, [r7, #0]
 1304 0334 DB69     		ldr	r3, [r3, #28]
 1305 0336 1B78     		ldrb	r3, [r3, #0]	@ zero_extendqisi2
 1306 0338 0A2B     		cmp	r3, #10
 1307 033a 04D0     		beq	.L80
1089:../Dave/Generated/src/WEBSERVER001/HTTPServer/httpd.c ****              (*hs->parsed == '\r'))) {
 1308              		.loc 1 1089 0 discriminator 1
 1309 033c 3B68     		ldr	r3, [r7, #0]
 1310 033e DB69     		ldr	r3, [r3, #28]
 1311 0340 1B78     		ldrb	r3, [r3, #0]	@ zero_extendqisi2
1088:../Dave/Generated/src/WEBSERVER001/HTTPServer/httpd.c ****              (*hs->parsed == '\t') || (*hs->parsed == '\n') ||
 1312              		.loc 1 1088 0 discriminator 1
 1313 0342 0D2B     		cmp	r3, #13
 1314 0344 0CD1     		bne	.L79
 1315              	.L80:
1090:../Dave/Generated/src/WEBSERVER001/HTTPServer/httpd.c ****             /* Move on to the next character in the buffer */
1091:../Dave/Generated/src/WEBSERVER001/HTTPServer/httpd.c ****             hs->parse_left--;
 1316              		.loc 1 1091 0
 1317 0346 3B68     		ldr	r3, [r7, #0]
 1318 0348 5B6A     		ldr	r3, [r3, #36]
 1319 034a 03F1FF32 		add	r2, r3, #-1
 1320 034e 3B68     		ldr	r3, [r7, #0]
 1321 0350 5A62     		str	r2, [r3, #36]
1092:../Dave/Generated/src/WEBSERVER001/HTTPServer/httpd.c ****             hs->parsed++;
 1322              		.loc 1 1092 0
 1323 0352 3B68     		ldr	r3, [r7, #0]
 1324 0354 DB69     		ldr	r3, [r3, #28]
 1325 0356 03F10102 		add	r2, r3, #1
 1326 035a 3B68     		ldr	r3, [r7, #0]
 1327 035c DA61     		str	r2, [r3, #28]
1093:../Dave/Generated/src/WEBSERVER001/HTTPServer/httpd.c ****             break;
 1328              		.loc 1 1093 0
 1329 035e A6E1     		b	.L66
 1330              	.L79:
1094:../Dave/Generated/src/WEBSERVER001/HTTPServer/httpd.c ****           }
1095:../Dave/Generated/src/WEBSERVER001/HTTPServer/httpd.c **** 
1096:../Dave/Generated/src/WEBSERVER001/HTTPServer/httpd.c ****           /* Have we found the end of the tag name? This is signalled by
1097:../Dave/Generated/src/WEBSERVER001/HTTPServer/httpd.c ****            * us finding the first leadout character or whitespace */
1098:../Dave/Generated/src/WEBSERVER001/HTTPServer/httpd.c ****           if((*hs->parsed == g_pcTagLeadOut[0]) ||
 1331              		.loc 1 1098 0
 1332 0360 3B68     		ldr	r3, [r7, #0]
 1333 0362 DB69     		ldr	r3, [r3, #28]
 1334 0364 1A78     		ldrb	r2, [r3, #0]	@ zero_extendqisi2
 1335 0366 40F20003 		movw	r3, #:lower16:g_pcTagLeadOut
 1336 036a C0F20003 		movt	r3, #:upper16:g_pcTagLeadOut
 1337 036e 1B68     		ldr	r3, [r3, #0]
 1338 0370 1B78     		ldrb	r3, [r3, #0]	@ zero_extendqisi2
 1339 0372 9A42     		cmp	r2, r3
 1340 0374 13D0     		beq	.L81
1099:../Dave/Generated/src/WEBSERVER001/HTTPServer/httpd.c ****              (*hs->parsed == ' ') || (*hs->parsed == '\t') ||
 1341              		.loc 1 1099 0 discriminator 1
 1342 0376 3B68     		ldr	r3, [r7, #0]
 1343 0378 DB69     		ldr	r3, [r3, #28]
 1344 037a 1B78     		ldrb	r3, [r3, #0]	@ zero_extendqisi2
1098:../Dave/Generated/src/WEBSERVER001/HTTPServer/httpd.c ****           if((*hs->parsed == g_pcTagLeadOut[0]) ||
 1345              		.loc 1 1098 0 discriminator 1
 1346 037c 202B     		cmp	r3, #32
 1347 037e 0ED0     		beq	.L81
 1348              		.loc 1 1099 0
 1349 0380 3B68     		ldr	r3, [r7, #0]
 1350 0382 DB69     		ldr	r3, [r3, #28]
 1351 0384 1B78     		ldrb	r3, [r3, #0]	@ zero_extendqisi2
 1352 0386 092B     		cmp	r3, #9
 1353 0388 09D0     		beq	.L81
1100:../Dave/Generated/src/WEBSERVER001/HTTPServer/httpd.c ****              (*hs->parsed == '\n')  || (*hs->parsed == '\r')) {
 1354              		.loc 1 1100 0 discriminator 1
 1355 038a 3B68     		ldr	r3, [r7, #0]
 1356 038c DB69     		ldr	r3, [r3, #28]
 1357 038e 1B78     		ldrb	r3, [r3, #0]	@ zero_extendqisi2
1099:../Dave/Generated/src/WEBSERVER001/HTTPServer/httpd.c ****              (*hs->parsed == ' ') || (*hs->parsed == '\t') ||
 1358              		.loc 1 1099 0 discriminator 1
 1359 0390 0A2B     		cmp	r3, #10
 1360 0392 04D0     		beq	.L81
 1361              		.loc 1 1100 0
 1362 0394 3B68     		ldr	r3, [r7, #0]
 1363 0396 DB69     		ldr	r3, [r3, #28]
 1364 0398 1B78     		ldrb	r3, [r3, #0]	@ zero_extendqisi2
 1365 039a 0D2B     		cmp	r3, #13
 1366 039c 31D1     		bne	.L82
 1367              	.L81:
1101:../Dave/Generated/src/WEBSERVER001/HTTPServer/httpd.c **** 
1102:../Dave/Generated/src/WEBSERVER001/HTTPServer/httpd.c ****             if(hs->tag_index == 0) {
 1368              		.loc 1 1102 0
 1369 039e 3B68     		ldr	r3, [r7, #0]
 1370 03a0 1B8D     		ldrh	r3, [r3, #40]
 1371 03a2 002B     		cmp	r3, #0
 1372 03a4 05D1     		bne	.L83
1103:../Dave/Generated/src/WEBSERVER001/HTTPServer/httpd.c ****               /* We read a zero length tag so ignore it. */
1104:../Dave/Generated/src/WEBSERVER001/HTTPServer/httpd.c ****               hs->tag_state = TAG_NONE;
 1373              		.loc 1 1104 0
 1374 03a6 3B68     		ldr	r3, [r7, #0]
 1375 03a8 4FF00002 		mov	r2, #0
 1376 03ac 83F8F820 		strb	r2, [r3, #248]
1102:../Dave/Generated/src/WEBSERVER001/HTTPServer/httpd.c ****             if(hs->tag_index == 0) {
 1377              		.loc 1 1102 0
 1378 03b0 40E0     		b	.L86
 1379              	.L83:
1105:../Dave/Generated/src/WEBSERVER001/HTTPServer/httpd.c ****             } else {
1106:../Dave/Generated/src/WEBSERVER001/HTTPServer/httpd.c ****               /* We read a non-empty tag so go ahead and look for the
1107:../Dave/Generated/src/WEBSERVER001/HTTPServer/httpd.c ****                * leadout string. */
1108:../Dave/Generated/src/WEBSERVER001/HTTPServer/httpd.c ****               hs->tag_state = TAG_LEADOUT;
 1380              		.loc 1 1108 0
 1381 03b2 3B68     		ldr	r3, [r7, #0]
 1382 03b4 4FF00302 		mov	r2, #3
 1383 03b8 83F8F820 		strb	r2, [r3, #248]
1109:../Dave/Generated/src/WEBSERVER001/HTTPServer/httpd.c ****               LWIP_ASSERT("hs->tag_index <= 0xff", hs->tag_index <= 0xff);
1110:../Dave/Generated/src/WEBSERVER001/HTTPServer/httpd.c ****               hs->tag_name_len = (u8_t)hs->tag_index;
 1384              		.loc 1 1110 0
 1385 03bc 3B68     		ldr	r3, [r7, #0]
 1386 03be 1B8D     		ldrh	r3, [r3, #40]
 1387 03c0 DAB2     		uxtb	r2, r3
 1388 03c2 3B68     		ldr	r3, [r7, #0]
 1389 03c4 83F82D20 		strb	r2, [r3, #45]
1111:../Dave/Generated/src/WEBSERVER001/HTTPServer/httpd.c ****               hs->tag_name[hs->tag_index] = '\0';
 1390              		.loc 1 1111 0
 1391 03c8 3B68     		ldr	r3, [r7, #0]
 1392 03ca 1B8D     		ldrh	r3, [r3, #40]
 1393 03cc 3A68     		ldr	r2, [r7, #0]
 1394 03ce D318     		adds	r3, r2, r3
 1395 03d0 4FF00002 		mov	r2, #0
 1396 03d4 83F82E20 		strb	r2, [r3, #46]
1112:../Dave/Generated/src/WEBSERVER001/HTTPServer/httpd.c ****               if(*hs->parsed == g_pcTagLeadOut[0]) {
 1397              		.loc 1 1112 0
 1398 03d8 3B68     		ldr	r3, [r7, #0]
 1399 03da DB69     		ldr	r3, [r3, #28]
 1400 03dc 1A78     		ldrb	r2, [r3, #0]	@ zero_extendqisi2
 1401 03de 40F20003 		movw	r3, #:lower16:g_pcTagLeadOut
 1402 03e2 C0F20003 		movt	r3, #:upper16:g_pcTagLeadOut
 1403 03e6 1B68     		ldr	r3, [r3, #0]
 1404 03e8 1B78     		ldrb	r3, [r3, #0]	@ zero_extendqisi2
 1405 03ea 9A42     		cmp	r2, r3
 1406 03ec 04D1     		bne	.L85
1113:../Dave/Generated/src/WEBSERVER001/HTTPServer/httpd.c ****                 hs->tag_index = 1;
 1407              		.loc 1 1113 0
 1408 03ee 3B68     		ldr	r3, [r7, #0]
 1409 03f0 4FF00102 		mov	r2, #1
 1410 03f4 1A85     		strh	r2, [r3, #40]	@ movhi
1102:../Dave/Generated/src/WEBSERVER001/HTTPServer/httpd.c ****             if(hs->tag_index == 0) {
 1411              		.loc 1 1102 0
 1412 03f6 1DE0     		b	.L86
 1413              	.L85:
1114:../Dave/Generated/src/WEBSERVER001/HTTPServer/httpd.c ****               } else {
1115:../Dave/Generated/src/WEBSERVER001/HTTPServer/httpd.c ****                 hs->tag_index = 0;
 1414              		.loc 1 1115 0
 1415 03f8 3B68     		ldr	r3, [r7, #0]
 1416 03fa 4FF00002 		mov	r2, #0
 1417 03fe 1A85     		strh	r2, [r3, #40]	@ movhi
1102:../Dave/Generated/src/WEBSERVER001/HTTPServer/httpd.c ****             if(hs->tag_index == 0) {
 1418              		.loc 1 1102 0
 1419 0400 18E0     		b	.L86
 1420              	.L82:
1116:../Dave/Generated/src/WEBSERVER001/HTTPServer/httpd.c ****               }
1117:../Dave/Generated/src/WEBSERVER001/HTTPServer/httpd.c ****             }
1118:../Dave/Generated/src/WEBSERVER001/HTTPServer/httpd.c ****           } else {
1119:../Dave/Generated/src/WEBSERVER001/HTTPServer/httpd.c ****             /* This character is part of the tag name so save it */
1120:../Dave/Generated/src/WEBSERVER001/HTTPServer/httpd.c ****             if(hs->tag_index < LWIP_HTTPD_MAX_TAG_NAME_LEN) {
 1421              		.loc 1 1120 0
 1422 0402 3B68     		ldr	r3, [r7, #0]
 1423 0404 1B8D     		ldrh	r3, [r3, #40]
 1424 0406 072B     		cmp	r3, #7
 1425 0408 0FD8     		bhi	.L87
1121:../Dave/Generated/src/WEBSERVER001/HTTPServer/httpd.c ****               hs->tag_name[hs->tag_index++] = *hs->parsed;
 1426              		.loc 1 1121 0
 1427 040a 3B68     		ldr	r3, [r7, #0]
 1428 040c 1B8D     		ldrh	r3, [r3, #40]
 1429 040e 1A46     		mov	r2, r3
 1430 0410 3968     		ldr	r1, [r7, #0]
 1431 0412 C969     		ldr	r1, [r1, #28]
 1432 0414 0978     		ldrb	r1, [r1, #0]	@ zero_extendqisi2
 1433 0416 3868     		ldr	r0, [r7, #0]
 1434 0418 8218     		adds	r2, r0, r2
 1435 041a 82F82E10 		strb	r1, [r2, #46]
 1436 041e 03F10103 		add	r3, r3, #1
 1437 0422 9AB2     		uxth	r2, r3
 1438 0424 3B68     		ldr	r3, [r7, #0]
 1439 0426 1A85     		strh	r2, [r3, #40]	@ movhi
 1440 0428 04E0     		b	.L86
 1441              	.L87:
1122:../Dave/Generated/src/WEBSERVER001/HTTPServer/httpd.c ****             } else {
1123:../Dave/Generated/src/WEBSERVER001/HTTPServer/httpd.c ****               /* The tag was too long so ignore it. */
1124:../Dave/Generated/src/WEBSERVER001/HTTPServer/httpd.c ****               hs->tag_state = TAG_NONE;
 1442              		.loc 1 1124 0
 1443 042a 3B68     		ldr	r3, [r7, #0]
 1444 042c 4FF00002 		mov	r2, #0
 1445 0430 83F8F820 		strb	r2, [r3, #248]
 1446              	.L86:
1125:../Dave/Generated/src/WEBSERVER001/HTTPServer/httpd.c ****             }
1126:../Dave/Generated/src/WEBSERVER001/HTTPServer/httpd.c ****           }
1127:../Dave/Generated/src/WEBSERVER001/HTTPServer/httpd.c **** 
1128:../Dave/Generated/src/WEBSERVER001/HTTPServer/httpd.c ****           /* Move on to the next character in the buffer */
1129:../Dave/Generated/src/WEBSERVER001/HTTPServer/httpd.c ****           hs->parse_left--;
 1447              		.loc 1 1129 0
 1448 0434 3B68     		ldr	r3, [r7, #0]
 1449 0436 5B6A     		ldr	r3, [r3, #36]
 1450 0438 03F1FF32 		add	r2, r3, #-1
 1451 043c 3B68     		ldr	r3, [r7, #0]
 1452 043e 5A62     		str	r2, [r3, #36]
1130:../Dave/Generated/src/WEBSERVER001/HTTPServer/httpd.c ****           hs->parsed++;
 1453              		.loc 1 1130 0
 1454 0440 3B68     		ldr	r3, [r7, #0]
 1455 0442 DB69     		ldr	r3, [r3, #28]
 1456 0444 03F10102 		add	r2, r3, #1
 1457 0448 3B68     		ldr	r3, [r7, #0]
 1458 044a DA61     		str	r2, [r3, #28]
1131:../Dave/Generated/src/WEBSERVER001/HTTPServer/httpd.c **** 
1132:../Dave/Generated/src/WEBSERVER001/HTTPServer/httpd.c ****           break;
 1459              		.loc 1 1132 0
 1460 044c 2FE1     		b	.L66
 1461              	.L71:
1133:../Dave/Generated/src/WEBSERVER001/HTTPServer/httpd.c **** 
1134:../Dave/Generated/src/WEBSERVER001/HTTPServer/httpd.c ****         /* We are looking for the end of the lead-out marker. */
1135:../Dave/Generated/src/WEBSERVER001/HTTPServer/httpd.c ****         case TAG_LEADOUT:
1136:../Dave/Generated/src/WEBSERVER001/HTTPServer/httpd.c ****           /* Remove leading whitespace between the tag leading and the first
1137:../Dave/Generated/src/WEBSERVER001/HTTPServer/httpd.c ****            * tag leadout character. */
1138:../Dave/Generated/src/WEBSERVER001/HTTPServer/httpd.c ****           if((hs->tag_index == 0) && ((*hs->parsed == ' ') ||
 1462              		.loc 1 1138 0
 1463 044e 3B68     		ldr	r3, [r7, #0]
 1464 0450 1B8D     		ldrh	r3, [r3, #40]
 1465 0452 002B     		cmp	r3, #0
 1466 0454 20D1     		bne	.L88
 1467              		.loc 1 1138 0 is_stmt 0 discriminator 1
 1468 0456 3B68     		ldr	r3, [r7, #0]
 1469 0458 DB69     		ldr	r3, [r3, #28]
 1470 045a 1B78     		ldrb	r3, [r3, #0]	@ zero_extendqisi2
 1471 045c 202B     		cmp	r3, #32
 1472 045e 0ED0     		beq	.L89
1139:../Dave/Generated/src/WEBSERVER001/HTTPServer/httpd.c ****              (*hs->parsed == '\t') || (*hs->parsed == '\n') ||
 1473              		.loc 1 1139 0 is_stmt 1 discriminator 1
 1474 0460 3B68     		ldr	r3, [r7, #0]
 1475 0462 DB69     		ldr	r3, [r3, #28]
 1476 0464 1B78     		ldrb	r3, [r3, #0]	@ zero_extendqisi2
1138:../Dave/Generated/src/WEBSERVER001/HTTPServer/httpd.c ****           if((hs->tag_index == 0) && ((*hs->parsed == ' ') ||
 1477              		.loc 1 1138 0 discriminator 1
 1478 0466 092B     		cmp	r3, #9
 1479 0468 09D0     		beq	.L89
 1480              		.loc 1 1139 0
 1481 046a 3B68     		ldr	r3, [r7, #0]
 1482 046c DB69     		ldr	r3, [r3, #28]
 1483 046e 1B78     		ldrb	r3, [r3, #0]	@ zero_extendqisi2
 1484 0470 0A2B     		cmp	r3, #10
 1485 0472 04D0     		beq	.L89
1140:../Dave/Generated/src/WEBSERVER001/HTTPServer/httpd.c ****              (*hs->parsed == '\r'))) {
 1486              		.loc 1 1140 0 discriminator 1
 1487 0474 3B68     		ldr	r3, [r7, #0]
 1488 0476 DB69     		ldr	r3, [r3, #28]
 1489 0478 1B78     		ldrb	r3, [r3, #0]	@ zero_extendqisi2
1139:../Dave/Generated/src/WEBSERVER001/HTTPServer/httpd.c ****              (*hs->parsed == '\t') || (*hs->parsed == '\n') ||
 1490              		.loc 1 1139 0 discriminator 1
 1491 047a 0D2B     		cmp	r3, #13
 1492 047c 0CD1     		bne	.L88
 1493              	.L89:
1141:../Dave/Generated/src/WEBSERVER001/HTTPServer/httpd.c ****             /* Move on to the next character in the buffer */
1142:../Dave/Generated/src/WEBSERVER001/HTTPServer/httpd.c ****             hs->parse_left--;
 1494              		.loc 1 1142 0
 1495 047e 3B68     		ldr	r3, [r7, #0]
 1496 0480 5B6A     		ldr	r3, [r3, #36]
 1497 0482 03F1FF32 		add	r2, r3, #-1
 1498 0486 3B68     		ldr	r3, [r7, #0]
 1499 0488 5A62     		str	r2, [r3, #36]
1143:../Dave/Generated/src/WEBSERVER001/HTTPServer/httpd.c ****             hs->parsed++;
 1500              		.loc 1 1143 0
 1501 048a 3B68     		ldr	r3, [r7, #0]
 1502 048c DB69     		ldr	r3, [r3, #28]
 1503 048e 03F10102 		add	r2, r3, #1
 1504 0492 3B68     		ldr	r3, [r7, #0]
 1505 0494 DA61     		str	r2, [r3, #28]
1144:../Dave/Generated/src/WEBSERVER001/HTTPServer/httpd.c ****             break;
 1506              		.loc 1 1144 0
 1507 0496 0AE1     		b	.L66
 1508              	.L88:
1145:../Dave/Generated/src/WEBSERVER001/HTTPServer/httpd.c ****           }
1146:../Dave/Generated/src/WEBSERVER001/HTTPServer/httpd.c **** 
1147:../Dave/Generated/src/WEBSERVER001/HTTPServer/httpd.c ****           /* Have we found the next character we expect for the tag leadout? */
1148:../Dave/Generated/src/WEBSERVER001/HTTPServer/httpd.c ****           if(*hs->parsed == g_pcTagLeadOut[hs->tag_index]) {
 1509              		.loc 1 1148 0
 1510 0498 3B68     		ldr	r3, [r7, #0]
 1511 049a DB69     		ldr	r3, [r3, #28]
 1512 049c 1A78     		ldrb	r2, [r3, #0]	@ zero_extendqisi2
 1513 049e 40F20003 		movw	r3, #:lower16:g_pcTagLeadOut
 1514 04a2 C0F20003 		movt	r3, #:upper16:g_pcTagLeadOut
 1515 04a6 1968     		ldr	r1, [r3, #0]
 1516 04a8 3B68     		ldr	r3, [r7, #0]
 1517 04aa 1B8D     		ldrh	r3, [r3, #40]
 1518 04ac CB18     		adds	r3, r1, r3
 1519 04ae 1B78     		ldrb	r3, [r3, #0]	@ zero_extendqisi2
 1520 04b0 9A42     		cmp	r2, r3
 1521 04b2 62D1     		bne	.L90
1149:../Dave/Generated/src/WEBSERVER001/HTTPServer/httpd.c ****             /* Yes - move to the next one unless we have found the complete
1150:../Dave/Generated/src/WEBSERVER001/HTTPServer/httpd.c ****              * leadout, in which case we need to call the client to process
1151:../Dave/Generated/src/WEBSERVER001/HTTPServer/httpd.c ****              * the tag. */
1152:../Dave/Generated/src/WEBSERVER001/HTTPServer/httpd.c **** 
1153:../Dave/Generated/src/WEBSERVER001/HTTPServer/httpd.c ****             /* Move on to the next character in the buffer */
1154:../Dave/Generated/src/WEBSERVER001/HTTPServer/httpd.c ****             hs->parse_left--;
 1522              		.loc 1 1154 0
 1523 04b4 3B68     		ldr	r3, [r7, #0]
 1524 04b6 5B6A     		ldr	r3, [r3, #36]
 1525 04b8 03F1FF32 		add	r2, r3, #-1
 1526 04bc 3B68     		ldr	r3, [r7, #0]
 1527 04be 5A62     		str	r2, [r3, #36]
1155:../Dave/Generated/src/WEBSERVER001/HTTPServer/httpd.c ****             hs->parsed++;
 1528              		.loc 1 1155 0
 1529 04c0 3B68     		ldr	r3, [r7, #0]
 1530 04c2 DB69     		ldr	r3, [r3, #28]
 1531 04c4 03F10102 		add	r2, r3, #1
 1532 04c8 3B68     		ldr	r3, [r7, #0]
 1533 04ca DA61     		str	r2, [r3, #28]
1156:../Dave/Generated/src/WEBSERVER001/HTTPServer/httpd.c **** 
1157:../Dave/Generated/src/WEBSERVER001/HTTPServer/httpd.c ****             if(hs->tag_index == (LEN_TAG_LEAD_OUT - 1)) {
 1534              		.loc 1 1157 0
 1535 04cc 3B68     		ldr	r3, [r7, #0]
 1536 04ce 1B8D     		ldrh	r3, [r3, #40]
 1537 04d0 022B     		cmp	r3, #2
 1538 04d2 4AD1     		bne	.L91
1158:../Dave/Generated/src/WEBSERVER001/HTTPServer/httpd.c ****               /* Call the client to ask for the insert string for the
1159:../Dave/Generated/src/WEBSERVER001/HTTPServer/httpd.c ****                * tag we just found. */
1160:../Dave/Generated/src/WEBSERVER001/HTTPServer/httpd.c **** #if LWIP_HTTPD_SSI_MULTIPART
1161:../Dave/Generated/src/WEBSERVER001/HTTPServer/httpd.c ****               hs->tag_part = 0; /* start with tag part 0 */
1162:../Dave/Generated/src/WEBSERVER001/HTTPServer/httpd.c **** #endif /* LWIP_HTTPD_SSI_MULTIPART */
1163:../Dave/Generated/src/WEBSERVER001/HTTPServer/httpd.c ****               get_tag_insert(hs);
 1539              		.loc 1 1163 0
 1540 04d4 3868     		ldr	r0, [r7, #0]
 1541 04d6 FFF7FEFF 		bl	get_tag_insert
1164:../Dave/Generated/src/WEBSERVER001/HTTPServer/httpd.c **** 
1165:../Dave/Generated/src/WEBSERVER001/HTTPServer/httpd.c ****               /* Next time through, we are going to be sending data
1166:../Dave/Generated/src/WEBSERVER001/HTTPServer/httpd.c ****                * immediately, either the end of the block we start
1167:../Dave/Generated/src/WEBSERVER001/HTTPServer/httpd.c ****                * sending here or the insert string. */
1168:../Dave/Generated/src/WEBSERVER001/HTTPServer/httpd.c ****               hs->tag_index = 0;
 1542              		.loc 1 1168 0
 1543 04da 3B68     		ldr	r3, [r7, #0]
 1544 04dc 4FF00002 		mov	r2, #0
 1545 04e0 1A85     		strh	r2, [r3, #40]	@ movhi
1169:../Dave/Generated/src/WEBSERVER001/HTTPServer/httpd.c ****               hs->tag_state = TAG_SENDING;
 1546              		.loc 1 1169 0
 1547 04e2 3B68     		ldr	r3, [r7, #0]
 1548 04e4 4FF00402 		mov	r2, #4
 1549 04e8 83F8F820 		strb	r2, [r3, #248]
1170:../Dave/Generated/src/WEBSERVER001/HTTPServer/httpd.c ****               hs->tag_end = hs->parsed;
 1550              		.loc 1 1170 0
 1551 04ec 3B68     		ldr	r3, [r7, #0]
 1552 04ee DA69     		ldr	r2, [r3, #28]
 1553 04f0 3B68     		ldr	r3, [r7, #0]
 1554 04f2 1A62     		str	r2, [r3, #32]
1171:../Dave/Generated/src/WEBSERVER001/HTTPServer/httpd.c **** #if !LWIP_HTTPD_SSI_INCLUDE_TAG
1172:../Dave/Generated/src/WEBSERVER001/HTTPServer/httpd.c ****               hs->parsed = hs->tag_started;
1173:../Dave/Generated/src/WEBSERVER001/HTTPServer/httpd.c **** #endif /* !LWIP_HTTPD_SSI_INCLUDE_TAG*/
1174:../Dave/Generated/src/WEBSERVER001/HTTPServer/httpd.c **** 
1175:../Dave/Generated/src/WEBSERVER001/HTTPServer/httpd.c ****               /* If there is any unsent data in the buffer prior to the
1176:../Dave/Generated/src/WEBSERVER001/HTTPServer/httpd.c ****                * tag, we need to send it now. */
1177:../Dave/Generated/src/WEBSERVER001/HTTPServer/httpd.c ****               if (hs->tag_end > hs->file) {
 1555              		.loc 1 1177 0
 1556 04f4 3B68     		ldr	r3, [r7, #0]
 1557 04f6 1A6A     		ldr	r2, [r3, #32]
 1558 04f8 3B68     		ldr	r3, [r7, #0]
 1559 04fa 5B68     		ldr	r3, [r3, #4]
 1560 04fc 9A42     		cmp	r2, r3
 1561 04fe 40F2D380 		bls	.L109
1178:../Dave/Generated/src/WEBSERVER001/HTTPServer/httpd.c ****                 /* How much of the data can we send? */
1179:../Dave/Generated/src/WEBSERVER001/HTTPServer/httpd.c **** #if LWIP_HTTPD_SSI_INCLUDE_TAG
1180:../Dave/Generated/src/WEBSERVER001/HTTPServer/httpd.c ****                 if(len > hs->tag_end - hs->file) {
 1562              		.loc 1 1180 0
 1563 0502 BB89     		ldrh	r3, [r7, #12]
 1564 0504 1A46     		mov	r2, r3
 1565 0506 3B68     		ldr	r3, [r7, #0]
 1566 0508 1B6A     		ldr	r3, [r3, #32]
 1567 050a 1946     		mov	r1, r3
 1568 050c 3B68     		ldr	r3, [r7, #0]
 1569 050e 5B68     		ldr	r3, [r3, #4]
 1570 0510 CB1A     		subs	r3, r1, r3
 1571 0512 9A42     		cmp	r2, r3
 1572 0514 07DD     		ble	.L93
1181:../Dave/Generated/src/WEBSERVER001/HTTPServer/httpd.c ****                   len = (u16_t)(hs->tag_end - hs->file);
 1573              		.loc 1 1181 0
 1574 0516 3B68     		ldr	r3, [r7, #0]
 1575 0518 1B6A     		ldr	r3, [r3, #32]
 1576 051a 1A46     		mov	r2, r3
 1577 051c 3B68     		ldr	r3, [r7, #0]
 1578 051e 5B68     		ldr	r3, [r3, #4]
 1579 0520 D31A     		subs	r3, r2, r3
 1580 0522 9BB2     		uxth	r3, r3
 1581 0524 BB81     		strh	r3, [r7, #12]	@ movhi
 1582              	.L93:
1182:../Dave/Generated/src/WEBSERVER001/HTTPServer/httpd.c ****                 }
1183:../Dave/Generated/src/WEBSERVER001/HTTPServer/httpd.c **** #else /* LWIP_HTTPD_SSI_INCLUDE_TAG*/
1184:../Dave/Generated/src/WEBSERVER001/HTTPServer/httpd.c ****                 if(len > hs->tag_started - hs->file) {
1185:../Dave/Generated/src/WEBSERVER001/HTTPServer/httpd.c ****                   /* we would include the tag in sending */
1186:../Dave/Generated/src/WEBSERVER001/HTTPServer/httpd.c ****                   len = (u16_t)(hs->tag_started - hs->file);
1187:../Dave/Generated/src/WEBSERVER001/HTTPServer/httpd.c ****                 }
1188:../Dave/Generated/src/WEBSERVER001/HTTPServer/httpd.c **** #endif /* LWIP_HTTPD_SSI_INCLUDE_TAG*/
1189:../Dave/Generated/src/WEBSERVER001/HTTPServer/httpd.c **** 
1190:../Dave/Generated/src/WEBSERVER001/HTTPServer/httpd.c ****                 err = http_write(pcb, hs->file, &len, HTTP_IS_DATA_VOLATILE(hs));
 1583              		.loc 1 1190 0
 1584 0526 3B68     		ldr	r3, [r7, #0]
 1585 0528 5A68     		ldr	r2, [r3, #4]
 1586 052a 07F10C03 		add	r3, r7, #12
 1587 052e 7868     		ldr	r0, [r7, #4]
 1588 0530 1146     		mov	r1, r2
 1589 0532 1A46     		mov	r2, r3
 1590 0534 4FF00103 		mov	r3, #1
 1591 0538 FFF7FEFF 		bl	http_write
 1592 053c 0346     		mov	r3, r0
 1593 053e FB75     		strb	r3, [r7, #23]
1191:../Dave/Generated/src/WEBSERVER001/HTTPServer/httpd.c ****                 if (err == ERR_OK) {
 1594              		.loc 1 1191 0
 1595 0540 97F91730 		ldrsb	r3, [r7, #23]
 1596 0544 002B     		cmp	r3, #0
 1597 0546 40F0AF80 		bne	.L109
1192:../Dave/Generated/src/WEBSERVER001/HTTPServer/httpd.c ****                   data_to_send = true;
 1598              		.loc 1 1192 0
 1599 054a 4FF00103 		mov	r3, #1
 1600 054e BB75     		strb	r3, [r7, #22]
1193:../Dave/Generated/src/WEBSERVER001/HTTPServer/httpd.c **** #if !LWIP_HTTPD_SSI_INCLUDE_TAG
1194:../Dave/Generated/src/WEBSERVER001/HTTPServer/httpd.c ****                   if(hs->tag_started <= hs->file) {
1195:../Dave/Generated/src/WEBSERVER001/HTTPServer/httpd.c ****                     /* pretend to have sent the tag, too */
1196:../Dave/Generated/src/WEBSERVER001/HTTPServer/httpd.c ****                     len += hs->tag_end - hs->tag_started;
1197:../Dave/Generated/src/WEBSERVER001/HTTPServer/httpd.c ****                   }
1198:../Dave/Generated/src/WEBSERVER001/HTTPServer/httpd.c **** #endif /* !LWIP_HTTPD_SSI_INCLUDE_TAG*/
1199:../Dave/Generated/src/WEBSERVER001/HTTPServer/httpd.c ****                   hs->file += len;
 1601              		.loc 1 1199 0
 1602 0550 3B68     		ldr	r3, [r7, #0]
 1603 0552 5A68     		ldr	r2, [r3, #4]
 1604 0554 BB89     		ldrh	r3, [r7, #12]
 1605 0556 D218     		adds	r2, r2, r3
 1606 0558 3B68     		ldr	r3, [r7, #0]
 1607 055a 5A60     		str	r2, [r3, #4]
1200:../Dave/Generated/src/WEBSERVER001/HTTPServer/httpd.c ****                   hs->left -= len;
 1608              		.loc 1 1200 0
 1609 055c 3B68     		ldr	r3, [r7, #0]
 1610 055e 5A69     		ldr	r2, [r3, #20]
 1611 0560 BB89     		ldrh	r3, [r7, #12]
 1612 0562 D21A     		subs	r2, r2, r3
 1613 0564 3B68     		ldr	r3, [r7, #0]
 1614 0566 5A61     		str	r2, [r3, #20]
1201:../Dave/Generated/src/WEBSERVER001/HTTPServer/httpd.c ****                 }
1202:../Dave/Generated/src/WEBSERVER001/HTTPServer/httpd.c ****               }
1203:../Dave/Generated/src/WEBSERVER001/HTTPServer/httpd.c ****             } else {
1204:../Dave/Generated/src/WEBSERVER001/HTTPServer/httpd.c ****               hs->tag_index++;
1205:../Dave/Generated/src/WEBSERVER001/HTTPServer/httpd.c ****             }
1206:../Dave/Generated/src/WEBSERVER001/HTTPServer/httpd.c ****           } else {
1207:../Dave/Generated/src/WEBSERVER001/HTTPServer/httpd.c ****             /* We found an unexpected character so this is not a tag. Move
1208:../Dave/Generated/src/WEBSERVER001/HTTPServer/httpd.c ****              * back to idle state. */
1209:../Dave/Generated/src/WEBSERVER001/HTTPServer/httpd.c ****             hs->parse_left--;
1210:../Dave/Generated/src/WEBSERVER001/HTTPServer/httpd.c ****             hs->parsed++;
1211:../Dave/Generated/src/WEBSERVER001/HTTPServer/httpd.c ****             hs->tag_state = TAG_NONE;
1212:../Dave/Generated/src/WEBSERVER001/HTTPServer/httpd.c ****           }
1213:../Dave/Generated/src/WEBSERVER001/HTTPServer/httpd.c ****           break;
 1615              		.loc 1 1213 0
 1616 0568 9EE0     		b	.L109
 1617              	.L91:
1204:../Dave/Generated/src/WEBSERVER001/HTTPServer/httpd.c ****               hs->tag_index++;
 1618              		.loc 1 1204 0
 1619 056a 3B68     		ldr	r3, [r7, #0]
 1620 056c 1B8D     		ldrh	r3, [r3, #40]
 1621 056e 03F10103 		add	r3, r3, #1
 1622 0572 9AB2     		uxth	r2, r3
 1623 0574 3B68     		ldr	r3, [r7, #0]
 1624 0576 1A85     		strh	r2, [r3, #40]	@ movhi
 1625              		.loc 1 1213 0
 1626 0578 96E0     		b	.L109
 1627              	.L90:
1209:../Dave/Generated/src/WEBSERVER001/HTTPServer/httpd.c ****             hs->parse_left--;
 1628              		.loc 1 1209 0
 1629 057a 3B68     		ldr	r3, [r7, #0]
 1630 057c 5B6A     		ldr	r3, [r3, #36]
 1631 057e 03F1FF32 		add	r2, r3, #-1
 1632 0582 3B68     		ldr	r3, [r7, #0]
 1633 0584 5A62     		str	r2, [r3, #36]
1210:../Dave/Generated/src/WEBSERVER001/HTTPServer/httpd.c ****             hs->parsed++;
 1634              		.loc 1 1210 0
 1635 0586 3B68     		ldr	r3, [r7, #0]
 1636 0588 DB69     		ldr	r3, [r3, #28]
 1637 058a 03F10102 		add	r2, r3, #1
 1638 058e 3B68     		ldr	r3, [r7, #0]
 1639 0590 DA61     		str	r2, [r3, #28]
1211:../Dave/Generated/src/WEBSERVER001/HTTPServer/httpd.c ****             hs->tag_state = TAG_NONE;
 1640              		.loc 1 1211 0
 1641 0592 3B68     		ldr	r3, [r7, #0]
 1642 0594 4FF00002 		mov	r2, #0
 1643 0598 83F8F820 		strb	r2, [r3, #248]
 1644              		.loc 1 1213 0
 1645 059c 84E0     		b	.L109
 1646              	.L72:
1214:../Dave/Generated/src/WEBSERVER001/HTTPServer/httpd.c **** 
1215:../Dave/Generated/src/WEBSERVER001/HTTPServer/httpd.c ****         /*
1216:../Dave/Generated/src/WEBSERVER001/HTTPServer/httpd.c ****          * We have found a valid tag and are in the process of sending
1217:../Dave/Generated/src/WEBSERVER001/HTTPServer/httpd.c ****          * data as a result of that discovery. We send either remaining data
1218:../Dave/Generated/src/WEBSERVER001/HTTPServer/httpd.c ****          * from the file prior to the insert point or the insert string itself.
1219:../Dave/Generated/src/WEBSERVER001/HTTPServer/httpd.c ****          */
1220:../Dave/Generated/src/WEBSERVER001/HTTPServer/httpd.c ****         case TAG_SENDING:
1221:../Dave/Generated/src/WEBSERVER001/HTTPServer/httpd.c ****           /* Do we have any remaining file data to send from the buffer prior
1222:../Dave/Generated/src/WEBSERVER001/HTTPServer/httpd.c ****            * to the tag? */
1223:../Dave/Generated/src/WEBSERVER001/HTTPServer/httpd.c ****           if(hs->tag_end > hs->file) {
 1647              		.loc 1 1223 0
 1648 059e 3B68     		ldr	r3, [r7, #0]
 1649 05a0 1A6A     		ldr	r2, [r3, #32]
 1650 05a2 3B68     		ldr	r3, [r7, #0]
 1651 05a4 5B68     		ldr	r3, [r3, #4]
 1652 05a6 9A42     		cmp	r2, r3
 1653 05a8 39D9     		bls	.L94
1224:../Dave/Generated/src/WEBSERVER001/HTTPServer/httpd.c ****             /* How much of the data can we send? */
1225:../Dave/Generated/src/WEBSERVER001/HTTPServer/httpd.c **** #if LWIP_HTTPD_SSI_INCLUDE_TAG
1226:../Dave/Generated/src/WEBSERVER001/HTTPServer/httpd.c ****             if(len > hs->tag_end - hs->file) {
 1654              		.loc 1 1226 0
 1655 05aa BB89     		ldrh	r3, [r7, #12]
 1656 05ac 1A46     		mov	r2, r3
 1657 05ae 3B68     		ldr	r3, [r7, #0]
 1658 05b0 1B6A     		ldr	r3, [r3, #32]
 1659 05b2 1946     		mov	r1, r3
 1660 05b4 3B68     		ldr	r3, [r7, #0]
 1661 05b6 5B68     		ldr	r3, [r3, #4]
 1662 05b8 CB1A     		subs	r3, r1, r3
 1663 05ba 9A42     		cmp	r2, r3
 1664 05bc 07DD     		ble	.L95
1227:../Dave/Generated/src/WEBSERVER001/HTTPServer/httpd.c ****               len = (u16_t)(hs->tag_end - hs->file);
 1665              		.loc 1 1227 0
 1666 05be 3B68     		ldr	r3, [r7, #0]
 1667 05c0 1B6A     		ldr	r3, [r3, #32]
 1668 05c2 1A46     		mov	r2, r3
 1669 05c4 3B68     		ldr	r3, [r7, #0]
 1670 05c6 5B68     		ldr	r3, [r3, #4]
 1671 05c8 D31A     		subs	r3, r2, r3
 1672 05ca 9BB2     		uxth	r3, r3
 1673 05cc BB81     		strh	r3, [r7, #12]	@ movhi
 1674              	.L95:
1228:../Dave/Generated/src/WEBSERVER001/HTTPServer/httpd.c ****             }
1229:../Dave/Generated/src/WEBSERVER001/HTTPServer/httpd.c **** #else /* LWIP_HTTPD_SSI_INCLUDE_TAG*/
1230:../Dave/Generated/src/WEBSERVER001/HTTPServer/httpd.c ****             LWIP_ASSERT("hs->started >= hs->file", hs->tag_started >= hs->file);
1231:../Dave/Generated/src/WEBSERVER001/HTTPServer/httpd.c ****             if (len > hs->tag_started - hs->file) {
1232:../Dave/Generated/src/WEBSERVER001/HTTPServer/httpd.c ****               /* we would include the tag in sending */
1233:../Dave/Generated/src/WEBSERVER001/HTTPServer/httpd.c ****               len = (u16_t)(hs->tag_started - hs->file);
1234:../Dave/Generated/src/WEBSERVER001/HTTPServer/httpd.c ****             }
1235:../Dave/Generated/src/WEBSERVER001/HTTPServer/httpd.c **** #endif /* LWIP_HTTPD_SSI_INCLUDE_TAG*/
1236:../Dave/Generated/src/WEBSERVER001/HTTPServer/httpd.c ****             if (len != 0) {
 1675              		.loc 1 1236 0
 1676 05ce BB89     		ldrh	r3, [r7, #12]
 1677 05d0 002B     		cmp	r3, #0
 1678 05d2 0DD0     		beq	.L96
1237:../Dave/Generated/src/WEBSERVER001/HTTPServer/httpd.c ****               err = http_write(pcb, hs->file, &len, HTTP_IS_DATA_VOLATILE(hs));
 1679              		.loc 1 1237 0
 1680 05d4 3B68     		ldr	r3, [r7, #0]
 1681 05d6 5A68     		ldr	r2, [r3, #4]
 1682 05d8 07F10C03 		add	r3, r7, #12
 1683 05dc 7868     		ldr	r0, [r7, #4]
 1684 05de 1146     		mov	r1, r2
 1685 05e0 1A46     		mov	r2, r3
 1686 05e2 4FF00103 		mov	r3, #1
 1687 05e6 FFF7FEFF 		bl	http_write
 1688 05ea 0346     		mov	r3, r0
 1689 05ec FB75     		strb	r3, [r7, #23]
 1690 05ee 02E0     		b	.L97
 1691              	.L96:
1238:../Dave/Generated/src/WEBSERVER001/HTTPServer/httpd.c ****             } else {
1239:../Dave/Generated/src/WEBSERVER001/HTTPServer/httpd.c ****               err = ERR_OK;
 1692              		.loc 1 1239 0
 1693 05f0 4FF00003 		mov	r3, #0
 1694 05f4 FB75     		strb	r3, [r7, #23]
 1695              	.L97:
1240:../Dave/Generated/src/WEBSERVER001/HTTPServer/httpd.c ****             }
1241:../Dave/Generated/src/WEBSERVER001/HTTPServer/httpd.c ****             if (err == ERR_OK) {
 1696              		.loc 1 1241 0
 1697 05f6 97F91730 		ldrsb	r3, [r7, #23]
 1698 05fa 002B     		cmp	r3, #0
 1699 05fc 57D1     		bne	.L66
1242:../Dave/Generated/src/WEBSERVER001/HTTPServer/httpd.c ****               data_to_send = true;
 1700              		.loc 1 1242 0
 1701 05fe 4FF00103 		mov	r3, #1
 1702 0602 BB75     		strb	r3, [r7, #22]
1243:../Dave/Generated/src/WEBSERVER001/HTTPServer/httpd.c **** #if !LWIP_HTTPD_SSI_INCLUDE_TAG
1244:../Dave/Generated/src/WEBSERVER001/HTTPServer/httpd.c ****               if(hs->tag_started <= hs->file) {
1245:../Dave/Generated/src/WEBSERVER001/HTTPServer/httpd.c ****                 /* pretend to have sent the tag, too */
1246:../Dave/Generated/src/WEBSERVER001/HTTPServer/httpd.c ****                 len += hs->tag_end - hs->tag_started;
1247:../Dave/Generated/src/WEBSERVER001/HTTPServer/httpd.c ****               }
1248:../Dave/Generated/src/WEBSERVER001/HTTPServer/httpd.c **** #endif /* !LWIP_HTTPD_SSI_INCLUDE_TAG*/
1249:../Dave/Generated/src/WEBSERVER001/HTTPServer/httpd.c ****               hs->file += len;
 1703              		.loc 1 1249 0
 1704 0604 3B68     		ldr	r3, [r7, #0]
 1705 0606 5A68     		ldr	r2, [r3, #4]
 1706 0608 BB89     		ldrh	r3, [r7, #12]
 1707 060a D218     		adds	r2, r2, r3
 1708 060c 3B68     		ldr	r3, [r7, #0]
 1709 060e 5A60     		str	r2, [r3, #4]
1250:../Dave/Generated/src/WEBSERVER001/HTTPServer/httpd.c ****               hs->left -= len;
 1710              		.loc 1 1250 0
 1711 0610 3B68     		ldr	r3, [r7, #0]
 1712 0612 5A69     		ldr	r2, [r3, #20]
 1713 0614 BB89     		ldrh	r3, [r7, #12]
 1714 0616 D21A     		subs	r2, r2, r3
 1715 0618 3B68     		ldr	r3, [r7, #0]
 1716 061a 5A61     		str	r2, [r3, #20]
 1717 061c 47E0     		b	.L66
 1718              	.L94:
1251:../Dave/Generated/src/WEBSERVER001/HTTPServer/httpd.c ****             }
1252:../Dave/Generated/src/WEBSERVER001/HTTPServer/httpd.c ****           } else {
1253:../Dave/Generated/src/WEBSERVER001/HTTPServer/httpd.c **** #if LWIP_HTTPD_SSI_MULTIPART
1254:../Dave/Generated/src/WEBSERVER001/HTTPServer/httpd.c ****             if(hs->tag_index >= hs->tag_insert_len) {
1255:../Dave/Generated/src/WEBSERVER001/HTTPServer/httpd.c ****               /* Did the last SSIHandler have more to send? */
1256:../Dave/Generated/src/WEBSERVER001/HTTPServer/httpd.c ****               if (hs->tag_part != HTTPD_LAST_TAG_PART) {
1257:../Dave/Generated/src/WEBSERVER001/HTTPServer/httpd.c ****                 /* If so, call it again */
1258:../Dave/Generated/src/WEBSERVER001/HTTPServer/httpd.c ****                 hs->tag_index = 0;
1259:../Dave/Generated/src/WEBSERVER001/HTTPServer/httpd.c ****                 get_tag_insert(hs);
1260:../Dave/Generated/src/WEBSERVER001/HTTPServer/httpd.c ****               }
1261:../Dave/Generated/src/WEBSERVER001/HTTPServer/httpd.c ****             }
1262:../Dave/Generated/src/WEBSERVER001/HTTPServer/httpd.c **** #endif /* LWIP_HTTPD_SSI_MULTIPART */
1263:../Dave/Generated/src/WEBSERVER001/HTTPServer/httpd.c **** 
1264:../Dave/Generated/src/WEBSERVER001/HTTPServer/httpd.c ****             /* Do we still have insert data left to send? */
1265:../Dave/Generated/src/WEBSERVER001/HTTPServer/httpd.c ****             if(hs->tag_index < hs->tag_insert_len) {
 1719              		.loc 1 1265 0
 1720 061e 3B68     		ldr	r3, [r7, #0]
 1721 0620 1A8D     		ldrh	r2, [r3, #40]
 1722 0622 3B68     		ldr	r3, [r7, #0]
 1723 0624 5B8D     		ldrh	r3, [r3, #42]
 1724 0626 9A42     		cmp	r2, r3
 1725 0628 32D2     		bcs	.L98
1266:../Dave/Generated/src/WEBSERVER001/HTTPServer/httpd.c ****               /* We are sending the insert string itself. How much of the
1267:../Dave/Generated/src/WEBSERVER001/HTTPServer/httpd.c ****                * insert can we send? */
1268:../Dave/Generated/src/WEBSERVER001/HTTPServer/httpd.c ****               if(len > (hs->tag_insert_len - hs->tag_index)) {
 1726              		.loc 1 1268 0
 1727 062a BB89     		ldrh	r3, [r7, #12]
 1728 062c 1A46     		mov	r2, r3
 1729 062e 3B68     		ldr	r3, [r7, #0]
 1730 0630 5B8D     		ldrh	r3, [r3, #42]
 1731 0632 1946     		mov	r1, r3
 1732 0634 3B68     		ldr	r3, [r7, #0]
 1733 0636 1B8D     		ldrh	r3, [r3, #40]
 1734 0638 CB1A     		subs	r3, r1, r3
 1735 063a 9A42     		cmp	r2, r3
 1736 063c 06DD     		ble	.L99
1269:../Dave/Generated/src/WEBSERVER001/HTTPServer/httpd.c ****                 len = (hs->tag_insert_len - hs->tag_index);
 1737              		.loc 1 1269 0
 1738 063e 3B68     		ldr	r3, [r7, #0]
 1739 0640 5A8D     		ldrh	r2, [r3, #42]
 1740 0642 3B68     		ldr	r3, [r7, #0]
 1741 0644 1B8D     		ldrh	r3, [r3, #40]
 1742 0646 D31A     		subs	r3, r2, r3
 1743 0648 9BB2     		uxth	r3, r3
 1744 064a BB81     		strh	r3, [r7, #12]	@ movhi
 1745              	.L99:
1270:../Dave/Generated/src/WEBSERVER001/HTTPServer/httpd.c ****               }
1271:../Dave/Generated/src/WEBSERVER001/HTTPServer/httpd.c **** 
1272:../Dave/Generated/src/WEBSERVER001/HTTPServer/httpd.c ****               /* Note that we set the copy flag here since we only have a
1273:../Dave/Generated/src/WEBSERVER001/HTTPServer/httpd.c ****                * single tag insert buffer per connection. If we don't do
1274:../Dave/Generated/src/WEBSERVER001/HTTPServer/httpd.c ****                * this, insert corruption can occur if more than one insert
1275:../Dave/Generated/src/WEBSERVER001/HTTPServer/httpd.c ****                * is processed before we call tcp_output. */
1276:../Dave/Generated/src/WEBSERVER001/HTTPServer/httpd.c ****               err = http_write(pcb, &(hs->tag_insert[hs->tag_index]), &len,
 1746              		.loc 1 1276 0
 1747 064c 3B68     		ldr	r3, [r7, #0]
 1748 064e 1B8D     		ldrh	r3, [r3, #40]
 1749 0650 03F13003 		add	r3, r3, #48
 1750 0654 3A68     		ldr	r2, [r7, #0]
 1751 0656 D318     		adds	r3, r2, r3
 1752 0658 03F10702 		add	r2, r3, #7
 1753 065c 07F10C03 		add	r3, r7, #12
 1754 0660 7868     		ldr	r0, [r7, #4]
 1755 0662 1146     		mov	r1, r2
 1756 0664 1A46     		mov	r2, r3
 1757 0666 4FF00103 		mov	r3, #1
 1758 066a FFF7FEFF 		bl	http_write
 1759 066e 0346     		mov	r3, r0
 1760 0670 FB75     		strb	r3, [r7, #23]
1277:../Dave/Generated/src/WEBSERVER001/HTTPServer/httpd.c ****                                HTTP_IS_TAG_VOLATILE(hs));
1278:../Dave/Generated/src/WEBSERVER001/HTTPServer/httpd.c ****               if (err == ERR_OK) {
 1761              		.loc 1 1278 0
 1762 0672 97F91730 		ldrsb	r3, [r7, #23]
 1763 0676 002B     		cmp	r3, #0
 1764 0678 18D1     		bne	.L110
1279:../Dave/Generated/src/WEBSERVER001/HTTPServer/httpd.c ****                 data_to_send = true;
 1765              		.loc 1 1279 0
 1766 067a 4FF00103 		mov	r3, #1
 1767 067e BB75     		strb	r3, [r7, #22]
1280:../Dave/Generated/src/WEBSERVER001/HTTPServer/httpd.c ****                 hs->tag_index += len;
 1768              		.loc 1 1280 0
 1769 0680 3B68     		ldr	r3, [r7, #0]
 1770 0682 1A8D     		ldrh	r2, [r3, #40]
 1771 0684 BB89     		ldrh	r3, [r7, #12]
 1772 0686 D318     		adds	r3, r2, r3
 1773 0688 9AB2     		uxth	r2, r3
 1774 068a 3B68     		ldr	r3, [r7, #0]
 1775 068c 1A85     		strh	r2, [r3, #40]	@ movhi
1281:../Dave/Generated/src/WEBSERVER001/HTTPServer/httpd.c ****                 /* Don't return here: keep on sending data */
1282:../Dave/Generated/src/WEBSERVER001/HTTPServer/httpd.c ****               }
1283:../Dave/Generated/src/WEBSERVER001/HTTPServer/httpd.c ****             } else {
1284:../Dave/Generated/src/WEBSERVER001/HTTPServer/httpd.c ****               /* We have sent all the insert data so go back to looking for
1285:../Dave/Generated/src/WEBSERVER001/HTTPServer/httpd.c ****                * a new tag. */
1286:../Dave/Generated/src/WEBSERVER001/HTTPServer/httpd.c ****               LWIP_DEBUGF(HTTPD_DEBUG, ("Everything sent.\n"));
1287:../Dave/Generated/src/WEBSERVER001/HTTPServer/httpd.c ****               hs->tag_index = 0;
1288:../Dave/Generated/src/WEBSERVER001/HTTPServer/httpd.c ****               hs->tag_state = TAG_NONE;
1289:../Dave/Generated/src/WEBSERVER001/HTTPServer/httpd.c **** #if !LWIP_HTTPD_SSI_INCLUDE_TAG
1290:../Dave/Generated/src/WEBSERVER001/HTTPServer/httpd.c ****               hs->parsed = hs->tag_end;
1291:../Dave/Generated/src/WEBSERVER001/HTTPServer/httpd.c **** #endif /* !LWIP_HTTPD_SSI_INCLUDE_TAG*/
1292:../Dave/Generated/src/WEBSERVER001/HTTPServer/httpd.c ****             }
1293:../Dave/Generated/src/WEBSERVER001/HTTPServer/httpd.c ****             break;
 1776              		.loc 1 1293 0
 1777 068e 0DE0     		b	.L110
 1778              	.L98:
1287:../Dave/Generated/src/WEBSERVER001/HTTPServer/httpd.c ****               hs->tag_index = 0;
 1779              		.loc 1 1287 0
 1780 0690 3B68     		ldr	r3, [r7, #0]
 1781 0692 4FF00002 		mov	r2, #0
 1782 0696 1A85     		strh	r2, [r3, #40]	@ movhi
1288:../Dave/Generated/src/WEBSERVER001/HTTPServer/httpd.c ****               hs->tag_state = TAG_NONE;
 1783              		.loc 1 1288 0
 1784 0698 3B68     		ldr	r3, [r7, #0]
 1785 069a 4FF00002 		mov	r2, #0
 1786 069e 83F8F820 		strb	r2, [r3, #248]
 1787              		.loc 1 1293 0
 1788 06a2 03E0     		b	.L110
 1789              	.L108:
1031:../Dave/Generated/src/WEBSERVER001/HTTPServer/httpd.c ****     while((hs->parse_left) && (err == ERR_OK)) {
 1790              		.loc 1 1031 0
 1791 06a4 00BF     		nop
 1792 06a6 02E0     		b	.L66
 1793              	.L109:
1213:../Dave/Generated/src/WEBSERVER001/HTTPServer/httpd.c ****           break;
 1794              		.loc 1 1213 0
 1795 06a8 00BF     		nop
 1796 06aa 00E0     		b	.L66
 1797              	.L110:
 1798              		.loc 1 1293 0
 1799 06ac 00BF     		nop
 1800              	.L66:
1031:../Dave/Generated/src/WEBSERVER001/HTTPServer/httpd.c ****     while((hs->parse_left) && (err == ERR_OK)) {
 1801              		.loc 1 1031 0 discriminator 1
 1802 06ae 3B68     		ldr	r3, [r7, #0]
 1803 06b0 5B6A     		ldr	r3, [r3, #36]
 1804 06b2 002B     		cmp	r3, #0
 1805 06b4 04D0     		beq	.L101
1031:../Dave/Generated/src/WEBSERVER001/HTTPServer/httpd.c ****     while((hs->parse_left) && (err == ERR_OK)) {
 1806              		.loc 1 1031 0 is_stmt 0 discriminator 2
 1807 06b6 97F91730 		ldrsb	r3, [r7, #23]
 1808 06ba 002B     		cmp	r3, #0
 1809 06bc 3FF4BBAD 		beq	.L102
 1810              	.L101:
1294:../Dave/Generated/src/WEBSERVER001/HTTPServer/httpd.c ****         }
1295:../Dave/Generated/src/WEBSERVER001/HTTPServer/httpd.c ****       }
1296:../Dave/Generated/src/WEBSERVER001/HTTPServer/httpd.c ****     }
1297:../Dave/Generated/src/WEBSERVER001/HTTPServer/httpd.c **** 
1298:../Dave/Generated/src/WEBSERVER001/HTTPServer/httpd.c ****     /* If we drop out of the end of the for loop, this implies we must have
1299:../Dave/Generated/src/WEBSERVER001/HTTPServer/httpd.c ****      * file data to send so send it now. In TAG_SENDING state, we've already
1300:../Dave/Generated/src/WEBSERVER001/HTTPServer/httpd.c ****      * handled this so skip the send if that's the case. */
1301:../Dave/Generated/src/WEBSERVER001/HTTPServer/httpd.c ****     if((hs->tag_state != TAG_SENDING) && (hs->parsed > hs->file)) {
 1811              		.loc 1 1301 0 is_stmt 1
 1812 06c0 3B68     		ldr	r3, [r7, #0]
 1813 06c2 93F8F830 		ldrb	r3, [r3, #248]	@ zero_extendqisi2
 1814 06c6 042B     		cmp	r3, #4
 1815 06c8 4CD0     		beq	.L60
 1816              		.loc 1 1301 0 is_stmt 0 discriminator 1
 1817 06ca 3B68     		ldr	r3, [r7, #0]
 1818 06cc DA69     		ldr	r2, [r3, #28]
 1819 06ce 3B68     		ldr	r3, [r7, #0]
 1820 06d0 5B68     		ldr	r3, [r3, #4]
 1821 06d2 9A42     		cmp	r2, r3
 1822 06d4 46D9     		bls	.L60
1302:../Dave/Generated/src/WEBSERVER001/HTTPServer/httpd.c ****       /* We cannot send more data than space available in the send
1303:../Dave/Generated/src/WEBSERVER001/HTTPServer/httpd.c ****          buffer. */
1304:../Dave/Generated/src/WEBSERVER001/HTTPServer/httpd.c ****       if (tcp_sndbuf(pcb) < (hs->parsed - hs->file)) {
 1823              		.loc 1 1304 0 is_stmt 1
 1824 06d6 7B68     		ldr	r3, [r7, #4]
 1825 06d8 B3F86E30 		ldrh	r3, [r3, #110]
 1826 06dc 1A46     		mov	r2, r3
 1827 06de 3B68     		ldr	r3, [r7, #0]
 1828 06e0 DB69     		ldr	r3, [r3, #28]
 1829 06e2 1946     		mov	r1, r3
 1830 06e4 3B68     		ldr	r3, [r7, #0]
 1831 06e6 5B68     		ldr	r3, [r3, #4]
 1832 06e8 CB1A     		subs	r3, r1, r3
 1833 06ea 9A42     		cmp	r2, r3
 1834 06ec 04DA     		bge	.L103
1305:../Dave/Generated/src/WEBSERVER001/HTTPServer/httpd.c ****         len = tcp_sndbuf(pcb);
 1835              		.loc 1 1305 0
 1836 06ee 7B68     		ldr	r3, [r7, #4]
 1837 06f0 B3F86E30 		ldrh	r3, [r3, #110]
 1838 06f4 BB81     		strh	r3, [r7, #12]	@ movhi
 1839 06f6 07E0     		b	.L104
 1840              	.L103:
1306:../Dave/Generated/src/WEBSERVER001/HTTPServer/httpd.c ****       } else {
1307:../Dave/Generated/src/WEBSERVER001/HTTPServer/httpd.c ****         LWIP_ASSERT("Data size does not fit into u16_t!",
1308:../Dave/Generated/src/WEBSERVER001/HTTPServer/httpd.c ****                     (hs->parsed - hs->file) <= 0xffff);
1309:../Dave/Generated/src/WEBSERVER001/HTTPServer/httpd.c ****         len = (u16_t)(hs->parsed - hs->file);
 1841              		.loc 1 1309 0
 1842 06f8 3B68     		ldr	r3, [r7, #0]
 1843 06fa DB69     		ldr	r3, [r3, #28]
 1844 06fc 1A46     		mov	r2, r3
 1845 06fe 3B68     		ldr	r3, [r7, #0]
 1846 0700 5B68     		ldr	r3, [r3, #4]
 1847 0702 D31A     		subs	r3, r2, r3
 1848 0704 9BB2     		uxth	r3, r3
 1849 0706 BB81     		strh	r3, [r7, #12]	@ movhi
 1850              	.L104:
1310:../Dave/Generated/src/WEBSERVER001/HTTPServer/httpd.c ****       }
1311:../Dave/Generated/src/WEBSERVER001/HTTPServer/httpd.c ****       if(len > (2 * tcp_mss(pcb))) {
 1851              		.loc 1 1311 0
 1852 0708 BB89     		ldrh	r3, [r7, #12]
 1853 070a 1A46     		mov	r2, r3
 1854 070c 7B68     		ldr	r3, [r7, #4]
 1855 070e 1B8F     		ldrh	r3, [r3, #56]
 1856 0710 4FEA4303 		lsl	r3, r3, #1
 1857 0714 9A42     		cmp	r2, r3
 1858 0716 05DD     		ble	.L105
1312:../Dave/Generated/src/WEBSERVER001/HTTPServer/httpd.c ****         len = 2 * tcp_mss(pcb);
 1859              		.loc 1 1312 0
 1860 0718 7B68     		ldr	r3, [r7, #4]
 1861 071a 1B8F     		ldrh	r3, [r3, #56]
 1862 071c 4FEA4303 		lsl	r3, r3, #1
 1863 0720 9BB2     		uxth	r3, r3
 1864 0722 BB81     		strh	r3, [r7, #12]	@ movhi
 1865              	.L105:
1313:../Dave/Generated/src/WEBSERVER001/HTTPServer/httpd.c ****       }
1314:../Dave/Generated/src/WEBSERVER001/HTTPServer/httpd.c **** 
1315:../Dave/Generated/src/WEBSERVER001/HTTPServer/httpd.c ****       err = http_write(pcb, hs->file, &len, HTTP_IS_DATA_VOLATILE(hs));
 1866              		.loc 1 1315 0
 1867 0724 3B68     		ldr	r3, [r7, #0]
 1868 0726 5A68     		ldr	r2, [r3, #4]
 1869 0728 07F10C03 		add	r3, r7, #12
 1870 072c 7868     		ldr	r0, [r7, #4]
 1871 072e 1146     		mov	r1, r2
 1872 0730 1A46     		mov	r2, r3
 1873 0732 4FF00103 		mov	r3, #1
 1874 0736 FFF7FEFF 		bl	http_write
 1875 073a 0346     		mov	r3, r0
 1876 073c FB75     		strb	r3, [r7, #23]
1316:../Dave/Generated/src/WEBSERVER001/HTTPServer/httpd.c ****       if (err == ERR_OK) {
 1877              		.loc 1 1316 0
 1878 073e 97F91730 		ldrsb	r3, [r7, #23]
 1879 0742 002B     		cmp	r3, #0
 1880 0744 0ED1     		bne	.L60
1317:../Dave/Generated/src/WEBSERVER001/HTTPServer/httpd.c ****         data_to_send = true;
 1881              		.loc 1 1317 0
 1882 0746 4FF00103 		mov	r3, #1
 1883 074a BB75     		strb	r3, [r7, #22]
1318:../Dave/Generated/src/WEBSERVER001/HTTPServer/httpd.c ****         hs->file += len;
 1884              		.loc 1 1318 0
 1885 074c 3B68     		ldr	r3, [r7, #0]
 1886 074e 5A68     		ldr	r2, [r3, #4]
 1887 0750 BB89     		ldrh	r3, [r7, #12]
 1888 0752 D218     		adds	r2, r2, r3
 1889 0754 3B68     		ldr	r3, [r7, #0]
 1890 0756 5A60     		str	r2, [r3, #4]
1319:../Dave/Generated/src/WEBSERVER001/HTTPServer/httpd.c ****         hs->left -= len;
 1891              		.loc 1 1319 0
 1892 0758 3B68     		ldr	r3, [r7, #0]
 1893 075a 5A69     		ldr	r2, [r3, #20]
 1894 075c BB89     		ldrh	r3, [r7, #12]
 1895 075e D21A     		subs	r2, r2, r3
 1896 0760 3B68     		ldr	r3, [r7, #0]
 1897 0762 5A61     		str	r2, [r3, #20]
 1898              	.L60:
1320:../Dave/Generated/src/WEBSERVER001/HTTPServer/httpd.c ****       }
1321:../Dave/Generated/src/WEBSERVER001/HTTPServer/httpd.c ****     }
1322:../Dave/Generated/src/WEBSERVER001/HTTPServer/httpd.c ****   }
1323:../Dave/Generated/src/WEBSERVER001/HTTPServer/httpd.c **** #endif /* LWIP_HTTPD_SSI */
1324:../Dave/Generated/src/WEBSERVER001/HTTPServer/httpd.c **** 
1325:../Dave/Generated/src/WEBSERVER001/HTTPServer/httpd.c ****   if((hs->left == 0) && (fs_bytes_left(hs->handle) <= 0)) {
 1899              		.loc 1 1325 0
 1900 0764 3B68     		ldr	r3, [r7, #0]
 1901 0766 5B69     		ldr	r3, [r3, #20]
 1902 0768 002B     		cmp	r3, #0
 1903 076a 0ED1     		bne	.L106
 1904              		.loc 1 1325 0 is_stmt 0 discriminator 1
 1905 076c 3B68     		ldr	r3, [r7, #0]
 1906 076e 1B68     		ldr	r3, [r3, #0]
 1907 0770 1846     		mov	r0, r3
 1908 0772 FFF7FEFF 		bl	fs_bytes_left
 1909 0776 0346     		mov	r3, r0
 1910 0778 002B     		cmp	r3, #0
 1911 077a 06DC     		bgt	.L106
1326:../Dave/Generated/src/WEBSERVER001/HTTPServer/httpd.c ****     /* We reached the end of the file so this request is done.
1327:../Dave/Generated/src/WEBSERVER001/HTTPServer/httpd.c ****      * This adds the FIN flag right into the last data segment.
1328:../Dave/Generated/src/WEBSERVER001/HTTPServer/httpd.c ****      * @todo: don't close here for HTTP/1.1? */
1329:../Dave/Generated/src/WEBSERVER001/HTTPServer/httpd.c ****     LWIP_DEBUGF(HTTPD_DEBUG, ("End of file.\n"));
1330:../Dave/Generated/src/WEBSERVER001/HTTPServer/httpd.c ****     http_close_conn(pcb, hs);
 1912              		.loc 1 1330 0 is_stmt 1
 1913 077c 7868     		ldr	r0, [r7, #4]
 1914 077e 3968     		ldr	r1, [r7, #0]
 1915 0780 FFF7FEFF 		bl	http_close_conn
1331:../Dave/Generated/src/WEBSERVER001/HTTPServer/httpd.c ****     return 0;
 1916              		.loc 1 1331 0
 1917 0784 4FF00003 		mov	r3, #0
 1918 0788 00E0     		b	.L107
 1919              	.L106:
1332:../Dave/Generated/src/WEBSERVER001/HTTPServer/httpd.c ****   }
1333:../Dave/Generated/src/WEBSERVER001/HTTPServer/httpd.c ****   LWIP_DEBUGF(HTTPD_DEBUG | LWIP_DBG_TRACE, ("send_data end.\n"));
1334:../Dave/Generated/src/WEBSERVER001/HTTPServer/httpd.c ****   return data_to_send;
 1920              		.loc 1 1334 0
 1921 078a BB7D     		ldrb	r3, [r7, #22]	@ zero_extendqisi2
 1922              	.L107:
1335:../Dave/Generated/src/WEBSERVER001/HTTPServer/httpd.c **** }
 1923              		.loc 1 1335 0
 1924 078c 1846     		mov	r0, r3
 1925 078e 07F11807 		add	r7, r7, #24
 1926 0792 BD46     		mov	sp, r7
 1927 0794 80BD     		pop	{r7, pc}
 1928              		.cfi_endproc
 1929              	.LFE124:
 1931 0796 00BF     		.section	.rodata
 1932              		.align	2
 1933              	.LC13:
 1934 00b8 2F353031 		.ascii	"/501.html\000"
 1934      2E68746D 
 1934      6C00
 1935 00c2 0000     		.align	2
 1936              	.LC14:
 1937 00c4 2F353031 		.ascii	"/501.htm\000"
 1937      2E68746D 
 1937      00
 1938 00cd 000000   		.align	2
 1939              	.LC15:
 1940 00d0 2F353031 		.ascii	"/501.shtml\000"
 1940      2E736874 
 1940      6D6C00
 1941 00db 00       		.align	2
 1942              	.LC16:
 1943 00dc 2F343030 		.ascii	"/400.txt\000"
 1943      2E747874 
 1943      00
 1944 00e5 000000   		.align	2
 1945              	.LC17:
 1946 00e8 2F343030 		.ascii	"/400.htm\000"
 1946      2E68746D 
 1946      00
 1947 00f1 000000   		.align	2
 1948              	.LC18:
 1949 00f4 2F343030 		.ascii	"/400.shtml\000"
 1949      2E736874 
 1949      6D6C00
 1950              		.section	.text.http_find_error_file,"ax",%progbits
 1951              		.align	2
 1952              		.thumb
 1953              		.thumb_func
 1955              	http_find_error_file:
 1956              	.LFB125:
1336:../Dave/Generated/src/WEBSERVER001/HTTPServer/httpd.c **** 
1337:../Dave/Generated/src/WEBSERVER001/HTTPServer/httpd.c **** #if LWIP_HTTPD_SUPPORT_EXTSTATUS
1338:../Dave/Generated/src/WEBSERVER001/HTTPServer/httpd.c **** /** Initialize a http connection with a file to send for an error message
1339:../Dave/Generated/src/WEBSERVER001/HTTPServer/httpd.c ****  *
1340:../Dave/Generated/src/WEBSERVER001/HTTPServer/httpd.c ****  * @param hs http connection state
1341:../Dave/Generated/src/WEBSERVER001/HTTPServer/httpd.c ****  * @param error_nr HTTP error number
1342:../Dave/Generated/src/WEBSERVER001/HTTPServer/httpd.c ****  * @return ERR_OK if file was found and hs has been initialized correctly
1343:../Dave/Generated/src/WEBSERVER001/HTTPServer/httpd.c ****  *         another err_t otherwise
1344:../Dave/Generated/src/WEBSERVER001/HTTPServer/httpd.c ****  */
1345:../Dave/Generated/src/WEBSERVER001/HTTPServer/httpd.c **** static err_t
1346:../Dave/Generated/src/WEBSERVER001/HTTPServer/httpd.c **** http_find_error_file(struct http_state *hs, u16_t error_nr)
1347:../Dave/Generated/src/WEBSERVER001/HTTPServer/httpd.c **** {
 1957              		.loc 1 1347 0
 1958              		.cfi_startproc
 1959              		@ args = 0, pretend = 0, frame = 24
 1960              		@ frame_needed = 1, uses_anonymous_args = 0
 1961 0000 80B5     		push	{r7, lr}
 1962              	.LCFI24:
 1963              		.cfi_def_cfa_offset 8
 1964              		.cfi_offset 7, -8
 1965              		.cfi_offset 14, -4
 1966 0002 86B0     		sub	sp, sp, #24
 1967              	.LCFI25:
 1968              		.cfi_def_cfa_offset 32
 1969 0004 00AF     		add	r7, sp, #0
 1970              	.LCFI26:
 1971              		.cfi_def_cfa_register 7
 1972 0006 7860     		str	r0, [r7, #4]
 1973 0008 0B46     		mov	r3, r1
 1974 000a 7B80     		strh	r3, [r7, #2]	@ movhi
1348:../Dave/Generated/src/WEBSERVER001/HTTPServer/httpd.c ****   const char *uri1, *uri2, *uri3;
1349:../Dave/Generated/src/WEBSERVER001/HTTPServer/httpd.c ****   struct fs_file *file;
1350:../Dave/Generated/src/WEBSERVER001/HTTPServer/httpd.c **** 
1351:../Dave/Generated/src/WEBSERVER001/HTTPServer/httpd.c ****   if (error_nr == 501) {
 1975              		.loc 1 1351 0
 1976 000c 7A88     		ldrh	r2, [r7, #2]
 1977 000e 40F2F513 		movw	r3, #501
 1978 0012 9A42     		cmp	r2, r3
 1979 0014 0FD1     		bne	.L112
1352:../Dave/Generated/src/WEBSERVER001/HTTPServer/httpd.c ****     uri1 = "/501.html";
 1980              		.loc 1 1352 0
 1981 0016 40F20003 		movw	r3, #:lower16:.LC13
 1982 001a C0F20003 		movt	r3, #:upper16:.LC13
 1983 001e 7B61     		str	r3, [r7, #20]
1353:../Dave/Generated/src/WEBSERVER001/HTTPServer/httpd.c ****     uri2 = "/501.htm";
 1984              		.loc 1 1353 0
 1985 0020 40F20003 		movw	r3, #:lower16:.LC14
 1986 0024 C0F20003 		movt	r3, #:upper16:.LC14
 1987 0028 3B61     		str	r3, [r7, #16]
1354:../Dave/Generated/src/WEBSERVER001/HTTPServer/httpd.c ****     uri3 = "/501.shtml";
 1988              		.loc 1 1354 0
 1989 002a 40F20003 		movw	r3, #:lower16:.LC15
 1990 002e C0F20003 		movt	r3, #:upper16:.LC15
 1991 0032 FB60     		str	r3, [r7, #12]
 1992 0034 0EE0     		b	.L113
 1993              	.L112:
1355:../Dave/Generated/src/WEBSERVER001/HTTPServer/httpd.c ****   } else {
1356:../Dave/Generated/src/WEBSERVER001/HTTPServer/httpd.c ****     /* 400 (bad request is the default) */
1357:../Dave/Generated/src/WEBSERVER001/HTTPServer/httpd.c ****     uri1 = "/400.txt";
 1994              		.loc 1 1357 0
 1995 0036 40F20003 		movw	r3, #:lower16:.LC16
 1996 003a C0F20003 		movt	r3, #:upper16:.LC16
 1997 003e 7B61     		str	r3, [r7, #20]
1358:../Dave/Generated/src/WEBSERVER001/HTTPServer/httpd.c ****     uri2 = "/400.htm";
 1998              		.loc 1 1358 0
 1999 0040 40F20003 		movw	r3, #:lower16:.LC17
 2000 0044 C0F20003 		movt	r3, #:upper16:.LC17
 2001 0048 3B61     		str	r3, [r7, #16]
1359:../Dave/Generated/src/WEBSERVER001/HTTPServer/httpd.c ****     uri3 = "/400.shtml";
 2002              		.loc 1 1359 0
 2003 004a 40F20003 		movw	r3, #:lower16:.LC18
 2004 004e C0F20003 		movt	r3, #:upper16:.LC18
 2005 0052 FB60     		str	r3, [r7, #12]
 2006              	.L113:
1360:../Dave/Generated/src/WEBSERVER001/HTTPServer/httpd.c ****   }
1361:../Dave/Generated/src/WEBSERVER001/HTTPServer/httpd.c ****   file = fs_open(uri1);
 2007              		.loc 1 1361 0
 2008 0054 7869     		ldr	r0, [r7, #20]
 2009 0056 FFF7FEFF 		bl	fs_open
 2010 005a B860     		str	r0, [r7, #8]
1362:../Dave/Generated/src/WEBSERVER001/HTTPServer/httpd.c ****   if (file == NULL) {
 2011              		.loc 1 1362 0
 2012 005c BB68     		ldr	r3, [r7, #8]
 2013 005e 002B     		cmp	r3, #0
 2014 0060 10D1     		bne	.L114
1363:../Dave/Generated/src/WEBSERVER001/HTTPServer/httpd.c ****     file = fs_open(uri2);
 2015              		.loc 1 1363 0
 2016 0062 3869     		ldr	r0, [r7, #16]
 2017 0064 FFF7FEFF 		bl	fs_open
 2018 0068 B860     		str	r0, [r7, #8]
1364:../Dave/Generated/src/WEBSERVER001/HTTPServer/httpd.c ****     if (file == NULL) {
 2019              		.loc 1 1364 0
 2020 006a BB68     		ldr	r3, [r7, #8]
 2021 006c 002B     		cmp	r3, #0
 2022 006e 09D1     		bne	.L114
1365:../Dave/Generated/src/WEBSERVER001/HTTPServer/httpd.c ****       file = fs_open(uri3);
 2023              		.loc 1 1365 0
 2024 0070 F868     		ldr	r0, [r7, #12]
 2025 0072 FFF7FEFF 		bl	fs_open
 2026 0076 B860     		str	r0, [r7, #8]
1366:../Dave/Generated/src/WEBSERVER001/HTTPServer/httpd.c ****       if (file == NULL) {
 2027              		.loc 1 1366 0
 2028 0078 BB68     		ldr	r3, [r7, #8]
 2029 007a 002B     		cmp	r3, #0
 2030 007c 02D1     		bne	.L114
1367:../Dave/Generated/src/WEBSERVER001/HTTPServer/httpd.c ****         LWIP_DEBUGF(HTTPD_DEBUG, ("Error page for error %"U16_F" not found\n",
1368:../Dave/Generated/src/WEBSERVER001/HTTPServer/httpd.c ****           error_nr));
1369:../Dave/Generated/src/WEBSERVER001/HTTPServer/httpd.c ****         return ERR_ARG;
 2031              		.loc 1 1369 0
 2032 007e 4FF0F603 		mov	r3, #246
 2033 0082 08E0     		b	.L115
 2034              	.L114:
1370:../Dave/Generated/src/WEBSERVER001/HTTPServer/httpd.c ****       }
1371:../Dave/Generated/src/WEBSERVER001/HTTPServer/httpd.c ****     }
1372:../Dave/Generated/src/WEBSERVER001/HTTPServer/httpd.c ****   }
1373:../Dave/Generated/src/WEBSERVER001/HTTPServer/httpd.c ****   return http_init_file(hs, file, 0, NULL);
 2035              		.loc 1 1373 0
 2036 0084 7868     		ldr	r0, [r7, #4]
 2037 0086 B968     		ldr	r1, [r7, #8]
 2038 0088 4FF00002 		mov	r2, #0
 2039 008c 4FF00003 		mov	r3, #0
 2040 0090 FFF7FEFF 		bl	http_init_file
 2041 0094 0346     		mov	r3, r0
 2042              	.L115:
 2043 0096 5BB2     		sxtb	r3, r3
1374:../Dave/Generated/src/WEBSERVER001/HTTPServer/httpd.c **** }
 2044              		.loc 1 1374 0
 2045 0098 1846     		mov	r0, r3
 2046 009a 07F11807 		add	r7, r7, #24
 2047 009e BD46     		mov	sp, r7
 2048 00a0 80BD     		pop	{r7, pc}
 2049              		.cfi_endproc
 2050              	.LFE125:
 2052 00a2 00BF     		.section	.rodata
 2053 00ff 00       		.align	2
 2054              	.LC19:
 2055 0100 2F343034 		.ascii	"/404.html\000"
 2055      2E68746D 
 2055      6C00
 2056 010a 0000     		.align	2
 2057              	.LC20:
 2058 010c 3430342E 		.ascii	"404.htm\000"
 2058      68746D00 
 2059              		.align	2
 2060              	.LC21:
 2061 0114 2F343034 		.ascii	"/404.htm\000"
 2061      2E68746D 
 2061      00
 2062 011d 000000   		.align	2
 2063              	.LC22:
 2064 0120 2F343034 		.ascii	"/404.shtml\000"
 2064      2E736874 
 2064      6D6C00
 2065              		.section	.text.http_get_404_file,"ax",%progbits
 2066              		.align	2
 2067              		.thumb
 2068              		.thumb_func
 2070              	http_get_404_file:
 2071              	.LFB126:
1375:../Dave/Generated/src/WEBSERVER001/HTTPServer/httpd.c **** #else /* LWIP_HTTPD_SUPPORT_EXTSTATUS */
1376:../Dave/Generated/src/WEBSERVER001/HTTPServer/httpd.c **** #define http_find_error_file(hs, error_nr) ERR_ARG
1377:../Dave/Generated/src/WEBSERVER001/HTTPServer/httpd.c **** #endif /* LWIP_HTTPD_SUPPORT_EXTSTATUS */
1378:../Dave/Generated/src/WEBSERVER001/HTTPServer/httpd.c **** 
1379:../Dave/Generated/src/WEBSERVER001/HTTPServer/httpd.c **** /**
1380:../Dave/Generated/src/WEBSERVER001/HTTPServer/httpd.c ****  * Get the file struct for a 404 error page.
1381:../Dave/Generated/src/WEBSERVER001/HTTPServer/httpd.c ****  * Tries some file names and returns NULL if none found.
1382:../Dave/Generated/src/WEBSERVER001/HTTPServer/httpd.c ****  *
1383:../Dave/Generated/src/WEBSERVER001/HTTPServer/httpd.c ****  * @param uri pointer that receives the actual file name URI
1384:../Dave/Generated/src/WEBSERVER001/HTTPServer/httpd.c ****  * @return file struct for the error page or NULL no matching file was found
1385:../Dave/Generated/src/WEBSERVER001/HTTPServer/httpd.c ****  */
1386:../Dave/Generated/src/WEBSERVER001/HTTPServer/httpd.c **** static struct fs_file *
1387:../Dave/Generated/src/WEBSERVER001/HTTPServer/httpd.c **** http_get_404_file(const char **uri)
1388:../Dave/Generated/src/WEBSERVER001/HTTPServer/httpd.c **** {
 2072              		.loc 1 1388 0
 2073              		.cfi_startproc
 2074              		@ args = 0, pretend = 0, frame = 16
 2075              		@ frame_needed = 1, uses_anonymous_args = 0
 2076 0000 80B5     		push	{r7, lr}
 2077              	.LCFI27:
 2078              		.cfi_def_cfa_offset 8
 2079              		.cfi_offset 7, -8
 2080              		.cfi_offset 14, -4
 2081 0002 84B0     		sub	sp, sp, #16
 2082              	.LCFI28:
 2083              		.cfi_def_cfa_offset 24
 2084 0004 00AF     		add	r7, sp, #0
 2085              	.LCFI29:
 2086              		.cfi_def_cfa_register 7
 2087 0006 7860     		str	r0, [r7, #4]
1389:../Dave/Generated/src/WEBSERVER001/HTTPServer/httpd.c ****   struct fs_file *file;
1390:../Dave/Generated/src/WEBSERVER001/HTTPServer/httpd.c **** 
1391:../Dave/Generated/src/WEBSERVER001/HTTPServer/httpd.c ****   *uri = "/404.html";
 2088              		.loc 1 1391 0
 2089 0008 7A68     		ldr	r2, [r7, #4]
 2090 000a 40F20003 		movw	r3, #:lower16:.LC19
 2091 000e C0F20003 		movt	r3, #:upper16:.LC19
 2092 0012 1360     		str	r3, [r2, #0]
1392:../Dave/Generated/src/WEBSERVER001/HTTPServer/httpd.c **** #if HTTPD_FAT_FS
1393:../Dave/Generated/src/WEBSERVER001/HTTPServer/httpd.c ****   file = fs_open("404.htm");
 2093              		.loc 1 1393 0
 2094 0014 40F20000 		movw	r0, #:lower16:.LC20
 2095 0018 C0F20000 		movt	r0, #:upper16:.LC20
 2096 001c FFF7FEFF 		bl	fs_open
 2097 0020 F860     		str	r0, [r7, #12]
1394:../Dave/Generated/src/WEBSERVER001/HTTPServer/httpd.c **** #else
1395:../Dave/Generated/src/WEBSERVER001/HTTPServer/httpd.c ****   file = fs_open(*uri);
1396:../Dave/Generated/src/WEBSERVER001/HTTPServer/httpd.c **** #endif
1397:../Dave/Generated/src/WEBSERVER001/HTTPServer/httpd.c ****   if(file == NULL) {
 2098              		.loc 1 1397 0
 2099 0022 FB68     		ldr	r3, [r7, #12]
 2100 0024 002B     		cmp	r3, #0
 2101 0026 21D1     		bne	.L117
1398:../Dave/Generated/src/WEBSERVER001/HTTPServer/httpd.c ****     /* 404.html doesn't exist. Try 404.htm instead. */
1399:../Dave/Generated/src/WEBSERVER001/HTTPServer/httpd.c ****     *uri = "/404.htm";
 2102              		.loc 1 1399 0
 2103 0028 7A68     		ldr	r2, [r7, #4]
 2104 002a 40F20003 		movw	r3, #:lower16:.LC21
 2105 002e C0F20003 		movt	r3, #:upper16:.LC21
 2106 0032 1360     		str	r3, [r2, #0]
1400:../Dave/Generated/src/WEBSERVER001/HTTPServer/httpd.c ****     file = fs_open(*uri);
 2107              		.loc 1 1400 0
 2108 0034 7B68     		ldr	r3, [r7, #4]
 2109 0036 1B68     		ldr	r3, [r3, #0]
 2110 0038 1846     		mov	r0, r3
 2111 003a FFF7FEFF 		bl	fs_open
 2112 003e F860     		str	r0, [r7, #12]
1401:../Dave/Generated/src/WEBSERVER001/HTTPServer/httpd.c ****     if(file == NULL) {
 2113              		.loc 1 1401 0
 2114 0040 FB68     		ldr	r3, [r7, #12]
 2115 0042 002B     		cmp	r3, #0
 2116 0044 12D1     		bne	.L117
1402:../Dave/Generated/src/WEBSERVER001/HTTPServer/httpd.c ****       /* 404.htm doesn't exist either. Try 404.shtml instead. */
1403:../Dave/Generated/src/WEBSERVER001/HTTPServer/httpd.c ****       *uri = "/404.shtml";
 2117              		.loc 1 1403 0
 2118 0046 7A68     		ldr	r2, [r7, #4]
 2119 0048 40F20003 		movw	r3, #:lower16:.LC22
 2120 004c C0F20003 		movt	r3, #:upper16:.LC22
 2121 0050 1360     		str	r3, [r2, #0]
1404:../Dave/Generated/src/WEBSERVER001/HTTPServer/httpd.c ****       file = fs_open(*uri);
 2122              		.loc 1 1404 0
 2123 0052 7B68     		ldr	r3, [r7, #4]
 2124 0054 1B68     		ldr	r3, [r3, #0]
 2125 0056 1846     		mov	r0, r3
 2126 0058 FFF7FEFF 		bl	fs_open
 2127 005c F860     		str	r0, [r7, #12]
1405:../Dave/Generated/src/WEBSERVER001/HTTPServer/httpd.c ****       if(file == NULL) {
 2128              		.loc 1 1405 0
 2129 005e FB68     		ldr	r3, [r7, #12]
 2130 0060 002B     		cmp	r3, #0
 2131 0062 03D1     		bne	.L117
1406:../Dave/Generated/src/WEBSERVER001/HTTPServer/httpd.c ****         /* 404.htm doesn't exist either. Indicate to the caller that it should
1407:../Dave/Generated/src/WEBSERVER001/HTTPServer/httpd.c ****          * send back a default 404 page.
1408:../Dave/Generated/src/WEBSERVER001/HTTPServer/httpd.c ****          */
1409:../Dave/Generated/src/WEBSERVER001/HTTPServer/httpd.c ****         *uri = NULL;
 2132              		.loc 1 1409 0
 2133 0064 7B68     		ldr	r3, [r7, #4]
 2134 0066 4FF00002 		mov	r2, #0
 2135 006a 1A60     		str	r2, [r3, #0]
 2136              	.L117:
1410:../Dave/Generated/src/WEBSERVER001/HTTPServer/httpd.c ****       }
1411:../Dave/Generated/src/WEBSERVER001/HTTPServer/httpd.c ****     }
1412:../Dave/Generated/src/WEBSERVER001/HTTPServer/httpd.c ****   }
1413:../Dave/Generated/src/WEBSERVER001/HTTPServer/httpd.c **** 
1414:../Dave/Generated/src/WEBSERVER001/HTTPServer/httpd.c ****   return file;
 2137              		.loc 1 1414 0
 2138 006c FB68     		ldr	r3, [r7, #12]
1415:../Dave/Generated/src/WEBSERVER001/HTTPServer/httpd.c **** }
 2139              		.loc 1 1415 0
 2140 006e 1846     		mov	r0, r3
 2141 0070 07F11007 		add	r7, r7, #16
 2142 0074 BD46     		mov	sp, r7
 2143 0076 80BD     		pop	{r7, pc}
 2144              		.cfi_endproc
 2145              	.LFE126:
 2147              		.section	.rodata
 2148 012b 00       		.align	2
 2149              	.LC23:
 2150 012c 0D0A00   		.ascii	"\015\012\000"
 2151 012f 00       		.align	2
 2152              	.LC24:
 2153 0130 47455420 		.ascii	"GET \000"
 2153      00
 2154 0135 000000   		.align	2
 2155              	.LC25:
 2156 0138 2000     		.ascii	" \000"
 2157 013a 0000     		.section	.text.http_parse_request,"ax",%progbits
 2158              		.align	2
 2159              		.thumb
 2160              		.thumb_func
 2162              	http_parse_request:
 2163              	.LFB127:
1416:../Dave/Generated/src/WEBSERVER001/HTTPServer/httpd.c **** 
1417:../Dave/Generated/src/WEBSERVER001/HTTPServer/httpd.c **** #if LWIP_HTTPD_SUPPORT_POST
1418:../Dave/Generated/src/WEBSERVER001/HTTPServer/httpd.c **** static err_t
1419:../Dave/Generated/src/WEBSERVER001/HTTPServer/httpd.c **** http_handle_post_finished(struct http_state *hs)
1420:../Dave/Generated/src/WEBSERVER001/HTTPServer/httpd.c **** {
1421:../Dave/Generated/src/WEBSERVER001/HTTPServer/httpd.c ****   /* application error or POST finished */
1422:../Dave/Generated/src/WEBSERVER001/HTTPServer/httpd.c ****   /* NULL-terminate the buffer */
1423:../Dave/Generated/src/WEBSERVER001/HTTPServer/httpd.c ****   http_post_response_filename[0] = 0;
1424:../Dave/Generated/src/WEBSERVER001/HTTPServer/httpd.c ****   httpd_post_finished(hs, http_post_response_filename, LWIP_HTTPD_POST_MAX_RESPONSE_URI_LEN);
1425:../Dave/Generated/src/WEBSERVER001/HTTPServer/httpd.c ****   return http_find_file(hs, http_post_response_filename, 0);
1426:../Dave/Generated/src/WEBSERVER001/HTTPServer/httpd.c **** }
1427:../Dave/Generated/src/WEBSERVER001/HTTPServer/httpd.c **** 
1428:../Dave/Generated/src/WEBSERVER001/HTTPServer/httpd.c **** /** Pass received POST body data to the application and correctly handle
1429:../Dave/Generated/src/WEBSERVER001/HTTPServer/httpd.c ****  * returning a response document or closing the connection.
1430:../Dave/Generated/src/WEBSERVER001/HTTPServer/httpd.c ****  * ATTENTION: The application is responsible for the pbuf now, so don't free it!
1431:../Dave/Generated/src/WEBSERVER001/HTTPServer/httpd.c ****  *
1432:../Dave/Generated/src/WEBSERVER001/HTTPServer/httpd.c ****  * @param hs http connection state
1433:../Dave/Generated/src/WEBSERVER001/HTTPServer/httpd.c ****  * @param p pbuf to pass to the application
1434:../Dave/Generated/src/WEBSERVER001/HTTPServer/httpd.c ****  * @return ERR_OK if passed successfully, another err_t if the response file
1435:../Dave/Generated/src/WEBSERVER001/HTTPServer/httpd.c ****  *         hasn't been found (after POST finished)
1436:../Dave/Generated/src/WEBSERVER001/HTTPServer/httpd.c ****  */
1437:../Dave/Generated/src/WEBSERVER001/HTTPServer/httpd.c **** static err_t
1438:../Dave/Generated/src/WEBSERVER001/HTTPServer/httpd.c **** http_post_rxpbuf(struct http_state *hs, struct pbuf *p)
1439:../Dave/Generated/src/WEBSERVER001/HTTPServer/httpd.c **** {
1440:../Dave/Generated/src/WEBSERVER001/HTTPServer/httpd.c ****   err_t err;
1441:../Dave/Generated/src/WEBSERVER001/HTTPServer/httpd.c **** 
1442:../Dave/Generated/src/WEBSERVER001/HTTPServer/httpd.c ****   /* adjust remaining Content-Length */
1443:../Dave/Generated/src/WEBSERVER001/HTTPServer/httpd.c ****   if (hs->post_content_len_left < p->tot_len) {
1444:../Dave/Generated/src/WEBSERVER001/HTTPServer/httpd.c ****     hs->post_content_len_left = 0;
1445:../Dave/Generated/src/WEBSERVER001/HTTPServer/httpd.c ****   } else {
1446:../Dave/Generated/src/WEBSERVER001/HTTPServer/httpd.c ****     hs->post_content_len_left -= p->tot_len;
1447:../Dave/Generated/src/WEBSERVER001/HTTPServer/httpd.c ****   }
1448:../Dave/Generated/src/WEBSERVER001/HTTPServer/httpd.c ****   err = httpd_post_receive_data(hs, p);
1449:../Dave/Generated/src/WEBSERVER001/HTTPServer/httpd.c ****   if ((err != ERR_OK) || (hs->post_content_len_left == 0)) {
1450:../Dave/Generated/src/WEBSERVER001/HTTPServer/httpd.c **** #if LWIP_HTTPD_SUPPORT_POST && LWIP_HTTPD_POST_MANUAL_WND
1451:../Dave/Generated/src/WEBSERVER001/HTTPServer/httpd.c ****     if (hs->unrecved_bytes != 0) {
1452:../Dave/Generated/src/WEBSERVER001/HTTPServer/httpd.c ****        return ERR_OK;
1453:../Dave/Generated/src/WEBSERVER001/HTTPServer/httpd.c ****     }
1454:../Dave/Generated/src/WEBSERVER001/HTTPServer/httpd.c **** #endif /* LWIP_HTTPD_SUPPORT_POST && LWIP_HTTPD_POST_MANUAL_WND */
1455:../Dave/Generated/src/WEBSERVER001/HTTPServer/httpd.c ****     /* application error or POST finished */
1456:../Dave/Generated/src/WEBSERVER001/HTTPServer/httpd.c ****     return http_handle_post_finished(hs);
1457:../Dave/Generated/src/WEBSERVER001/HTTPServer/httpd.c ****   }
1458:../Dave/Generated/src/WEBSERVER001/HTTPServer/httpd.c **** 
1459:../Dave/Generated/src/WEBSERVER001/HTTPServer/httpd.c ****   return ERR_OK;
1460:../Dave/Generated/src/WEBSERVER001/HTTPServer/httpd.c **** }
1461:../Dave/Generated/src/WEBSERVER001/HTTPServer/httpd.c **** 
1462:../Dave/Generated/src/WEBSERVER001/HTTPServer/httpd.c **** /** Handle a post request. Called from http_parse_request when method 'POST'
1463:../Dave/Generated/src/WEBSERVER001/HTTPServer/httpd.c ****  * is found.
1464:../Dave/Generated/src/WEBSERVER001/HTTPServer/httpd.c ****  *
1465:../Dave/Generated/src/WEBSERVER001/HTTPServer/httpd.c ****  * @param pcb The tcp_pcb which received this packet.
1466:../Dave/Generated/src/WEBSERVER001/HTTPServer/httpd.c ****  * @param p The input pbuf (containing the POST header and body).
1467:../Dave/Generated/src/WEBSERVER001/HTTPServer/httpd.c ****  * @param hs The http connection state.
1468:../Dave/Generated/src/WEBSERVER001/HTTPServer/httpd.c ****  * @param data HTTP request (header and part of body) from input pbuf(s).
1469:../Dave/Generated/src/WEBSERVER001/HTTPServer/httpd.c ****  * @param data_len Size of 'data'.
1470:../Dave/Generated/src/WEBSERVER001/HTTPServer/httpd.c ****  * @param uri The HTTP URI parsed from input pbuf(s).
1471:../Dave/Generated/src/WEBSERVER001/HTTPServer/httpd.c ****  * @param uri_end Pointer to the end of 'uri' (here, the rest of the HTTP
1472:../Dave/Generated/src/WEBSERVER001/HTTPServer/httpd.c ****  *                header starts).
1473:../Dave/Generated/src/WEBSERVER001/HTTPServer/httpd.c ****  * @return ERR_OK: POST correctly parsed and accepted by the application.
1474:../Dave/Generated/src/WEBSERVER001/HTTPServer/httpd.c ****  *         ERR_INPROGRESS: POST not completely parsed (no error yet)
1475:../Dave/Generated/src/WEBSERVER001/HTTPServer/httpd.c ****  *         another err_t: Error parsing POST or denied by the application
1476:../Dave/Generated/src/WEBSERVER001/HTTPServer/httpd.c ****  */
1477:../Dave/Generated/src/WEBSERVER001/HTTPServer/httpd.c **** static err_t
1478:../Dave/Generated/src/WEBSERVER001/HTTPServer/httpd.c **** http_post_request(struct tcp_pcb *pcb, struct pbuf **inp, struct http_state *hs,
1479:../Dave/Generated/src/WEBSERVER001/HTTPServer/httpd.c ****                   char *data, u16_t data_len, char *uri, char *uri_end)
1480:../Dave/Generated/src/WEBSERVER001/HTTPServer/httpd.c **** {
1481:../Dave/Generated/src/WEBSERVER001/HTTPServer/httpd.c ****   err_t err;
1482:../Dave/Generated/src/WEBSERVER001/HTTPServer/httpd.c ****   /* search for end-of-header (first double-CRLF) */
1483:../Dave/Generated/src/WEBSERVER001/HTTPServer/httpd.c ****   char* crlfcrlf = strnstr(uri_end + 1, CRLF CRLF, data_len - (uri_end + 1 - data));
1484:../Dave/Generated/src/WEBSERVER001/HTTPServer/httpd.c **** 
1485:../Dave/Generated/src/WEBSERVER001/HTTPServer/httpd.c **** #if LWIP_HTTPD_POST_MANUAL_WND
1486:../Dave/Generated/src/WEBSERVER001/HTTPServer/httpd.c ****   hs->pcb = pcb;
1487:../Dave/Generated/src/WEBSERVER001/HTTPServer/httpd.c **** #else /* LWIP_HTTPD_POST_MANUAL_WND */
1488:../Dave/Generated/src/WEBSERVER001/HTTPServer/httpd.c ****   LWIP_UNUSED_ARG(pcb); /* only used for LWIP_HTTPD_POST_MANUAL_WND */
1489:../Dave/Generated/src/WEBSERVER001/HTTPServer/httpd.c **** #endif /*  LWIP_HTTPD_POST_MANUAL_WND */
1490:../Dave/Generated/src/WEBSERVER001/HTTPServer/httpd.c **** 
1491:../Dave/Generated/src/WEBSERVER001/HTTPServer/httpd.c ****   if (crlfcrlf != NULL) {
1492:../Dave/Generated/src/WEBSERVER001/HTTPServer/httpd.c ****     /* search for "Content-Length: " */
1493:../Dave/Generated/src/WEBSERVER001/HTTPServer/httpd.c **** #define HTTP_HDR_CONTENT_LEN                "Content-Length: "
1494:../Dave/Generated/src/WEBSERVER001/HTTPServer/httpd.c **** #define HTTP_HDR_CONTENT_LEN_LEN            16
1495:../Dave/Generated/src/WEBSERVER001/HTTPServer/httpd.c **** #define HTTP_HDR_CONTENT_LEN_DIGIT_MAX_LEN  10
1496:../Dave/Generated/src/WEBSERVER001/HTTPServer/httpd.c ****     char *scontent_len = strnstr(uri_end + 1, HTTP_HDR_CONTENT_LEN, crlfcrlf - (uri_end + 1));
1497:../Dave/Generated/src/WEBSERVER001/HTTPServer/httpd.c ****     if (scontent_len != NULL) {
1498:../Dave/Generated/src/WEBSERVER001/HTTPServer/httpd.c ****       char *scontent_len_end = strnstr(scontent_len + HTTP_HDR_CONTENT_LEN_LEN, CRLF, HTTP_HDR_CONT
1499:../Dave/Generated/src/WEBSERVER001/HTTPServer/httpd.c ****       if (scontent_len_end != NULL) {
1500:../Dave/Generated/src/WEBSERVER001/HTTPServer/httpd.c ****         int content_len;
1501:../Dave/Generated/src/WEBSERVER001/HTTPServer/httpd.c ****         char *conten_len_num = scontent_len + HTTP_HDR_CONTENT_LEN_LEN;
1502:../Dave/Generated/src/WEBSERVER001/HTTPServer/httpd.c ****         *scontent_len_end = 0;
1503:../Dave/Generated/src/WEBSERVER001/HTTPServer/httpd.c ****         content_len = atoi(conten_len_num);
1504:../Dave/Generated/src/WEBSERVER001/HTTPServer/httpd.c ****         if (content_len > 0) {
1505:../Dave/Generated/src/WEBSERVER001/HTTPServer/httpd.c ****           /* adjust length of HTTP header passed to application */
1506:../Dave/Generated/src/WEBSERVER001/HTTPServer/httpd.c ****           const char *hdr_start_after_uri = uri_end + 1;
1507:../Dave/Generated/src/WEBSERVER001/HTTPServer/httpd.c ****           u16_t hdr_len = LWIP_MIN(data_len, crlfcrlf + 4 - data);
1508:../Dave/Generated/src/WEBSERVER001/HTTPServer/httpd.c ****           u16_t hdr_data_len = LWIP_MIN(data_len, crlfcrlf + 4 - hdr_start_after_uri);
1509:../Dave/Generated/src/WEBSERVER001/HTTPServer/httpd.c ****           u8_t post_auto_wnd = 1;
1510:../Dave/Generated/src/WEBSERVER001/HTTPServer/httpd.c ****           http_post_response_filename[0] = 0;
1511:../Dave/Generated/src/WEBSERVER001/HTTPServer/httpd.c ****           err = httpd_post_begin(hs, uri, hdr_start_after_uri, hdr_data_len, content_len,
1512:../Dave/Generated/src/WEBSERVER001/HTTPServer/httpd.c ****             http_post_response_filename, LWIP_HTTPD_POST_MAX_RESPONSE_URI_LEN, &post_auto_wnd);
1513:../Dave/Generated/src/WEBSERVER001/HTTPServer/httpd.c ****           if (err == ERR_OK) {
1514:../Dave/Generated/src/WEBSERVER001/HTTPServer/httpd.c ****             /* try to pass in data of the first pbuf(s) */
1515:../Dave/Generated/src/WEBSERVER001/HTTPServer/httpd.c ****             struct pbuf *q = *inp;
1516:../Dave/Generated/src/WEBSERVER001/HTTPServer/httpd.c ****             u16_t start_offset = hdr_len;
1517:../Dave/Generated/src/WEBSERVER001/HTTPServer/httpd.c **** #if LWIP_HTTPD_POST_MANUAL_WND
1518:../Dave/Generated/src/WEBSERVER001/HTTPServer/httpd.c ****             hs->no_auto_wnd = !post_auto_wnd;
1519:../Dave/Generated/src/WEBSERVER001/HTTPServer/httpd.c **** #endif /* LWIP_HTTPD_POST_MANUAL_WND */
1520:../Dave/Generated/src/WEBSERVER001/HTTPServer/httpd.c ****             /* set the Content-Length to be received for this POST */
1521:../Dave/Generated/src/WEBSERVER001/HTTPServer/httpd.c ****             hs->post_content_len_left = (u32_t)content_len;
1522:../Dave/Generated/src/WEBSERVER001/HTTPServer/httpd.c **** 
1523:../Dave/Generated/src/WEBSERVER001/HTTPServer/httpd.c ****             /* get to the pbuf where the body starts */
1524:../Dave/Generated/src/WEBSERVER001/HTTPServer/httpd.c ****             while((q != NULL) && (q->len <= start_offset)) {
1525:../Dave/Generated/src/WEBSERVER001/HTTPServer/httpd.c ****               struct pbuf *head = q;
1526:../Dave/Generated/src/WEBSERVER001/HTTPServer/httpd.c ****               start_offset -= q->len;
1527:../Dave/Generated/src/WEBSERVER001/HTTPServer/httpd.c ****               q = q->next;
1528:../Dave/Generated/src/WEBSERVER001/HTTPServer/httpd.c ****               /* free the head pbuf */
1529:../Dave/Generated/src/WEBSERVER001/HTTPServer/httpd.c ****               head->next = NULL;
1530:../Dave/Generated/src/WEBSERVER001/HTTPServer/httpd.c ****               pbuf_free(head);
1531:../Dave/Generated/src/WEBSERVER001/HTTPServer/httpd.c ****             }
1532:../Dave/Generated/src/WEBSERVER001/HTTPServer/httpd.c ****             *inp = NULL;
1533:../Dave/Generated/src/WEBSERVER001/HTTPServer/httpd.c ****             if (q != NULL) {
1534:../Dave/Generated/src/WEBSERVER001/HTTPServer/httpd.c ****               /* hide the remaining HTTP header */
1535:../Dave/Generated/src/WEBSERVER001/HTTPServer/httpd.c ****               pbuf_header(q, -(s16_t)start_offset);
1536:../Dave/Generated/src/WEBSERVER001/HTTPServer/httpd.c **** #if LWIP_HTTPD_POST_MANUAL_WND
1537:../Dave/Generated/src/WEBSERVER001/HTTPServer/httpd.c ****               if (!post_auto_wnd) {
1538:../Dave/Generated/src/WEBSERVER001/HTTPServer/httpd.c ****                 /* already tcp_recved() this data... */
1539:../Dave/Generated/src/WEBSERVER001/HTTPServer/httpd.c ****                 hs->unrecved_bytes = q->tot_len;
1540:../Dave/Generated/src/WEBSERVER001/HTTPServer/httpd.c ****               }
1541:../Dave/Generated/src/WEBSERVER001/HTTPServer/httpd.c **** #endif /* LWIP_HTTPD_POST_MANUAL_WND */
1542:../Dave/Generated/src/WEBSERVER001/HTTPServer/httpd.c ****               return http_post_rxpbuf(hs, q);
1543:../Dave/Generated/src/WEBSERVER001/HTTPServer/httpd.c ****             } else {
1544:../Dave/Generated/src/WEBSERVER001/HTTPServer/httpd.c ****               return ERR_OK;
1545:../Dave/Generated/src/WEBSERVER001/HTTPServer/httpd.c ****             }
1546:../Dave/Generated/src/WEBSERVER001/HTTPServer/httpd.c ****           } else {
1547:../Dave/Generated/src/WEBSERVER001/HTTPServer/httpd.c ****             /* return file passed from application */
1548:../Dave/Generated/src/WEBSERVER001/HTTPServer/httpd.c ****             return http_find_file(hs, http_post_response_filename, 0);
1549:../Dave/Generated/src/WEBSERVER001/HTTPServer/httpd.c ****           }
1550:../Dave/Generated/src/WEBSERVER001/HTTPServer/httpd.c ****         } else {
1551:../Dave/Generated/src/WEBSERVER001/HTTPServer/httpd.c ****           LWIP_DEBUGF(HTTPD_DEBUG, ("POST received invalid Content-Length: %s\n",
1552:../Dave/Generated/src/WEBSERVER001/HTTPServer/httpd.c ****             conten_len_num));
1553:../Dave/Generated/src/WEBSERVER001/HTTPServer/httpd.c ****           return ERR_ARG;
1554:../Dave/Generated/src/WEBSERVER001/HTTPServer/httpd.c ****         }
1555:../Dave/Generated/src/WEBSERVER001/HTTPServer/httpd.c ****       }
1556:../Dave/Generated/src/WEBSERVER001/HTTPServer/httpd.c ****     }
1557:../Dave/Generated/src/WEBSERVER001/HTTPServer/httpd.c ****   }
1558:../Dave/Generated/src/WEBSERVER001/HTTPServer/httpd.c ****   /* if we come here, the POST is incomplete */
1559:../Dave/Generated/src/WEBSERVER001/HTTPServer/httpd.c **** #if LWIP_HTTPD_SUPPORT_REQUESTLIST
1560:../Dave/Generated/src/WEBSERVER001/HTTPServer/httpd.c ****   return ERR_INPROGRESS;
1561:../Dave/Generated/src/WEBSERVER001/HTTPServer/httpd.c **** #else /* LWIP_HTTPD_SUPPORT_REQUESTLIST */
1562:../Dave/Generated/src/WEBSERVER001/HTTPServer/httpd.c ****   return ERR_ARG;
1563:../Dave/Generated/src/WEBSERVER001/HTTPServer/httpd.c **** #endif /* LWIP_HTTPD_SUPPORT_REQUESTLIST */
1564:../Dave/Generated/src/WEBSERVER001/HTTPServer/httpd.c **** }
1565:../Dave/Generated/src/WEBSERVER001/HTTPServer/httpd.c **** 
1566:../Dave/Generated/src/WEBSERVER001/HTTPServer/httpd.c **** #if LWIP_HTTPD_POST_MANUAL_WND
1567:../Dave/Generated/src/WEBSERVER001/HTTPServer/httpd.c **** /** A POST implementation can call this function to update the TCP window.
1568:../Dave/Generated/src/WEBSERVER001/HTTPServer/httpd.c ****  * This can be used to throttle data reception (e.g. when received data is
1569:../Dave/Generated/src/WEBSERVER001/HTTPServer/httpd.c ****  * programmed to flash and data is received faster than programmed).
1570:../Dave/Generated/src/WEBSERVER001/HTTPServer/httpd.c ****  *
1571:../Dave/Generated/src/WEBSERVER001/HTTPServer/httpd.c ****  * @param connection A connection handle passed to httpd_post_begin for which
1572:../Dave/Generated/src/WEBSERVER001/HTTPServer/httpd.c ****  *        httpd_post_finished has *NOT* been called yet!
1573:../Dave/Generated/src/WEBSERVER001/HTTPServer/httpd.c ****  * @param recved_len Length of data received (for window update)
1574:../Dave/Generated/src/WEBSERVER001/HTTPServer/httpd.c ****  */
1575:../Dave/Generated/src/WEBSERVER001/HTTPServer/httpd.c **** void httpd_post_data_recved(void *connection, u16_t recved_len)
1576:../Dave/Generated/src/WEBSERVER001/HTTPServer/httpd.c **** {
1577:../Dave/Generated/src/WEBSERVER001/HTTPServer/httpd.c ****   struct http_state *hs = (struct http_state*)connection;
1578:../Dave/Generated/src/WEBSERVER001/HTTPServer/httpd.c ****   if (hs != NULL) {
1579:../Dave/Generated/src/WEBSERVER001/HTTPServer/httpd.c ****     if (hs->no_auto_wnd) {
1580:../Dave/Generated/src/WEBSERVER001/HTTPServer/httpd.c ****       u16_t len = recved_len;
1581:../Dave/Generated/src/WEBSERVER001/HTTPServer/httpd.c ****       if (hs->unrecved_bytes >= recved_len) {
1582:../Dave/Generated/src/WEBSERVER001/HTTPServer/httpd.c ****         hs->unrecved_bytes -= recved_len;
1583:../Dave/Generated/src/WEBSERVER001/HTTPServer/httpd.c ****       } else {
1584:../Dave/Generated/src/WEBSERVER001/HTTPServer/httpd.c ****         LWIP_DEBUGF(HTTPD_DEBUG | LWIP_DBG_LEVEL_WARNING, ("httpd_post_data_recved: recved_len too 
1585:../Dave/Generated/src/WEBSERVER001/HTTPServer/httpd.c ****         len = (u16_t)hs->unrecved_bytes;
1586:../Dave/Generated/src/WEBSERVER001/HTTPServer/httpd.c ****         hs->unrecved_bytes = 0;
1587:../Dave/Generated/src/WEBSERVER001/HTTPServer/httpd.c ****       }
1588:../Dave/Generated/src/WEBSERVER001/HTTPServer/httpd.c ****       if (hs->pcb != NULL) {
1589:../Dave/Generated/src/WEBSERVER001/HTTPServer/httpd.c ****         if (len != 0) {
1590:../Dave/Generated/src/WEBSERVER001/HTTPServer/httpd.c ****           tcp_recved(hs->pcb, len);
1591:../Dave/Generated/src/WEBSERVER001/HTTPServer/httpd.c ****         }
1592:../Dave/Generated/src/WEBSERVER001/HTTPServer/httpd.c ****         if ((hs->post_content_len_left == 0) && (hs->unrecved_bytes == 0)) {
1593:../Dave/Generated/src/WEBSERVER001/HTTPServer/httpd.c ****           /* finished handling POST */
1594:../Dave/Generated/src/WEBSERVER001/HTTPServer/httpd.c ****           http_handle_post_finished(hs);
1595:../Dave/Generated/src/WEBSERVER001/HTTPServer/httpd.c ****           http_send_data(hs->pcb, hs);
1596:../Dave/Generated/src/WEBSERVER001/HTTPServer/httpd.c ****         }
1597:../Dave/Generated/src/WEBSERVER001/HTTPServer/httpd.c ****       }
1598:../Dave/Generated/src/WEBSERVER001/HTTPServer/httpd.c ****     }
1599:../Dave/Generated/src/WEBSERVER001/HTTPServer/httpd.c ****   }
1600:../Dave/Generated/src/WEBSERVER001/HTTPServer/httpd.c **** }
1601:../Dave/Generated/src/WEBSERVER001/HTTPServer/httpd.c **** #endif /* LWIP_HTTPD_POST_MANUAL_WND */
1602:../Dave/Generated/src/WEBSERVER001/HTTPServer/httpd.c **** 
1603:../Dave/Generated/src/WEBSERVER001/HTTPServer/httpd.c **** #endif /* LWIP_HTTPD_SUPPORT_POST */
1604:../Dave/Generated/src/WEBSERVER001/HTTPServer/httpd.c **** 
1605:../Dave/Generated/src/WEBSERVER001/HTTPServer/httpd.c **** /**
1606:../Dave/Generated/src/WEBSERVER001/HTTPServer/httpd.c ****  * When data has been received in the correct state, try to parse it
1607:../Dave/Generated/src/WEBSERVER001/HTTPServer/httpd.c ****  * as a HTTP request.
1608:../Dave/Generated/src/WEBSERVER001/HTTPServer/httpd.c ****  *
1609:../Dave/Generated/src/WEBSERVER001/HTTPServer/httpd.c ****  * @param p the received pbuf
1610:../Dave/Generated/src/WEBSERVER001/HTTPServer/httpd.c ****  * @param hs the connection state
1611:../Dave/Generated/src/WEBSERVER001/HTTPServer/httpd.c ****  * @param pcb the tcp_pcb which received this packet
1612:../Dave/Generated/src/WEBSERVER001/HTTPServer/httpd.c ****  * @return ERR_OK if request was OK and hs has been initialized correctly
1613:../Dave/Generated/src/WEBSERVER001/HTTPServer/httpd.c ****  *         ERR_INPROGRESS if request was OK so far but not fully received
1614:../Dave/Generated/src/WEBSERVER001/HTTPServer/httpd.c ****  *         another err_t otherwise
1615:../Dave/Generated/src/WEBSERVER001/HTTPServer/httpd.c ****  */
1616:../Dave/Generated/src/WEBSERVER001/HTTPServer/httpd.c **** static err_t
1617:../Dave/Generated/src/WEBSERVER001/HTTPServer/httpd.c **** http_parse_request(struct pbuf **inp, struct http_state *hs, struct tcp_pcb *pcb)
1618:../Dave/Generated/src/WEBSERVER001/HTTPServer/httpd.c **** {
 2164              		.loc 1 1618 0
 2165              		.cfi_startproc
 2166              		@ args = 0, pretend = 0, frame = 64
 2167              		@ frame_needed = 1, uses_anonymous_args = 0
 2168 0000 80B5     		push	{r7, lr}
 2169              	.LCFI30:
 2170              		.cfi_def_cfa_offset 8
 2171              		.cfi_offset 7, -8
 2172              		.cfi_offset 14, -4
 2173 0002 90B0     		sub	sp, sp, #64
 2174              	.LCFI31:
 2175              		.cfi_def_cfa_offset 72
 2176 0004 00AF     		add	r7, sp, #0
 2177              	.LCFI32:
 2178              		.cfi_def_cfa_register 7
 2179 0006 F860     		str	r0, [r7, #12]
 2180 0008 B960     		str	r1, [r7, #8]
 2181 000a 7A60     		str	r2, [r7, #4]
1619:../Dave/Generated/src/WEBSERVER001/HTTPServer/httpd.c ****   char *data;
1620:../Dave/Generated/src/WEBSERVER001/HTTPServer/httpd.c ****   char *crlf;
1621:../Dave/Generated/src/WEBSERVER001/HTTPServer/httpd.c ****   u16_t data_len;
1622:../Dave/Generated/src/WEBSERVER001/HTTPServer/httpd.c ****   struct pbuf *p = *inp;
 2182              		.loc 1 1622 0
 2183 000c FB68     		ldr	r3, [r7, #12]
 2184 000e 1B68     		ldr	r3, [r3, #0]
 2185 0010 7B63     		str	r3, [r7, #52]
1623:../Dave/Generated/src/WEBSERVER001/HTTPServer/httpd.c **** #if LWIP_HTTPD_SUPPORT_REQUESTLIST
1624:../Dave/Generated/src/WEBSERVER001/HTTPServer/httpd.c ****   u16_t clen;
1625:../Dave/Generated/src/WEBSERVER001/HTTPServer/httpd.c **** #endif /* LWIP_HTTPD_SUPPORT_REQUESTLIST */
1626:../Dave/Generated/src/WEBSERVER001/HTTPServer/httpd.c **** #if LWIP_HTTPD_SUPPORT_POST
1627:../Dave/Generated/src/WEBSERVER001/HTTPServer/httpd.c ****   err_t err;
1628:../Dave/Generated/src/WEBSERVER001/HTTPServer/httpd.c **** #endif /* LWIP_HTTPD_SUPPORT_POST */
1629:../Dave/Generated/src/WEBSERVER001/HTTPServer/httpd.c **** 
1630:../Dave/Generated/src/WEBSERVER001/HTTPServer/httpd.c ****   LWIP_UNUSED_ARG(pcb); /* only used for post */
1631:../Dave/Generated/src/WEBSERVER001/HTTPServer/httpd.c ****   LWIP_ASSERT("p != NULL", p != NULL);
1632:../Dave/Generated/src/WEBSERVER001/HTTPServer/httpd.c ****   LWIP_ASSERT("hs != NULL", hs != NULL);
1633:../Dave/Generated/src/WEBSERVER001/HTTPServer/httpd.c **** 
1634:../Dave/Generated/src/WEBSERVER001/HTTPServer/httpd.c ****   if ((hs->handle != NULL) || (hs->file != NULL)) {
 2186              		.loc 1 1634 0
 2187 0012 BB68     		ldr	r3, [r7, #8]
 2188 0014 1B68     		ldr	r3, [r3, #0]
 2189 0016 002B     		cmp	r3, #0
 2190 0018 03D1     		bne	.L120
 2191              		.loc 1 1634 0 is_stmt 0 discriminator 1
 2192 001a BB68     		ldr	r3, [r7, #8]
 2193 001c 5B68     		ldr	r3, [r3, #4]
 2194 001e 002B     		cmp	r3, #0
 2195 0020 02D0     		beq	.L121
 2196              	.L120:
1635:../Dave/Generated/src/WEBSERVER001/HTTPServer/httpd.c ****     LWIP_DEBUGF(HTTPD_DEBUG, ("Received data while sending a file\n"));
1636:../Dave/Generated/src/WEBSERVER001/HTTPServer/httpd.c ****     /* already sending a file */
1637:../Dave/Generated/src/WEBSERVER001/HTTPServer/httpd.c ****     /* @todo: abort? */
1638:../Dave/Generated/src/WEBSERVER001/HTTPServer/httpd.c ****     return ERR_USE;
 2197              		.loc 1 1638 0 is_stmt 1
 2198 0022 4FF0F503 		mov	r3, #245
 2199 0026 B7E0     		b	.L122
 2200              	.L121:
1639:../Dave/Generated/src/WEBSERVER001/HTTPServer/httpd.c ****   }
1640:../Dave/Generated/src/WEBSERVER001/HTTPServer/httpd.c **** 
1641:../Dave/Generated/src/WEBSERVER001/HTTPServer/httpd.c **** #if LWIP_HTTPD_SUPPORT_REQUESTLIST
1642:../Dave/Generated/src/WEBSERVER001/HTTPServer/httpd.c **** 
1643:../Dave/Generated/src/WEBSERVER001/HTTPServer/httpd.c ****   LWIP_DEBUGF(HTTPD_DEBUG, ("Received %"U16_F" bytes\n", p->tot_len));
1644:../Dave/Generated/src/WEBSERVER001/HTTPServer/httpd.c **** 
1645:../Dave/Generated/src/WEBSERVER001/HTTPServer/httpd.c ****   /* first check allowed characters in this pbuf? */
1646:../Dave/Generated/src/WEBSERVER001/HTTPServer/httpd.c **** 
1647:../Dave/Generated/src/WEBSERVER001/HTTPServer/httpd.c ****   /* enqueue the pbuf */
1648:../Dave/Generated/src/WEBSERVER001/HTTPServer/httpd.c ****   if (hs->req == NULL) {
 2201              		.loc 1 1648 0
 2202 0028 BB68     		ldr	r3, [r7, #8]
 2203 002a 9B68     		ldr	r3, [r3, #8]
 2204 002c 002B     		cmp	r3, #0
 2205 002e 03D1     		bne	.L123
1649:../Dave/Generated/src/WEBSERVER001/HTTPServer/httpd.c ****     LWIP_DEBUGF(HTTPD_DEBUG, ("First pbuf\n"));
1650:../Dave/Generated/src/WEBSERVER001/HTTPServer/httpd.c ****     hs->req = p;
 2206              		.loc 1 1650 0
 2207 0030 BB68     		ldr	r3, [r7, #8]
 2208 0032 7A6B     		ldr	r2, [r7, #52]
 2209 0034 9A60     		str	r2, [r3, #8]
 2210 0036 05E0     		b	.L124
 2211              	.L123:
1651:../Dave/Generated/src/WEBSERVER001/HTTPServer/httpd.c ****   } else {
1652:../Dave/Generated/src/WEBSERVER001/HTTPServer/httpd.c ****     LWIP_DEBUGF(HTTPD_DEBUG, ("pbuf enqueued\n"));
1653:../Dave/Generated/src/WEBSERVER001/HTTPServer/httpd.c ****     pbuf_cat(hs->req, p);
 2212              		.loc 1 1653 0
 2213 0038 BB68     		ldr	r3, [r7, #8]
 2214 003a 9B68     		ldr	r3, [r3, #8]
 2215 003c 1846     		mov	r0, r3
 2216 003e 796B     		ldr	r1, [r7, #52]
 2217 0040 FFF7FEFF 		bl	pbuf_cat
 2218              	.L124:
1654:../Dave/Generated/src/WEBSERVER001/HTTPServer/httpd.c ****   }
1655:../Dave/Generated/src/WEBSERVER001/HTTPServer/httpd.c **** 
1656:../Dave/Generated/src/WEBSERVER001/HTTPServer/httpd.c ****   if (hs->req->next != NULL) {
 2219              		.loc 1 1656 0
 2220 0044 BB68     		ldr	r3, [r7, #8]
 2221 0046 9B68     		ldr	r3, [r3, #8]
 2222 0048 1B68     		ldr	r3, [r3, #0]
 2223 004a 002B     		cmp	r3, #0
 2224 004c 1BD0     		beq	.L125
1657:../Dave/Generated/src/WEBSERVER001/HTTPServer/httpd.c ****     data_len = LWIP_MIN(hs->req->tot_len, LWIP_HTTPD_MAX_REQ_LENGTH);
 2225              		.loc 1 1657 0
 2226 004e BB68     		ldr	r3, [r7, #8]
 2227 0050 9B68     		ldr	r3, [r3, #8]
 2228 0052 1A89     		ldrh	r2, [r3, #8]
 2229 0054 40F2FF33 		movw	r3, #1023
 2230 0058 9A42     		cmp	r2, r3
 2231 005a 38BF     		it	cc
 2232 005c 1346     		movcc	r3, r2
 2233 005e 7B87     		strh	r3, [r7, #58]	@ movhi
1658:../Dave/Generated/src/WEBSERVER001/HTTPServer/httpd.c ****     pbuf_copy_partial(hs->req, httpd_req_buf, data_len, 0);
 2234              		.loc 1 1658 0
 2235 0060 BB68     		ldr	r3, [r7, #8]
 2236 0062 9A68     		ldr	r2, [r3, #8]
 2237 0064 7B8F     		ldrh	r3, [r7, #58]
 2238 0066 1046     		mov	r0, r2
 2239 0068 40F20001 		movw	r1, #:lower16:httpd_req_buf
 2240 006c C0F20001 		movt	r1, #:upper16:httpd_req_buf
 2241 0070 1A46     		mov	r2, r3
 2242 0072 4FF00003 		mov	r3, #0
 2243 0076 FFF7FEFF 		bl	pbuf_copy_partial
1659:../Dave/Generated/src/WEBSERVER001/HTTPServer/httpd.c ****     data = httpd_req_buf;
 2244              		.loc 1 1659 0
 2245 007a 40F20003 		movw	r3, #:lower16:httpd_req_buf
 2246 007e C0F20003 		movt	r3, #:upper16:httpd_req_buf
 2247 0082 FB63     		str	r3, [r7, #60]
 2248 0084 05E0     		b	.L126
 2249              	.L125:
1660:../Dave/Generated/src/WEBSERVER001/HTTPServer/httpd.c ****   } else
1661:../Dave/Generated/src/WEBSERVER001/HTTPServer/httpd.c **** #endif /* LWIP_HTTPD_SUPPORT_REQUESTLIST */
1662:../Dave/Generated/src/WEBSERVER001/HTTPServer/httpd.c ****   {
1663:../Dave/Generated/src/WEBSERVER001/HTTPServer/httpd.c ****     data = (char *)p->payload;
 2250              		.loc 1 1663 0
 2251 0086 7B6B     		ldr	r3, [r7, #52]
 2252 0088 5B68     		ldr	r3, [r3, #4]
 2253 008a FB63     		str	r3, [r7, #60]
1664:../Dave/Generated/src/WEBSERVER001/HTTPServer/httpd.c ****     data_len = p->len;
 2254              		.loc 1 1664 0
