   1              		.syntax unified
   2              		.cpu cortex-m4
   3              		.eabi_attribute 27, 3
   4              		.fpu fpv4-sp-d16
   5              		.eabi_attribute 20, 1
   6              		.eabi_attribute 21, 1
   7              		.eabi_attribute 23, 3
   8              		.eabi_attribute 24, 1
   9              		.eabi_attribute 25, 1
  10              		.eabi_attribute 26, 1
  11              		.eabi_attribute 30, 6
  12              		.eabi_attribute 34, 1
  13              		.eabi_attribute 18, 4
  14              		.thumb
  15              		.file	"SDMMC003_Private.c"
  16              		.text
  17              	.Ltext0:
  18              		.cfi_sections	.debug_frame
  19              		.comm	SDMMC003_CardInfo,48,4
  20              		.comm	SDMMC003_ISRContext,6,4
  21              		.comm	SDMMC003_ReturnStatus,4,4
  22              		.comm	NormalIntStatus,2,2
  23              		.comm	ErrorIntStatus,2,2
  24              		.global	SDMMC003_Command
  25              		.section	.rodata
  26              		.align	2
  29              	SDMMC003_Command:
  30 0000 00       		.byte	0
  31 0001 00       		.byte	0
  32 0002 09       		.byte	9
  33 0003 02       		.byte	2
  34 0004 1A       		.byte	26
  35 0005 03       		.byte	3
  36 0006 00       		.byte	0
  37 0007 04       		.byte	4
  38 0008 3A       		.byte	58
  39 0009 06       		.byte	6
  40 000a 1B       		.byte	27
  41 000b 07       		.byte	7
  42 000c 1A       		.byte	26
  43 000d 08       		.byte	8
  44 000e 09       		.byte	9
  45 000f 09       		.byte	9
  46 0010 09       		.byte	9
  47 0011 0A       		.byte	10
  48 0012 1B       		.byte	27
  49 0013 0C       		.byte	12
  50 0014 1A       		.byte	26
  51 0015 0D       		.byte	13
  52 0016 00       		.byte	0
  53 0017 0F       		.byte	15
  54 0018 1A       		.byte	26
  55 0019 10       		.byte	16
  56 001a 3A       		.byte	58
  57 001b 11       		.byte	17
  58 001c 3A       		.byte	58
  59 001d 12       		.byte	18
  60 001e 3A       		.byte	58
  61 001f 18       		.byte	24
  62 0020 3A       		.byte	58
  63 0021 19       		.byte	25
  64 0022 3A       		.byte	58
  65 0023 1B       		.byte	27
  66 0024 1A       		.byte	26
  67 0025 1C       		.byte	28
  68 0026 1A       		.byte	26
  69 0027 1D       		.byte	29
  70 0028 3A       		.byte	58
  71 0029 1E       		.byte	30
  72 002a 1A       		.byte	26
  73 002b 20       		.byte	32
  74 002c 1A       		.byte	26
  75 002d 21       		.byte	33
  76 002e 1B       		.byte	27
  77 002f 26       		.byte	38
  78 0030 3A       		.byte	58
  79 0031 2A       		.byte	42
  80 0032 1A       		.byte	26
  81 0033 37       		.byte	55
  82 0034 3A       		.byte	58
  83 0035 38       		.byte	56
  84 0036 1A       		.byte	26
  85 0037 06       		.byte	6
  86 0038 3A       		.byte	58
  87 0039 0D       		.byte	13
  88 003a 3A       		.byte	58
  89 003b 16       		.byte	22
  90 003c 1A       		.byte	26
  91 003d 17       		.byte	23
  92 003e 02       		.byte	2
  93 003f 29       		.byte	41
  94 0040 1A       		.byte	26
  95 0041 2A       		.byte	42
  96 0042 3A       		.byte	58
  97 0043 33       		.byte	51
  98 0044 12       		.byte	18
  99 0045 01       		.byte	1
 100 0046 1B       		.byte	27
 101 0047 05       		.byte	5
 102 0048 1B       		.byte	27
 103 0049 06       		.byte	6
 104 004a 3A       		.byte	58
 105 004b 08       		.byte	8
 106 004c 1A       		.byte	26
 107 004d 23       		.byte	35
 108 004e 1A       		.byte	26
 109 004f 24       		.byte	36
 110              		.global	SDMMC003_SDHashTable
 111              		.align	2
 114              	SDMMC003_SDHashTable:
 115 0050 00       		.byte	0
 116 0051 FF       		.byte	-1
 117 0052 01       		.byte	1
 118 0053 02       		.byte	2
 119 0054 03       		.byte	3
 120 0055 FF       		.byte	-1
 121 0056 04       		.byte	4
 122 0057 05       		.byte	5
 123 0058 06       		.byte	6
 124 0059 07       		.byte	7
 125 005a 08       		.byte	8
 126 005b FF       		.byte	-1
 127 005c 09       		.byte	9
 128 005d 0A       		.byte	10
 129 005e FF       		.byte	-1
 130 005f 0B       		.byte	11
 131 0060 0C       		.byte	12
 132 0061 0D       		.byte	13
 133 0062 0E       		.byte	14
 134 0063 FF       		.byte	-1
 135 0064 FF       		.byte	-1
 136 0065 FF       		.byte	-1
 137 0066 FF       		.byte	-1
 138 0067 FF       		.byte	-1
 139 0068 0F       		.byte	15
 140 0069 10       		.byte	16
 141 006a FF       		.byte	-1
 142 006b 11       		.byte	17
 143 006c 12       		.byte	18
 144 006d 13       		.byte	19
 145 006e 14       		.byte	20
 146 006f FF       		.byte	-1
 147 0070 15       		.byte	21
 148 0071 16       		.byte	22
 149 0072 FF       		.byte	-1
 150 0073 FF       		.byte	-1
 151 0074 FF       		.byte	-1
 152 0075 FF       		.byte	-1
 153 0076 17       		.byte	23
 154 0077 FF       		.byte	-1
 155 0078 FF       		.byte	-1
 156 0079 FF       		.byte	-1
 157 007a 18       		.byte	24
 158 007b FF       		.byte	-1
 159 007c FF       		.byte	-1
 160 007d FF       		.byte	-1
 161 007e FF       		.byte	-1
 162 007f FF       		.byte	-1
 163 0080 FF       		.byte	-1
 164 0081 FF       		.byte	-1
 165 0082 FF       		.byte	-1
 166 0083 FF       		.byte	-1
 167 0084 FF       		.byte	-1
 168 0085 FF       		.byte	-1
 169 0086 FF       		.byte	-1
 170 0087 19       		.byte	25
 171 0088 1A       		.byte	26
 172 0089 FF       		.byte	-1
 173 008a 1B       		.byte	27
 174 008b 1C       		.byte	28
 175 008c 1D       		.byte	29
 176 008d 1E       		.byte	30
 177 008e 1F       		.byte	31
 178 008f 20       		.byte	32
 179 0090 21       		.byte	33
 180 0091 000000   		.section	.text.SDMMC003_lReset,"ax",%progbits
 181              		.align	2
 182              		.global	SDMMC003_lReset
 183              		.thumb
 184              		.thumb_func
 186              	SDMMC003_lReset:
 187              	.LFB117:
 188              		.file 1 "../Dave/Generated/src/SDMMC003/SDMMC003_Private.c"
   1:../Dave/Generated/src/SDMMC003/SDMMC003_Private.c **** /*******************************************************************************
   2:../Dave/Generated/src/SDMMC003/SDMMC003_Private.c **** **  DAVE App Name : SDMMC003       App Version: 1.0.14               
   3:../Dave/Generated/src/SDMMC003/SDMMC003_Private.c **** **  This file is generated by DAVE, User modification to this file will be    **
   4:../Dave/Generated/src/SDMMC003/SDMMC003_Private.c **** **  overwritten at the next code generation.                                  **
   5:../Dave/Generated/src/SDMMC003/SDMMC003_Private.c **** *******************************************************************************/
   6:../Dave/Generated/src/SDMMC003/SDMMC003_Private.c **** 
   7:../Dave/Generated/src/SDMMC003/SDMMC003_Private.c **** 
   8:../Dave/Generated/src/SDMMC003/SDMMC003_Private.c **** 
   9:../Dave/Generated/src/SDMMC003/SDMMC003_Private.c **** /*CODE_BLOCK_BEGIN[SDMMC003_Private.c]*/
  10:../Dave/Generated/src/SDMMC003/SDMMC003_Private.c **** 
  11:../Dave/Generated/src/SDMMC003/SDMMC003_Private.c **** /*******************************************************************************
  12:../Dave/Generated/src/SDMMC003/SDMMC003_Private.c ****  Copyright (c) 2011, Infineon Technologies AG                                 **
  13:../Dave/Generated/src/SDMMC003/SDMMC003_Private.c ****  All rights reserved.                                                         **
  14:../Dave/Generated/src/SDMMC003/SDMMC003_Private.c ****                                                                               **
  15:../Dave/Generated/src/SDMMC003/SDMMC003_Private.c ****  Redistribution and use in source and binary forms, with or without           **
  16:../Dave/Generated/src/SDMMC003/SDMMC003_Private.c ****  modification,are permitted provided that the following conditions are met:   **
  17:../Dave/Generated/src/SDMMC003/SDMMC003_Private.c ****                                                                               **
  18:../Dave/Generated/src/SDMMC003/SDMMC003_Private.c ****  *Redistributions of source code must retain the above copyright notice,      **
  19:../Dave/Generated/src/SDMMC003/SDMMC003_Private.c ****  this list of conditions and the following disclaimer.                        **
  20:../Dave/Generated/src/SDMMC003/SDMMC003_Private.c ****  *Redistributions in binary form must reproduce the above copyright notice,   **
  21:../Dave/Generated/src/SDMMC003/SDMMC003_Private.c ****  this list of conditions and the following disclaimer in the documentation    **
  22:../Dave/Generated/src/SDMMC003/SDMMC003_Private.c ****  and/or other materials provided with the distribution.                       **
  23:../Dave/Generated/src/SDMMC003/SDMMC003_Private.c ****  *Neither the name of the copyright holders nor the names of its contributors **
  24:../Dave/Generated/src/SDMMC003/SDMMC003_Private.c ****  may be used to endorse or promote products derived from this software without** 
  25:../Dave/Generated/src/SDMMC003/SDMMC003_Private.c ****  specific prior written permission.                                           **
  26:../Dave/Generated/src/SDMMC003/SDMMC003_Private.c ****                                                                               **
  27:../Dave/Generated/src/SDMMC003/SDMMC003_Private.c ****  THIS SOFTWARE IS PROVIDED BY THE COPYRIGHT HOLDERS AND CONTRIBUTORS "AS IS"  **
  28:../Dave/Generated/src/SDMMC003/SDMMC003_Private.c ****  AND ANY EXPRESS OR IMPLIED WARRANTIES, INCLUDING, BUT NOT LIMITED TO, THE    **
  29:../Dave/Generated/src/SDMMC003/SDMMC003_Private.c ****  IMPLIED WARRANTIES OF MERCHANTABILITY AND FITNESS FOR A PARTICULAR PURPOSE   **
  30:../Dave/Generated/src/SDMMC003/SDMMC003_Private.c ****  ARE  DISCLAIMED. IN NO EVENT SHALL THE COPYRIGHT HOLDER OR CONTRIBUTORS BE   **
  31:../Dave/Generated/src/SDMMC003/SDMMC003_Private.c ****  LIABLE  FOR ANY DIRECT, INDIRECT, INCIDENTAL, SPECIAL, EXEMPLARY, OR         **
  32:../Dave/Generated/src/SDMMC003/SDMMC003_Private.c ****  CONSEQUENTIAL DAMAGES (INCLUDING, BUT NOT LIMITED TO, PROCUREMENT OF         **
  33:../Dave/Generated/src/SDMMC003/SDMMC003_Private.c ****  SUBSTITUTE GOODS OR  SERVICES; LOSS OF USE, DATA, OR PROFITS; OR BUSINESS    **
  34:../Dave/Generated/src/SDMMC003/SDMMC003_Private.c ****  INTERRUPTION) HOWEVER CAUSED AND ON ANY THEORY OF LIABILITY, WHETHER IN      **
  35:../Dave/Generated/src/SDMMC003/SDMMC003_Private.c ****  CONTRACT, STRICT LIABILITY,OR TORT (INCLUDING NEGLIGENCE OR OTHERWISE)       **
  36:../Dave/Generated/src/SDMMC003/SDMMC003_Private.c ****  ARISING IN ANY WAY OUT OF THE USE OF THIS SOFTWARE, EVEN IF ADVISED OF THE   **
  37:../Dave/Generated/src/SDMMC003/SDMMC003_Private.c ****  POSSIBILITY OF SUCH DAMAGE.                                                  **
  38:../Dave/Generated/src/SDMMC003/SDMMC003_Private.c ****                                                                               **
  39:../Dave/Generated/src/SDMMC003/SDMMC003_Private.c ****  To improve the quality of the software, users are encouraged to share        **
  40:../Dave/Generated/src/SDMMC003/SDMMC003_Private.c ****  modifications, enhancements or bug fixes with Infineon Technologies AG       **
  41:../Dave/Generated/src/SDMMC003/SDMMC003_Private.c ****  dave@infineon.com).                                                          **
  42:../Dave/Generated/src/SDMMC003/SDMMC003_Private.c ****                                                                               **
  43:../Dave/Generated/src/SDMMC003/SDMMC003_Private.c **** ********************************************************************************
  44:../Dave/Generated/src/SDMMC003/SDMMC003_Private.c **** **                                                                            **
  45:../Dave/Generated/src/SDMMC003/SDMMC003_Private.c **** **                                                                            **
  46:../Dave/Generated/src/SDMMC003/SDMMC003_Private.c **** ** PLATFORM : Infineon XMC4000 Series                                         **
  47:../Dave/Generated/src/SDMMC003/SDMMC003_Private.c **** **                                                                            **
  48:../Dave/Generated/src/SDMMC003/SDMMC003_Private.c **** ** COMPILER : Compiler Independent                                            **
  49:../Dave/Generated/src/SDMMC003/SDMMC003_Private.c **** **                                                                            **
  50:../Dave/Generated/src/SDMMC003/SDMMC003_Private.c **** ** AUTHOR : App Developer                                                     **
  51:../Dave/Generated/src/SDMMC003/SDMMC003_Private.c **** **                                                                            **
  52:../Dave/Generated/src/SDMMC003/SDMMC003_Private.c **** ** MAY BE CHANGED BY USER [yes/no]: Yes                                       **
  53:../Dave/Generated/src/SDMMC003/SDMMC003_Private.c **** **                                                                            **
  54:../Dave/Generated/src/SDMMC003/SDMMC003_Private.c **** ** MODIFICATION DATE : Oct 1, 2012                                            **
  55:../Dave/Generated/src/SDMMC003/SDMMC003_Private.c **** **                                                                            **
  56:../Dave/Generated/src/SDMMC003/SDMMC003_Private.c **** *******************************************************************************/
  57:../Dave/Generated/src/SDMMC003/SDMMC003_Private.c **** /*******************************************************************************
  58:../Dave/Generated/src/SDMMC003/SDMMC003_Private.c **** **                       Author(s) Identity                                   **
  59:../Dave/Generated/src/SDMMC003/SDMMC003_Private.c **** ********************************************************************************
  60:../Dave/Generated/src/SDMMC003/SDMMC003_Private.c **** **                                                                            **
  61:../Dave/Generated/src/SDMMC003/SDMMC003_Private.c **** ** Initials    Name                                                           **
  62:../Dave/Generated/src/SDMMC003/SDMMC003_Private.c **** ** ---------------------------------------------------------------------------**
  63:../Dave/Generated/src/SDMMC003/SDMMC003_Private.c **** ** SK          App Developer                                                  **
  64:../Dave/Generated/src/SDMMC003/SDMMC003_Private.c **** *******************************************************************************/
  65:../Dave/Generated/src/SDMMC003/SDMMC003_Private.c **** 
  66:../Dave/Generated/src/SDMMC003/SDMMC003_Private.c **** 
  67:../Dave/Generated/src/SDMMC003/SDMMC003_Private.c **** /**
  68:../Dave/Generated/src/SDMMC003/SDMMC003_Private.c ****  * @file   SDMMC003_Private.c
  69:../Dave/Generated/src/SDMMC003/SDMMC003_Private.c ****  *
  70:../Dave/Generated/src/SDMMC003/SDMMC003_Private.c ****  * @App Version SDMMC003 <1.0.14>
  71:../Dave/Generated/src/SDMMC003/SDMMC003_Private.c ****  *
  72:../Dave/Generated/src/SDMMC003/SDMMC003_Private.c ****  * @brief  This file contains definitions of all private type definitions and
  73:../Dave/Generated/src/SDMMC003/SDMMC003_Private.c ****  * functions of SDMMC LLD App.
  74:../Dave/Generated/src/SDMMC003/SDMMC003_Private.c ****  *
  75:../Dave/Generated/src/SDMMC003/SDMMC003_Private.c ****  * Revision History
  76:../Dave/Generated/src/SDMMC003/SDMMC003_Private.c ****  * 22 March 2012  v1.0.0    Initial version
  77:../Dave/Generated/src/SDMMC003/SDMMC003_Private.c ****  * 3 Aug 2012     v1.0.12   Erase optimizations  introduced.
  78:../Dave/Generated/src/SDMMC003/SDMMC003_Private.c ****  *                          Make File System(MKFS) through software issue fixed. 
  79:../Dave/Generated/src/SDMMC003/SDMMC003_Private.c ****  * 1 Oct 2012     v1.0.14   Delays reduced.
  80:../Dave/Generated/src/SDMMC003/SDMMC003_Private.c ****  *                          Removed RTOS specific code. 
  81:../Dave/Generated/src/SDMMC003/SDMMC003_Private.c ****  */
  82:../Dave/Generated/src/SDMMC003/SDMMC003_Private.c **** /*******************************************************************************
  83:../Dave/Generated/src/SDMMC003/SDMMC003_Private.c ****  *                            INCLUDE FILES                                   **
  84:../Dave/Generated/src/SDMMC003/SDMMC003_Private.c ****  ******************************************************************************/
  85:../Dave/Generated/src/SDMMC003/SDMMC003_Private.c **** #include "../../inc/SDMMC003/SDMMC003_Conf.h"
  86:../Dave/Generated/src/SDMMC003/SDMMC003_Private.c **** #include <DAVE3.h>
  87:../Dave/Generated/src/SDMMC003/SDMMC003_Private.c **** #include "../../inc/SDMMC003/SDMMC003_Private.h"
  88:../Dave/Generated/src/SDMMC003/SDMMC003_Private.c **** 
  89:../Dave/Generated/src/SDMMC003/SDMMC003_Private.c **** 
  90:../Dave/Generated/src/SDMMC003/SDMMC003_Private.c **** 
  91:../Dave/Generated/src/SDMMC003/SDMMC003_Private.c **** /**
  92:../Dave/Generated/src/SDMMC003/SDMMC003_Private.c ****  * @cond INTERNAL_DOCS
  93:../Dave/Generated/src/SDMMC003/SDMMC003_Private.c ****  */
  94:../Dave/Generated/src/SDMMC003/SDMMC003_Private.c **** 
  95:../Dave/Generated/src/SDMMC003/SDMMC003_Private.c **** /*******************************************************************************
  96:../Dave/Generated/src/SDMMC003/SDMMC003_Private.c ****  **                      Global Variable Definitions                          **
  97:../Dave/Generated/src/SDMMC003/SDMMC003_Private.c ****  *******************************************************************************/
  98:../Dave/Generated/src/SDMMC003/SDMMC003_Private.c **** extern volatile SDMMC003_HandleType SDMMC003_Handle ;
  99:../Dave/Generated/src/SDMMC003/SDMMC003_Private.c **** /**  Card Information Structure */
 100:../Dave/Generated/src/SDMMC003/SDMMC003_Private.c **** SDMMC003_CardInfoType SDMMC003_CardInfo ;
 101:../Dave/Generated/src/SDMMC003/SDMMC003_Private.c **** /** Structure containing the Interrupt related variables */
 102:../Dave/Generated/src/SDMMC003/SDMMC003_Private.c **** volatile SDMMC003_InterruptContext SDMMC003_ISRContext;
 103:../Dave/Generated/src/SDMMC003/SDMMC003_Private.c **** 
 104:../Dave/Generated/src/SDMMC003/SDMMC003_Private.c **** /* Dummy Variable to store return status */
 105:../Dave/Generated/src/SDMMC003/SDMMC003_Private.c **** status_t SDMMC003_ReturnStatus;
 106:../Dave/Generated/src/SDMMC003/SDMMC003_Private.c **** 
 107:../Dave/Generated/src/SDMMC003/SDMMC003_Private.c **** #if SDMMC_UVP_TEST
 108:../Dave/Generated/src/SDMMC003/SDMMC003_Private.c ****   extern Test_TriggerInterruptType Test_TriggerInterrupt;
 109:../Dave/Generated/src/SDMMC003/SDMMC003_Private.c **** #endif /* SDMMC_UVP_TEST */
 110:../Dave/Generated/src/SDMMC003/SDMMC003_Private.c **** 
 111:../Dave/Generated/src/SDMMC003/SDMMC003_Private.c **** /** Stores Normal Interrupt Status Register */
 112:../Dave/Generated/src/SDMMC003/SDMMC003_Private.c **** volatile  uint16_t NormalIntStatus;
 113:../Dave/Generated/src/SDMMC003/SDMMC003_Private.c **** /** Stores Error Interrupt Status Register */
 114:../Dave/Generated/src/SDMMC003/SDMMC003_Private.c **** volatile  uint16_t ErrorIntStatus;
 115:../Dave/Generated/src/SDMMC003/SDMMC003_Private.c **** 
 116:../Dave/Generated/src/SDMMC003/SDMMC003_Private.c **** /*******************************************************************************
 117:../Dave/Generated/src/SDMMC003/SDMMC003_Private.c ****  *                                ARRAYS                                      **
 118:../Dave/Generated/src/SDMMC003/SDMMC003_Private.c ****  ******************************************************************************/
 119:../Dave/Generated/src/SDMMC003/SDMMC003_Private.c **** /**
 120:../Dave/Generated/src/SDMMC003/SDMMC003_Private.c ****  * Command Structure defining SD, MMC and Application specific commands 
 121:../Dave/Generated/src/SDMMC003/SDMMC003_Private.c ****  */
 122:../Dave/Generated/src/SDMMC003/SDMMC003_Private.c **** const SDMMC003_CommandType SDMMC003_Command[40] =
 123:../Dave/Generated/src/SDMMC003/SDMMC003_Private.c **** {
 124:../Dave/Generated/src/SDMMC003/SDMMC003_Private.c ****   /* SD  Card Commands */
 125:../Dave/Generated/src/SDMMC003/SDMMC003_Private.c ****   { 0,0,0,0,0,0,SDMMC003_GO_IDLE_STATE,0 },     /*0*/
 126:../Dave/Generated/src/SDMMC003/SDMMC003_Private.c ****   { 1,0,1,0,0,0,SDMMC003_ALL_SEND_CID,0 },      /*1*/
 127:../Dave/Generated/src/SDMMC003/SDMMC003_Private.c ****   { 2,0,1,1,0,0,SDMMC003_SEND_RELATIVE_ADDR,0}, /*2*/
 128:../Dave/Generated/src/SDMMC003/SDMMC003_Private.c ****   { 0,0,0,0,0,0,SDMMC003_SET_DSR,0 },           /*3*/
 129:../Dave/Generated/src/SDMMC003/SDMMC003_Private.c ****   { 2,0,1,1,1,0,SDMMC003_SWITCH_FUNC,0},        /*4*/
 130:../Dave/Generated/src/SDMMC003/SDMMC003_Private.c ****   { 3,0,1,1,0,0,SDMMC003_SELECT_DESELECT_CARD,0},/*5*/
 131:../Dave/Generated/src/SDMMC003/SDMMC003_Private.c ****   { 2,0,1,1,0,0,SDMMC003_SD_SEND_IF_COND,0},    /*6*/
 132:../Dave/Generated/src/SDMMC003/SDMMC003_Private.c ****   { 1,0,1,0,0,0,SDMMC003_SEND_CSD,0},           /*7*/
 133:../Dave/Generated/src/SDMMC003/SDMMC003_Private.c ****   { 1,0,1,0,0,0,SDMMC003_SEND_CID,0},           /*8*/
 134:../Dave/Generated/src/SDMMC003/SDMMC003_Private.c ****   { 3,0,1,1,0,0,SDMMC003_STOP_TRANSMISSION,0},  /*9*/
 135:../Dave/Generated/src/SDMMC003/SDMMC003_Private.c ****   { 2,0,1,1,0,0,SDMMC003_SEND_STATUS,0 },       /*10*/
 136:../Dave/Generated/src/SDMMC003/SDMMC003_Private.c ****   { 0,0,0,0,0,0,SDMMC003_GO_INACTIVE_STATE,0},  /*11*/
 137:../Dave/Generated/src/SDMMC003/SDMMC003_Private.c ****   { 2,0,1,1,0,0,SDMMC003_SET_BLOCKLEN,0},       /*12*/
 138:../Dave/Generated/src/SDMMC003/SDMMC003_Private.c ****   { 2,0,1,1,1,0,SDMMC003_READ_SINGLE_BLOCK,0},  /*13*/
 139:../Dave/Generated/src/SDMMC003/SDMMC003_Private.c ****   { 2,0,1,1,1,0,SDMMC003_READ_MULTIPLE_BLOCK,0},/*14*/
 140:../Dave/Generated/src/SDMMC003/SDMMC003_Private.c ****   { 2,0,1,1,1,0,SDMMC003_WRITE_BLOCK,0 },       /*15*/
 141:../Dave/Generated/src/SDMMC003/SDMMC003_Private.c ****   { 2,0,1,1,1,0,SDMMC003_WRITE_MULTIPLE_BLOCK,0},/*16*/
 142:../Dave/Generated/src/SDMMC003/SDMMC003_Private.c ****   { 2,0,1,1,1,0,SDMMC003_PROGRAM_CSD,0},        /*17*/
 143:../Dave/Generated/src/SDMMC003/SDMMC003_Private.c ****   { 2,0,1,1,0,0,SDMMC003_SET_WRITE_PROT,0},     /*18*/
 144:../Dave/Generated/src/SDMMC003/SDMMC003_Private.c ****   { 2,0,1,1,0,0,SDMMC003_CLR_WRITE_PROT,0},     /*19*/
 145:../Dave/Generated/src/SDMMC003/SDMMC003_Private.c ****   { 2,0,1,1,1,0,SDMMC003_SEND_WRITE_PROT,0},    /*20*/
 146:../Dave/Generated/src/SDMMC003/SDMMC003_Private.c ****   { 2,0,1,1,0,0,SDMMC003_ERASE_WR_BLK_START,0}, /*21*/
 147:../Dave/Generated/src/SDMMC003/SDMMC003_Private.c ****   { 2,0,1,1,0,0,SDMMC003_ERASE_WR_BLK_END,0},   /*22*/
 148:../Dave/Generated/src/SDMMC003/SDMMC003_Private.c ****   { 3,0,1,1,0,0,SDMMC003_ERASE,0},              /*23*/
 149:../Dave/Generated/src/SDMMC003/SDMMC003_Private.c ****   { 2,0,1,1,1,0,SDMMC003_LOCK_UNLOCK,0},        /*24*/
 150:../Dave/Generated/src/SDMMC003/SDMMC003_Private.c ****   { 2,0,1,1,0,0,SDMMC003_APP_CMD,0},            /*25*/
 151:../Dave/Generated/src/SDMMC003/SDMMC003_Private.c ****   { 2,0,1,1,1,0,SDMMC003_GEN_CMD,0},            /*26*/
 152:../Dave/Generated/src/SDMMC003/SDMMC003_Private.c ****   /*  End of SD card commands */
 153:../Dave/Generated/src/SDMMC003/SDMMC003_Private.c ****   /* Start of Application Specific commands */
 154:../Dave/Generated/src/SDMMC003/SDMMC003_Private.c ****   { 2,0,1,1,0,0,SDMMC003_SET_BUS_WIDTH,0},      /*27*/
 155:../Dave/Generated/src/SDMMC003/SDMMC003_Private.c ****   { 2,0,1,1,1,0,SDMMC003_SD_STATUS,0},          /*28*/
 156:../Dave/Generated/src/SDMMC003/SDMMC003_Private.c ****   { 2,0,1,1,1,0,SDMMC003_SEND_NUM_WR_BLOCKS,0}, /*29*/
 157:../Dave/Generated/src/SDMMC003/SDMMC003_Private.c ****   { 2,0,1,1,0,0,SDMMC003_SET_WR_BLK_ERASE_COUNT,0},/*30*/
 158:../Dave/Generated/src/SDMMC003/SDMMC003_Private.c ****   { 2,0,0,0,0,0,SDMMC003_SD_SEND_OP_COND,0},    /*31*/
 159:../Dave/Generated/src/SDMMC003/SDMMC003_Private.c ****   { 2,0,1,1,0,0,SDMMC003_SET_CLR_CARD_DETECT,0},/*32*/
 160:../Dave/Generated/src/SDMMC003/SDMMC003_Private.c ****   { 2,0,1,1,1,0,SDMMC003_SEND_SCR,0 },          /*33*/
 161:../Dave/Generated/src/SDMMC003/SDMMC003_Private.c ****   /* End of Application Specific Commands */
 162:../Dave/Generated/src/SDMMC003/SDMMC003_Private.c ****   /* Start of SDMMC_MMC Card  specific commands */
 163:../Dave/Generated/src/SDMMC003/SDMMC003_Private.c ****   { 2,0,0,1,0,0,SDMMC003_MMC_SEND_OP_COND,0},   /*34*/
 164:../Dave/Generated/src/SDMMC003/SDMMC003_Private.c ****   { 3,0,1,1,0,0,SDMMC003_MMC_SLEEP_AWAKE,0},    /*35*/
 165:../Dave/Generated/src/SDMMC003/SDMMC003_Private.c ****   { 3,0,1,1,0,0,SDMMC003_SWITCH_FUNC,0},        /*36*/
 166:../Dave/Generated/src/SDMMC003/SDMMC003_Private.c ****   { 2,0,1,1,1,0,SDMMC003_MMC_SEND_EXT_CSD,0},   /*37*/
 167:../Dave/Generated/src/SDMMC003/SDMMC003_Private.c ****   { 2,0,1,1,0,0,SDMMC003_ERASE_GROUP_START,0},  /*38*/
 168:../Dave/Generated/src/SDMMC003/SDMMC003_Private.c ****   { 2,0,1,1,0,0,SDMMC003_ERASE_GROUP_END,0},    /*39*/
 169:../Dave/Generated/src/SDMMC003/SDMMC003_Private.c ****   /* End of SDMMC_MMC  Card specific commands */
 170:../Dave/Generated/src/SDMMC003/SDMMC003_Private.c **** };
 171:../Dave/Generated/src/SDMMC003/SDMMC003_Private.c **** 
 172:../Dave/Generated/src/SDMMC003/SDMMC003_Private.c **** /* Sd Card's Command Index Hash Table having index of the command structure
 173:../Dave/Generated/src/SDMMC003/SDMMC003_Private.c ****  * Array Index 0-57 is for SD general Commands and Array Index 58-64 is for
 174:../Dave/Generated/src/SDMMC003/SDMMC003_Private.c ****  * Application Specific Commands.
 175:../Dave/Generated/src/SDMMC003/SDMMC003_Private.c ****  */
 176:../Dave/Generated/src/SDMMC003/SDMMC003_Private.c **** const uint8_t SDMMC003_SDHashTable[65] =
 177:../Dave/Generated/src/SDMMC003/SDMMC003_Private.c **** {
 178:../Dave/Generated/src/SDMMC003/SDMMC003_Private.c ****   0, 0xFF,1,2,3,0xFF,4,5,6,7,8,0xFF,9,10,0xFF,\
 179:../Dave/Generated/src/SDMMC003/SDMMC003_Private.c ****   11, 12, 13, 14,0xFF, 0xFF, 0xFF, 0xFF, 0xFF,\
 180:../Dave/Generated/src/SDMMC003/SDMMC003_Private.c ****   15, 16, 0xFF, 17, 18, 19, 20, 0xFF, 21, 22,\
 181:../Dave/Generated/src/SDMMC003/SDMMC003_Private.c ****   0xFF, 0xFF, 0xFF, 0xFF, 23, 0xFF, 0xFF, 0xFF,\
 182:../Dave/Generated/src/SDMMC003/SDMMC003_Private.c ****   24, 0xFF, 0xFF, 0xFF, 0xFF, 0xFF, 0xFF, 0xFF,\
 183:../Dave/Generated/src/SDMMC003/SDMMC003_Private.c ****   0xFF, 0xFF, 0xFF, 0xFF, 0xFF, 25, 26, 0xFF, \
 184:../Dave/Generated/src/SDMMC003/SDMMC003_Private.c ****   27, 28, 29,30,31,32,33
 185:../Dave/Generated/src/SDMMC003/SDMMC003_Private.c **** };
 186:../Dave/Generated/src/SDMMC003/SDMMC003_Private.c **** 
 187:../Dave/Generated/src/SDMMC003/SDMMC003_Private.c **** #if SDMMC_SUPPORT_MMC_CARD
 188:../Dave/Generated/src/SDMMC003/SDMMC003_Private.c **** const uint8_t SDMMC003_MMCHashTable[64] =
 189:../Dave/Generated/src/SDMMC003/SDMMC003_Private.c **** {
 190:../Dave/Generated/src/SDMMC003/SDMMC003_Private.c ****   0,34,1,2,3,35,36,5,37,7,8,0xFF,9,10,0xFF,11,12,\
 191:../Dave/Generated/src/SDMMC003/SDMMC003_Private.c ****   13,14,0xFF,0xFF,0xFF,0xFF,0xFF,15,16,0xFF,17,\
 192:../Dave/Generated/src/SDMMC003/SDMMC003_Private.c ****   18,19,20,0xFF,0xFF,0xFF,0xFF,38,39,0xFF,23,\
 193:../Dave/Generated/src/SDMMC003/SDMMC003_Private.c ****   0xFF,0xFF,0xFF,24,0xFF,0xFF,0xFF,0xFF,0xFF,\
 194:../Dave/Generated/src/SDMMC003/SDMMC003_Private.c ****   0xFF,0xFF,0xFF,0xFF,0xFF,0xFF,0xFF,25,26,0xFF,\
 195:../Dave/Generated/src/SDMMC003/SDMMC003_Private.c ****   0xFF,0xFF,0xFF,0xFF,0xFF,0xFF
 196:../Dave/Generated/src/SDMMC003/SDMMC003_Private.c **** };
 197:../Dave/Generated/src/SDMMC003/SDMMC003_Private.c **** #endif
 198:../Dave/Generated/src/SDMMC003/SDMMC003_Private.c **** 
 199:../Dave/Generated/src/SDMMC003/SDMMC003_Private.c **** /*******************************************************************************
 200:../Dave/Generated/src/SDMMC003/SDMMC003_Private.c **** **                      Private Function Definitions                          **
 201:../Dave/Generated/src/SDMMC003/SDMMC003_Private.c **** *******************************************************************************/
 202:../Dave/Generated/src/SDMMC003/SDMMC003_Private.c **** /*<<<DD_SDMMC_nonAPI_1>>> */
 203:../Dave/Generated/src/SDMMC003/SDMMC003_Private.c **** /*
 204:../Dave/Generated/src/SDMMC003/SDMMC003_Private.c ****  * This function resets the Host Controller's register depending on the
 205:../Dave/Generated/src/SDMMC003/SDMMC003_Private.c ****  * parameter passed.
 206:../Dave/Generated/src/SDMMC003/SDMMC003_Private.c ****  */
 207:../Dave/Generated/src/SDMMC003/SDMMC003_Private.c **** status_t SDMMC003_lReset( uint8_t Reset )
 208:../Dave/Generated/src/SDMMC003/SDMMC003_Private.c **** {
 189              		.loc 1 208 0
 190              		.cfi_startproc
 191              		@ args = 0, pretend = 0, frame = 16
 192              		@ frame_needed = 1, uses_anonymous_args = 0
 193 0000 80B5     		push	{r7, lr}
 194              	.LCFI0:
 195              		.cfi_def_cfa_offset 8
 196              		.cfi_offset 7, -8
 197              		.cfi_offset 14, -4
 198 0002 84B0     		sub	sp, sp, #16
 199              	.LCFI1:
 200              		.cfi_def_cfa_offset 24
 201 0004 00AF     		add	r7, sp, #0
 202              	.LCFI2:
 203              		.cfi_def_cfa_register 7
 204 0006 0346     		mov	r3, r0
 205 0008 FB71     		strb	r3, [r7, #7]
 209:../Dave/Generated/src/SDMMC003/SDMMC003_Private.c ****   status_t Status = (uint32_t)DAVEApp_SUCCESS;
 206              		.loc 1 209 0
 207 000a 4FF00003 		mov	r3, #0
 208 000e FB60     		str	r3, [r7, #12]
 210:../Dave/Generated/src/SDMMC003/SDMMC003_Private.c ****   handle_t TimerId;
 211:../Dave/Generated/src/SDMMC003/SDMMC003_Private.c ****   FUNCTION_ENTRY(GID_SDMMC00x, (uint32_t)SDMMC003_FUNCTION_ENTRY);
 212:../Dave/Generated/src/SDMMC003/SDMMC003_Private.c ****   SDMMC->SW_RESET =  (SDMMC->SW_RESET | Reset);
 209              		.loc 1 212 0
 210 0010 4FF44043 		mov	r3, #49152
 211 0014 C4F60103 		movt	r3, 18433
 212 0018 4FF44042 		mov	r2, #49152
 213 001c C4F60102 		movt	r2, 18433
 214 0020 92F82F20 		ldrb	r2, [r2, #47]
 215 0024 D1B2     		uxtb	r1, r2
 216 0026 FA79     		ldrb	r2, [r7, #7]
 217 0028 0A43     		orrs	r2, r2, r1
 218 002a D2B2     		uxtb	r2, r2
 219 002c 83F82F20 		strb	r2, [r3, #47]
 213:../Dave/Generated/src/SDMMC003/SDMMC003_Private.c ****   /* The Host Controller takes some time to complete software reset*/
 214:../Dave/Generated/src/SDMMC003/SDMMC003_Private.c ****   /* Wait till host controller clears each bit */
 215:../Dave/Generated/src/SDMMC003/SDMMC003_Private.c **** /* <<<DD_SDMMC_nonAPI_1_1>>>*/
 216:../Dave/Generated/src/SDMMC003/SDMMC003_Private.c ****   TimerId = SDMMC003_lStartTimer(SDMMC003_RESET_DELAY);
 220              		.loc 1 216 0
 221 0030 4FF4FA70 		mov	r0, #500
 222 0034 FFF7FEFF 		bl	SDMMC003_lStartTimer
 223 0038 B860     		str	r0, [r7, #8]
 217:../Dave/Generated/src/SDMMC003/SDMMC003_Private.c ****   if(0 == TimerId)
 224              		.loc 1 217 0
 225 003a BB68     		ldr	r3, [r7, #8]
 226 003c 002B     		cmp	r3, #0
 227 003e 03D1     		bne	.L2
 218:../Dave/Generated/src/SDMMC003/SDMMC003_Private.c ****   {
 219:../Dave/Generated/src/SDMMC003/SDMMC003_Private.c ****     Status = (uint32_t) SDMMC003_START_TIMER_FAILED;
 228              		.loc 1 219 0
 229 0040 4FF02F03 		mov	r3, #47
 230 0044 FB60     		str	r3, [r7, #12]
 231 0046 1AE0     		b	.L3
 232              	.L2:
 220:../Dave/Generated/src/SDMMC003/SDMMC003_Private.c ****     ERROR(GID_SDMMC00x, Status, 0, NULL);    
 221:../Dave/Generated/src/SDMMC003/SDMMC003_Private.c ****   }
 222:../Dave/Generated/src/SDMMC003/SDMMC003_Private.c ****   else
 223:../Dave/Generated/src/SDMMC003/SDMMC003_Private.c ****   {
 224:../Dave/Generated/src/SDMMC003/SDMMC003_Private.c ****     do
 225:../Dave/Generated/src/SDMMC003/SDMMC003_Private.c ****     {
 226:../Dave/Generated/src/SDMMC003/SDMMC003_Private.c ****       if (SDMMC003_Handle.TimerExpire == 0)
 233              		.loc 1 226 0
 234 0048 40F20003 		movw	r3, #:lower16:SDMMC003_Handle
 235 004c C0F20003 		movt	r3, #:upper16:SDMMC003_Handle
 236 0050 9B7A     		ldrb	r3, [r3, #10]
 237 0052 DBB2     		uxtb	r3, r3
 238 0054 002B     		cmp	r3, #0
 239 0056 03D1     		bne	.L4
 227:../Dave/Generated/src/SDMMC003/SDMMC003_Private.c ****       {
 228:../Dave/Generated/src/SDMMC003/SDMMC003_Private.c ****         Status = (uint32_t)SDMMC003_TIMEOUT_OCCURED;
 240              		.loc 1 228 0
 241 0058 4FF02E03 		mov	r3, #46
 242 005c FB60     		str	r3, [r7, #12]
 229:../Dave/Generated/src/SDMMC003/SDMMC003_Private.c ****         ERROR(GID_SDMMC00x, Status, 0, NULL);
 230:../Dave/Generated/src/SDMMC003/SDMMC003_Private.c ****         break;
 243              		.loc 1 230 0
 244 005e 0BE0     		b	.L5
 245              	.L4:
 231:../Dave/Generated/src/SDMMC003/SDMMC003_Private.c ****       }
 232:../Dave/Generated/src/SDMMC003/SDMMC003_Private.c ****     } while (SDMMC->SW_RESET & Reset);
 246              		.loc 1 232 0
 247 0060 4FF44043 		mov	r3, #49152
 248 0064 C4F60103 		movt	r3, 18433
 249 0068 93F82F30 		ldrb	r3, [r3, #47]
 250 006c DAB2     		uxtb	r2, r3
 251 006e FB79     		ldrb	r3, [r7, #7]
 252 0070 1340     		ands	r3, r3, r2
 253 0072 DBB2     		uxtb	r3, r3
 254 0074 002B     		cmp	r3, #0
 255 0076 E7D1     		bne	.L2
 256              	.L5:
 233:../Dave/Generated/src/SDMMC003/SDMMC003_Private.c ****     SDMMC003_lStopTimer(TimerId);
 257              		.loc 1 233 0
 258 0078 B868     		ldr	r0, [r7, #8]
 259 007a FFF7FEFF 		bl	SDMMC003_lStopTimer
 260              	.L3:
 234:../Dave/Generated/src/SDMMC003/SDMMC003_Private.c ****   }
 235:../Dave/Generated/src/SDMMC003/SDMMC003_Private.c ****   FUNCTION_EXIT(GID_SDMMC00x, (uint32_t)SDMMC003_FUNCTION_EXIT);
 236:../Dave/Generated/src/SDMMC003/SDMMC003_Private.c ****   return Status;
 261              		.loc 1 236 0
 262 007e FB68     		ldr	r3, [r7, #12]
 237:../Dave/Generated/src/SDMMC003/SDMMC003_Private.c **** }
 263              		.loc 1 237 0
 264 0080 1846     		mov	r0, r3
 265 0082 07F11007 		add	r7, r7, #16
 266 0086 BD46     		mov	sp, r7
 267 0088 80BD     		pop	{r7, pc}
 268              		.cfi_endproc
 269              	.LFE117:
 271 008a 00BF     		.section	.text.SDMMC003_lCardCleanUp,"ax",%progbits
 272              		.align	2
 273              		.global	SDMMC003_lCardCleanUp
 274              		.thumb
 275              		.thumb_func
 277              	SDMMC003_lCardCleanUp:
 278              	.LFB118:
 238:../Dave/Generated/src/SDMMC003/SDMMC003_Private.c **** /* <<<DD_SDMMC_nonAPI_2>>> */
 239:../Dave/Generated/src/SDMMC003/SDMMC003_Private.c **** /*
 240:../Dave/Generated/src/SDMMC003/SDMMC003_Private.c ****  * This function clears the card related structures and stops the SD clock.
 241:../Dave/Generated/src/SDMMC003/SDMMC003_Private.c ****  */
 242:../Dave/Generated/src/SDMMC003/SDMMC003_Private.c **** void SDMMC003_lCardCleanUp()
 243:../Dave/Generated/src/SDMMC003/SDMMC003_Private.c **** {
 279              		.loc 1 243 0
 280              		.cfi_startproc
 281              		@ args = 0, pretend = 0, frame = 0
 282              		@ frame_needed = 1, uses_anonymous_args = 0
 283 0000 80B5     		push	{r7, lr}
 284              	.LCFI3:
 285              		.cfi_def_cfa_offset 8
 286              		.cfi_offset 7, -8
 287              		.cfi_offset 14, -4
 288 0002 00AF     		add	r7, sp, #0
 289              	.LCFI4:
 290              		.cfi_def_cfa_register 7
 244:../Dave/Generated/src/SDMMC003/SDMMC003_Private.c ****   FUNCTION_ENTRY(GID_SDMMC00x, (uint32_t)SDMMC003_FUNCTION_ENTRY);
 245:../Dave/Generated/src/SDMMC003/SDMMC003_Private.c ****   memset((void*)&SDMMC003_CardInfo,0,sizeof(SDMMC003_CardInfo));
 291              		.loc 1 245 0
 292 0004 40F20000 		movw	r0, #:lower16:SDMMC003_CardInfo
 293 0008 C0F20000 		movt	r0, #:upper16:SDMMC003_CardInfo
 294 000c 4FF00001 		mov	r1, #0
 295 0010 4FF03002 		mov	r2, #48
 296 0014 FFF7FEFF 		bl	memset
 246:../Dave/Generated/src/SDMMC003/SDMMC003_Private.c ****   SDMMC003_Handle.CardType = 0;
 297              		.loc 1 246 0
 298 0018 40F20003 		movw	r3, #:lower16:SDMMC003_Handle
 299 001c C0F20003 		movt	r3, #:upper16:SDMMC003_Handle
 300 0020 4FF00002 		mov	r2, #0
 301 0024 9A70     		strb	r2, [r3, #2]
 247:../Dave/Generated/src/SDMMC003/SDMMC003_Private.c ****   SDMMC003_Handle.f8 = 0;
 302              		.loc 1 247 0
 303 0026 40F20003 		movw	r3, #:lower16:SDMMC003_Handle
 304 002a C0F20003 		movt	r3, #:upper16:SDMMC003_Handle
 305 002e 4FF00002 		mov	r2, #0
 306 0032 5A72     		strb	r2, [r3, #9]
 248:../Dave/Generated/src/SDMMC003/SDMMC003_Private.c ****   SDMMC003_Handle.CommandInterruptError = SDMMC003_ERROR;
 307              		.loc 1 248 0
 308 0034 40F20003 		movw	r3, #:lower16:SDMMC003_Handle
 309 0038 C0F20003 		movt	r3, #:upper16:SDMMC003_Handle
 310 003c 4FF00102 		mov	r2, #1
 311 0040 1A71     		strb	r2, [r3, #4]
 249:../Dave/Generated/src/SDMMC003/SDMMC003_Private.c ****   SDMMC003_Handle.DataInterruptError = SDMMC003_ERROR;
 312              		.loc 1 249 0
 313 0042 40F20003 		movw	r3, #:lower16:SDMMC003_Handle
 314 0046 C0F20003 		movt	r3, #:upper16:SDMMC003_Handle
 315 004a 4FF00102 		mov	r2, #1
 316 004e DA70     		strb	r2, [r3, #3]
 250:../Dave/Generated/src/SDMMC003/SDMMC003_Private.c ****   SDMMC003_Handle.ErrorRecoveryStatus = SDMMC003_ERROR;
 317              		.loc 1 250 0
 318 0050 40F20003 		movw	r3, #:lower16:SDMMC003_Handle
 319 0054 C0F20003 		movt	r3, #:upper16:SDMMC003_Handle
 320 0058 4FF00102 		mov	r2, #1
 321 005c DA71     		strb	r2, [r3, #7]
 251:../Dave/Generated/src/SDMMC003/SDMMC003_Private.c ****   SDMMC003_Handle.TransferInterruptError = SDMMC003_ERROR;
 322              		.loc 1 251 0
 323 005e 40F20003 		movw	r3, #:lower16:SDMMC003_Handle
 324 0062 C0F20003 		movt	r3, #:upper16:SDMMC003_Handle
 325 0066 4FF00102 		mov	r2, #1
 326 006a 5A71     		strb	r2, [r3, #5]
 252:../Dave/Generated/src/SDMMC003/SDMMC003_Private.c ****   SDMMC003_Handle.State  = 0;
 327              		.loc 1 252 0
 328 006c 40F20003 		movw	r3, #:lower16:SDMMC003_Handle
 329 0070 C0F20003 		movt	r3, #:upper16:SDMMC003_Handle
 330 0074 4FF00002 		mov	r2, #0
 331 0078 1A80     		strh	r2, [r3, #0]	@ movhi
 253:../Dave/Generated/src/SDMMC003/SDMMC003_Private.c ****   /* Stop the SD Clock Enable */
 254:../Dave/Generated/src/SDMMC003/SDMMC003_Private.c ****   CLR_BIT( SDMMC->CLOCK_CTRL,SDMMC_CLOCK_CTRL_SDCLOCK_EN_Pos  );
 332              		.loc 1 254 0
 333 007a 4FF44043 		mov	r3, #49152
 334 007e C4F60103 		movt	r3, 18433
 335 0082 4FF44042 		mov	r2, #49152
 336 0086 C4F60102 		movt	r2, 18433
 337 008a 928D     		ldrh	r2, [r2, #44]	@ movhi
 338 008c 92B2     		uxth	r2, r2
 339 008e 22F00402 		bic	r2, r2, #4
 340 0092 92B2     		uxth	r2, r2
 341 0094 9A85     		strh	r2, [r3, #44]	@ movhi
 255:../Dave/Generated/src/SDMMC003/SDMMC003_Private.c ****   FUNCTION_EXIT(GID_SDMMC00x, (uint32_t)SDMMC003_FUNCTION_EXIT);
 256:../Dave/Generated/src/SDMMC003/SDMMC003_Private.c **** }
 342              		.loc 1 256 0
 343 0096 80BD     		pop	{r7, pc}
 344              		.cfi_endproc
 345              	.LFE118:
 347              		.section	.text.SDMMC003_lCheckDatCmdline,"ax",%progbits
 348              		.align	2
 349              		.global	SDMMC003_lCheckDatCmdline
 350              		.thumb
 351              		.thumb_func
 353              	SDMMC003_lCheckDatCmdline:
 354              	.LFB119:
 257:../Dave/Generated/src/SDMMC003/SDMMC003_Private.c **** 
 258:../Dave/Generated/src/SDMMC003/SDMMC003_Private.c **** /* <<<DD_SDMMC_nonAPI_3>>> */
 259:../Dave/Generated/src/SDMMC003/SDMMC003_Private.c **** /*
 260:../Dave/Generated/src/SDMMC003/SDMMC003_Private.c ****  * This function checks whether the CMD and DATA lines are free before issuing
 261:../Dave/Generated/src/SDMMC003/SDMMC003_Private.c ****  * any command.
 262:../Dave/Generated/src/SDMMC003/SDMMC003_Private.c ****  */
 263:../Dave/Generated/src/SDMMC003/SDMMC003_Private.c **** status_t SDMMC003_lCheckDatCmdline(const SDMMC003_CommandType *CommandPtr)
 264:../Dave/Generated/src/SDMMC003/SDMMC003_Private.c **** {
 355              		.loc 1 264 0
 356              		.cfi_startproc
 357              		@ args = 0, pretend = 0, frame = 16
 358              		@ frame_needed = 1, uses_anonymous_args = 0
 359              		@ link register save eliminated.
 360 0000 80B4     		push	{r7}
 361              	.LCFI5:
 362              		.cfi_def_cfa_offset 4
 363              		.cfi_offset 7, -4
 364 0002 85B0     		sub	sp, sp, #20
 365              	.LCFI6:
 366              		.cfi_def_cfa_offset 24
 367 0004 00AF     		add	r7, sp, #0
 368              	.LCFI7:
 369              		.cfi_def_cfa_register 7
 370 0006 7860     		str	r0, [r7, #4]
 265:../Dave/Generated/src/SDMMC003/SDMMC003_Private.c ****   status_t Status = (uint32_t)DAVEApp_SUCCESS;
 371              		.loc 1 265 0
 372 0008 4FF00003 		mov	r3, #0
 373 000c FB60     		str	r3, [r7, #12]
 266:../Dave/Generated/src/SDMMC003/SDMMC003_Private.c ****   FUNCTION_ENTRY(GID_SDMMC00x, (uint32_t)SDMMC003_FUNCTION_ENTRY);
 267:../Dave/Generated/src/SDMMC003/SDMMC003_Private.c ****   do
 268:../Dave/Generated/src/SDMMC003/SDMMC003_Private.c ****   {
 269:../Dave/Generated/src/SDMMC003/SDMMC003_Private.c **** #if SDMMC_UVP_TEST
 270:../Dave/Generated/src/SDMMC003/SDMMC003_Private.c ****     if( Test_TriggerInterrupt.Trigger_DataCmdLineBusy == TRUE)
 271:../Dave/Generated/src/SDMMC003/SDMMC003_Private.c ****     {
 272:../Dave/Generated/src/SDMMC003/SDMMC003_Private.c ****       Status = (uint32_t)SDMMC003_CMD_LINE_BUSY;
 273:../Dave/Generated/src/SDMMC003/SDMMC003_Private.c ****       break;
 274:../Dave/Generated/src/SDMMC003/SDMMC003_Private.c ****     }
 275:../Dave/Generated/src/SDMMC003/SDMMC003_Private.c **** #endif
 276:../Dave/Generated/src/SDMMC003/SDMMC003_Private.c **** /* Read from Present state register to Check Cmd line is free */
 277:../Dave/Generated/src/SDMMC003/SDMMC003_Private.c **** /* <<<DD_SDMMC_nonAPI_3_1>>> */
 278:../Dave/Generated/src/SDMMC003/SDMMC003_Private.c ****     if ( SDMMC->PRESENT_STATE  & SDMMC_PRESENT_STATE_COMMAND_INHIBIT_CMD_Msk)
 374              		.loc 1 278 0
 375 000e 4FF44043 		mov	r3, #49152
 376 0012 C4F60103 		movt	r3, 18433
 377 0016 5B6A     		ldr	r3, [r3, #36]
 378 0018 03F00103 		and	r3, r3, #1
 379 001c 002B     		cmp	r3, #0
 380 001e 03D0     		beq	.L9
 279:../Dave/Generated/src/SDMMC003/SDMMC003_Private.c ****     {
 280:../Dave/Generated/src/SDMMC003/SDMMC003_Private.c ****       Status = (uint32_t)SDMMC003_CMD_LINE_BUSY;
 381              		.loc 1 280 0
 382 0020 4FF01A03 		mov	r3, #26
 383 0024 FB60     		str	r3, [r7, #12]
 281:../Dave/Generated/src/SDMMC003/SDMMC003_Private.c ****       break;
 384              		.loc 1 281 0
 385 0026 4BE0     		b	.L10
 386              	.L9:
 282:../Dave/Generated/src/SDMMC003/SDMMC003_Private.c ****     }
 283:../Dave/Generated/src/SDMMC003/SDMMC003_Private.c **** /* Check for  data line for Send Status command  and all those commands using  
 284:../Dave/Generated/src/SDMMC003/SDMMC003_Private.c ****    data line */
 285:../Dave/Generated/src/SDMMC003/SDMMC003_Private.c **** /* <<<DD_SDMMC_nonAPI_3_2>>> */
 286:../Dave/Generated/src/SDMMC003/SDMMC003_Private.c ****     if (( 1UL == CommandPtr->DataPresentSelect) ||  \
 387              		.loc 1 286 0
 388 0028 7B68     		ldr	r3, [r7, #4]
 389 002a 1B78     		ldrb	r3, [r3, #0]	@ zero_extendqisi2
 390 002c 03F02003 		and	r3, r3, #32
 391 0030 DBB2     		uxtb	r3, r3
 392 0032 002B     		cmp	r3, #0
 393 0034 0DD1     		bne	.L11
 287:../Dave/Generated/src/SDMMC003/SDMMC003_Private.c ****         ( (SDMMC003_SEND_STATUS == CommandPtr->CommandIndex) || \
 394              		.loc 1 287 0 discriminator 1
 395 0036 7B68     		ldr	r3, [r7, #4]
 396 0038 5B78     		ldrb	r3, [r3, #1]	@ zero_extendqisi2
 397 003a 03F03F03 		and	r3, r3, #63
 398 003e DBB2     		uxtb	r3, r3
 286:../Dave/Generated/src/SDMMC003/SDMMC003_Private.c ****     if (( 1UL == CommandPtr->DataPresentSelect) ||  \
 399              		.loc 1 286 0 discriminator 1
 400 0040 0D2B     		cmp	r3, #13
 401 0042 06D0     		beq	.L11
 288:../Dave/Generated/src/SDMMC003/SDMMC003_Private.c ****           (3UL == CommandPtr->ResponseTypeSelect) )
 402              		.loc 1 288 0
 403 0044 7B68     		ldr	r3, [r7, #4]
 404 0046 1B78     		ldrb	r3, [r3, #0]	@ zero_extendqisi2
 405 0048 03F00303 		and	r3, r3, #3
 406 004c DBB2     		uxtb	r3, r3
 287:../Dave/Generated/src/SDMMC003/SDMMC003_Private.c ****         ( (SDMMC003_SEND_STATUS == CommandPtr->CommandIndex) || \
 407              		.loc 1 287 0
 408 004e 032B     		cmp	r3, #3
 409 0050 28D1     		bne	.L12
 410              	.L11:
 289:../Dave/Generated/src/SDMMC003/SDMMC003_Private.c ****        )
 290:../Dave/Generated/src/SDMMC003/SDMMC003_Private.c ****     {
 291:../Dave/Generated/src/SDMMC003/SDMMC003_Private.c **** /* <<<DD_SDMMC_nonAPI_3_3>>> */
 292:../Dave/Generated/src/SDMMC003/SDMMC003_Private.c ****       /* Read from Present state register to Check data line is free */
 293:../Dave/Generated/src/SDMMC003/SDMMC003_Private.c ****       if ( (SDMMC->PRESENT_STATE  & SDMMC_PRESENT_STATE_COMMAND_INHIBIT_DAT_Msk )!= 0)
 411              		.loc 1 293 0
 412 0052 4FF44043 		mov	r3, #49152
 413 0056 C4F60103 		movt	r3, 18433
 414 005a 5B6A     		ldr	r3, [r3, #36]
 415 005c 03F00203 		and	r3, r3, #2
 416 0060 002B     		cmp	r3, #0
 417 0062 03D0     		beq	.L13
 294:../Dave/Generated/src/SDMMC003/SDMMC003_Private.c ****       {
 295:../Dave/Generated/src/SDMMC003/SDMMC003_Private.c ****         Status = (uint32_t)SDMMC003_DATA_LINE_BUSY;
 418              		.loc 1 295 0
 419 0064 4FF01B03 		mov	r3, #27
 420 0068 FB60     		str	r3, [r7, #12]
 296:../Dave/Generated/src/SDMMC003/SDMMC003_Private.c ****         break;
 421              		.loc 1 296 0
 422 006a 29E0     		b	.L10
 423              	.L13:
 297:../Dave/Generated/src/SDMMC003/SDMMC003_Private.c ****       }
 298:../Dave/Generated/src/SDMMC003/SDMMC003_Private.c **** /* <<<DD_SDMMC_nonAPI_3_4>>> */
 299:../Dave/Generated/src/SDMMC003/SDMMC003_Private.c ****       else
 300:../Dave/Generated/src/SDMMC003/SDMMC003_Private.c ****       {
 301:../Dave/Generated/src/SDMMC003/SDMMC003_Private.c ****         /* Update the data line state to active */
 302:../Dave/Generated/src/SDMMC003/SDMMC003_Private.c ****         if( (1UL == CommandPtr->DataPresentSelect) || \
 424              		.loc 1 302 0
 425 006c 7B68     		ldr	r3, [r7, #4]
 426 006e 1B78     		ldrb	r3, [r3, #0]	@ zero_extendqisi2
 427 0070 03F02003 		and	r3, r3, #32
 428 0074 DBB2     		uxtb	r3, r3
 429 0076 002B     		cmp	r3, #0
 430 0078 06D1     		bne	.L14
 303:../Dave/Generated/src/SDMMC003/SDMMC003_Private.c ****             (3UL == CommandPtr->ResponseTypeSelect) )
 431              		.loc 1 303 0 discriminator 1
 432 007a 7B68     		ldr	r3, [r7, #4]
 433 007c 1B78     		ldrb	r3, [r3, #0]	@ zero_extendqisi2
 434 007e 03F00303 		and	r3, r3, #3
 435 0082 DBB2     		uxtb	r3, r3
 302:../Dave/Generated/src/SDMMC003/SDMMC003_Private.c ****         if( (1UL == CommandPtr->DataPresentSelect) || \
 436              		.loc 1 302 0 discriminator 1
 437 0084 032B     		cmp	r3, #3
 438 0086 0DD1     		bne	.L12
 439              	.L14:
 304:../Dave/Generated/src/SDMMC003/SDMMC003_Private.c ****         {
 305:../Dave/Generated/src/SDMMC003/SDMMC003_Private.c ****           SDMMC003_Handle.State |=(uint32_t)SDMMC003_STATE_DATA_ACTIVE;
 440              		.loc 1 305 0
 441 0088 40F20003 		movw	r3, #:lower16:SDMMC003_Handle
 442 008c C0F20003 		movt	r3, #:upper16:SDMMC003_Handle
 443 0090 1B88     		ldrh	r3, [r3, #0]	@ movhi
 444 0092 9BB2     		uxth	r3, r3
 445 0094 43F00803 		orr	r3, r3, #8
 446 0098 9AB2     		uxth	r2, r3
 447 009a 40F20003 		movw	r3, #:lower16:SDMMC003_Handle
 448 009e C0F20003 		movt	r3, #:upper16:SDMMC003_Handle
 449 00a2 1A80     		strh	r2, [r3, #0]	@ movhi
 450              	.L12:
 306:../Dave/Generated/src/SDMMC003/SDMMC003_Private.c ****         }
 307:../Dave/Generated/src/SDMMC003/SDMMC003_Private.c ****       }
 308:../Dave/Generated/src/SDMMC003/SDMMC003_Private.c ****     }
 309:../Dave/Generated/src/SDMMC003/SDMMC003_Private.c ****     /* Update the Command line state to active */
 310:../Dave/Generated/src/SDMMC003/SDMMC003_Private.c ****     SDMMC003_Handle.State |=(uint32_t)SDMMC003_STATE_CMD_ACTIVE;
 451              		.loc 1 310 0
 452 00a4 40F20003 		movw	r3, #:lower16:SDMMC003_Handle
 453 00a8 C0F20003 		movt	r3, #:upper16:SDMMC003_Handle
 454 00ac 1B88     		ldrh	r3, [r3, #0]	@ movhi
 455 00ae 9BB2     		uxth	r3, r3
 456 00b0 43F00403 		orr	r3, r3, #4
 457 00b4 9AB2     		uxth	r2, r3
 458 00b6 40F20003 		movw	r3, #:lower16:SDMMC003_Handle
 459 00ba C0F20003 		movt	r3, #:upper16:SDMMC003_Handle
 460 00be 1A80     		strh	r2, [r3, #0]	@ movhi
 461              	.L10:
 311:../Dave/Generated/src/SDMMC003/SDMMC003_Private.c ****   } while(0);
 312:../Dave/Generated/src/SDMMC003/SDMMC003_Private.c ****   FUNCTION_EXIT(GID_SDMMC00x, (uint32_t)SDMMC003_FUNCTION_EXIT);
 313:../Dave/Generated/src/SDMMC003/SDMMC003_Private.c ****   return Status;
 462              		.loc 1 313 0
 463 00c0 FB68     		ldr	r3, [r7, #12]
 314:../Dave/Generated/src/SDMMC003/SDMMC003_Private.c **** }
 464              		.loc 1 314 0
 465 00c2 1846     		mov	r0, r3
 466 00c4 07F11407 		add	r7, r7, #20
 467 00c8 BD46     		mov	sp, r7
 468 00ca 80BC     		pop	{r7}
 469 00cc 7047     		bx	lr
 470              		.cfi_endproc
 471              	.LFE119:
 473 00ce 00BF     		.section	.text.SDMMC003_lCheckArgumentError,"ax",%progbits
 474              		.align	2
 475              		.global	SDMMC003_lCheckArgumentError
 476              		.thumb
 477              		.thumb_func
 479              	SDMMC003_lCheckArgumentError:
 480              	.LFB120:
 315:../Dave/Generated/src/SDMMC003/SDMMC003_Private.c **** 
 316:../Dave/Generated/src/SDMMC003/SDMMC003_Private.c **** /* <<<DD_SDMMC_nonAPI_4>>> */
 317:../Dave/Generated/src/SDMMC003/SDMMC003_Private.c **** /*
 318:../Dave/Generated/src/SDMMC003/SDMMC003_Private.c ****  * This function checks response error types in Command's Arguments category
 319:../Dave/Generated/src/SDMMC003/SDMMC003_Private.c ****  */
 320:../Dave/Generated/src/SDMMC003/SDMMC003_Private.c **** void SDMMC003_lCheckArgumentError
 321:../Dave/Generated/src/SDMMC003/SDMMC003_Private.c **** (
 322:../Dave/Generated/src/SDMMC003/SDMMC003_Private.c ****   const uint32_t  *CardStatusPtr,
 323:../Dave/Generated/src/SDMMC003/SDMMC003_Private.c ****   uint8_t *ErrorPtr
 324:../Dave/Generated/src/SDMMC003/SDMMC003_Private.c **** )
 325:../Dave/Generated/src/SDMMC003/SDMMC003_Private.c **** {
 481              		.loc 1 325 0
 482              		.cfi_startproc
 483              		@ args = 0, pretend = 0, frame = 8
 484              		@ frame_needed = 1, uses_anonymous_args = 0
 485              		@ link register save eliminated.
 486 0000 80B4     		push	{r7}
 487              	.LCFI8:
 488              		.cfi_def_cfa_offset 4
 489              		.cfi_offset 7, -4
 490 0002 83B0     		sub	sp, sp, #12
 491              	.LCFI9:
 492              		.cfi_def_cfa_offset 16
 493 0004 00AF     		add	r7, sp, #0
 494              	.LCFI10:
 495              		.cfi_def_cfa_register 7
 496 0006 7860     		str	r0, [r7, #4]
 497 0008 3960     		str	r1, [r7, #0]
 326:../Dave/Generated/src/SDMMC003/SDMMC003_Private.c ****   FUNCTION_ENTRY(GID_SDMMC00x, (uint32_t)SDMMC003_FUNCTION_ENTRY);
 327:../Dave/Generated/src/SDMMC003/SDMMC003_Private.c **** /* The command's argument was out of the allowed range for this card.*/
 328:../Dave/Generated/src/SDMMC003/SDMMC003_Private.c **** /* <<<DD_SDMMC_nonAPI_4_1>>> */
 329:../Dave/Generated/src/SDMMC003/SDMMC003_Private.c ****   if ((*CardStatusPtr & SDMMC003_CSR_OUT_OF_RANGE_BITMASK ) != 0)
 498              		.loc 1 329 0
 499 000a 7B68     		ldr	r3, [r7, #4]
 500 000c 1B68     		ldr	r3, [r3, #0]
 501 000e 002B     		cmp	r3, #0
 502 0010 03DA     		bge	.L17
 330:../Dave/Generated/src/SDMMC003/SDMMC003_Private.c ****   {
 331:../Dave/Generated/src/SDMMC003/SDMMC003_Private.c ****     *ErrorPtr = 1UL;
 503              		.loc 1 331 0
 504 0012 3B68     		ldr	r3, [r7, #0]
 505 0014 4FF00102 		mov	r2, #1
 506 0018 1A70     		strb	r2, [r3, #0]
 507              	.L17:
 332:../Dave/Generated/src/SDMMC003/SDMMC003_Private.c ****     ERROR(GID_SDMMC00x, SDMMC003_OUT_OF_RANGE_ERROR,0,NULL);
 333:../Dave/Generated/src/SDMMC003/SDMMC003_Private.c ****   } /*End of "if( *CardStatusPtr & CSR_OUT_OF_RANGE_BITMASK ) "*/
 334:../Dave/Generated/src/SDMMC003/SDMMC003_Private.c **** 
 335:../Dave/Generated/src/SDMMC003/SDMMC003_Private.c ****   /* A mis-aligned address which did not match the block length was used in
 336:../Dave/Generated/src/SDMMC003/SDMMC003_Private.c ****    * the command.*/
 337:../Dave/Generated/src/SDMMC003/SDMMC003_Private.c **** /* <<<DD_SDMMC_nonAPI_4_2>>> */
 338:../Dave/Generated/src/SDMMC003/SDMMC003_Private.c ****   if ((*CardStatusPtr & SDMMC003_CSR_ADDRESS_ERROR_BITMASK) != 0)
 508              		.loc 1 338 0
 509 001a 7B68     		ldr	r3, [r7, #4]
 510 001c 1B68     		ldr	r3, [r3, #0]
 511 001e 03F08043 		and	r3, r3, #1073741824
 512 0022 002B     		cmp	r3, #0
 513 0024 03D0     		beq	.L18
 339:../Dave/Generated/src/SDMMC003/SDMMC003_Private.c ****   {
 340:../Dave/Generated/src/SDMMC003/SDMMC003_Private.c ****     *ErrorPtr = 1UL;
 514              		.loc 1 340 0
 515 0026 3B68     		ldr	r3, [r7, #0]
 516 0028 4FF00102 		mov	r2, #1
 517 002c 1A70     		strb	r2, [r3, #0]
 518              	.L18:
 341:../Dave/Generated/src/SDMMC003/SDMMC003_Private.c ****     ERROR(GID_SDMMC00x, SDMMC003_ADDRESS_ERROR,0,NULL);
 342:../Dave/Generated/src/SDMMC003/SDMMC003_Private.c ****   } /*End of " if ( *CardStatusPtr & CSR_ADDRESS_ERROR_BITMASK) "*/
 343:../Dave/Generated/src/SDMMC003/SDMMC003_Private.c **** 
 344:../Dave/Generated/src/SDMMC003/SDMMC003_Private.c ****   /* The transferred block length is not allowed for this card, or the number
 345:../Dave/Generated/src/SDMMC003/SDMMC003_Private.c ****    * of transferred bytes does not match the block length.*/
 346:../Dave/Generated/src/SDMMC003/SDMMC003_Private.c **** /* <<<DD_SDMMC_nonAPI_4_3>>> */
 347:../Dave/Generated/src/SDMMC003/SDMMC003_Private.c ****   if ((*CardStatusPtr & SDMMC003_CSR_BLOCK_LEN_ERROR_BITMASK) != 0)
 519              		.loc 1 347 0
 520 002e 7B68     		ldr	r3, [r7, #4]
 521 0030 1B68     		ldr	r3, [r3, #0]
 522 0032 03F00053 		and	r3, r3, #536870912
 523 0036 002B     		cmp	r3, #0
 524 0038 03D0     		beq	.L19
 348:../Dave/Generated/src/SDMMC003/SDMMC003_Private.c ****   {
 349:../Dave/Generated/src/SDMMC003/SDMMC003_Private.c ****     *ErrorPtr = 1UL;
 525              		.loc 1 349 0
 526 003a 3B68     		ldr	r3, [r7, #0]
 527 003c 4FF00102 		mov	r2, #1
 528 0040 1A70     		strb	r2, [r3, #0]
 529              	.L19:
 350:../Dave/Generated/src/SDMMC003/SDMMC003_Private.c ****     ERROR(GID_SDMMC00x,SDMMC003_BLOCK_LEN_ERROR,0,NULL);
 351:../Dave/Generated/src/SDMMC003/SDMMC003_Private.c ****   }/*End of " if (*CardStatusPtr & CSR_BLOCK_LEN_ERROR_BITMASK) "*/
 352:../Dave/Generated/src/SDMMC003/SDMMC003_Private.c **** 
 353:../Dave/Generated/src/SDMMC003/SDMMC003_Private.c ****   /* Set when the host attempts to write to a protected block or to the
 354:../Dave/Generated/src/SDMMC003/SDMMC003_Private.c ****      temporary or permanent write protected card.*/
 355:../Dave/Generated/src/SDMMC003/SDMMC003_Private.c **** /* <<<DD_SDMMC_nonAPI_4_4>>> */
 356:../Dave/Generated/src/SDMMC003/SDMMC003_Private.c ****   if (( *CardStatusPtr & SDMMC003_CSR_WP_VIOLATION_BITMASK ) != 0)
 530              		.loc 1 356 0
 531 0042 7B68     		ldr	r3, [r7, #4]
 532 0044 1B68     		ldr	r3, [r3, #0]
 533 0046 03F08063 		and	r3, r3, #67108864
 534 004a 002B     		cmp	r3, #0
 535 004c 03D0     		beq	.L16
 357:../Dave/Generated/src/SDMMC003/SDMMC003_Private.c ****   {
 358:../Dave/Generated/src/SDMMC003/SDMMC003_Private.c ****     *ErrorPtr = 1UL;
 536              		.loc 1 358 0
 537 004e 3B68     		ldr	r3, [r7, #0]
 538 0050 4FF00102 		mov	r2, #1
 539 0054 1A70     		strb	r2, [r3, #0]
 540              	.L16:
 359:../Dave/Generated/src/SDMMC003/SDMMC003_Private.c ****     ERROR(GID_SDMMC00x,SDMMC003_WP_VIOLATION_ERROR,0,NULL);
 360:../Dave/Generated/src/SDMMC003/SDMMC003_Private.c ****   }/*End of "if ( *CardStatusPtr & CSR_WP_VIOLATION_BITMASK ) "*/
 361:../Dave/Generated/src/SDMMC003/SDMMC003_Private.c ****   FUNCTION_EXIT(GID_SDMMC00x, (uint32_t)SDMMC003_FUNCTION_EXIT);
 362:../Dave/Generated/src/SDMMC003/SDMMC003_Private.c **** }
 541              		.loc 1 362 0
 542 0056 07F10C07 		add	r7, r7, #12
 543 005a BD46     		mov	sp, r7
 544 005c 80BC     		pop	{r7}
 545 005e 7047     		bx	lr
 546              		.cfi_endproc
 547              	.LFE120:
 549              		.section	.text.SDMMC003_lCheckEraseError,"ax",%progbits
 550              		.align	2
 551              		.global	SDMMC003_lCheckEraseError
 552              		.thumb
 553              		.thumb_func
 555              	SDMMC003_lCheckEraseError:
 556              	.LFB121:
 363:../Dave/Generated/src/SDMMC003/SDMMC003_Private.c **** 
 364:../Dave/Generated/src/SDMMC003/SDMMC003_Private.c **** /* <<<DD_SDMMC_nonAPI_5>>> */
 365:../Dave/Generated/src/SDMMC003/SDMMC003_Private.c **** /*
 366:../Dave/Generated/src/SDMMC003/SDMMC003_Private.c ****  * This function checks response error types in Erase category
 367:../Dave/Generated/src/SDMMC003/SDMMC003_Private.c ****  */
 368:../Dave/Generated/src/SDMMC003/SDMMC003_Private.c **** void SDMMC003_lCheckEraseError
 369:../Dave/Generated/src/SDMMC003/SDMMC003_Private.c **** (
 370:../Dave/Generated/src/SDMMC003/SDMMC003_Private.c ****   const uint32_t *CardStatusPtr,
 371:../Dave/Generated/src/SDMMC003/SDMMC003_Private.c ****   uint8_t *ErrorPtr
 372:../Dave/Generated/src/SDMMC003/SDMMC003_Private.c **** )
 373:../Dave/Generated/src/SDMMC003/SDMMC003_Private.c **** {
 557              		.loc 1 373 0
 558              		.cfi_startproc
 559              		@ args = 0, pretend = 0, frame = 8
 560              		@ frame_needed = 1, uses_anonymous_args = 0
 561              		@ link register save eliminated.
 562 0000 80B4     		push	{r7}
 563              	.LCFI11:
 564              		.cfi_def_cfa_offset 4
 565              		.cfi_offset 7, -4
 566 0002 83B0     		sub	sp, sp, #12
 567              	.LCFI12:
 568              		.cfi_def_cfa_offset 16
 569 0004 00AF     		add	r7, sp, #0
 570              	.LCFI13:
 571              		.cfi_def_cfa_register 7
 572 0006 7860     		str	r0, [r7, #4]
 573 0008 3960     		str	r1, [r7, #0]
 374:../Dave/Generated/src/SDMMC003/SDMMC003_Private.c ****   FUNCTION_ENTRY(GID_SDMMC00x, (uint32_t)SDMMC003_FUNCTION_ENTRY);
 375:../Dave/Generated/src/SDMMC003/SDMMC003_Private.c ****   /* An error in the sequence of erase commands occurred.*/
 376:../Dave/Generated/src/SDMMC003/SDMMC003_Private.c **** /* <<<DD_SDMMC_nonAPI_5_1>>> */
 377:../Dave/Generated/src/SDMMC003/SDMMC003_Private.c ****   if ((*CardStatusPtr & SDMMC003_CSR_ERASE_SEQ_ERROR_BITMASK) != 0)
 574              		.loc 1 377 0
 575 000a 7B68     		ldr	r3, [r7, #4]
 576 000c 1B68     		ldr	r3, [r3, #0]
 577 000e 03F08053 		and	r3, r3, #268435456
 578 0012 002B     		cmp	r3, #0
 579 0014 03D0     		beq	.L22
 378:../Dave/Generated/src/SDMMC003/SDMMC003_Private.c ****   {
 379:../Dave/Generated/src/SDMMC003/SDMMC003_Private.c ****     *ErrorPtr = 1UL;
 580              		.loc 1 379 0
 581 0016 3B68     		ldr	r3, [r7, #0]
 582 0018 4FF00102 		mov	r2, #1
 583 001c 1A70     		strb	r2, [r3, #0]
 584              	.L22:
 380:../Dave/Generated/src/SDMMC003/SDMMC003_Private.c ****     ERROR(GID_SDMMC00x,SDMMC003_ERASE_SEQ_ERROR,0,NULL);
 381:../Dave/Generated/src/SDMMC003/SDMMC003_Private.c ****   }
 382:../Dave/Generated/src/SDMMC003/SDMMC003_Private.c ****   /* An invalid selection of write-blocks for erase occurred.*/
 383:../Dave/Generated/src/SDMMC003/SDMMC003_Private.c **** /* <<<DD_SDMMC_nonAPI_5_2>>> */
 384:../Dave/Generated/src/SDMMC003/SDMMC003_Private.c ****   if ((*CardStatusPtr & SDMMC003_CSR_ERASE_PARAM_BITMASK) != 0)
 585              		.loc 1 384 0
 586 001e 7B68     		ldr	r3, [r7, #4]
 587 0020 1B68     		ldr	r3, [r3, #0]
 588 0022 03F00063 		and	r3, r3, #134217728
 589 0026 002B     		cmp	r3, #0
 590 0028 03D0     		beq	.L23
 385:../Dave/Generated/src/SDMMC003/SDMMC003_Private.c ****   {
 386:../Dave/Generated/src/SDMMC003/SDMMC003_Private.c ****     *ErrorPtr = 1UL;
 591              		.loc 1 386 0
 592 002a 3B68     		ldr	r3, [r7, #0]
 593 002c 4FF00102 		mov	r2, #1
 594 0030 1A70     		strb	r2, [r3, #0]
 595              	.L23:
 387:../Dave/Generated/src/SDMMC003/SDMMC003_Private.c ****     ERROR(GID_SDMMC00x,SDMMC003_ERASE_PARAM_ERROR,0,NULL);
 388:../Dave/Generated/src/SDMMC003/SDMMC003_Private.c ****   }
 389:../Dave/Generated/src/SDMMC003/SDMMC003_Private.c ****   /* Set when only partial address space was erased due to existing
 390:../Dave/Generated/src/SDMMC003/SDMMC003_Private.c ****    * write protected blocks or the temporary or permanent write protected card
 391:../Dave/Generated/src/SDMMC003/SDMMC003_Private.c ****    *  was erased.*/
 392:../Dave/Generated/src/SDMMC003/SDMMC003_Private.c **** /* <<<DD_SDMMC_nonAPI_5_3>>> */
 393:../Dave/Generated/src/SDMMC003/SDMMC003_Private.c ****   if (( *CardStatusPtr & SDMMC003_CSR_WP_ERASE_SKIP_BITMASK) != 0)
 596              		.loc 1 393 0
 597 0032 7B68     		ldr	r3, [r7, #4]
 598 0034 1B68     		ldr	r3, [r3, #0]
 599 0036 03F40043 		and	r3, r3, #32768
 600 003a 002B     		cmp	r3, #0
 601 003c 03D0     		beq	.L21
 394:../Dave/Generated/src/SDMMC003/SDMMC003_Private.c ****   {
 395:../Dave/Generated/src/SDMMC003/SDMMC003_Private.c ****     *ErrorPtr = 1UL;
 602              		.loc 1 395 0
 603 003e 3B68     		ldr	r3, [r7, #0]
 604 0040 4FF00102 		mov	r2, #1
 605 0044 1A70     		strb	r2, [r3, #0]
 606              	.L21:
 396:../Dave/Generated/src/SDMMC003/SDMMC003_Private.c ****     ERROR(GID_SDMMC00x,SDMMC003_WP_ERASE_SKIP_ERROR,0,NULL);
 397:../Dave/Generated/src/SDMMC003/SDMMC003_Private.c ****   }
 398:../Dave/Generated/src/SDMMC003/SDMMC003_Private.c ****   FUNCTION_EXIT(GID_SDMMC00x, (uint32_t)SDMMC003_FUNCTION_EXIT);
 399:../Dave/Generated/src/SDMMC003/SDMMC003_Private.c **** }
 607              		.loc 1 399 0
 608 0046 07F10C07 		add	r7, r7, #12
 609 004a BD46     		mov	sp, r7
 610 004c 80BC     		pop	{r7}
 611 004e 7047     		bx	lr
 612              		.cfi_endproc
 613              	.LFE121:
 615              		.section	.text.SDMMC003_lCheckCardError,"ax",%progbits
 616              		.align	2
 617              		.global	SDMMC003_lCheckCardError
 618              		.thumb
 619              		.thumb_func
 621              	SDMMC003_lCheckCardError:
 622              	.LFB122:
 400:../Dave/Generated/src/SDMMC003/SDMMC003_Private.c **** 
 401:../Dave/Generated/src/SDMMC003/SDMMC003_Private.c **** /* <<<DD_SDMMC_nonAPI_6>>> */
 402:../Dave/Generated/src/SDMMC003/SDMMC003_Private.c **** /*
 403:../Dave/Generated/src/SDMMC003/SDMMC003_Private.c ****  * This function checks response error types in card's internal error category
 404:../Dave/Generated/src/SDMMC003/SDMMC003_Private.c ****  */
 405:../Dave/Generated/src/SDMMC003/SDMMC003_Private.c **** void SDMMC003_lCheckCardError
 406:../Dave/Generated/src/SDMMC003/SDMMC003_Private.c **** (
 407:../Dave/Generated/src/SDMMC003/SDMMC003_Private.c ****   const uint32_t *CardStatusPtr,
 408:../Dave/Generated/src/SDMMC003/SDMMC003_Private.c ****   uint8_t *ErrorPtr
 409:../Dave/Generated/src/SDMMC003/SDMMC003_Private.c **** )
 410:../Dave/Generated/src/SDMMC003/SDMMC003_Private.c **** {
 623              		.loc 1 410 0
 624              		.cfi_startproc
 625              		@ args = 0, pretend = 0, frame = 8
 626              		@ frame_needed = 1, uses_anonymous_args = 0
 627              		@ link register save eliminated.
 628 0000 80B4     		push	{r7}
 629              	.LCFI14:
 630              		.cfi_def_cfa_offset 4
 631              		.cfi_offset 7, -4
 632 0002 83B0     		sub	sp, sp, #12
 633              	.LCFI15:
 634              		.cfi_def_cfa_offset 16
 635 0004 00AF     		add	r7, sp, #0
 636              	.LCFI16:
 637              		.cfi_def_cfa_register 7
 638 0006 7860     		str	r0, [r7, #4]
 639 0008 3960     		str	r1, [r7, #0]
 411:../Dave/Generated/src/SDMMC003/SDMMC003_Private.c ****   FUNCTION_ENTRY(GID_SDMMC00x, (uint32_t)SDMMC003_FUNCTION_ENTRY);
 412:../Dave/Generated/src/SDMMC003/SDMMC003_Private.c **** /* Card internal ECC was applied but failed to correct the data.*/
 413:../Dave/Generated/src/SDMMC003/SDMMC003_Private.c **** /* <<<DD_SDMMC_nonAPI_6_1>>> */
 414:../Dave/Generated/src/SDMMC003/SDMMC003_Private.c ****   if ((*CardStatusPtr & SDMMC003_CSR_CARD_ECC_FAILED_BITMASK) != 0UL)
 640              		.loc 1 414 0
 641 000a 7B68     		ldr	r3, [r7, #4]
 642 000c 1B68     		ldr	r3, [r3, #0]
 643 000e 03F40013 		and	r3, r3, #2097152
 644 0012 002B     		cmp	r3, #0
 645 0014 03D0     		beq	.L26
 415:../Dave/Generated/src/SDMMC003/SDMMC003_Private.c ****   {
 416:../Dave/Generated/src/SDMMC003/SDMMC003_Private.c ****     *ErrorPtr = 1UL;
 646              		.loc 1 416 0
 647 0016 3B68     		ldr	r3, [r7, #0]
 648 0018 4FF00102 		mov	r2, #1
 649 001c 1A70     		strb	r2, [r3, #0]
 650              	.L26:
 417:../Dave/Generated/src/SDMMC003/SDMMC003_Private.c ****     ERROR(GID_SDMMC00x,SDMMC003_CARD_ECC_ERROR,0,NULL);
 418:../Dave/Generated/src/SDMMC003/SDMMC003_Private.c ****   }
 419:../Dave/Generated/src/SDMMC003/SDMMC003_Private.c ****   /* Internal card controller error*/
 420:../Dave/Generated/src/SDMMC003/SDMMC003_Private.c **** /* <<<DD_SDMMC_nonAPI_6_2>>> */
 421:../Dave/Generated/src/SDMMC003/SDMMC003_Private.c ****   if ((*CardStatusPtr & SDMMC003_CSR_CC_ERROR_BITMASK) != 0UL)
 651              		.loc 1 421 0
 652 001e 7B68     		ldr	r3, [r7, #4]
 653 0020 1B68     		ldr	r3, [r3, #0]
 654 0022 03F48013 		and	r3, r3, #1048576
 655 0026 002B     		cmp	r3, #0
 656 0028 03D0     		beq	.L27
 422:../Dave/Generated/src/SDMMC003/SDMMC003_Private.c ****   {
 423:../Dave/Generated/src/SDMMC003/SDMMC003_Private.c ****     *ErrorPtr = 1UL;
 657              		.loc 1 423 0
 658 002a 3B68     		ldr	r3, [r7, #0]
 659 002c 4FF00102 		mov	r2, #1
 660 0030 1A70     		strb	r2, [r3, #0]
 661              	.L27:
 424:../Dave/Generated/src/SDMMC003/SDMMC003_Private.c ****     ERROR(GID_SDMMC00x,SDMMC003_CC_ERROR,0,NULL);
 425:../Dave/Generated/src/SDMMC003/SDMMC003_Private.c ****   }
 426:../Dave/Generated/src/SDMMC003/SDMMC003_Private.c **** /* <<<DD_SDMMC_nonAPI_6_3>>> */
 427:../Dave/Generated/src/SDMMC003/SDMMC003_Private.c ****   /* A general or an unknown error occurred during the operation.*/
 428:../Dave/Generated/src/SDMMC003/SDMMC003_Private.c ****   if ((*CardStatusPtr & SDMMC003_CSR_ERROR_BITMASK) != 0)
 662              		.loc 1 428 0
 663 0032 7B68     		ldr	r3, [r7, #4]
 664 0034 1B68     		ldr	r3, [r3, #0]
 665 0036 03F40023 		and	r3, r3, #524288
 666 003a 002B     		cmp	r3, #0
 667 003c 03D0     		beq	.L25
 429:../Dave/Generated/src/SDMMC003/SDMMC003_Private.c ****   {
 430:../Dave/Generated/src/SDMMC003/SDMMC003_Private.c ****     *ErrorPtr = 1UL;
 668              		.loc 1 430 0
 669 003e 3B68     		ldr	r3, [r7, #0]
 670 0040 4FF00102 		mov	r2, #1
 671 0044 1A70     		strb	r2, [r3, #0]
 672              	.L25:
 431:../Dave/Generated/src/SDMMC003/SDMMC003_Private.c ****     ERROR(GID_SDMMC00x,SDMMC003_UNKNOWN_ERROR,0,NULL);
 432:../Dave/Generated/src/SDMMC003/SDMMC003_Private.c ****   }
 433:../Dave/Generated/src/SDMMC003/SDMMC003_Private.c ****   /* Debug Log message .*/
 434:../Dave/Generated/src/SDMMC003/SDMMC003_Private.c ****   FUNCTION_EXIT(GID_SDMMC00x, (uint32_t)SDMMC003_FUNCTION_EXIT);
 435:../Dave/Generated/src/SDMMC003/SDMMC003_Private.c **** }
 673              		.loc 1 435 0
 674 0046 07F10C07 		add	r7, r7, #12
 675 004a BD46     		mov	sp, r7
 676 004c 80BC     		pop	{r7}
 677 004e 7047     		bx	lr
 678              		.cfi_endproc
 679              	.LFE122:
 681              		.section	.text.SDMMC003_lCheckErrorInResponse,"ax",%progbits
 682              		.align	2
 683              		.global	SDMMC003_lCheckErrorInResponse
 684              		.thumb
 685              		.thumb_func
 687              	SDMMC003_lCheckErrorInResponse:
 688              	.LFB123:
 436:../Dave/Generated/src/SDMMC003/SDMMC003_Private.c **** 
 437:../Dave/Generated/src/SDMMC003/SDMMC003_Private.c **** /*<<<DD_SDMMC_nonAPI_7>>> */
 438:../Dave/Generated/src/SDMMC003/SDMMC003_Private.c **** /*
 439:../Dave/Generated/src/SDMMC003/SDMMC003_Private.c ****  * This function checks for any error in the command's response received.
 440:../Dave/Generated/src/SDMMC003/SDMMC003_Private.c ****  */
 441:../Dave/Generated/src/SDMMC003/SDMMC003_Private.c **** status_t SDMMC003_lCheckErrorInResponse( const uint32_t *CardStatusPtr)
 442:../Dave/Generated/src/SDMMC003/SDMMC003_Private.c **** {
 689              		.loc 1 442 0
 690              		.cfi_startproc
 691              		@ args = 0, pretend = 0, frame = 16
 692              		@ frame_needed = 1, uses_anonymous_args = 0
 693 0000 80B5     		push	{r7, lr}
 694              	.LCFI17:
 695              		.cfi_def_cfa_offset 8
 696              		.cfi_offset 7, -8
 697              		.cfi_offset 14, -4
 698 0002 84B0     		sub	sp, sp, #16
 699              	.LCFI18:
 700              		.cfi_def_cfa_offset 24
 701 0004 00AF     		add	r7, sp, #0
 702              	.LCFI19:
 703              		.cfi_def_cfa_register 7
 704 0006 7860     		str	r0, [r7, #4]
 443:../Dave/Generated/src/SDMMC003/SDMMC003_Private.c ****   status_t Status = (uint32_t)DAVEApp_SUCCESS;
 705              		.loc 1 443 0
 706 0008 4FF00003 		mov	r3, #0
 707 000c FB60     		str	r3, [r7, #12]
 444:../Dave/Generated/src/SDMMC003/SDMMC003_Private.c ****   uint8_t ErrorStatus = 0;      /* No Error */
 708              		.loc 1 444 0
 709 000e 4FF00003 		mov	r3, #0
 710 0012 FB72     		strb	r3, [r7, #11]
 445:../Dave/Generated/src/SDMMC003/SDMMC003_Private.c ****   FUNCTION_ENTRY(GID_SDMMC00x, (uint32_t)SDMMC003_FUNCTION_ENTRY);
 446:../Dave/Generated/src/SDMMC003/SDMMC003_Private.c ****   /* Argument Related Error Function */
 447:../Dave/Generated/src/SDMMC003/SDMMC003_Private.c ****   SDMMC003_lCheckArgumentError( CardStatusPtr, &ErrorStatus );
 711              		.loc 1 447 0
 712 0014 07F10B03 		add	r3, r7, #11
 713 0018 7868     		ldr	r0, [r7, #4]
 714 001a 1946     		mov	r1, r3
 715 001c FFF7FEFF 		bl	SDMMC003_lCheckArgumentError
 448:../Dave/Generated/src/SDMMC003/SDMMC003_Private.c **** 
 449:../Dave/Generated/src/SDMMC003/SDMMC003_Private.c ****   /* Erase Related Error function  */
 450:../Dave/Generated/src/SDMMC003/SDMMC003_Private.c ****   SDMMC003_lCheckEraseError( CardStatusPtr, &ErrorStatus);
 716              		.loc 1 450 0
 717 0020 07F10B03 		add	r3, r7, #11
 718 0024 7868     		ldr	r0, [r7, #4]
 719 0026 1946     		mov	r1, r3
 720 0028 FFF7FEFF 		bl	SDMMC003_lCheckEraseError
 451:../Dave/Generated/src/SDMMC003/SDMMC003_Private.c **** 
 452:../Dave/Generated/src/SDMMC003/SDMMC003_Private.c ****   /* Card Related Error function */
 453:../Dave/Generated/src/SDMMC003/SDMMC003_Private.c ****   SDMMC003_lCheckCardError(CardStatusPtr, &ErrorStatus);
 721              		.loc 1 453 0
 722 002c 07F10B03 		add	r3, r7, #11
 723 0030 7868     		ldr	r0, [r7, #4]
 724 0032 1946     		mov	r1, r3
 725 0034 FFF7FEFF 		bl	SDMMC003_lCheckCardError
 454:../Dave/Generated/src/SDMMC003/SDMMC003_Private.c **** 
 455:../Dave/Generated/src/SDMMC003/SDMMC003_Private.c ****   /* Set when a sequence or password error has been detected in lock/unlock
 456:../Dave/Generated/src/SDMMC003/SDMMC003_Private.c ****    * card command.*/
 457:../Dave/Generated/src/SDMMC003/SDMMC003_Private.c **** /*<<<DD_SDMMC_nonAPI_7_1>>> */
 458:../Dave/Generated/src/SDMMC003/SDMMC003_Private.c ****   if ((*CardStatusPtr & SDMMC003_CSR_LOCK_UNLOCK_FAILED_BITMASK) != 0)
 726              		.loc 1 458 0
 727 0038 7B68     		ldr	r3, [r7, #4]
 728 003a 1B68     		ldr	r3, [r3, #0]
 729 003c 03F08073 		and	r3, r3, #16777216
 730 0040 002B     		cmp	r3, #0
 731 0042 02D0     		beq	.L30
 459:../Dave/Generated/src/SDMMC003/SDMMC003_Private.c ****   {
 460:../Dave/Generated/src/SDMMC003/SDMMC003_Private.c ****     ErrorStatus = 1UL;
 732              		.loc 1 460 0
 733 0044 4FF00103 		mov	r3, #1
 734 0048 FB72     		strb	r3, [r7, #11]
 735              	.L30:
 461:../Dave/Generated/src/SDMMC003/SDMMC003_Private.c ****     ERROR(GID_SDMMC00x,SDMMC003_LOCK_UNLOCK_ERROR,0,NULL);
 462:../Dave/Generated/src/SDMMC003/SDMMC003_Private.c ****   }
 463:../Dave/Generated/src/SDMMC003/SDMMC003_Private.c ****   /* Can be either one of the following errors:
 464:../Dave/Generated/src/SDMMC003/SDMMC003_Private.c ****    * The read only section of the CSD does not match the card content.
 465:../Dave/Generated/src/SDMMC003/SDMMC003_Private.c ****    *  An attempt to reverse the copy  or permanent WP  bits was made.
 466:../Dave/Generated/src/SDMMC003/SDMMC003_Private.c ****    */
 467:../Dave/Generated/src/SDMMC003/SDMMC003_Private.c **** /*<<<DD_SDMMC_nonAPI_7_4>>> */
 468:../Dave/Generated/src/SDMMC003/SDMMC003_Private.c ****   if ((*CardStatusPtr & SDMMC003_CSR_CSD_OVERWRITE_BITMASK) != 0)
 736              		.loc 1 468 0
 737 004a 7B68     		ldr	r3, [r7, #4]
 738 004c 1B68     		ldr	r3, [r3, #0]
 739 004e 03F48033 		and	r3, r3, #65536
 740 0052 002B     		cmp	r3, #0
 741 0054 02D0     		beq	.L31
 469:../Dave/Generated/src/SDMMC003/SDMMC003_Private.c ****   {
 470:../Dave/Generated/src/SDMMC003/SDMMC003_Private.c ****     ErrorStatus = 1UL;
 742              		.loc 1 470 0
 743 0056 4FF00103 		mov	r3, #1
 744 005a FB72     		strb	r3, [r7, #11]
 745              	.L31:
 471:../Dave/Generated/src/SDMMC003/SDMMC003_Private.c ****     ERROR(GID_SDMMC00x,SDMMC003_CSD_OVERWRITE,0,NULL);
 472:../Dave/Generated/src/SDMMC003/SDMMC003_Private.c ****   }
 473:../Dave/Generated/src/SDMMC003/SDMMC003_Private.c **** /*<<<DD_SDMMC_nonAPI_7_5>>> */
 474:../Dave/Generated/src/SDMMC003/SDMMC003_Private.c ****   /* Error in the sequence of the authentication process*/
 475:../Dave/Generated/src/SDMMC003/SDMMC003_Private.c ****   if ((*CardStatusPtr & SDMMC003_CSR_ASK_SEQ_ERROR_BITMASK) != 0)
 746              		.loc 1 475 0
 747 005c 7B68     		ldr	r3, [r7, #4]
 748 005e 1B68     		ldr	r3, [r3, #0]
 749 0060 03F00803 		and	r3, r3, #8
 750 0064 002B     		cmp	r3, #0
 751 0066 02D0     		beq	.L32
 476:../Dave/Generated/src/SDMMC003/SDMMC003_Private.c ****   {
 477:../Dave/Generated/src/SDMMC003/SDMMC003_Private.c ****     ErrorStatus = 1UL;
 752              		.loc 1 477 0
 753 0068 4FF00103 		mov	r3, #1
 754 006c FB72     		strb	r3, [r7, #11]
 755              	.L32:
 478:../Dave/Generated/src/SDMMC003/SDMMC003_Private.c ****     ERROR(GID_SDMMC00x,SDMMC003_ASK_SEQ_ERROR,0,NULL);
 479:../Dave/Generated/src/SDMMC003/SDMMC003_Private.c ****   }
 480:../Dave/Generated/src/SDMMC003/SDMMC003_Private.c ****   /* Below Additional condition is because some SD cards treat CMD55 as Illegal
 481:../Dave/Generated/src/SDMMC003/SDMMC003_Private.c ****    * Command and gives this error in response */
 482:../Dave/Generated/src/SDMMC003/SDMMC003_Private.c **** /*<<<DD_SDMMC_nonAPI_7_6>>> */
 483:../Dave/Generated/src/SDMMC003/SDMMC003_Private.c ****   if (ErrorStatus == 1UL) 
 756              		.loc 1 483 0
 757 006e FB7A     		ldrb	r3, [r7, #11]	@ zero_extendqisi2
 758 0070 012B     		cmp	r3, #1
 759 0072 02D1     		bne	.L33
 484:../Dave/Generated/src/SDMMC003/SDMMC003_Private.c ****   {
 485:../Dave/Generated/src/SDMMC003/SDMMC003_Private.c ****     Status = (uint32_t) SDMMC003_ERROR;
 760              		.loc 1 485 0
 761 0074 4FF00103 		mov	r3, #1
 762 0078 FB60     		str	r3, [r7, #12]
 763              	.L33:
 486:../Dave/Generated/src/SDMMC003/SDMMC003_Private.c ****   }
 487:../Dave/Generated/src/SDMMC003/SDMMC003_Private.c ****   FUNCTION_EXIT(GID_SDMMC00x, (uint32_t)SDMMC003_FUNCTION_EXIT);
 488:../Dave/Generated/src/SDMMC003/SDMMC003_Private.c ****   return Status;
 764              		.loc 1 488 0
 765 007a FB68     		ldr	r3, [r7, #12]
 489:../Dave/Generated/src/SDMMC003/SDMMC003_Private.c **** }
 766              		.loc 1 489 0
 767 007c 1846     		mov	r0, r3
 768 007e 07F11007 		add	r7, r7, #16
 769 0082 BD46     		mov	sp, r7
 770 0084 80BD     		pop	{r7, pc}
 771              		.cfi_endproc
 772              	.LFE123:
 774 0086 00BF     		.section	.text.SDMMC003_lGetCardLockState,"ax",%progbits
 775              		.align	2
 776              		.global	SDMMC003_lGetCardLockState
 777              		.thumb
 778              		.thumb_func
 780              	SDMMC003_lGetCardLockState:
 781              	.LFB124:
 490:../Dave/Generated/src/SDMMC003/SDMMC003_Private.c **** 
 491:../Dave/Generated/src/SDMMC003/SDMMC003_Private.c **** /*
 492:../Dave/Generated/src/SDMMC003/SDMMC003_Private.c ****  * This function checks for lock status of SDMMC card.
 493:../Dave/Generated/src/SDMMC003/SDMMC003_Private.c ****  */
 494:../Dave/Generated/src/SDMMC003/SDMMC003_Private.c **** void SDMMC003_lGetCardLockState(uint32_t CardStatus, uint16_t CommandIndex)
 495:../Dave/Generated/src/SDMMC003/SDMMC003_Private.c **** {
 782              		.loc 1 495 0
 783              		.cfi_startproc
 784              		@ args = 0, pretend = 0, frame = 8
 785              		@ frame_needed = 1, uses_anonymous_args = 0
 786              		@ link register save eliminated.
 787 0000 80B4     		push	{r7}
 788              	.LCFI20:
 789              		.cfi_def_cfa_offset 4
 790              		.cfi_offset 7, -4
 791 0002 83B0     		sub	sp, sp, #12
 792              	.LCFI21:
 793              		.cfi_def_cfa_offset 16
 794 0004 00AF     		add	r7, sp, #0
 795              	.LCFI22:
 796              		.cfi_def_cfa_register 7
 797 0006 7860     		str	r0, [r7, #4]
 798 0008 0B46     		mov	r3, r1
 799 000a 7B80     		strh	r3, [r7, #2]	@ movhi
 496:../Dave/Generated/src/SDMMC003/SDMMC003_Private.c ****   if (((CardStatus & SDMMC003_CSR_CARD_IS_LOCKED_BITMASK) != 0) &&
 800              		.loc 1 496 0
 801 000c 7B68     		ldr	r3, [r7, #4]
 802 000e 03F00073 		and	r3, r3, #33554432
 803 0012 002B     		cmp	r3, #0
 804 0014 11D0     		beq	.L36
 805              		.loc 1 496 0 is_stmt 0 discriminator 1
 806 0016 7B88     		ldrh	r3, [r7, #2]
 807 0018 032B     		cmp	r3, #3
 808 001a 0ED0     		beq	.L36
 497:../Dave/Generated/src/SDMMC003/SDMMC003_Private.c ****       (CommandIndex != SDMMC003_SEND_RELATIVE_ADDR ))
 498:../Dave/Generated/src/SDMMC003/SDMMC003_Private.c ****   {
 499:../Dave/Generated/src/SDMMC003/SDMMC003_Private.c ****     SDMMC003_Handle.State |= SDMMC003_STATE_CARD_LOCKED ;
 809              		.loc 1 499 0 is_stmt 1
 810 001c 40F20003 		movw	r3, #:lower16:SDMMC003_Handle
 811 0020 C0F20003 		movt	r3, #:upper16:SDMMC003_Handle
 812 0024 1B88     		ldrh	r3, [r3, #0]	@ movhi
 813 0026 9BB2     		uxth	r3, r3
 814 0028 43F04003 		orr	r3, r3, #64
 815 002c 9AB2     		uxth	r2, r3
 816 002e 40F20003 		movw	r3, #:lower16:SDMMC003_Handle
 817 0032 C0F20003 		movt	r3, #:upper16:SDMMC003_Handle
 818 0036 1A80     		strh	r2, [r3, #0]	@ movhi
 819 0038 0DE0     		b	.L35
 820              	.L36:
 500:../Dave/Generated/src/SDMMC003/SDMMC003_Private.c ****   }
 501:../Dave/Generated/src/SDMMC003/SDMMC003_Private.c ****   else
 502:../Dave/Generated/src/SDMMC003/SDMMC003_Private.c ****   {
 503:../Dave/Generated/src/SDMMC003/SDMMC003_Private.c ****     SDMMC003_Handle.State &= ~SDMMC003_STATE_CARD_LOCKED ;
 821              		.loc 1 503 0
 822 003a 40F20003 		movw	r3, #:lower16:SDMMC003_Handle
 823 003e C0F20003 		movt	r3, #:upper16:SDMMC003_Handle
 824 0042 1B88     		ldrh	r3, [r3, #0]	@ movhi
 825 0044 9BB2     		uxth	r3, r3
 826 0046 23F04003 		bic	r3, r3, #64
 827 004a 9AB2     		uxth	r2, r3
 828 004c 40F20003 		movw	r3, #:lower16:SDMMC003_Handle
 829 0050 C0F20003 		movt	r3, #:upper16:SDMMC003_Handle
 830 0054 1A80     		strh	r2, [r3, #0]	@ movhi
 831              	.L35:
 504:../Dave/Generated/src/SDMMC003/SDMMC003_Private.c ****   }
 505:../Dave/Generated/src/SDMMC003/SDMMC003_Private.c **** }
 832              		.loc 1 505 0
 833 0056 07F10C07 		add	r7, r7, #12
 834 005a BD46     		mov	sp, r7
 835 005c 80BC     		pop	{r7}
 836 005e 7047     		bx	lr
 837              		.cfi_endproc
 838              	.LFE124:
 840              		.section	.text.SDMMC003_lTransferDelay,"ax",%progbits
 841              		.align	2
 842              		.global	SDMMC003_lTransferDelay
 843              		.thumb
 844              		.thumb_func
 846              	SDMMC003_lTransferDelay:
 847              	.LFB125:
 506:../Dave/Generated/src/SDMMC003/SDMMC003_Private.c **** 
 507:../Dave/Generated/src/SDMMC003/SDMMC003_Private.c **** /*
 508:../Dave/Generated/src/SDMMC003/SDMMC003_Private.c ****  * This function provide the delay in transfer.
 509:../Dave/Generated/src/SDMMC003/SDMMC003_Private.c ****  */
 510:../Dave/Generated/src/SDMMC003/SDMMC003_Private.c **** status_t SDMMC003_lTransferDelay(uint32_t DelayTime)
 511:../Dave/Generated/src/SDMMC003/SDMMC003_Private.c **** {
 848              		.loc 1 511 0
 849              		.cfi_startproc
 850              		@ args = 0, pretend = 0, frame = 16
 851              		@ frame_needed = 1, uses_anonymous_args = 0
 852 0000 80B5     		push	{r7, lr}
 853              	.LCFI23:
 854              		.cfi_def_cfa_offset 8
 855              		.cfi_offset 7, -8
 856              		.cfi_offset 14, -4
 857 0002 84B0     		sub	sp, sp, #16
 858              	.LCFI24:
 859              		.cfi_def_cfa_offset 24
 860 0004 00AF     		add	r7, sp, #0
 861              	.LCFI25:
 862              		.cfi_def_cfa_register 7
 863 0006 7860     		str	r0, [r7, #4]
 512:../Dave/Generated/src/SDMMC003/SDMMC003_Private.c ****   status_t Status = (uint32_t)DAVEApp_SUCCESS;
 864              		.loc 1 512 0
 865 0008 4FF00003 		mov	r3, #0
 866 000c FB60     		str	r3, [r7, #12]
 513:../Dave/Generated/src/SDMMC003/SDMMC003_Private.c ****   handle_t TimerId;
 514:../Dave/Generated/src/SDMMC003/SDMMC003_Private.c ****   SDMMC003_Handle.TimerExpire = 1;
 867              		.loc 1 514 0
 868 000e 40F20003 		movw	r3, #:lower16:SDMMC003_Handle
 869 0012 C0F20003 		movt	r3, #:upper16:SDMMC003_Handle
 870 0016 4FF00102 		mov	r2, #1
 871 001a 9A72     		strb	r2, [r3, #10]
 515:../Dave/Generated/src/SDMMC003/SDMMC003_Private.c ****   TimerId = SDMMC003_lStartTimer(DelayTime);
 872              		.loc 1 515 0
 873 001c 7868     		ldr	r0, [r7, #4]
 874 001e FFF7FEFF 		bl	SDMMC003_lStartTimer
 875 0022 B860     		str	r0, [r7, #8]
 516:../Dave/Generated/src/SDMMC003/SDMMC003_Private.c ****   if(0 == TimerId)
 876              		.loc 1 516 0
 877 0024 BB68     		ldr	r3, [r7, #8]
 878 0026 002B     		cmp	r3, #0
 879 0028 02D1     		bne	.L39
 517:../Dave/Generated/src/SDMMC003/SDMMC003_Private.c ****   {
 518:../Dave/Generated/src/SDMMC003/SDMMC003_Private.c ****     Status = (uint32_t) SDMMC003_START_TIMER_FAILED;
 880              		.loc 1 518 0
 881 002a 4FF02F03 		mov	r3, #47
 882 002e FB60     		str	r3, [r7, #12]
 883              	.L39:
 519:../Dave/Generated/src/SDMMC003/SDMMC003_Private.c ****   }
 520:../Dave/Generated/src/SDMMC003/SDMMC003_Private.c ****   if(Status != (uint32_t) SDMMC003_START_TIMER_FAILED)
 884              		.loc 1 520 0
 885 0030 FB68     		ldr	r3, [r7, #12]
 886 0032 2F2B     		cmp	r3, #47
 887 0034 1DD0     		beq	.L40
 888              	.L43:
 521:../Dave/Generated/src/SDMMC003/SDMMC003_Private.c ****   {
 522:../Dave/Generated/src/SDMMC003/SDMMC003_Private.c ****     do
 523:../Dave/Generated/src/SDMMC003/SDMMC003_Private.c ****     {
 524:../Dave/Generated/src/SDMMC003/SDMMC003_Private.c ****       if (SDMMC003_Handle.TimerExpire == 0)
 889              		.loc 1 524 0
 890 0036 40F20003 		movw	r3, #:lower16:SDMMC003_Handle
 891 003a C0F20003 		movt	r3, #:upper16:SDMMC003_Handle
 892 003e 9B7A     		ldrb	r3, [r3, #10]
 893 0040 DBB2     		uxtb	r3, r3
 894 0042 002B     		cmp	r3, #0
 895 0044 03D1     		bne	.L41
 525:../Dave/Generated/src/SDMMC003/SDMMC003_Private.c ****       {
 526:../Dave/Generated/src/SDMMC003/SDMMC003_Private.c ****         Status = (uint32_t)SDMMC003_TIMEOUT_OCCURED;
 896              		.loc 1 526 0
 897 0046 4FF02E03 		mov	r3, #46
 898 004a FB60     		str	r3, [r7, #12]
 527:../Dave/Generated/src/SDMMC003/SDMMC003_Private.c ****         ERROR(GID_SDMMC00x, Status, 0, NULL);
 528:../Dave/Generated/src/SDMMC003/SDMMC003_Private.c ****         break;
 899              		.loc 1 528 0
 900 004c 07E0     		b	.L42
 901              	.L41:
 529:../Dave/Generated/src/SDMMC003/SDMMC003_Private.c ****       }
 530:../Dave/Generated/src/SDMMC003/SDMMC003_Private.c ****     } while (SDMMC003_ISRContext.TransferFlag == 0);
 902              		.loc 1 530 0
 903 004e 40F20003 		movw	r3, #:lower16:SDMMC003_ISRContext
 904 0052 C0F20003 		movt	r3, #:upper16:SDMMC003_ISRContext
 905 0056 1B79     		ldrb	r3, [r3, #4]
 906 0058 DBB2     		uxtb	r3, r3
 907 005a 002B     		cmp	r3, #0
 908 005c EBD0     		beq	.L43
 909              	.L42:
 531:../Dave/Generated/src/SDMMC003/SDMMC003_Private.c ****     SDMMC003_ISRContext.TransferFlag = 0;
 910              		.loc 1 531 0
 911 005e 40F20003 		movw	r3, #:lower16:SDMMC003_ISRContext
 912 0062 C0F20003 		movt	r3, #:upper16:SDMMC003_ISRContext
 913 0066 4FF00002 		mov	r2, #0
 914 006a 1A71     		strb	r2, [r3, #4]
 532:../Dave/Generated/src/SDMMC003/SDMMC003_Private.c ****     SDMMC003_lStopTimer(TimerId);
 915              		.loc 1 532 0
 916 006c B868     		ldr	r0, [r7, #8]
 917 006e FFF7FEFF 		bl	SDMMC003_lStopTimer
 918              	.L40:
 533:../Dave/Generated/src/SDMMC003/SDMMC003_Private.c ****   }
 534:../Dave/Generated/src/SDMMC003/SDMMC003_Private.c **** /* <<<DD_SDMMC_nonAPI_22_6>>> */
 535:../Dave/Generated/src/SDMMC003/SDMMC003_Private.c ****   if( SDMMC003_Handle.TransferInterruptError != SDMMC003_TRANSFER_COMPLETE)
 919              		.loc 1 535 0
 920 0072 40F20003 		movw	r3, #:lower16:SDMMC003_Handle
 921 0076 C0F20003 		movt	r3, #:upper16:SDMMC003_Handle
 922 007a 5B79     		ldrb	r3, [r3, #5]
 923 007c DBB2     		uxtb	r3, r3
 924 007e 1F2B     		cmp	r3, #31
 925 0080 06D0     		beq	.L44
 536:../Dave/Generated/src/SDMMC003/SDMMC003_Private.c ****   {
 537:../Dave/Generated/src/SDMMC003/SDMMC003_Private.c ****     Status = (uint32_t)SDMMC003_Handle.DataInterruptError;
 926              		.loc 1 537 0
 927 0082 40F20003 		movw	r3, #:lower16:SDMMC003_Handle
 928 0086 C0F20003 		movt	r3, #:upper16:SDMMC003_Handle
 929 008a DB78     		ldrb	r3, [r3, #3]
 930 008c DBB2     		uxtb	r3, r3
 931 008e FB60     		str	r3, [r7, #12]
 932              	.L44:
 538:../Dave/Generated/src/SDMMC003/SDMMC003_Private.c ****   }
 539:../Dave/Generated/src/SDMMC003/SDMMC003_Private.c ****   return Status;
 933              		.loc 1 539 0
 934 0090 FB68     		ldr	r3, [r7, #12]
 540:../Dave/Generated/src/SDMMC003/SDMMC003_Private.c **** }
 935              		.loc 1 540 0
 936 0092 1846     		mov	r0, r3
 937 0094 07F11007 		add	r7, r7, #16
 938 0098 BD46     		mov	sp, r7
 939 009a 80BD     		pop	{r7, pc}
 940              		.cfi_endproc
 941              	.LFE125:
 943              		.section	.text.SDMMC003_lReadResponse,"ax",%progbits
 944              		.align	2
 945              		.global	SDMMC003_lReadResponse
 946              		.thumb
 947              		.thumb_func
 949              	SDMMC003_lReadResponse:
 950              	.LFB126:
 541:../Dave/Generated/src/SDMMC003/SDMMC003_Private.c **** 
 542:../Dave/Generated/src/SDMMC003/SDMMC003_Private.c **** /*<<<DD_SDMMC_nonAPI_8>>> */
 543:../Dave/Generated/src/SDMMC003/SDMMC003_Private.c **** /*
 544:../Dave/Generated/src/SDMMC003/SDMMC003_Private.c ****  * This function reads for the response received for the command issued.
 545:../Dave/Generated/src/SDMMC003/SDMMC003_Private.c ****  */
 546:../Dave/Generated/src/SDMMC003/SDMMC003_Private.c **** status_t  SDMMC003_lReadResponse
 547:../Dave/Generated/src/SDMMC003/SDMMC003_Private.c **** (
 548:../Dave/Generated/src/SDMMC003/SDMMC003_Private.c ****    const SDMMC003_CommandType *CommandPtr,
 549:../Dave/Generated/src/SDMMC003/SDMMC003_Private.c ****    SDMMC003_ResponseType ResponseType,
 550:../Dave/Generated/src/SDMMC003/SDMMC003_Private.c ****    void *ResponsePtr
 551:../Dave/Generated/src/SDMMC003/SDMMC003_Private.c **** )
 552:../Dave/Generated/src/SDMMC003/SDMMC003_Private.c **** {
 951              		.loc 1 552 0
 952              		.cfi_startproc
 953              		@ args = 0, pretend = 0, frame = 32
 954              		@ frame_needed = 1, uses_anonymous_args = 0
 955 0000 80B5     		push	{r7, lr}
 956              	.LCFI26:
 957              		.cfi_def_cfa_offset 8
 958              		.cfi_offset 7, -8
 959              		.cfi_offset 14, -4
 960 0002 88B0     		sub	sp, sp, #32
 961              	.LCFI27:
 962              		.cfi_def_cfa_offset 40
 963 0004 00AF     		add	r7, sp, #0
 964              	.LCFI28:
 965              		.cfi_def_cfa_register 7
 966 0006 F860     		str	r0, [r7, #12]
 967 0008 0B46     		mov	r3, r1
 968 000a 7A60     		str	r2, [r7, #4]
 969 000c FB72     		strb	r3, [r7, #11]
 553:../Dave/Generated/src/SDMMC003/SDMMC003_Private.c ****   uint32_t CardStatus = 0;
 970              		.loc 1 553 0
 971 000e 4FF00003 		mov	r3, #0
 972 0012 7B61     		str	r3, [r7, #20]
 554:../Dave/Generated/src/SDMMC003/SDMMC003_Private.c ****   uint32_t ErrorStatus = 0;
 973              		.loc 1 554 0
 974 0014 4FF00003 		mov	r3, #0
 975 0018 3B61     		str	r3, [r7, #16]
 555:../Dave/Generated/src/SDMMC003/SDMMC003_Private.c ****   uint32_t *TmpPtr;
 556:../Dave/Generated/src/SDMMC003/SDMMC003_Private.c ****   status_t Status = (uint32_t)DAVEApp_SUCCESS;
 976              		.loc 1 556 0
 977 001a 4FF00003 		mov	r3, #0
 978 001e FB61     		str	r3, [r7, #28]
 557:../Dave/Generated/src/SDMMC003/SDMMC003_Private.c ****   FUNCTION_ENTRY(GID_SDMMC00x, (uint32_t)SDMMC003_FUNCTION_ENTRY);
 558:../Dave/Generated/src/SDMMC003/SDMMC003_Private.c ****   /* Check for  No response type commands */
 559:../Dave/Generated/src/SDMMC003/SDMMC003_Private.c **** /*<<<DD_SDMMC_nonAPI_8_1>>> */
 560:../Dave/Generated/src/SDMMC003/SDMMC003_Private.c ****   if (CommandPtr->CommandIndex == SDMMC003_GO_IDLE_STATE || \
 979              		.loc 1 560 0
 980 0020 FB68     		ldr	r3, [r7, #12]
 981 0022 5B78     		ldrb	r3, [r3, #1]	@ zero_extendqisi2
 982 0024 03F03F03 		and	r3, r3, #63
 983 0028 DBB2     		uxtb	r3, r3
 984 002a 002B     		cmp	r3, #0
 985 002c 06D0     		beq	.L47
 561:../Dave/Generated/src/SDMMC003/SDMMC003_Private.c ****       CommandPtr->CommandIndex == SDMMC003_GO_INACTIVE_STATE)
 986              		.loc 1 561 0 discriminator 1
 987 002e FB68     		ldr	r3, [r7, #12]
 988 0030 5B78     		ldrb	r3, [r3, #1]	@ zero_extendqisi2
 989 0032 03F03F03 		and	r3, r3, #63
 990 0036 DBB2     		uxtb	r3, r3
 560:../Dave/Generated/src/SDMMC003/SDMMC003_Private.c ****   if (CommandPtr->CommandIndex == SDMMC003_GO_IDLE_STATE || \
 991              		.loc 1 560 0 discriminator 1
 992 0038 0F2B     		cmp	r3, #15
 993 003a 03D1     		bne	.L48
 994              	.L47:
 562:../Dave/Generated/src/SDMMC003/SDMMC003_Private.c ****   {
 563:../Dave/Generated/src/SDMMC003/SDMMC003_Private.c ****     Status = (uint32_t)DAVEApp_SUCCESS;
 995              		.loc 1 563 0
 996 003c 4FF00003 		mov	r3, #0
 997 0040 FB61     		str	r3, [r7, #28]
 998 0042 89E0     		b	.L49
 999              	.L48:
 564:../Dave/Generated/src/SDMMC003/SDMMC003_Private.c ****   }
 565:../Dave/Generated/src/SDMMC003/SDMMC003_Private.c **** /*<<<DD_SDMMC_nonAPI_8_2>>> */
 566:../Dave/Generated/src/SDMMC003/SDMMC003_Private.c ****   else
 567:../Dave/Generated/src/SDMMC003/SDMMC003_Private.c ****   {
 568:../Dave/Generated/src/SDMMC003/SDMMC003_Private.c ****     TmpPtr = (uint32_t *)ResponsePtr;
 1000              		.loc 1 568 0
 1001 0044 7B68     		ldr	r3, [r7, #4]
 1002 0046 BB61     		str	r3, [r7, #24]
 569:../Dave/Generated/src/SDMMC003/SDMMC003_Private.c ****     CardStatus = SDMMC->RESPONSE0;
 1003              		.loc 1 569 0
 1004 0048 4FF44043 		mov	r3, #49152
 1005 004c C4F60103 		movt	r3, 18433
 1006 0050 1B69     		ldr	r3, [r3, #16]
 1007 0052 7B61     		str	r3, [r7, #20]
 570:../Dave/Generated/src/SDMMC003/SDMMC003_Private.c ****     /* Check Lock Status */
 571:../Dave/Generated/src/SDMMC003/SDMMC003_Private.c **** /*<<<DD_SDMMC_nonAPI_8_3>>> */
 572:../Dave/Generated/src/SDMMC003/SDMMC003_Private.c ****     SDMMC003_lGetCardLockState(CardStatus, CommandPtr->CommandIndex);
 1008              		.loc 1 572 0
 1009 0054 7A69     		ldr	r2, [r7, #20]
 1010 0056 FB68     		ldr	r3, [r7, #12]
 1011 0058 1B88     		ldrh	r3, [r3, #0]	@ movhi
 1012 005a C3F30523 		ubfx	r3, r3, #8, #6
 1013 005e DBB2     		uxtb	r3, r3
 1014 0060 1046     		mov	r0, r2
 1015 0062 1946     		mov	r1, r3
 1016 0064 FFF7FEFF 		bl	SDMMC003_lGetCardLockState
 573:../Dave/Generated/src/SDMMC003/SDMMC003_Private.c ****    /* Check response type*/
 574:../Dave/Generated/src/SDMMC003/SDMMC003_Private.c ****     switch( ResponseType )
 1017              		.loc 1 574 0
 1018 0068 FB7A     		ldrb	r3, [r7, #11]	@ zero_extendqisi2
 1019 006a 062B     		cmp	r3, #6
 1020 006c 6FD8     		bhi	.L50
 1021 006e 01A2     		adr	r2, .L57
 1022 0070 52F823F0 		ldr	pc, [r2, r3, lsl #2]
 1023              		.align	2
 1024              	.L57:
 1025 0074 47010000 		.word	.L51+1
 1026 0078 91000000 		.word	.L52+1
 1027 007c A5000000 		.word	.L53+1
 1028 0080 CD000000 		.word	.L54+1
 1029 0084 17010000 		.word	.L55+1
 1030 0088 1F010000 		.word	.L56+1
 1031 008c 17010000 		.word	.L55+1
 1032              	.L52:
 575:../Dave/Generated/src/SDMMC003/SDMMC003_Private.c ****     {
 576:../Dave/Generated/src/SDMMC003/SDMMC003_Private.c ****       /* Response R1*/
 577:../Dave/Generated/src/SDMMC003/SDMMC003_Private.c **** /*<<<DD_SDMMC_nonAPI_8_4>>> */
 578:../Dave/Generated/src/SDMMC003/SDMMC003_Private.c ****       case SDMMC003_RESPONSE_R1:
 579:../Dave/Generated/src/SDMMC003/SDMMC003_Private.c ****         /* check the error bits in the response */
 580:../Dave/Generated/src/SDMMC003/SDMMC003_Private.c ****          *TmpPtr = CardStatus;
 1033              		.loc 1 580 0
 1034 0090 7A69     		ldr	r2, [r7, #20]
 1035 0092 BB69     		ldr	r3, [r7, #24]
 1036 0094 1A60     		str	r2, [r3, #0]
 581:../Dave/Generated/src/SDMMC003/SDMMC003_Private.c **** /*<<<DD_SDMMC_nonAPI_8_5>>> */
 582:../Dave/Generated/src/SDMMC003/SDMMC003_Private.c ****         Status = SDMMC003_lCheckErrorInResponse(&CardStatus);
 1037              		.loc 1 582 0
 1038 0096 07F11403 		add	r3, r7, #20
 1039 009a 1846     		mov	r0, r3
 1040 009c FFF7FEFF 		bl	SDMMC003_lCheckErrorInResponse
 1041 00a0 F861     		str	r0, [r7, #28]
 583:../Dave/Generated/src/SDMMC003/SDMMC003_Private.c ****         break;
 1042              		.loc 1 583 0
 1043 00a2 59E0     		b	.L49
 1044              	.L53:
 584:../Dave/Generated/src/SDMMC003/SDMMC003_Private.c ****       /* Response R1b*/
 585:../Dave/Generated/src/SDMMC003/SDMMC003_Private.c **** /*<<<DD_SDMMC_nonAPI_8_6>>> */
 586:../Dave/Generated/src/SDMMC003/SDMMC003_Private.c ****       case SDMMC003_RESPONSE_R1b:
 587:../Dave/Generated/src/SDMMC003/SDMMC003_Private.c ****         *TmpPtr = CardStatus;
 1045              		.loc 1 587 0
 1046 00a4 7A69     		ldr	r2, [r7, #20]
 1047 00a6 BB69     		ldr	r3, [r7, #24]
 1048 00a8 1A60     		str	r2, [r3, #0]
 588:../Dave/Generated/src/SDMMC003/SDMMC003_Private.c ****         /* check the error bits in the response */
 589:../Dave/Generated/src/SDMMC003/SDMMC003_Private.c ****          Status = SDMMC003_lCheckErrorInResponse(&CardStatus);
 1049              		.loc 1 589 0
 1050 00aa 07F11403 		add	r3, r7, #20
 1051 00ae 1846     		mov	r0, r3
 1052 00b0 FFF7FEFF 		bl	SDMMC003_lCheckErrorInResponse
 1053 00b4 F861     		str	r0, [r7, #28]
 590:../Dave/Generated/src/SDMMC003/SDMMC003_Private.c ****          if (Status != (uint32_t)DAVEApp_SUCCESS)
 1054              		.loc 1 590 0
 1055 00b6 FB69     		ldr	r3, [r7, #28]
 1056 00b8 002B     		cmp	r3, #0
 1057 00ba 4CD1     		bne	.L61
 1058              	.L58:
 591:../Dave/Generated/src/SDMMC003/SDMMC003_Private.c ****          {
 592:../Dave/Generated/src/SDMMC003/SDMMC003_Private.c ****            break;
 593:../Dave/Generated/src/SDMMC003/SDMMC003_Private.c ****          }
 594:../Dave/Generated/src/SDMMC003/SDMMC003_Private.c **** #if SDMMC_UVP_TEST
 595:../Dave/Generated/src/SDMMC003/SDMMC003_Private.c ****         if (Test_TriggerInterrupt.Trigger_TransferInterruptError == TRUE)
 596:../Dave/Generated/src/SDMMC003/SDMMC003_Private.c ****         {
 597:../Dave/Generated/src/SDMMC003/SDMMC003_Private.c ****           SDMMC003_ISRContext.TransferFlag = 1;
 598:../Dave/Generated/src/SDMMC003/SDMMC003_Private.c ****           SDMMC003_Handle.TransferInterruptError = SDMMC003_ERROR;
 599:../Dave/Generated/src/SDMMC003/SDMMC003_Private.c ****         }
 600:../Dave/Generated/src/SDMMC003/SDMMC003_Private.c **** #endif  /* SDMMC_UVP_TEST*/
 601:../Dave/Generated/src/SDMMC003/SDMMC003_Private.c ****         /* Wait for transfer complete Interrupt */
 602:../Dave/Generated/src/SDMMC003/SDMMC003_Private.c **** /*<<<DD_SDMMC_nonAPI_8_7>>> */
 603:../Dave/Generated/src/SDMMC003/SDMMC003_Private.c ****         Status = SDMMC003_lTransferDelay(SDMMC003_DELAY_IN_TRANSFER);
 1059              		.loc 1 603 0
 1060 00bc 4FF47A70 		mov	r0, #1000
 1061 00c0 FFF7FEFF 		bl	SDMMC003_lTransferDelay
 1062 00c4 F861     		str	r0, [r7, #28]
 604:../Dave/Generated/src/SDMMC003/SDMMC003_Private.c ****         if(Status != (uint32_t) DAVEApp_SUCCESS)
 1063              		.loc 1 604 0
 1064 00c6 FB69     		ldr	r3, [r7, #28]
 1065 00c8 002B     		cmp	r3, #0
 605:../Dave/Generated/src/SDMMC003/SDMMC003_Private.c ****         {
 606:../Dave/Generated/src/SDMMC003/SDMMC003_Private.c ****           ERROR(GID_SDMMC00x, Status, 0, NULL);
 607:../Dave/Generated/src/SDMMC003/SDMMC003_Private.c ****           break;
 1066              		.loc 1 607 0
 1067 00ca 45E0     		b	.L49
 1068              	.L54:
 608:../Dave/Generated/src/SDMMC003/SDMMC003_Private.c ****         }
 609:../Dave/Generated/src/SDMMC003/SDMMC003_Private.c **** #if SDMMC_UVP_TEST
 610:../Dave/Generated/src/SDMMC003/SDMMC003_Private.c ****         if (Test_TriggerInterrupt.Trigger_TransferInterruptError == TRUE)
 611:../Dave/Generated/src/SDMMC003/SDMMC003_Private.c ****         {
 612:../Dave/Generated/src/SDMMC003/SDMMC003_Private.c ****           /* Enable the Transfer Complete Status Interrupt */
 613:../Dave/Generated/src/SDMMC003/SDMMC003_Private.c ****           SDMMC->EN_INT_STATUS_NORM |= SDMMC_EN_INT_STATUS_NORM_TX_COMPLETE_EN_Msk;
 614:../Dave/Generated/src/SDMMC003/SDMMC003_Private.c ****           /*  Enable the Transfer Complete Signal Interrupt */
 615:../Dave/Generated/src/SDMMC003/SDMMC003_Private.c ****           SDMMC->EN_INT_SIGNAL_NORM |= SDMMC_EN_INT_SIGNAL_NORM_TX_COMPLETE_EN_Msk;
 616:../Dave/Generated/src/SDMMC003/SDMMC003_Private.c ****         }
 617:../Dave/Generated/src/SDMMC003/SDMMC003_Private.c **** #endif     /* SDMMC_UVP_TEST*/
 618:../Dave/Generated/src/SDMMC003/SDMMC003_Private.c ****         /* If busy status received successfully  in the data line for R1b */
 619:../Dave/Generated/src/SDMMC003/SDMMC003_Private.c **** /*<<<DD_SDMMC_nonAPI_8_8>>> */
 620:../Dave/Generated/src/SDMMC003/SDMMC003_Private.c ****         break;
 621:../Dave/Generated/src/SDMMC003/SDMMC003_Private.c ****       /* Response R2*/
 622:../Dave/Generated/src/SDMMC003/SDMMC003_Private.c **** /*<<<DD_SDMMC_nonAPI_8_9>>> */
 623:../Dave/Generated/src/SDMMC003/SDMMC003_Private.c ****       case SDMMC003_RESPONSE_R2:
 624:../Dave/Generated/src/SDMMC003/SDMMC003_Private.c ****         /* Response register R0-R7 */
 625:../Dave/Generated/src/SDMMC003/SDMMC003_Private.c ****         *TmpPtr = CardStatus;
 1069              		.loc 1 625 0
 1070 00cc 7A69     		ldr	r2, [r7, #20]
 1071 00ce BB69     		ldr	r3, [r7, #24]
 1072 00d0 1A60     		str	r2, [r3, #0]
 626:../Dave/Generated/src/SDMMC003/SDMMC003_Private.c ****         TmpPtr++;
 1073              		.loc 1 626 0
 1074 00d2 BB69     		ldr	r3, [r7, #24]
 1075 00d4 03F10403 		add	r3, r3, #4
 1076 00d8 BB61     		str	r3, [r7, #24]
 627:../Dave/Generated/src/SDMMC003/SDMMC003_Private.c **** 
 628:../Dave/Generated/src/SDMMC003/SDMMC003_Private.c ****         *TmpPtr = SDMMC->RESPONSE2;
 1077              		.loc 1 628 0
 1078 00da 4FF44043 		mov	r3, #49152
 1079 00de C4F60103 		movt	r3, 18433
 1080 00e2 5A69     		ldr	r2, [r3, #20]
 1081 00e4 BB69     		ldr	r3, [r7, #24]
 1082 00e6 1A60     		str	r2, [r3, #0]
 629:../Dave/Generated/src/SDMMC003/SDMMC003_Private.c ****         TmpPtr++;
 1083              		.loc 1 629 0
 1084 00e8 BB69     		ldr	r3, [r7, #24]
 1085 00ea 03F10403 		add	r3, r3, #4
 1086 00ee BB61     		str	r3, [r7, #24]
 630:../Dave/Generated/src/SDMMC003/SDMMC003_Private.c **** 
 631:../Dave/Generated/src/SDMMC003/SDMMC003_Private.c ****         *TmpPtr = SDMMC->RESPONSE4;
 1087              		.loc 1 631 0
 1088 00f0 4FF44043 		mov	r3, #49152
 1089 00f4 C4F60103 		movt	r3, 18433
 1090 00f8 9A69     		ldr	r2, [r3, #24]
 1091 00fa BB69     		ldr	r3, [r7, #24]
 1092 00fc 1A60     		str	r2, [r3, #0]
 632:../Dave/Generated/src/SDMMC003/SDMMC003_Private.c ****         TmpPtr++;
 1093              		.loc 1 632 0
 1094 00fe BB69     		ldr	r3, [r7, #24]
 1095 0100 03F10403 		add	r3, r3, #4
 1096 0104 BB61     		str	r3, [r7, #24]
 633:../Dave/Generated/src/SDMMC003/SDMMC003_Private.c **** 
 634:../Dave/Generated/src/SDMMC003/SDMMC003_Private.c ****         *TmpPtr = SDMMC->RESPONSE6;
 1097              		.loc 1 634 0
 1098 0106 4FF44043 		mov	r3, #49152
 1099 010a C4F60103 		movt	r3, 18433
 1100 010e DA69     		ldr	r2, [r3, #28]
 1101 0110 BB69     		ldr	r3, [r7, #24]
 1102 0112 1A60     		str	r2, [r3, #0]
 635:../Dave/Generated/src/SDMMC003/SDMMC003_Private.c ****         break;
 1103              		.loc 1 635 0
 1104 0114 20E0     		b	.L49
 1105              	.L55:
 636:../Dave/Generated/src/SDMMC003/SDMMC003_Private.c ****       /* Response R3*/
 637:../Dave/Generated/src/SDMMC003/SDMMC003_Private.c **** /*<<<DD_SDMMC_nonAPI_8_10>>> */
 638:../Dave/Generated/src/SDMMC003/SDMMC003_Private.c ****       case SDMMC003_RESPONSE_R3:
 639:../Dave/Generated/src/SDMMC003/SDMMC003_Private.c **** 
 640:../Dave/Generated/src/SDMMC003/SDMMC003_Private.c ****       /* Response R7*/
 641:../Dave/Generated/src/SDMMC003/SDMMC003_Private.c **** /*<<<DD_SDMMC_nonAPI_8_11>>> */
 642:../Dave/Generated/src/SDMMC003/SDMMC003_Private.c ****       case SDMMC003_RESPONSE_R7:
 643:../Dave/Generated/src/SDMMC003/SDMMC003_Private.c ****         *TmpPtr = CardStatus;
 1106              		.loc 1 643 0
 1107 0116 7A69     		ldr	r2, [r7, #20]
 1108 0118 BB69     		ldr	r3, [r7, #24]
 1109 011a 1A60     		str	r2, [r3, #0]
 644:../Dave/Generated/src/SDMMC003/SDMMC003_Private.c ****          break;
 1110              		.loc 1 644 0
 1111 011c 1CE0     		b	.L49
 1112              	.L56:
 645:../Dave/Generated/src/SDMMC003/SDMMC003_Private.c **** 
 646:../Dave/Generated/src/SDMMC003/SDMMC003_Private.c ****       /* Response R6*/
 647:../Dave/Generated/src/SDMMC003/SDMMC003_Private.c **** /*<<<DD_SDMMC_nonAPI_8_12>>> */
 648:../Dave/Generated/src/SDMMC003/SDMMC003_Private.c ****       case SDMMC003_RESPONSE_R6:
 649:../Dave/Generated/src/SDMMC003/SDMMC003_Private.c ****         ErrorStatus  = CardStatus & SDMMC_RESPONSE0_RESPONSE0_Msk;
 1113              		.loc 1 649 0
 1114 011e 7B69     		ldr	r3, [r7, #20]
 1115 0120 4FEA0343 		lsl	r3, r3, #16
 1116 0124 4FEA1343 		lsr	r3, r3, #16
 1117 0128 3B61     		str	r3, [r7, #16]
 650:../Dave/Generated/src/SDMMC003/SDMMC003_Private.c ****         Status = SDMMC003_lCheckErrorInResponse(&ErrorStatus);
 1118              		.loc 1 650 0
 1119 012a 07F11003 		add	r3, r7, #16
 1120 012e 1846     		mov	r0, r3
 1121 0130 FFF7FEFF 		bl	SDMMC003_lCheckErrorInResponse
 1122 0134 F861     		str	r0, [r7, #28]
 651:../Dave/Generated/src/SDMMC003/SDMMC003_Private.c **** /*<<<DD_SDMMC_nonAPI_8_13>>> */
 652:../Dave/Generated/src/SDMMC003/SDMMC003_Private.c ****         /* Read the 16bit RCA received in Response R1 register */
 653:../Dave/Generated/src/SDMMC003/SDMMC003_Private.c ****         *TmpPtr =(uint16_t)((CardStatus & SDMMC_RESPONSE0_RESPONSE1_Msk) >> \
 1123              		.loc 1 653 0
 1124 0136 7B69     		ldr	r3, [r7, #20]
 1125 0138 4FEA1343 		lsr	r3, r3, #16
 1126 013c 9BB2     		uxth	r3, r3
 1127 013e 1A46     		mov	r2, r3
 1128 0140 BB69     		ldr	r3, [r7, #24]
 1129 0142 1A60     		str	r2, [r3, #0]
 654:../Dave/Generated/src/SDMMC003/SDMMC003_Private.c ****                               SDMMC003_HC_RESPONSE1_BITPOS );
 655:../Dave/Generated/src/SDMMC003/SDMMC003_Private.c ****         break;
 1130              		.loc 1 655 0
 1131 0144 08E0     		b	.L49
 1132              	.L51:
 656:../Dave/Generated/src/SDMMC003/SDMMC003_Private.c **** 
 657:../Dave/Generated/src/SDMMC003/SDMMC003_Private.c ****       /* No response*/
 658:../Dave/Generated/src/SDMMC003/SDMMC003_Private.c **** /*<<<DD_SDMMC_nonAPI_8_14>>> */
 659:../Dave/Generated/src/SDMMC003/SDMMC003_Private.c ****       case SDMMC003_NO_RESPONSE:
 660:../Dave/Generated/src/SDMMC003/SDMMC003_Private.c ****         Status = DAVEApp_SUCCESS;
 1133              		.loc 1 660 0
 1134 0146 4FF00003 		mov	r3, #0
 1135 014a FB61     		str	r3, [r7, #28]
 661:../Dave/Generated/src/SDMMC003/SDMMC003_Private.c ****         break;
 1136              		.loc 1 661 0
 1137 014c 04E0     		b	.L49
 1138              	.L50:
 662:../Dave/Generated/src/SDMMC003/SDMMC003_Private.c **** 
 663:../Dave/Generated/src/SDMMC003/SDMMC003_Private.c ****       default:
 664:../Dave/Generated/src/SDMMC003/SDMMC003_Private.c ****         Status = (uint32_t)SDMMC003_ERROR;
 1139              		.loc 1 664 0
 1140 014e 4FF00103 		mov	r3, #1
 1141 0152 FB61     		str	r3, [r7, #28]
 665:../Dave/Generated/src/SDMMC003/SDMMC003_Private.c ****         break;
 1142              		.loc 1 665 0
 1143 0154 00E0     		b	.L49
 1144              	.L61:
 592:../Dave/Generated/src/SDMMC003/SDMMC003_Private.c ****            break;
 1145              		.loc 1 592 0
 1146 0156 00BF     		nop
 1147              	.L49:
 666:../Dave/Generated/src/SDMMC003/SDMMC003_Private.c ****     } /* End of " switch( ResponseType )"*/
 667:../Dave/Generated/src/SDMMC003/SDMMC003_Private.c ****   }/* End of " if (CommandPtr->CommandIndex == SDMMC003_GO_IDLE_STATE || 
 668:../Dave/Generated/src/SDMMC003/SDMMC003_Private.c ****                CommandPtr->CommandIndex == SDMMC003_GO_INACTIVE_STATE)"*/
 669:../Dave/Generated/src/SDMMC003/SDMMC003_Private.c ****   FUNCTION_EXIT(GID_SDMMC00x, (uint32_t)SDMMC003_FUNCTION_EXIT);
 670:../Dave/Generated/src/SDMMC003/SDMMC003_Private.c ****   return Status;
 1148              		.loc 1 670 0
 1149 0158 FB69     		ldr	r3, [r7, #28]
 671:../Dave/Generated/src/SDMMC003/SDMMC003_Private.c **** }
 1150              		.loc 1 671 0
 1151 015a 1846     		mov	r0, r3
 1152 015c 07F12007 		add	r7, r7, #32
 1153 0160 BD46     		mov	sp, r7
 1154 0162 80BD     		pop	{r7, pc}
 1155              		.cfi_endproc
 1156              	.LFE126:
 1158              		.section	.text.SDMMC003_lSendCommand,"ax",%progbits
 1159              		.align	2
 1160              		.global	SDMMC003_lSendCommand
 1161              		.thumb
 1162              		.thumb_func
 1164              	SDMMC003_lSendCommand:
 1165              	.LFB127:
 672:../Dave/Generated/src/SDMMC003/SDMMC003_Private.c **** 
 673:../Dave/Generated/src/SDMMC003/SDMMC003_Private.c **** /*<<<DD_SDMMC_nonAPI_9>>> */
 674:../Dave/Generated/src/SDMMC003/SDMMC003_Private.c **** /*
 675:../Dave/Generated/src/SDMMC003/SDMMC003_Private.c ****  * This function issues the command.
 676:../Dave/Generated/src/SDMMC003/SDMMC003_Private.c ****  */
 677:../Dave/Generated/src/SDMMC003/SDMMC003_Private.c **** status_t SDMMC003_lSendCommand
 678:../Dave/Generated/src/SDMMC003/SDMMC003_Private.c **** ( 
 679:../Dave/Generated/src/SDMMC003/SDMMC003_Private.c ****   const SDMMC003_CommandType *CommandPtr,
 680:../Dave/Generated/src/SDMMC003/SDMMC003_Private.c ****   uint32_t Argument,
 681:../Dave/Generated/src/SDMMC003/SDMMC003_Private.c ****   SDMMC003_ResponseType ResponseType,
 682:../Dave/Generated/src/SDMMC003/SDMMC003_Private.c ****   void *ResponsePtr
 683:../Dave/Generated/src/SDMMC003/SDMMC003_Private.c **** )
 684:../Dave/Generated/src/SDMMC003/SDMMC003_Private.c **** {
 1166              		.loc 1 684 0
 1167              		.cfi_startproc
 1168              		@ args = 0, pretend = 0, frame = 24
 1169              		@ frame_needed = 1, uses_anonymous_args = 0
 1170 0000 80B5     		push	{r7, lr}
 1171              	.LCFI29:
 1172              		.cfi_def_cfa_offset 8
 1173              		.cfi_offset 7, -8
 1174              		.cfi_offset 14, -4
 1175 0002 86B0     		sub	sp, sp, #24
 1176              	.LCFI30:
 1177              		.cfi_def_cfa_offset 32
 1178 0004 00AF     		add	r7, sp, #0
 1179              	.LCFI31:
 1180              		.cfi_def_cfa_register 7
 1181 0006 F860     		str	r0, [r7, #12]
 1182 0008 B960     		str	r1, [r7, #8]
 1183 000a 3B60     		str	r3, [r7, #0]
 1184 000c 1346     		mov	r3, r2
 1185 000e FB71     		strb	r3, [r7, #7]
 685:../Dave/Generated/src/SDMMC003/SDMMC003_Private.c ****   status_t Status = (uint32_t)SDMMC003_ERROR;
 1186              		.loc 1 685 0
 1187 0010 4FF00103 		mov	r3, #1
 1188 0014 7B61     		str	r3, [r7, #20]
 686:../Dave/Generated/src/SDMMC003/SDMMC003_Private.c ****   handle_t TimerId;
 687:../Dave/Generated/src/SDMMC003/SDMMC003_Private.c ****   SDMMC003_Handle.IssueAbort = 0UL;  
 1189              		.loc 1 687 0
 1190 0016 40F20003 		movw	r3, #:lower16:SDMMC003_Handle
 1191 001a C0F20003 		movt	r3, #:upper16:SDMMC003_Handle
 1192 001e 4FF00002 		mov	r2, #0
 1193 0022 DA72     		strb	r2, [r3, #11]
 688:../Dave/Generated/src/SDMMC003/SDMMC003_Private.c ****   FUNCTION_ENTRY(GID_SDMMC00x, (uint32_t)SDMMC003_FUNCTION_ENTRY);
 689:../Dave/Generated/src/SDMMC003/SDMMC003_Private.c ****   do
 690:../Dave/Generated/src/SDMMC003/SDMMC003_Private.c ****   {
 691:../Dave/Generated/src/SDMMC003/SDMMC003_Private.c ****     SDMMC003_Handle.CommandInterruptError = SDMMC003_ERROR;
 1194              		.loc 1 691 0
 1195 0024 40F20003 		movw	r3, #:lower16:SDMMC003_Handle
 1196 0028 C0F20003 		movt	r3, #:upper16:SDMMC003_Handle
 1197 002c 4FF00102 		mov	r2, #1
 1198 0030 1A71     		strb	r2, [r3, #4]
 692:../Dave/Generated/src/SDMMC003/SDMMC003_Private.c ****     SDMMC003_Handle.DataInterruptError = SDMMC003_ERROR;
 1199              		.loc 1 692 0
 1200 0032 40F20003 		movw	r3, #:lower16:SDMMC003_Handle
 1201 0036 C0F20003 		movt	r3, #:upper16:SDMMC003_Handle
 1202 003a 4FF00102 		mov	r2, #1
 1203 003e DA70     		strb	r2, [r3, #3]
 693:../Dave/Generated/src/SDMMC003/SDMMC003_Private.c ****     /* Data or Command line free */
 694:../Dave/Generated/src/SDMMC003/SDMMC003_Private.c **** /*<<<DD_SDMMC_nonAPI_9_1>>>*/
 695:../Dave/Generated/src/SDMMC003/SDMMC003_Private.c ****     Status = SDMMC003_lCheckDatCmdline(CommandPtr);
 1204              		.loc 1 695 0
 1205 0040 F868     		ldr	r0, [r7, #12]
 1206 0042 FFF7FEFF 		bl	SDMMC003_lCheckDatCmdline
 1207 0046 7861     		str	r0, [r7, #20]
 696:../Dave/Generated/src/SDMMC003/SDMMC003_Private.c ****     if ((Status == (uint32_t)SDMMC003_DATA_LINE_BUSY) ||
 1208              		.loc 1 696 0
 1209 0048 7B69     		ldr	r3, [r7, #20]
 1210 004a 1B2B     		cmp	r3, #27
 1211 004c 79D0     		beq	.L63
 1212              		.loc 1 696 0 is_stmt 0 discriminator 1
 1213 004e 7B69     		ldr	r3, [r7, #20]
 1214 0050 1A2B     		cmp	r3, #26
 1215 0052 76D0     		beq	.L63
 697:../Dave/Generated/src/SDMMC003/SDMMC003_Private.c ****         (Status == (uint32_t)SDMMC003_CMD_LINE_BUSY))
 698:../Dave/Generated/src/SDMMC003/SDMMC003_Private.c ****     {
 699:../Dave/Generated/src/SDMMC003/SDMMC003_Private.c ****       break;
 700:../Dave/Generated/src/SDMMC003/SDMMC003_Private.c ****     }
 701:../Dave/Generated/src/SDMMC003/SDMMC003_Private.c ****       /* Set argument register */
 702:../Dave/Generated/src/SDMMC003/SDMMC003_Private.c ****     SDMMC->ARGUMENT1 = Argument;
 1216              		.loc 1 702 0 is_stmt 1
 1217 0054 4FF44043 		mov	r3, #49152
 1218 0058 C4F60103 		movt	r3, 18433
 1219 005c BA68     		ldr	r2, [r7, #8]
 1220 005e 9A60     		str	r2, [r3, #8]
 703:../Dave/Generated/src/SDMMC003/SDMMC003_Private.c ****     /* Set command register */
 704:../Dave/Generated/src/SDMMC003/SDMMC003_Private.c ****     SDMMC->COMMAND = (uint16_t)(*(uint16_t *)CommandPtr);
 1221              		.loc 1 704 0
 1222 0060 4FF44043 		mov	r3, #49152
 1223 0064 C4F60103 		movt	r3, 18433
 1224 0068 FA68     		ldr	r2, [r7, #12]
 1225 006a 1288     		ldrh	r2, [r2, #0]
 1226 006c DA81     		strh	r2, [r3, #14]	@ movhi
 705:../Dave/Generated/src/SDMMC003/SDMMC003_Private.c **** #if SDMMC_UVP_TEST
 706:../Dave/Generated/src/SDMMC003/SDMMC003_Private.c ****     if (Test_TriggerInterrupt.Trigger_CommandErrorInterrupt == TRUE)
 707:../Dave/Generated/src/SDMMC003/SDMMC003_Private.c ****     {
 708:../Dave/Generated/src/SDMMC003/SDMMC003_Private.c ****       /* Forcefully trigger the Command Timeout Error Interrupt */
 709:../Dave/Generated/src/SDMMC003/SDMMC003_Private.c ****       SDMMC->FORCE_EVENT_ERR_STATUS = 0x0001 ;
 710:../Dave/Generated/src/SDMMC003/SDMMC003_Private.c ****     }
 711:../Dave/Generated/src/SDMMC003/SDMMC003_Private.c ****     if (Test_TriggerInterrupt.Trigger_EraseStartError == TRUE)
 712:../Dave/Generated/src/SDMMC003/SDMMC003_Private.c ****     {
 713:../Dave/Generated/src/SDMMC003/SDMMC003_Private.c ****         /* Forcefully trigger the Command Index Error Interrupt */
 714:../Dave/Generated/src/SDMMC003/SDMMC003_Private.c ****         SDMMC->FORCE_EVENT_ERR_STATUS = 0x0008 ;
 715:../Dave/Generated/src/SDMMC003/SDMMC003_Private.c ****     }
 716:../Dave/Generated/src/SDMMC003/SDMMC003_Private.c ****     if (Test_TriggerInterrupt.Trigger_EraseEndError == TRUE)
 717:../Dave/Generated/src/SDMMC003/SDMMC003_Private.c ****     {
 718:../Dave/Generated/src/SDMMC003/SDMMC003_Private.c ****       /* Forcefully trigger the Command Index Error Interrupt */
 719:../Dave/Generated/src/SDMMC003/SDMMC003_Private.c ****       SDMMC->FORCE_EVENT_ERR_STATUS = 0x0008 ;
 720:../Dave/Generated/src/SDMMC003/SDMMC003_Private.c ****     }
 721:../Dave/Generated/src/SDMMC003/SDMMC003_Private.c ****     if (Test_TriggerInterrupt.Trigger_Cmd55Error == TRUE)
 722:../Dave/Generated/src/SDMMC003/SDMMC003_Private.c ****     {
 723:../Dave/Generated/src/SDMMC003/SDMMC003_Private.c ****       /* Forcefully trigger the Command Timeout Error Interrupt */
 724:../Dave/Generated/src/SDMMC003/SDMMC003_Private.c ****       SDMMC->FORCE_EVENT_ERR_STATUS = 0x0001 ;
 725:../Dave/Generated/src/SDMMC003/SDMMC003_Private.c ****     }
 726:../Dave/Generated/src/SDMMC003/SDMMC003_Private.c ****     if (Test_TriggerInterrupt.Trigger_Command42Error == TRUE)
 727:../Dave/Generated/src/SDMMC003/SDMMC003_Private.c ****     {
 728:../Dave/Generated/src/SDMMC003/SDMMC003_Private.c ****       Test_TriggerInterrupt.Trigger_CommandErrorInterrupt = FALSE;
 729:../Dave/Generated/src/SDMMC003/SDMMC003_Private.c ****     }
 730:../Dave/Generated/src/SDMMC003/SDMMC003_Private.c **** #endif  /*SDMMC_UVP_TEST*/   
 731:../Dave/Generated/src/SDMMC003/SDMMC003_Private.c **** /* Blocking until any of the bit in the Interrupt Status Register gets set */
 732:../Dave/Generated/src/SDMMC003/SDMMC003_Private.c **** /*<<<DD_SDMMC_nonAPI_9_2>>>*/
 733:../Dave/Generated/src/SDMMC003/SDMMC003_Private.c ****     TimerId = SDMMC003_lStartTimer(SDMMC003_DELAY_IN_COMMAND);
 1227              		.loc 1 733 0
 1228 006e 4FF47A70 		mov	r0, #1000
 1229 0072 FFF7FEFF 		bl	SDMMC003_lStartTimer
 1230 0076 3861     		str	r0, [r7, #16]
 734:../Dave/Generated/src/SDMMC003/SDMMC003_Private.c ****     if(0 == TimerId)
 1231              		.loc 1 734 0
 1232 0078 3B69     		ldr	r3, [r7, #16]
 1233 007a 002B     		cmp	r3, #0
 1234 007c 03D1     		bne	.L64
 735:../Dave/Generated/src/SDMMC003/SDMMC003_Private.c ****     {
 736:../Dave/Generated/src/SDMMC003/SDMMC003_Private.c ****       Status = (uint32_t) SDMMC003_START_TIMER_FAILED;
 1235              		.loc 1 736 0
 1236 007e 4FF02F03 		mov	r3, #47
 1237 0082 7B61     		str	r3, [r7, #20]
 737:../Dave/Generated/src/SDMMC003/SDMMC003_Private.c ****       ERROR(GID_SDMMC00x, Status, 0, NULL);    
 738:../Dave/Generated/src/SDMMC003/SDMMC003_Private.c ****       break;
 1238              		.loc 1 738 0
 1239 0084 5DE0     		b	.L63
 1240              	.L64:
 739:../Dave/Generated/src/SDMMC003/SDMMC003_Private.c ****     }
 740:../Dave/Generated/src/SDMMC003/SDMMC003_Private.c ****     do
 741:../Dave/Generated/src/SDMMC003/SDMMC003_Private.c ****     {
 742:../Dave/Generated/src/SDMMC003/SDMMC003_Private.c ****       if (SDMMC003_Handle.TimerExpire == 0)
 1241              		.loc 1 742 0
 1242 0086 40F20003 		movw	r3, #:lower16:SDMMC003_Handle
 1243 008a C0F20003 		movt	r3, #:upper16:SDMMC003_Handle
 1244 008e 9B7A     		ldrb	r3, [r3, #10]
 1245 0090 DBB2     		uxtb	r3, r3
 1246 0092 002B     		cmp	r3, #0
 1247 0094 08D0     		beq	.L71
 1248              	.L65:
 743:../Dave/Generated/src/SDMMC003/SDMMC003_Private.c ****       {
 744:../Dave/Generated/src/SDMMC003/SDMMC003_Private.c ****         ERROR(GID_SDMMC00x, SDMMC003_TIMEOUT_OCCURED, 0, NULL);
 745:../Dave/Generated/src/SDMMC003/SDMMC003_Private.c ****         break;
 746:../Dave/Generated/src/SDMMC003/SDMMC003_Private.c ****       }
 747:../Dave/Generated/src/SDMMC003/SDMMC003_Private.c ****     } while (SDMMC003_ISRContext.CmdFlag == 0);
 1249              		.loc 1 747 0
 1250 0096 40F20003 		movw	r3, #:lower16:SDMMC003_ISRContext
 1251 009a C0F20003 		movt	r3, #:upper16:SDMMC003_ISRContext
 1252 009e 9B78     		ldrb	r3, [r3, #2]
 1253 00a0 DBB2     		uxtb	r3, r3
 1254 00a2 002B     		cmp	r3, #0
 1255 00a4 EFD0     		beq	.L64
 1256 00a6 00E0     		b	.L66
 1257              	.L71:
 745:../Dave/Generated/src/SDMMC003/SDMMC003_Private.c ****         break;
 1258              		.loc 1 745 0
 1259 00a8 00BF     		nop
 1260              	.L66:
 748:../Dave/Generated/src/SDMMC003/SDMMC003_Private.c ****     SDMMC003_ISRContext.CmdFlag = 0;
 1261              		.loc 1 748 0
 1262 00aa 40F20003 		movw	r3, #:lower16:SDMMC003_ISRContext
 1263 00ae C0F20003 		movt	r3, #:upper16:SDMMC003_ISRContext
 1264 00b2 4FF00002 		mov	r2, #0
 1265 00b6 9A70     		strb	r2, [r3, #2]
 749:../Dave/Generated/src/SDMMC003/SDMMC003_Private.c ****     SDMMC003_lStopTimer(TimerId);
 1266              		.loc 1 749 0
 1267 00b8 3869     		ldr	r0, [r7, #16]
 1268 00ba FFF7FEFF 		bl	SDMMC003_lStopTimer
 750:../Dave/Generated/src/SDMMC003/SDMMC003_Private.c ****    /* Check for any errors */
 751:../Dave/Generated/src/SDMMC003/SDMMC003_Private.c **** /*<<<DD_SDMMC_nonAPI_9_3>>> */
 752:../Dave/Generated/src/SDMMC003/SDMMC003_Private.c ****     if( SDMMC003_Handle.CommandInterruptError == SDMMC003_COMMAND_COMPLETE )
 1269              		.loc 1 752 0
 1270 00be 40F20003 		movw	r3, #:lower16:SDMMC003_Handle
 1271 00c2 C0F20003 		movt	r3, #:upper16:SDMMC003_Handle
 1272 00c6 1B79     		ldrb	r3, [r3, #4]
 1273 00c8 DBB2     		uxtb	r3, r3
 1274 00ca 1C2B     		cmp	r3, #28
 1275 00cc 07D1     		bne	.L67
 753:../Dave/Generated/src/SDMMC003/SDMMC003_Private.c ****     {
 754:../Dave/Generated/src/SDMMC003/SDMMC003_Private.c **** #if SDMMC_UVP_TEST
 755:../Dave/Generated/src/SDMMC003/SDMMC003_Private.c ****       if(Test_TriggerInterrupt.Trigger_CommandResponseError == TRUE)
 756:../Dave/Generated/src/SDMMC003/SDMMC003_Private.c ****       {
 757:../Dave/Generated/src/SDMMC003/SDMMC003_Private.c ****         Status = (uint32_t)SDMMC003_ERROR;
 758:../Dave/Generated/src/SDMMC003/SDMMC003_Private.c ****         break;
 759:../Dave/Generated/src/SDMMC003/SDMMC003_Private.c ****       }
 760:../Dave/Generated/src/SDMMC003/SDMMC003_Private.c **** #endif
 761:../Dave/Generated/src/SDMMC003/SDMMC003_Private.c ****       /* Read response received. */
 762:../Dave/Generated/src/SDMMC003/SDMMC003_Private.c **** /*<<<DD_SDMMC_nonAPI_9_4>>>*/
 763:../Dave/Generated/src/SDMMC003/SDMMC003_Private.c ****       Status = SDMMC003_lReadResponse(CommandPtr,ResponseType,ResponsePtr);
 1276              		.loc 1 763 0
 1277 00ce FB79     		ldrb	r3, [r7, #7]	@ zero_extendqisi2
 1278 00d0 F868     		ldr	r0, [r7, #12]
 1279 00d2 1946     		mov	r1, r3
 1280 00d4 3A68     		ldr	r2, [r7, #0]
 1281 00d6 FFF7FEFF 		bl	SDMMC003_lReadResponse
 1282 00da 7861     		str	r0, [r7, #20]
 764:../Dave/Generated/src/SDMMC003/SDMMC003_Private.c ****       break;
 1283              		.loc 1 764 0
 1284 00dc 31E0     		b	.L63
 1285              	.L67:
 765:../Dave/Generated/src/SDMMC003/SDMMC003_Private.c ****     }
 766:../Dave/Generated/src/SDMMC003/SDMMC003_Private.c **** /*<<<DD_SDMMC_nonAPI_9_5>>>*/
 767:../Dave/Generated/src/SDMMC003/SDMMC003_Private.c ****     /* For Cmd8, check for  Command Timeout Interrupt */
 768:../Dave/Generated/src/SDMMC003/SDMMC003_Private.c ****     else if ((CommandPtr->CommandIndex == SDMMC003_SD_SEND_IF_COND) &&
 1286              		.loc 1 768 0
 1287 00de FB68     		ldr	r3, [r7, #12]
 1288 00e0 5B78     		ldrb	r3, [r3, #1]	@ zero_extendqisi2
 1289 00e2 03F03F03 		and	r3, r3, #63
 1290 00e6 DBB2     		uxtb	r3, r3
 1291 00e8 082B     		cmp	r3, #8
 1292 00ea 0BD1     		bne	.L68
 769:../Dave/Generated/src/SDMMC003/SDMMC003_Private.c ****              (SDMMC003_Handle.CommandInterruptError == \
 1293              		.loc 1 769 0 discriminator 1
 1294 00ec 40F20003 		movw	r3, #:lower16:SDMMC003_Handle
 1295 00f0 C0F20003 		movt	r3, #:upper16:SDMMC003_Handle
 1296 00f4 1B79     		ldrb	r3, [r3, #4]
 1297 00f6 DBB2     		uxtb	r3, r3
 768:../Dave/Generated/src/SDMMC003/SDMMC003_Private.c ****     else if ((CommandPtr->CommandIndex == SDMMC003_SD_SEND_IF_COND) &&
 1298              		.loc 1 768 0 discriminator 1
 1299 00f8 022B     		cmp	r3, #2
 1300 00fa 03D1     		bne	.L68
 770:../Dave/Generated/src/SDMMC003/SDMMC003_Private.c ****                                              SDMMC003_COMMAND_TIMEOUT_ERROR))
 771:../Dave/Generated/src/SDMMC003/SDMMC003_Private.c ****     {
 772:../Dave/Generated/src/SDMMC003/SDMMC003_Private.c ****       Status = (uint32_t)SDMMC003_COMMAND_TIMEOUT_ERROR;
 1301              		.loc 1 772 0
 1302 00fc 4FF00203 		mov	r3, #2
 1303 0100 7B61     		str	r3, [r7, #20]
 773:../Dave/Generated/src/SDMMC003/SDMMC003_Private.c ****       break;
 1304              		.loc 1 773 0
 1305 0102 1EE0     		b	.L63
 1306              	.L68:
 774:../Dave/Generated/src/SDMMC003/SDMMC003_Private.c ****     }
 775:../Dave/Generated/src/SDMMC003/SDMMC003_Private.c **** #if SDMMC_UVP_TEST
 776:../Dave/Generated/src/SDMMC003/SDMMC003_Private.c ****     if (Test_TriggerInterrupt.Trigger_CommandErrorInterrupt == TRUE)
 777:../Dave/Generated/src/SDMMC003/SDMMC003_Private.c ****     {
 778:../Dave/Generated/src/SDMMC003/SDMMC003_Private.c ****       /* Enable the Command Complete Status Interrupt */
 779:../Dave/Generated/src/SDMMC003/SDMMC003_Private.c ****       SDMMC->EN_INT_STATUS_NORM |= SDMMC_EN_INT_STATUS_NORM_CMD_COMPLETE_EN_Msk;
 780:../Dave/Generated/src/SDMMC003/SDMMC003_Private.c ****       /* Enable the Command Complete Signal Interrupt */
 781:../Dave/Generated/src/SDMMC003/SDMMC003_Private.c ****       SDMMC->EN_INT_SIGNAL_NORM |= SDMMC_EN_INT_SIGNAL_NORM_CMD_COMPLETE_EN_Msk;
 782:../Dave/Generated/src/SDMMC003/SDMMC003_Private.c ****       SDMMC->EN_INT_STATUS_NORM |= (SDMMC_EN_INT_STATUS_NORM_BUFF_READ_READY_EN_Msk);
 783:../Dave/Generated/src/SDMMC003/SDMMC003_Private.c ****       SDMMC->EN_INT_SIGNAL_NORM |= (SDMMC_EN_INT_STATUS_NORM_BUFF_READ_READY_EN_Msk);
 784:../Dave/Generated/src/SDMMC003/SDMMC003_Private.c **** 
 785:../Dave/Generated/src/SDMMC003/SDMMC003_Private.c ****       SDMMC->EN_INT_STATUS_NORM |= (SDMMC_EN_INT_STATUS_NORM_BUFF_WRITE_READY_EN_Msk);
 786:../Dave/Generated/src/SDMMC003/SDMMC003_Private.c ****       SDMMC->EN_INT_SIGNAL_NORM |= (SDMMC_EN_INT_STATUS_NORM_BUFF_WRITE_READY_EN_Msk);
 787:../Dave/Generated/src/SDMMC003/SDMMC003_Private.c **** 
 788:../Dave/Generated/src/SDMMC003/SDMMC003_Private.c ****       SDMMC->EN_INT_STATUS_NORM |= (SDMMC_EN_INT_STATUS_NORM_TX_COMPLETE_EN_Msk);
 789:../Dave/Generated/src/SDMMC003/SDMMC003_Private.c ****       SDMMC->EN_INT_SIGNAL_NORM |= (SDMMC_EN_INT_SIGNAL_NORM_TX_COMPLETE_EN_Msk);
 790:../Dave/Generated/src/SDMMC003/SDMMC003_Private.c ****     }
 791:../Dave/Generated/src/SDMMC003/SDMMC003_Private.c ****     if (Test_TriggerInterrupt.Trigger_Cmd55Error == TRUE)
 792:../Dave/Generated/src/SDMMC003/SDMMC003_Private.c ****     {
 793:../Dave/Generated/src/SDMMC003/SDMMC003_Private.c ****         /* Enable the Command Complete Status Interrupt */
 794:../Dave/Generated/src/SDMMC003/SDMMC003_Private.c ****       SDMMC->EN_INT_STATUS_NORM |= SDMMC_EN_INT_STATUS_NORM_CMD_COMPLETE_EN_Msk;
 795:../Dave/Generated/src/SDMMC003/SDMMC003_Private.c ****       /* Enable the Command Complete Signal Interrupt */
 796:../Dave/Generated/src/SDMMC003/SDMMC003_Private.c ****       SDMMC->EN_INT_SIGNAL_NORM |= SDMMC_EN_INT_SIGNAL_NORM_CMD_COMPLETE_EN_Msk;
 797:../Dave/Generated/src/SDMMC003/SDMMC003_Private.c **** 
 798:../Dave/Generated/src/SDMMC003/SDMMC003_Private.c ****        SDMMC->EN_INT_STATUS_NORM |= (SDMMC_EN_INT_STATUS_NORM_BUFF_READ_READY_EN_Msk);
 799:../Dave/Generated/src/SDMMC003/SDMMC003_Private.c ****       SDMMC->EN_INT_SIGNAL_NORM |= (SDMMC_EN_INT_STATUS_NORM_BUFF_READ_READY_EN_Msk);
 800:../Dave/Generated/src/SDMMC003/SDMMC003_Private.c **** 
 801:../Dave/Generated/src/SDMMC003/SDMMC003_Private.c ****       SDMMC->EN_INT_STATUS_NORM |= (SDMMC_EN_INT_STATUS_NORM_BUFF_WRITE_READY_EN_Msk);
 802:../Dave/Generated/src/SDMMC003/SDMMC003_Private.c ****       SDMMC->EN_INT_SIGNAL_NORM |= (SDMMC_EN_INT_STATUS_NORM_BUFF_WRITE_READY_EN_Msk);
 803:../Dave/Generated/src/SDMMC003/SDMMC003_Private.c **** 
 804:../Dave/Generated/src/SDMMC003/SDMMC003_Private.c ****       SDMMC->EN_INT_STATUS_NORM |= (SDMMC_EN_INT_STATUS_NORM_TX_COMPLETE_EN_Msk);
 805:../Dave/Generated/src/SDMMC003/SDMMC003_Private.c ****       SDMMC->EN_INT_SIGNAL_NORM |= (SDMMC_EN_INT_SIGNAL_NORM_TX_COMPLETE_EN_Msk);
 806:../Dave/Generated/src/SDMMC003/SDMMC003_Private.c ****     }
 807:../Dave/Generated/src/SDMMC003/SDMMC003_Private.c ****     if (Test_TriggerInterrupt.Trigger_Command42Error == TRUE)
 808:../Dave/Generated/src/SDMMC003/SDMMC003_Private.c ****     {
 809:../Dave/Generated/src/SDMMC003/SDMMC003_Private.c ****       /* Enable the Command Complete Status Interrupt */
 810:../Dave/Generated/src/SDMMC003/SDMMC003_Private.c ****       SDMMC->EN_INT_STATUS_NORM |= SDMMC_EN_INT_STATUS_NORM_CMD_COMPLETE_EN_Msk;
 811:../Dave/Generated/src/SDMMC003/SDMMC003_Private.c ****       /* Enable the Command Complete Signal Interrupt */
 812:../Dave/Generated/src/SDMMC003/SDMMC003_Private.c ****       SDMMC->EN_INT_SIGNAL_NORM |= SDMMC_EN_INT_SIGNAL_NORM_CMD_COMPLETE_EN_Msk;
 813:../Dave/Generated/src/SDMMC003/SDMMC003_Private.c ****     }
 814:../Dave/Generated/src/SDMMC003/SDMMC003_Private.c **** 
 815:../Dave/Generated/src/SDMMC003/SDMMC003_Private.c ****     if (Test_TriggerInterrupt.Trigger_EraseEndError == TRUE)
 816:../Dave/Generated/src/SDMMC003/SDMMC003_Private.c ****     {
 817:../Dave/Generated/src/SDMMC003/SDMMC003_Private.c ****       /* Enable the Command Complete Status Interrupt */
 818:../Dave/Generated/src/SDMMC003/SDMMC003_Private.c ****       SDMMC->EN_INT_STATUS_NORM |= SDMMC_EN_INT_STATUS_NORM_CMD_COMPLETE_EN_Msk;
 819:../Dave/Generated/src/SDMMC003/SDMMC003_Private.c ****       /* Enable the Command Complete Signal Interrupt */
 820:../Dave/Generated/src/SDMMC003/SDMMC003_Private.c ****       SDMMC->EN_INT_SIGNAL_NORM |= SDMMC_EN_INT_SIGNAL_NORM_CMD_COMPLETE_EN_Msk;
 821:../Dave/Generated/src/SDMMC003/SDMMC003_Private.c ****     }
 822:../Dave/Generated/src/SDMMC003/SDMMC003_Private.c ****     if (Test_TriggerInterrupt.Trigger_EraseStartError == TRUE)
 823:../Dave/Generated/src/SDMMC003/SDMMC003_Private.c ****     {
 824:../Dave/Generated/src/SDMMC003/SDMMC003_Private.c ****       /* Enable the Command Complete Status Interrupt */
 825:../Dave/Generated/src/SDMMC003/SDMMC003_Private.c ****       SDMMC->EN_INT_STATUS_NORM |=  SDMMC_EN_INT_STATUS_NORM_CMD_COMPLETE_EN_Msk;
 826:../Dave/Generated/src/SDMMC003/SDMMC003_Private.c ****         /* Disable the Command Complete Signal Interrupt */
 827:../Dave/Generated/src/SDMMC003/SDMMC003_Private.c ****       SDMMC->EN_INT_SIGNAL_NORM |=  SDMMC_EN_INT_SIGNAL_NORM_CMD_COMPLETE_EN_Msk ;
 828:../Dave/Generated/src/SDMMC003/SDMMC003_Private.c ****     }
 829:../Dave/Generated/src/SDMMC003/SDMMC003_Private.c **** #endif  /*SDMMC_UVP_TEST*/
 830:../Dave/Generated/src/SDMMC003/SDMMC003_Private.c **** 
 831:../Dave/Generated/src/SDMMC003/SDMMC003_Private.c **** #if SDMMC_UVP_TEST
 832:../Dave/Generated/src/SDMMC003/SDMMC003_Private.c ****     if (Test_TriggerInterrupt.Trigger_TC8Error == TRUE)
 833:../Dave/Generated/src/SDMMC003/SDMMC003_Private.c ****     {
 834:../Dave/Generated/src/SDMMC003/SDMMC003_Private.c ****       Test_TriggerInterrupt.Trigger_CommandErrorInterrupt = FALSE;
 835:../Dave/Generated/src/SDMMC003/SDMMC003_Private.c ****     }
 836:../Dave/Generated/src/SDMMC003/SDMMC003_Private.c ****     if (Test_TriggerInterrupt.Trigger_TC10Error == TRUE)
 837:../Dave/Generated/src/SDMMC003/SDMMC003_Private.c ****     {
 838:../Dave/Generated/src/SDMMC003/SDMMC003_Private.c ****       Test_TriggerInterrupt.Trigger_CommandErrorInterrupt = FALSE;
 839:../Dave/Generated/src/SDMMC003/SDMMC003_Private.c ****     }
 840:../Dave/Generated/src/SDMMC003/SDMMC003_Private.c ****     if (Test_TriggerInterrupt.Trigger_TC13Error == TRUE)
 841:../Dave/Generated/src/SDMMC003/SDMMC003_Private.c ****     {
 842:../Dave/Generated/src/SDMMC003/SDMMC003_Private.c ****       Test_TriggerInterrupt.Trigger_CommandErrorInterrupt = FALSE;
 843:../Dave/Generated/src/SDMMC003/SDMMC003_Private.c ****     }
 844:../Dave/Generated/src/SDMMC003/SDMMC003_Private.c ****     if (Test_TriggerInterrupt.Trigger_TC17Error == TRUE)
 845:../Dave/Generated/src/SDMMC003/SDMMC003_Private.c ****     {
 846:../Dave/Generated/src/SDMMC003/SDMMC003_Private.c ****       Test_TriggerInterrupt.Trigger_CommandErrorInterrupt = FALSE;
 847:../Dave/Generated/src/SDMMC003/SDMMC003_Private.c ****     }
 848:../Dave/Generated/src/SDMMC003/SDMMC003_Private.c ****     if (Test_TriggerInterrupt.Trigger_TC20Error == TRUE)
 849:../Dave/Generated/src/SDMMC003/SDMMC003_Private.c ****     {
 850:../Dave/Generated/src/SDMMC003/SDMMC003_Private.c ****       Test_TriggerInterrupt.Trigger_CommandErrorInterrupt = FALSE;
 851:../Dave/Generated/src/SDMMC003/SDMMC003_Private.c ****     }
 852:../Dave/Generated/src/SDMMC003/SDMMC003_Private.c **** #endif /* SDMMC_UVP_TEST  */
 853:../Dave/Generated/src/SDMMC003/SDMMC003_Private.c **** /*<<<DD_SDMMC_nonAPI_9_6>>>*/
 854:../Dave/Generated/src/SDMMC003/SDMMC003_Private.c ****     if (CommandPtr->DataPresentSelect == 1)
 1307              		.loc 1 854 0
 1308 0104 FB68     		ldr	r3, [r7, #12]
 1309 0106 1B78     		ldrb	r3, [r3, #0]	@ zero_extendqisi2
 1310 0108 03F02003 		and	r3, r3, #32
 1311 010c DBB2     		uxtb	r3, r3
 1312 010e 002B     		cmp	r3, #0
 1313 0110 06D0     		beq	.L69
 855:../Dave/Generated/src/SDMMC003/SDMMC003_Private.c ****     {
 856:../Dave/Generated/src/SDMMC003/SDMMC003_Private.c ****       SDMMC003_Handle.IssueAbort = 1UL;
 1314              		.loc 1 856 0
 1315 0112 40F20003 		movw	r3, #:lower16:SDMMC003_Handle
 1316 0116 C0F20003 		movt	r3, #:upper16:SDMMC003_Handle
 1317 011a 4FF00102 		mov	r2, #1
 1318 011e DA72     		strb	r2, [r3, #11]
 1319              	.L69:
 857:../Dave/Generated/src/SDMMC003/SDMMC003_Private.c ****     }    
 858:../Dave/Generated/src/SDMMC003/SDMMC003_Private.c ****     /* Error Recovery for the failed command  */
 859:../Dave/Generated/src/SDMMC003/SDMMC003_Private.c ****     Status = SDMMC003_lErrorInterruptRecovery( \
 1320              		.loc 1 859 0
 1321 0120 40F20003 		movw	r3, #:lower16:SDMMC003_ISRContext
 1322 0124 C0F20003 		movt	r3, #:upper16:SDMMC003_ISRContext
 1323 0128 1B88     		ldrh	r3, [r3, #0]	@ movhi
 1324 012a 9AB2     		uxth	r2, r3
 1325 012c 40F20003 		movw	r3, #:lower16:SDMMC003_Handle
 1326 0130 C0F20003 		movt	r3, #:upper16:SDMMC003_Handle
 1327 0134 DB7A     		ldrb	r3, [r3, #11]
 1328 0136 DBB2     		uxtb	r3, r3
 1329 0138 1046     		mov	r0, r2
 1330 013a 1946     		mov	r1, r3
 1331 013c FFF7FEFF 		bl	SDMMC003_lErrorInterruptRecovery
 1332 0140 7861     		str	r0, [r7, #20]
 1333              	.L63:
 860:../Dave/Generated/src/SDMMC003/SDMMC003_Private.c ****                                    SDMMC003_ISRContext.InterruptStatusShadow, \
 861:../Dave/Generated/src/SDMMC003/SDMMC003_Private.c ****                                    SDMMC003_Handle.IssueAbort);
 862:../Dave/Generated/src/SDMMC003/SDMMC003_Private.c ****   } while(0);
 863:../Dave/Generated/src/SDMMC003/SDMMC003_Private.c ****   FUNCTION_EXIT(GID_SDMMC00x, (uint32_t)SDMMC003_FUNCTION_EXIT);
 864:../Dave/Generated/src/SDMMC003/SDMMC003_Private.c ****   return Status;
 1334              		.loc 1 864 0
 1335 0142 7B69     		ldr	r3, [r7, #20]
 865:../Dave/Generated/src/SDMMC003/SDMMC003_Private.c **** }
 1336              		.loc 1 865 0
 1337 0144 1846     		mov	r0, r3
 1338 0146 07F11807 		add	r7, r7, #24
 1339 014a BD46     		mov	sp, r7
 1340 014c 80BD     		pop	{r7, pc}
 1341              		.cfi_endproc
 1342              	.LFE127:
 1344 014e 00BF     		.section	.text.SDMMC003_lSetVoltageWindow,"ax",%progbits
 1345              		.align	2
 1346              		.global	SDMMC003_lSetVoltageWindow
 1347              		.thumb
 1348              		.thumb_func
 1350              	SDMMC003_lSetVoltageWindow:
 1351              	.LFB128:
 866:../Dave/Generated/src/SDMMC003/SDMMC003_Private.c **** 
 867:../Dave/Generated/src/SDMMC003/SDMMC003_Private.c **** /*<<<DD_SDMMC_nonAPI_10>>> */
 868:../Dave/Generated/src/SDMMC003/SDMMC003_Private.c **** /*
 869:../Dave/Generated/src/SDMMC003/SDMMC003_Private.c ****  * This function sets the voltage window in OCR register
 870:../Dave/Generated/src/SDMMC003/SDMMC003_Private.c ****  */
 871:../Dave/Generated/src/SDMMC003/SDMMC003_Private.c **** status_t  SDMMC003_lSetVoltageWindow()
 872:../Dave/Generated/src/SDMMC003/SDMMC003_Private.c **** {
 1352              		.loc 1 872 0
 1353              		.cfi_startproc
 1354              		@ args = 0, pretend = 0, frame = 16
 1355              		@ frame_needed = 1, uses_anonymous_args = 0
 1356 0000 80B5     		push	{r7, lr}
 1357              	.LCFI32:
 1358              		.cfi_def_cfa_offset 8
 1359              		.cfi_offset 7, -8
 1360              		.cfi_offset 14, -4
 1361 0002 84B0     		sub	sp, sp, #16
 1362              	.LCFI33:
 1363              		.cfi_def_cfa_offset 24
 1364 0004 00AF     		add	r7, sp, #0
 1365              	.LCFI34:
 1366              		.cfi_def_cfa_register 7
 873:../Dave/Generated/src/SDMMC003/SDMMC003_Private.c ****   status_t Status = (uint32_t)SDMMC003_ERROR;
 1367              		.loc 1 873 0
 1368 0006 4FF00103 		mov	r3, #1
 1369 000a FB60     		str	r3, [r7, #12]
 874:../Dave/Generated/src/SDMMC003/SDMMC003_Private.c ****   uint32_t CardStatus = 0;
 1370              		.loc 1 874 0
 1371 000c 4FF00003 		mov	r3, #0
 1372 0010 3B60     		str	r3, [r7, #0]
 875:../Dave/Generated/src/SDMMC003/SDMMC003_Private.c ****   uint32_t Argument = 0;
 1373              		.loc 1 875 0
 1374 0012 4FF00003 		mov	r3, #0
 1375 0016 BB60     		str	r3, [r7, #8]
 876:../Dave/Generated/src/SDMMC003/SDMMC003_Private.c ****   uint32_t LoopCount= 0;
 1376              		.loc 1 876 0
 1377 0018 4FF00003 		mov	r3, #0
 1378 001c 7B60     		str	r3, [r7, #4]
 877:../Dave/Generated/src/SDMMC003/SDMMC003_Private.c ****   FUNCTION_ENTRY(GID_SDMMC00x, (uint32_t)SDMMC003_FUNCTION_ENTRY);
 878:../Dave/Generated/src/SDMMC003/SDMMC003_Private.c **** /* <<<DD_SDMMC_nonAPI_10_1>>> */
 879:../Dave/Generated/src/SDMMC003/SDMMC003_Private.c ****   /* For Standard Capacity Card  */
 880:../Dave/Generated/src/SDMMC003/SDMMC003_Private.c ****   if (SDMMC003_Handle.f8 == 0)
 1379              		.loc 1 880 0
 1380 001e 40F20003 		movw	r3, #:lower16:SDMMC003_Handle
 1381 0022 C0F20003 		movt	r3, #:upper16:SDMMC003_Handle
 1382 0026 5B7A     		ldrb	r3, [r3, #9]
 1383 0028 DBB2     		uxtb	r3, r3
 1384 002a 002B     		cmp	r3, #0
 1385 002c 03D1     		bne	.L73
 881:../Dave/Generated/src/SDMMC003/SDMMC003_Private.c ****   {
 882:../Dave/Generated/src/SDMMC003/SDMMC003_Private.c ****     /* Set HCS = 0  */
 883:../Dave/Generated/src/SDMMC003/SDMMC003_Private.c ****     Argument = SDMMC003_SD_ACMD41_F80_ARG;
 1386              		.loc 1 883 0
 1387 002e 4FF48013 		mov	r3, #1048576
 1388 0032 BB60     		str	r3, [r7, #8]
 1389 0034 04E0     		b	.L74
 1390              	.L73:
 884:../Dave/Generated/src/SDMMC003/SDMMC003_Private.c ****   }
 885:../Dave/Generated/src/SDMMC003/SDMMC003_Private.c **** /* <<<DD_SDMMC_nonAPI_10_2>>> */
 886:../Dave/Generated/src/SDMMC003/SDMMC003_Private.c ****   /* For High Capacity Card */
 887:../Dave/Generated/src/SDMMC003/SDMMC003_Private.c ****   else
 888:../Dave/Generated/src/SDMMC003/SDMMC003_Private.c ****   {
 889:../Dave/Generated/src/SDMMC003/SDMMC003_Private.c ****     /* Set  HCS = 1 */
 890:../Dave/Generated/src/SDMMC003/SDMMC003_Private.c ****     Argument = SDMMC003_SD_ACMD41_F81_ARG;
 1391              		.loc 1 890 0
 1392 0036 4FF00003 		mov	r3, #0
 1393 003a C4F21003 		movt	r3, 16400
 1394 003e BB60     		str	r3, [r7, #8]
 1395              	.L74:
 891:../Dave/Generated/src/SDMMC003/SDMMC003_Private.c ****   }
 892:../Dave/Generated/src/SDMMC003/SDMMC003_Private.c ****   do
 893:../Dave/Generated/src/SDMMC003/SDMMC003_Private.c ****   {
 894:../Dave/Generated/src/SDMMC003/SDMMC003_Private.c ****     /*Send Command55 for Application Specific Command with default RCA as 0*/
 895:../Dave/Generated/src/SDMMC003/SDMMC003_Private.c ****     Status = SDMMC003_lSendCommand( &(SDMMC003_COMMON_COMMAND(55)), \
 1396              		.loc 1 895 0
 1397 0040 40F20003 		movw	r3, #:lower16:SDMMC003_SDHashTable
 1398 0044 C0F20003 		movt	r3, #:upper16:SDMMC003_SDHashTable
 1399 0048 93F83730 		ldrb	r3, [r3, #55]	@ zero_extendqisi2
 1400 004c 4FEA4302 		lsl	r2, r3, #1
 1401 0050 40F20003 		movw	r3, #:lower16:SDMMC003_Command
 1402 0054 C0F20003 		movt	r3, #:upper16:SDMMC003_Command
 1403 0058 D218     		adds	r2, r2, r3
 896:../Dave/Generated/src/SDMMC003/SDMMC003_Private.c ****                                      SDMMC003_ARGUMENT0, SDMMC003_RESPONSE_R1,\
 897:../Dave/Generated/src/SDMMC003/SDMMC003_Private.c ****                                      &CardStatus);
 1404              		.loc 1 897 0
 1405 005a 3B46     		mov	r3, r7
 895:../Dave/Generated/src/SDMMC003/SDMMC003_Private.c ****     Status = SDMMC003_lSendCommand( &(SDMMC003_COMMON_COMMAND(55)), \
 1406              		.loc 1 895 0
 1407 005c 1046     		mov	r0, r2
 1408 005e 4FF00001 		mov	r1, #0
 1409 0062 4FF00102 		mov	r2, #1
 1410 0066 FFF7FEFF 		bl	SDMMC003_lSendCommand
 1411 006a F860     		str	r0, [r7, #12]
 898:../Dave/Generated/src/SDMMC003/SDMMC003_Private.c **** /* <<<DD_SDMMC_nonAPI_10_3>>> */
 899:../Dave/Generated/src/SDMMC003/SDMMC003_Private.c ****     if (Status != (uint32_t)DAVEApp_SUCCESS)
 1412              		.loc 1 899 0
 1413 006c FB68     		ldr	r3, [r7, #12]
 1414 006e 002B     		cmp	r3, #0
 1415 0070 38D1     		bne	.L79
 1416              	.L75:
 900:../Dave/Generated/src/SDMMC003/SDMMC003_Private.c ****     {
 901:../Dave/Generated/src/SDMMC003/SDMMC003_Private.c ****       break;
 902:../Dave/Generated/src/SDMMC003/SDMMC003_Private.c ****     }
 903:../Dave/Generated/src/SDMMC003/SDMMC003_Private.c **** /* Send ACMD41 to Set the card's voltage window */
 904:../Dave/Generated/src/SDMMC003/SDMMC003_Private.c ****     Status = SDMMC003_lSendCommand( &(SDMMC003_SD_COMMAND(62)), Argument,\
 1417              		.loc 1 904 0
 1418 0072 40F20003 		movw	r3, #:lower16:SDMMC003_SDHashTable
 1419 0076 C0F20003 		movt	r3, #:upper16:SDMMC003_SDHashTable
 1420 007a 93F83E30 		ldrb	r3, [r3, #62]	@ zero_extendqisi2
 1421 007e 4FEA4302 		lsl	r2, r3, #1
 1422 0082 40F20003 		movw	r3, #:lower16:SDMMC003_Command
 1423 0086 C0F20003 		movt	r3, #:upper16:SDMMC003_Command
 1424 008a D318     		adds	r3, r2, r3
 1425 008c 1846     		mov	r0, r3
 1426 008e B968     		ldr	r1, [r7, #8]
 1427 0090 4FF00402 		mov	r2, #4
 1428 0094 40F20003 		movw	r3, #:lower16:SDMMC003_CardInfo
 1429 0098 C0F20003 		movt	r3, #:upper16:SDMMC003_CardInfo
 1430 009c FFF7FEFF 		bl	SDMMC003_lSendCommand
 1431 00a0 F860     		str	r0, [r7, #12]
 905:../Dave/Generated/src/SDMMC003/SDMMC003_Private.c ****                                   SDMMC003_RESPONSE_R3,&(SDMMC003_CardInfo.Ocr));
 906:../Dave/Generated/src/SDMMC003/SDMMC003_Private.c **** /* <<<DD_SDMMC_nonAPI_10_4>>> */
 907:../Dave/Generated/src/SDMMC003/SDMMC003_Private.c ****     if (Status != (uint32_t)DAVEApp_SUCCESS && \
 1432              		.loc 1 907 0
 1433 00a2 FB68     		ldr	r3, [r7, #12]
 1434 00a4 002B     		cmp	r3, #0
 1435 00a6 02D0     		beq	.L77
 1436              		.loc 1 907 0 is_stmt 0 discriminator 1
 1437 00a8 FB68     		ldr	r3, [r7, #12]
 1438 00aa 122B     		cmp	r3, #18
 1439 00ac 1CD1     		bne	.L80
 1440              	.L77:
 908:../Dave/Generated/src/SDMMC003/SDMMC003_Private.c ****        (Status != (uint32_t)SDMMC003_ILLEGAL_COMMAND_ERROR))
 909:../Dave/Generated/src/SDMMC003/SDMMC003_Private.c ****     {
 910:../Dave/Generated/src/SDMMC003/SDMMC003_Private.c ****       break;
 911:../Dave/Generated/src/SDMMC003/SDMMC003_Private.c ****     }
 912:../Dave/Generated/src/SDMMC003/SDMMC003_Private.c ****     Status = (uint32_t)DAVEApp_SUCCESS;
 1441              		.loc 1 912 0 is_stmt 1
 1442 00ae 4FF00003 		mov	r3, #0
 1443 00b2 FB60     		str	r3, [r7, #12]
 913:../Dave/Generated/src/SDMMC003/SDMMC003_Private.c ****     /* Cards takes some time to set power status bit. Card must repsond 
 914:../Dave/Generated/src/SDMMC003/SDMMC003_Private.c ****     within 1 sec. */
 915:../Dave/Generated/src/SDMMC003/SDMMC003_Private.c ****     /* Timeout of 10ms.*/
 916:../Dave/Generated/src/SDMMC003/SDMMC003_Private.c ****     SDMMC003_lDelay(SDMMC003_CARD_POWER_DELAY);
 1444              		.loc 1 916 0
 1445 00b4 4FF01400 		mov	r0, #20
 1446 00b8 FFF7FEFF 		bl	SDMMC003_lDelay
 917:../Dave/Generated/src/SDMMC003/SDMMC003_Private.c **** /* Check for busy bit in the OCR content i.e response */
 918:../Dave/Generated/src/SDMMC003/SDMMC003_Private.c ****   } while(!(SDMMC003_CardInfo.Ocr & SDMMC003_OCR_POWER_STATUS_BITMASK) &&\
 1447              		.loc 1 918 0
 1448 00bc 40F20003 		movw	r3, #:lower16:SDMMC003_CardInfo
 1449 00c0 C0F20003 		movt	r3, #:upper16:SDMMC003_CardInfo
 1450 00c4 1B68     		ldr	r3, [r3, #0]
 1451 00c6 002B     		cmp	r3, #0
 1452 00c8 0FDB     		blt	.L76
 919:../Dave/Generated/src/SDMMC003/SDMMC003_Private.c ****            ( (LoopCount++)<50 ) );
 1453              		.loc 1 919 0 discriminator 1
 1454 00ca 7B68     		ldr	r3, [r7, #4]
 1455 00cc 312B     		cmp	r3, #49
 1456 00ce 8CBF     		ite	hi
 1457 00d0 0023     		movhi	r3, #0
 1458 00d2 0123     		movls	r3, #1
 1459 00d4 DBB2     		uxtb	r3, r3
 1460 00d6 7A68     		ldr	r2, [r7, #4]
 1461 00d8 02F10102 		add	r2, r2, #1
 1462 00dc 7A60     		str	r2, [r7, #4]
 918:../Dave/Generated/src/SDMMC003/SDMMC003_Private.c ****   } while(!(SDMMC003_CardInfo.Ocr & SDMMC003_OCR_POWER_STATUS_BITMASK) &&\
 1463              		.loc 1 918 0 discriminator 1
 1464 00de 002B     		cmp	r3, #0
 1465 00e0 AED1     		bne	.L74
 1466 00e2 02E0     		b	.L76
 1467              	.L79:
 901:../Dave/Generated/src/SDMMC003/SDMMC003_Private.c ****       break;
 1468              		.loc 1 901 0
 1469 00e4 00BF     		nop
 1470 00e6 00E0     		b	.L76
 1471              	.L80:
 910:../Dave/Generated/src/SDMMC003/SDMMC003_Private.c ****       break;
 1472              		.loc 1 910 0
 1473 00e8 00BF     		nop
 1474              	.L76:
 920:../Dave/Generated/src/SDMMC003/SDMMC003_Private.c ****   FUNCTION_EXIT(GID_SDMMC00x, (uint32_t)SDMMC003_FUNCTION_EXIT);
 921:../Dave/Generated/src/SDMMC003/SDMMC003_Private.c ****   return Status;
 1475              		.loc 1 921 0
 1476 00ea FB68     		ldr	r3, [r7, #12]
 922:../Dave/Generated/src/SDMMC003/SDMMC003_Private.c **** }
 1477              		.loc 1 922 0
 1478 00ec 1846     		mov	r0, r3
 1479 00ee 07F11007 		add	r7, r7, #16
 1480 00f2 BD46     		mov	sp, r7
 1481 00f4 80BD     		pop	{r7, pc}
 1482              		.cfi_endproc
 1483              	.LFE128:
 1485 00f6 00BF     		.section	.text.SDMMC003_lQueryOperatingCond,"ax",%progbits
 1486              		.align	2
 1487              		.global	SDMMC003_lQueryOperatingCond
 1488              		.thumb
 1489              		.thumb_func
 1491              	SDMMC003_lQueryOperatingCond:
 1492              	.LFB129:
 923:../Dave/Generated/src/SDMMC003/SDMMC003_Private.c **** 
 924:../Dave/Generated/src/SDMMC003/SDMMC003_Private.c **** /*<<<DD_SDMMC_nonAPI_11>>> */
 925:../Dave/Generated/src/SDMMC003/SDMMC003_Private.c **** /*
 926:../Dave/Generated/src/SDMMC003/SDMMC003_Private.c ****  * This function queries Voltage operating condition of the card.
 927:../Dave/Generated/src/SDMMC003/SDMMC003_Private.c ****  */
 928:../Dave/Generated/src/SDMMC003/SDMMC003_Private.c **** status_t SDMMC003_lQueryOperatingCond()
 929:../Dave/Generated/src/SDMMC003/SDMMC003_Private.c **** {
 1493              		.loc 1 929 0
 1494              		.cfi_startproc
 1495              		@ args = 0, pretend = 0, frame = 8
 1496              		@ frame_needed = 1, uses_anonymous_args = 0
 1497 0000 80B5     		push	{r7, lr}
 1498              	.LCFI35:
 1499              		.cfi_def_cfa_offset 8
 1500              		.cfi_offset 7, -8
 1501              		.cfi_offset 14, -4
 1502 0002 82B0     		sub	sp, sp, #8
 1503              	.LCFI36:
 1504              		.cfi_def_cfa_offset 16
 1505 0004 00AF     		add	r7, sp, #0
 1506              	.LCFI37:
 1507              		.cfi_def_cfa_register 7
 930:../Dave/Generated/src/SDMMC003/SDMMC003_Private.c ****   uint32_t ResponseData = 0;
 1508              		.loc 1 930 0
 1509 0006 4FF00003 		mov	r3, #0
 1510 000a 3B60     		str	r3, [r7, #0]
 931:../Dave/Generated/src/SDMMC003/SDMMC003_Private.c ****   status_t Status;
 932:../Dave/Generated/src/SDMMC003/SDMMC003_Private.c ****   FUNCTION_ENTRY(GID_SDMMC00x, (uint32_t)SDMMC003_FUNCTION_ENTRY);
 933:../Dave/Generated/src/SDMMC003/SDMMC003_Private.c ****   /*Query voltage operating condition i.e. cmd8 */
 934:../Dave/Generated/src/SDMMC003/SDMMC003_Private.c ****   Status = SDMMC003_lSendCommand(&(SDMMC003_SD_COMMAND(8)),SDMMC003_SD_CMD8_ARG,\
 1511              		.loc 1 934 0
 1512 000c 40F20003 		movw	r3, #:lower16:SDMMC003_SDHashTable
 1513 0010 C0F20003 		movt	r3, #:upper16:SDMMC003_SDHashTable
 1514 0014 1B7A     		ldrb	r3, [r3, #8]	@ zero_extendqisi2
 1515 0016 4FEA4302 		lsl	r2, r3, #1
 1516 001a 40F20003 		movw	r3, #:lower16:SDMMC003_Command
 1517 001e C0F20003 		movt	r3, #:upper16:SDMMC003_Command
 1518 0022 D218     		adds	r2, r2, r3
 935:../Dave/Generated/src/SDMMC003/SDMMC003_Private.c ****                                   SDMMC003_RESPONSE_R7, &ResponseData );
 1519              		.loc 1 935 0
 1520 0024 3B46     		mov	r3, r7
 934:../Dave/Generated/src/SDMMC003/SDMMC003_Private.c ****   Status = SDMMC003_lSendCommand(&(SDMMC003_SD_COMMAND(8)),SDMMC003_SD_CMD8_ARG,\
 1521              		.loc 1 934 0
 1522 0026 1046     		mov	r0, r2
 1523 0028 4FF4D571 		mov	r1, #426
 1524 002c 4FF00602 		mov	r2, #6
 1525 0030 FFF7FEFF 		bl	SDMMC003_lSendCommand
 1526 0034 7860     		str	r0, [r7, #4]
 936:../Dave/Generated/src/SDMMC003/SDMMC003_Private.c ****   do
 937:../Dave/Generated/src/SDMMC003/SDMMC003_Private.c ****   {
 938:../Dave/Generated/src/SDMMC003/SDMMC003_Private.c **** /*<<<DD_SDMMC_nonAPI_11_1>>> */
 939:../Dave/Generated/src/SDMMC003/SDMMC003_Private.c ****     if (Status != (uint32_t)DAVEApp_SUCCESS )
 1527              		.loc 1 939 0
 1528 0036 7B68     		ldr	r3, [r7, #4]
 1529 0038 002B     		cmp	r3, #0
 1530 003a 12D0     		beq	.L82
 940:../Dave/Generated/src/SDMMC003/SDMMC003_Private.c ****     {
 941:../Dave/Generated/src/SDMMC003/SDMMC003_Private.c **** /*<<<DD_SDMMC_nonAPI_11_2>>> */
 942:../Dave/Generated/src/SDMMC003/SDMMC003_Private.c ****       /*  No response is received for Standard Capacity SD cards or MMC card. */
 943:../Dave/Generated/src/SDMMC003/SDMMC003_Private.c ****       if (SDMMC003_Handle.CommandInterruptError ==SDMMC003_COMMAND_TIMEOUT_ERROR)
 1531              		.loc 1 943 0
 1532 003c 40F20003 		movw	r3, #:lower16:SDMMC003_Handle
 1533 0040 C0F20003 		movt	r3, #:upper16:SDMMC003_Handle
 1534 0044 1B79     		ldrb	r3, [r3, #4]
 1535 0046 DBB2     		uxtb	r3, r3
 1536 0048 022B     		cmp	r3, #2
 1537 004a 26D1     		bne	.L88
 944:../Dave/Generated/src/SDMMC003/SDMMC003_Private.c ****       {
 945:../Dave/Generated/src/SDMMC003/SDMMC003_Private.c ****         SDMMC003_Handle.f8 = 0;
 1538              		.loc 1 945 0
 1539 004c 40F20003 		movw	r3, #:lower16:SDMMC003_Handle
 1540 0050 C0F20003 		movt	r3, #:upper16:SDMMC003_Handle
 1541 0054 4FF00002 		mov	r2, #0
 1542 0058 5A72     		strb	r2, [r3, #9]
 946:../Dave/Generated/src/SDMMC003/SDMMC003_Private.c ****         Status = (uint32_t)DAVEApp_SUCCESS;
 1543              		.loc 1 946 0
 1544 005a 4FF00003 		mov	r3, #0
 1545 005e 7B60     		str	r3, [r7, #4]
 1546 0060 1CE0     		b	.L84
 1547              	.L82:
 947:../Dave/Generated/src/SDMMC003/SDMMC003_Private.c ****       }
 948:../Dave/Generated/src/SDMMC003/SDMMC003_Private.c ****       /*<<<DD_SDMMC_nonAPI_11_3>>> */
 949:../Dave/Generated/src/SDMMC003/SDMMC003_Private.c ****       else
 950:../Dave/Generated/src/SDMMC003/SDMMC003_Private.c ****       {
 951:../Dave/Generated/src/SDMMC003/SDMMC003_Private.c ****         break;
 952:../Dave/Generated/src/SDMMC003/SDMMC003_Private.c ****       }
 953:../Dave/Generated/src/SDMMC003/SDMMC003_Private.c ****     }
 954:../Dave/Generated/src/SDMMC003/SDMMC003_Private.c ****     /* Response received i.e. High Capacity cards. */
 955:../Dave/Generated/src/SDMMC003/SDMMC003_Private.c **** /*<<<DD_SDMMC_nonAPI_11_4>>> */
 956:../Dave/Generated/src/SDMMC003/SDMMC003_Private.c ****     else
 957:../Dave/Generated/src/SDMMC003/SDMMC003_Private.c ****     {
 958:../Dave/Generated/src/SDMMC003/SDMMC003_Private.c **** /*<<<DD_SDMMC_nonAPI_11_5>>> */
 959:../Dave/Generated/src/SDMMC003/SDMMC003_Private.c ****       /* Check whether Check pattern matches in the Argument and Response */
 960:../Dave/Generated/src/SDMMC003/SDMMC003_Private.c ****       if (((ResponseData >> SDMMC003_SD_CMD8_CHECK_PATTERN_BITPOS) &\
 1548              		.loc 1 960 0
 1549 0062 3B68     		ldr	r3, [r7, #0]
 1550 0064 DBB2     		uxtb	r3, r3
 1551 0066 AA2B     		cmp	r3, #170
 1552 0068 03D0     		beq	.L85
 961:../Dave/Generated/src/SDMMC003/SDMMC003_Private.c ****              SDMMC003_SD_CMD8_CHECK_PATTERN_BITMASK) != \
 962:../Dave/Generated/src/SDMMC003/SDMMC003_Private.c ****             (SDMMC003_SD_CMD8_CHECK_PATTERN_VALUE)
 963:../Dave/Generated/src/SDMMC003/SDMMC003_Private.c ****          )
 964:../Dave/Generated/src/SDMMC003/SDMMC003_Private.c ****       {
 965:../Dave/Generated/src/SDMMC003/SDMMC003_Private.c ****         Status  = (uint32_t)SDMMC003_BAD_RESPONSE;
 1553              		.loc 1 965 0
 1554 006a 4FF01903 		mov	r3, #25
 1555 006e 7B60     		str	r3, [r7, #4]
 966:../Dave/Generated/src/SDMMC003/SDMMC003_Private.c ****         break;
 1556              		.loc 1 966 0
 1557 0070 14E0     		b	.L84
 1558              	.L85:
 967:../Dave/Generated/src/SDMMC003/SDMMC003_Private.c ****       }
 968:../Dave/Generated/src/SDMMC003/SDMMC003_Private.c **** /*<<<DD_SDMMC_nonAPI_11_6>>> */
 969:../Dave/Generated/src/SDMMC003/SDMMC003_Private.c ****       /* Check the Voltage Supplied is Accepted by the card in the response  */
 970:../Dave/Generated/src/SDMMC003/SDMMC003_Private.c ****       if( ((uint8_t)( ResponseData >> SDMMC003_SD_CMD8_VHS_BITPOS) &\
 1559              		.loc 1 970 0
 1560 0072 3B68     		ldr	r3, [r7, #0]
 1561 0074 4FEA1323 		lsr	r3, r3, #8
 1562 0078 DBB2     		uxtb	r3, r3
 1563 007a 03F00F03 		and	r3, r3, #15
 1564 007e 012B     		cmp	r3, #1
 1565 0080 03D0     		beq	.L86
 971:../Dave/Generated/src/SDMMC003/SDMMC003_Private.c ****                      SDMMC003_SD_CMD8_VHS_BITMASK)!=  \
 972:../Dave/Generated/src/SDMMC003/SDMMC003_Private.c ****                      ( SDMMC003_SD_VHS_PATTERN_2_7_3_6_VALUE ) )
 973:../Dave/Generated/src/SDMMC003/SDMMC003_Private.c ****       {
 974:../Dave/Generated/src/SDMMC003/SDMMC003_Private.c ****         Status = (uint32_t)SDMMC003_BAD_RESPONSE;
 1566              		.loc 1 974 0
 1567 0082 4FF01903 		mov	r3, #25
 1568 0086 7B60     		str	r3, [r7, #4]
 975:../Dave/Generated/src/SDMMC003/SDMMC003_Private.c ****         break;
 1569              		.loc 1 975 0
 1570 0088 08E0     		b	.L84
 1571              	.L86:
 976:../Dave/Generated/src/SDMMC003/SDMMC003_Private.c ****       }
 977:../Dave/Generated/src/SDMMC003/SDMMC003_Private.c ****       /* Set Flag f8 */
 978:../Dave/Generated/src/SDMMC003/SDMMC003_Private.c ****       SDMMC003_Handle.f8 = 1;
 1572              		.loc 1 978 0
 1573 008a 40F20003 		movw	r3, #:lower16:SDMMC003_Handle
 1574 008e C0F20003 		movt	r3, #:upper16:SDMMC003_Handle
 1575 0092 4FF00102 		mov	r2, #1
 1576 0096 5A72     		strb	r2, [r3, #9]
 1577 0098 00E0     		b	.L84
 1578              	.L88:
 951:../Dave/Generated/src/SDMMC003/SDMMC003_Private.c ****         break;
 1579              		.loc 1 951 0
 1580 009a 00BF     		nop
 1581              	.L84:
 979:../Dave/Generated/src/SDMMC003/SDMMC003_Private.c ****     }
 980:../Dave/Generated/src/SDMMC003/SDMMC003_Private.c ****   } while(0);
 981:../Dave/Generated/src/SDMMC003/SDMMC003_Private.c ****   FUNCTION_EXIT(GID_SDMMC00x, (uint32_t)SDMMC003_FUNCTION_EXIT);
 982:../Dave/Generated/src/SDMMC003/SDMMC003_Private.c ****   return Status;
 1582              		.loc 1 982 0
 1583 009c 7B68     		ldr	r3, [r7, #4]
 983:../Dave/Generated/src/SDMMC003/SDMMC003_Private.c **** }
 1584              		.loc 1 983 0
 1585 009e 1846     		mov	r0, r3
 1586 00a0 07F10807 		add	r7, r7, #8
 1587 00a4 BD46     		mov	sp, r7
 1588 00a6 80BD     		pop	{r7, pc}
 1589              		.cfi_endproc
 1590              	.LFE129:
 1592              		.section	.text.SDMMC003_lQueryVoltage,"ax",%progbits
 1593              		.align	2
 1594              		.global	SDMMC003_lQueryVoltage
 1595              		.thumb
 1596              		.thumb_func
 1598              	SDMMC003_lQueryVoltage:
 1599              	.LFB130:
 984:../Dave/Generated/src/SDMMC003/SDMMC003_Private.c **** 
 985:../Dave/Generated/src/SDMMC003/SDMMC003_Private.c **** /*<<<DD_SDMMC_nonAPI_12>>> */
 986:../Dave/Generated/src/SDMMC003/SDMMC003_Private.c **** /*
 987:../Dave/Generated/src/SDMMC003/SDMMC003_Private.c ****  * This function queries voltage supported from the card.
 988:../Dave/Generated/src/SDMMC003/SDMMC003_Private.c ****  */
 989:../Dave/Generated/src/SDMMC003/SDMMC003_Private.c **** status_t SDMMC003_lQueryVoltage (uint32_t Argument)
 990:../Dave/Generated/src/SDMMC003/SDMMC003_Private.c **** {
 1600              		.loc 1 990 0
 1601              		.cfi_startproc
 1602              		@ args = 0, pretend = 0, frame = 16
 1603              		@ frame_needed = 1, uses_anonymous_args = 0
 1604 0000 80B5     		push	{r7, lr}
 1605              	.LCFI38:
 1606              		.cfi_def_cfa_offset 8
 1607              		.cfi_offset 7, -8
 1608              		.cfi_offset 14, -4
 1609 0002 84B0     		sub	sp, sp, #16
 1610              	.LCFI39:
 1611              		.cfi_def_cfa_offset 24
 1612 0004 00AF     		add	r7, sp, #0
 1613              	.LCFI40:
 1614              		.cfi_def_cfa_register 7
 1615 0006 7860     		str	r0, [r7, #4]
 991:../Dave/Generated/src/SDMMC003/SDMMC003_Private.c ****   uint32_t CardStatus = 0;
 1616              		.loc 1 991 0
 1617 0008 4FF00003 		mov	r3, #0
 1618 000c BB60     		str	r3, [r7, #8]
 992:../Dave/Generated/src/SDMMC003/SDMMC003_Private.c ****   status_t Status;
 993:../Dave/Generated/src/SDMMC003/SDMMC003_Private.c ****   FUNCTION_ENTRY(GID_SDMMC00x, (uint32_t)SDMMC003_FUNCTION_ENTRY);
 994:../Dave/Generated/src/SDMMC003/SDMMC003_Private.c ****   do
 995:../Dave/Generated/src/SDMMC003/SDMMC003_Private.c ****   {
 996:../Dave/Generated/src/SDMMC003/SDMMC003_Private.c ****     /* Send Command55 for Application Specific Command with default RCA as 0*/
 997:../Dave/Generated/src/SDMMC003/SDMMC003_Private.c ****     Status = SDMMC003_lSendCommand( &(SDMMC003_COMMON_COMMAND(55)), Argument,\
 1619              		.loc 1 997 0
 1620 000e 40F20003 		movw	r3, #:lower16:SDMMC003_SDHashTable
 1621 0012 C0F20003 		movt	r3, #:upper16:SDMMC003_SDHashTable
 1622 0016 93F83730 		ldrb	r3, [r3, #55]	@ zero_extendqisi2
 1623 001a 4FEA4302 		lsl	r2, r3, #1
 1624 001e 40F20003 		movw	r3, #:lower16:SDMMC003_Command
 1625 0022 C0F20003 		movt	r3, #:upper16:SDMMC003_Command
 1626 0026 D218     		adds	r2, r2, r3
 998:../Dave/Generated/src/SDMMC003/SDMMC003_Private.c ****                                     SDMMC003_RESPONSE_R1, &CardStatus);
 1627              		.loc 1 998 0
 1628 0028 07F10803 		add	r3, r7, #8
 997:../Dave/Generated/src/SDMMC003/SDMMC003_Private.c ****     Status = SDMMC003_lSendCommand( &(SDMMC003_COMMON_COMMAND(55)), Argument,\
 1629              		.loc 1 997 0
 1630 002c 1046     		mov	r0, r2
 1631 002e 7968     		ldr	r1, [r7, #4]
 1632 0030 4FF00102 		mov	r2, #1
 1633 0034 FFF7FEFF 		bl	SDMMC003_lSendCommand
 1634 0038 F860     		str	r0, [r7, #12]
 999:../Dave/Generated/src/SDMMC003/SDMMC003_Private.c **** /* <<<DD_SDMMC_nonAPI_12_1>>> */
1000:../Dave/Generated/src/SDMMC003/SDMMC003_Private.c ****     if (Status != DAVEApp_SUCCESS )
 1635              		.loc 1 1000 0
 1636 003a FB68     		ldr	r3, [r7, #12]
 1637 003c 002B     		cmp	r3, #0
 1638 003e 0AD0     		beq	.L90
1001:../Dave/Generated/src/SDMMC003/SDMMC003_Private.c ****     {
1002:../Dave/Generated/src/SDMMC003/SDMMC003_Private.c ****       /* Some SD cards which doesn't supports CMD8 treat cmd55 as illegal so
1003:../Dave/Generated/src/SDMMC003/SDMMC003_Private.c ****        * ignore this error */
1004:../Dave/Generated/src/SDMMC003/SDMMC003_Private.c **** /*<<<DD_SDMMC_nonAPI_12_2>>> */
1005:../Dave/Generated/src/SDMMC003/SDMMC003_Private.c ****       if (!( (Status == (uint32_t)SDMMC003_ILLEGAL_COMMAND_ERROR) && \
 1639              		.loc 1 1005 0
 1640 0040 FB68     		ldr	r3, [r7, #12]
 1641 0042 122B     		cmp	r3, #18
 1642 0044 31D1     		bne	.L91
1006:../Dave/Generated/src/SDMMC003/SDMMC003_Private.c ****              (SDMMC003_Handle.f8 == 0) ))
 1643              		.loc 1 1006 0 discriminator 1
 1644 0046 40F20003 		movw	r3, #:lower16:SDMMC003_Handle
 1645 004a C0F20003 		movt	r3, #:upper16:SDMMC003_Handle
 1646 004e 5B7A     		ldrb	r3, [r3, #9]
 1647 0050 DBB2     		uxtb	r3, r3
1005:../Dave/Generated/src/SDMMC003/SDMMC003_Private.c ****       if (!( (Status == (uint32_t)SDMMC003_ILLEGAL_COMMAND_ERROR) && \
 1648              		.loc 1 1005 0 discriminator 1
 1649 0052 002B     		cmp	r3, #0
 1650 0054 29D1     		bne	.L91
 1651              	.L90:
1007:../Dave/Generated/src/SDMMC003/SDMMC003_Private.c ****       {
1008:../Dave/Generated/src/SDMMC003/SDMMC003_Private.c ****         break;
1009:../Dave/Generated/src/SDMMC003/SDMMC003_Private.c ****       }
1010:../Dave/Generated/src/SDMMC003/SDMMC003_Private.c ****     }
1011:../Dave/Generated/src/SDMMC003/SDMMC003_Private.c ****     /* Send ACMD41 to query the card's voltage window */
1012:../Dave/Generated/src/SDMMC003/SDMMC003_Private.c ****     Status = SDMMC003_lSendCommand( &(SDMMC003_SD_COMMAND(62)), Argument,\
 1652              		.loc 1 1012 0
 1653 0056 40F20003 		movw	r3, #:lower16:SDMMC003_SDHashTable
 1654 005a C0F20003 		movt	r3, #:upper16:SDMMC003_SDHashTable
 1655 005e 93F83E30 		ldrb	r3, [r3, #62]	@ zero_extendqisi2
 1656 0062 4FEA4302 		lsl	r2, r3, #1
 1657 0066 40F20003 		movw	r3, #:lower16:SDMMC003_Command
 1658 006a C0F20003 		movt	r3, #:upper16:SDMMC003_Command
 1659 006e D318     		adds	r3, r2, r3
 1660 0070 1846     		mov	r0, r3
 1661 0072 7968     		ldr	r1, [r7, #4]
 1662 0074 4FF00402 		mov	r2, #4
 1663 0078 40F20003 		movw	r3, #:lower16:SDMMC003_CardInfo
 1664 007c C0F20003 		movt	r3, #:upper16:SDMMC003_CardInfo
 1665 0080 FFF7FEFF 		bl	SDMMC003_lSendCommand
 1666 0084 F860     		str	r0, [r7, #12]
1013:../Dave/Generated/src/SDMMC003/SDMMC003_Private.c ****                                    SDMMC003_RESPONSE_R3,&(SDMMC003_CardInfo.Ocr));
1014:../Dave/Generated/src/SDMMC003/SDMMC003_Private.c **** /*<<<DD_SDMMC_nonAPI_12_3>>> */
1015:../Dave/Generated/src/SDMMC003/SDMMC003_Private.c ****     if ( (Status != (uint32_t)DAVEApp_SUCCESS) &&\
 1667              		.loc 1 1015 0
 1668 0086 FB68     		ldr	r3, [r7, #12]
 1669 0088 002B     		cmp	r3, #0
 1670 008a 02D0     		beq	.L92
 1671              		.loc 1 1015 0 is_stmt 0 discriminator 1
 1672 008c FB68     		ldr	r3, [r7, #12]
 1673 008e 122B     		cmp	r3, #18
 1674 0090 08D1     		bne	.L95
 1675              	.L92:
1016:../Dave/Generated/src/SDMMC003/SDMMC003_Private.c ****          (Status != (uint32_t)SDMMC003_ILLEGAL_COMMAND_ERROR))
1017:../Dave/Generated/src/SDMMC003/SDMMC003_Private.c ****     {
1018:../Dave/Generated/src/SDMMC003/SDMMC003_Private.c ****       /* No response means SDMMC_MMC card */
1019:../Dave/Generated/src/SDMMC003/SDMMC003_Private.c **** #if SDMMC_SUPPORT_MMC_CARD
1020:../Dave/Generated/src/SDMMC003/SDMMC003_Private.c **** /*<<<DD_SDMMC_nonAPI_12_4>>> */
1021:../Dave/Generated/src/SDMMC003/SDMMC003_Private.c ****       if (Status == (uint32_t) SDMMC003_COMMAND_TIMEOUT_ERROR)
1022:../Dave/Generated/src/SDMMC003/SDMMC003_Private.c ****       {
1023:../Dave/Generated/src/SDMMC003/SDMMC003_Private.c ****         Status  =  (uint32_t)SDMMC003_lInitializeMmcCard();
1024:../Dave/Generated/src/SDMMC003/SDMMC003_Private.c ****         break;
1025:../Dave/Generated/src/SDMMC003/SDMMC003_Private.c ****       }
1026:../Dave/Generated/src/SDMMC003/SDMMC003_Private.c ****       else
1027:../Dave/Generated/src/SDMMC003/SDMMC003_Private.c **** #endif /* SDMMC_SUPPORT_MMC_CARD */
1028:../Dave/Generated/src/SDMMC003/SDMMC003_Private.c ****       {
1029:../Dave/Generated/src/SDMMC003/SDMMC003_Private.c ****         break;
1030:../Dave/Generated/src/SDMMC003/SDMMC003_Private.c ****       }
1031:../Dave/Generated/src/SDMMC003/SDMMC003_Private.c ****     }
1032:../Dave/Generated/src/SDMMC003/SDMMC003_Private.c ****     /* Send ACMD41 with voltage window argument set */
1033:../Dave/Generated/src/SDMMC003/SDMMC003_Private.c **** /*<<<DD_SDMMC_nonAPI_12_5>>> */
1034:../Dave/Generated/src/SDMMC003/SDMMC003_Private.c ****     Status = SDMMC003_lSetVoltageWindow();
 1676              		.loc 1 1034 0 is_stmt 1
 1677 0092 FFF7FEFF 		bl	SDMMC003_lSetVoltageWindow
 1678 0096 F860     		str	r0, [r7, #12]
1035:../Dave/Generated/src/SDMMC003/SDMMC003_Private.c ****     if( Status != (uint32_t)DAVEApp_SUCCESS)
 1679              		.loc 1 1035 0
 1680 0098 FB68     		ldr	r3, [r7, #12]
 1681 009a 002B     		cmp	r3, #0
 1682 009c 04D1     		bne	.L96
 1683              	.L93:
1036:../Dave/Generated/src/SDMMC003/SDMMC003_Private.c ****     {
1037:../Dave/Generated/src/SDMMC003/SDMMC003_Private.c ****       break;
1038:../Dave/Generated/src/SDMMC003/SDMMC003_Private.c ****     }
1039:../Dave/Generated/src/SDMMC003/SDMMC003_Private.c ****     /* SD Card Type */
1040:../Dave/Generated/src/SDMMC003/SDMMC003_Private.c **** /*<<<DD_SDMMC_nonAPI_12_6>>> */
1041:../Dave/Generated/src/SDMMC003/SDMMC003_Private.c ****     SDMMC003_lWriteCardType();
 1684              		.loc 1 1041 0
 1685 009e FFF7FEFF 		bl	SDMMC003_lWriteCardType
 1686 00a2 02E0     		b	.L91
 1687              	.L95:
1029:../Dave/Generated/src/SDMMC003/SDMMC003_Private.c ****         break;
 1688              		.loc 1 1029 0
 1689 00a4 00BF     		nop
 1690 00a6 00E0     		b	.L91
 1691              	.L96:
1037:../Dave/Generated/src/SDMMC003/SDMMC003_Private.c ****       break;
 1692              		.loc 1 1037 0
 1693 00a8 00BF     		nop
 1694              	.L91:
1042:../Dave/Generated/src/SDMMC003/SDMMC003_Private.c ****   } while(0);
1043:../Dave/Generated/src/SDMMC003/SDMMC003_Private.c ****   FUNCTION_EXIT(GID_SDMMC00x, (uint32_t)SDMMC003_FUNCTION_EXIT);
1044:../Dave/Generated/src/SDMMC003/SDMMC003_Private.c ****   return Status;
 1695              		.loc 1 1044 0
 1696 00aa FB68     		ldr	r3, [r7, #12]
1045:../Dave/Generated/src/SDMMC003/SDMMC003_Private.c **** }
 1697              		.loc 1 1045 0
 1698 00ac 1846     		mov	r0, r3
 1699 00ae 07F11007 		add	r7, r7, #16
 1700 00b2 BD46     		mov	sp, r7
 1701 00b4 80BD     		pop	{r7, pc}
 1702              		.cfi_endproc
 1703              	.LFE130:
 1705 00b6 00BF     		.section	.text.SDMMC003_lAfterCardInitialize,"ax",%progbits
 1706              		.align	2
 1707              		.global	SDMMC003_lAfterCardInitialize
 1708              		.thumb
 1709              		.thumb_func
 1711              	SDMMC003_lAfterCardInitialize:
 1712              	.LFB131:
1046:../Dave/Generated/src/SDMMC003/SDMMC003_Private.c **** 
1047:../Dave/Generated/src/SDMMC003/SDMMC003_Private.c **** /*<<<DD_SDMMC_nonAPI_13>>> */
1048:../Dave/Generated/src/SDMMC003/SDMMC003_Private.c **** /*
1049:../Dave/Generated/src/SDMMC003/SDMMC003_Private.c ****  * This function reads the card registers after the card is initialized.
1050:../Dave/Generated/src/SDMMC003/SDMMC003_Private.c ****  */
1051:../Dave/Generated/src/SDMMC003/SDMMC003_Private.c **** status_t SDMMC003_lAfterCardInitialize()
1052:../Dave/Generated/src/SDMMC003/SDMMC003_Private.c **** {
 1713              		.loc 1 1052 0
 1714              		.cfi_startproc
 1715              		@ args = 0, pretend = 0, frame = 8
 1716              		@ frame_needed = 1, uses_anonymous_args = 0
 1717 0000 80B5     		push	{r7, lr}
 1718              	.LCFI41:
 1719              		.cfi_def_cfa_offset 8
 1720              		.cfi_offset 7, -8
 1721              		.cfi_offset 14, -4
 1722 0002 82B0     		sub	sp, sp, #8
 1723              	.LCFI42:
 1724              		.cfi_def_cfa_offset 16
 1725 0004 00AF     		add	r7, sp, #0
 1726              	.LCFI43:
 1727              		.cfi_def_cfa_register 7
1053:../Dave/Generated/src/SDMMC003/SDMMC003_Private.c ****   status_t Status = (uint32_t)SDMMC003_ERROR;
 1728              		.loc 1 1053 0
 1729 0006 4FF00103 		mov	r3, #1
 1730 000a 7B60     		str	r3, [r7, #4]
1054:../Dave/Generated/src/SDMMC003/SDMMC003_Private.c ****   FUNCTION_ENTRY(GID_SDMMC00x, (uint32_t)SDMMC003_FUNCTION_ENTRY);
1055:../Dave/Generated/src/SDMMC003/SDMMC003_Private.c ****   do
1056:../Dave/Generated/src/SDMMC003/SDMMC003_Private.c ****   {
1057:../Dave/Generated/src/SDMMC003/SDMMC003_Private.c ****    /* Read CSD & SCR Register & Card Write Protection Flags. */
1058:../Dave/Generated/src/SDMMC003/SDMMC003_Private.c ****     Status = SDMMC003_lReadCardRegisters();
 1731              		.loc 1 1058 0
 1732 000c FFF7FEFF 		bl	SDMMC003_lReadCardRegisters
 1733 0010 7860     		str	r0, [r7, #4]
1059:../Dave/Generated/src/SDMMC003/SDMMC003_Private.c **** /*<<<DD_SDMMC_nonAPI_13_1>>> */
1060:../Dave/Generated/src/SDMMC003/SDMMC003_Private.c ****     if(Status != (uint32_t)DAVEApp_SUCCESS)
 1734              		.loc 1 1060 0
 1735 0012 7B68     		ldr	r3, [r7, #4]
 1736 0014 002B     		cmp	r3, #0
 1737 0016 2FD1     		bne	.L102
 1738              	.L98:
1061:../Dave/Generated/src/SDMMC003/SDMMC003_Private.c ****     {
1062:../Dave/Generated/src/SDMMC003/SDMMC003_Private.c ****       break;
1063:../Dave/Generated/src/SDMMC003/SDMMC003_Private.c ****     }
1064:../Dave/Generated/src/SDMMC003/SDMMC003_Private.c **** #if SDMMC_SUPPORT_4_BUS_WIDTH
1065:../Dave/Generated/src/SDMMC003/SDMMC003_Private.c ****     /* Switch  to 4-bit bus width if supported */
1066:../Dave/Generated/src/SDMMC003/SDMMC003_Private.c ****     Status = SDMMC003_lSwitchBusWidth();
 1739              		.loc 1 1066 0
 1740 0018 FFF7FEFF 		bl	SDMMC003_lSwitchBusWidth
 1741 001c 7860     		str	r0, [r7, #4]
1067:../Dave/Generated/src/SDMMC003/SDMMC003_Private.c **** /*<<<DD_SDMMC_nonAPI_13_2>>> */
1068:../Dave/Generated/src/SDMMC003/SDMMC003_Private.c ****     if( Status != (uint32_t)DAVEApp_SUCCESS )
 1742              		.loc 1 1068 0
 1743 001e 7B68     		ldr	r3, [r7, #4]
 1744 0020 002B     		cmp	r3, #0
 1745 0022 0FD0     		beq	.L100
1069:../Dave/Generated/src/SDMMC003/SDMMC003_Private.c ****     {
1070:../Dave/Generated/src/SDMMC003/SDMMC003_Private.c ****       /* Change bus width to default in the Host Controller */
1071:../Dave/Generated/src/SDMMC003/SDMMC003_Private.c ****       CLR_BIT( SDMMC->HOST_CTRL,SDMMC_HOST_CTRL_DATA_TX_WIDTH_Pos);
 1746              		.loc 1 1071 0
 1747 0024 4FF44043 		mov	r3, #49152
 1748 0028 C4F60103 		movt	r3, 18433
 1749 002c 4FF44042 		mov	r2, #49152
 1750 0030 C4F60102 		movt	r2, 18433
 1751 0034 92F82820 		ldrb	r2, [r2, #40]
 1752 0038 D2B2     		uxtb	r2, r2
 1753 003a 22F00202 		bic	r2, r2, #2
 1754 003e D2B2     		uxtb	r2, r2
 1755 0040 83F82820 		strb	r2, [r3, #40]
 1756              	.L100:
1072:../Dave/Generated/src/SDMMC003/SDMMC003_Private.c ****     }
1073:../Dave/Generated/src/SDMMC003/SDMMC003_Private.c ****     /* Switch  to High Speed Mode */
1074:../Dave/Generated/src/SDMMC003/SDMMC003_Private.c ****     Status = SDMMC003_lSwitchSpeed();
 1757              		.loc 1 1074 0
 1758 0044 FFF7FEFF 		bl	SDMMC003_lSwitchSpeed
 1759 0048 7860     		str	r0, [r7, #4]
1075:../Dave/Generated/src/SDMMC003/SDMMC003_Private.c **** /*<<<DD_SDMMC_nonAPI_13_3>>> */
1076:../Dave/Generated/src/SDMMC003/SDMMC003_Private.c ****     if( Status != (uint32_t)DAVEApp_SUCCESS )
 1760              		.loc 1 1076 0
 1761 004a 7B68     		ldr	r3, [r7, #4]
 1762 004c 002B     		cmp	r3, #0
 1763 004e 14D0     		beq	.L99
1077:../Dave/Generated/src/SDMMC003/SDMMC003_Private.c ****     {
1078:../Dave/Generated/src/SDMMC003/SDMMC003_Private.c ****       /* Change Speed mode to default in the Host Controller */
1079:../Dave/Generated/src/SDMMC003/SDMMC003_Private.c ****       CLR_BIT( SDMMC->HOST_CTRL,SDMMC_HOST_CTRL_HIGH_SPEED_EN_Pos );
 1764              		.loc 1 1079 0
 1765 0050 4FF44043 		mov	r3, #49152
 1766 0054 C4F60103 		movt	r3, 18433
 1767 0058 4FF44042 		mov	r2, #49152
 1768 005c C4F60102 		movt	r2, 18433
 1769 0060 92F82820 		ldrb	r2, [r2, #40]
 1770 0064 D2B2     		uxtb	r2, r2
 1771 0066 22F00402 		bic	r2, r2, #4
 1772 006a D2B2     		uxtb	r2, r2
 1773 006c 83F82820 		strb	r2, [r3, #40]
1080:../Dave/Generated/src/SDMMC003/SDMMC003_Private.c ****       Status = (uint32_t)DAVEApp_SUCCESS;
 1774              		.loc 1 1080 0
 1775 0070 4FF00003 		mov	r3, #0
 1776 0074 7B60     		str	r3, [r7, #4]
 1777 0076 00E0     		b	.L99
 1778              	.L102:
1062:../Dave/Generated/src/SDMMC003/SDMMC003_Private.c ****       break;
 1779              		.loc 1 1062 0
 1780 0078 00BF     		nop
 1781              	.L99:
1081:../Dave/Generated/src/SDMMC003/SDMMC003_Private.c ****     }
1082:../Dave/Generated/src/SDMMC003/SDMMC003_Private.c **** #endif
1083:../Dave/Generated/src/SDMMC003/SDMMC003_Private.c ****   } while(0);
1084:../Dave/Generated/src/SDMMC003/SDMMC003_Private.c ****   FUNCTION_EXIT(GID_SDMMC00x, (uint32_t)SDMMC003_FUNCTION_EXIT);
1085:../Dave/Generated/src/SDMMC003/SDMMC003_Private.c ****   return Status;
 1782              		.loc 1 1085 0
 1783 007a 7B68     		ldr	r3, [r7, #4]
1086:../Dave/Generated/src/SDMMC003/SDMMC003_Private.c **** }
 1784              		.loc 1 1086 0
 1785 007c 1846     		mov	r0, r3
 1786 007e 07F10807 		add	r7, r7, #8
 1787 0082 BD46     		mov	sp, r7
 1788 0084 80BD     		pop	{r7, pc}
 1789              		.cfi_endproc
 1790              	.LFE131:
 1792 0086 00BF     		.section	.text.SDMMC003_lInitializeCard,"ax",%progbits
 1793              		.align	2
 1794              		.global	SDMMC003_lInitializeCard
 1795              		.thumb
 1796              		.thumb_func
 1798              	SDMMC003_lInitializeCard:
 1799              	.LFB132:
1087:../Dave/Generated/src/SDMMC003/SDMMC003_Private.c **** 
1088:../Dave/Generated/src/SDMMC003/SDMMC003_Private.c **** /* <<<DD_SDMMC_nonAPI_14>>> */
1089:../Dave/Generated/src/SDMMC003/SDMMC003_Private.c **** /*
1090:../Dave/Generated/src/SDMMC003/SDMMC003_Private.c ****  * This function initializes the SD card.
1091:../Dave/Generated/src/SDMMC003/SDMMC003_Private.c ****  */
1092:../Dave/Generated/src/SDMMC003/SDMMC003_Private.c **** status_t SDMMC003_lInitializeCard()
1093:../Dave/Generated/src/SDMMC003/SDMMC003_Private.c **** {
 1800              		.loc 1 1093 0
 1801              		.cfi_startproc
 1802              		@ args = 0, pretend = 0, frame = 16
 1803              		@ frame_needed = 1, uses_anonymous_args = 0
 1804 0000 80B5     		push	{r7, lr}
 1805              	.LCFI44:
 1806              		.cfi_def_cfa_offset 8
 1807              		.cfi_offset 7, -8
 1808              		.cfi_offset 14, -4
 1809 0002 84B0     		sub	sp, sp, #16
 1810              	.LCFI45:
 1811              		.cfi_def_cfa_offset 24
 1812 0004 00AF     		add	r7, sp, #0
 1813              	.LCFI46:
 1814              		.cfi_def_cfa_register 7
1094:../Dave/Generated/src/SDMMC003/SDMMC003_Private.c ****   status_t Status;
1095:../Dave/Generated/src/SDMMC003/SDMMC003_Private.c ****   uint32_t LockStatus ;
1096:../Dave/Generated/src/SDMMC003/SDMMC003_Private.c ****   uint8_t Count= 0;
 1815              		.loc 1 1096 0
 1816 0006 4FF00003 		mov	r3, #0
 1817 000a FB72     		strb	r3, [r7, #11]
 1818              	.L106:
1097:../Dave/Generated/src/SDMMC003/SDMMC003_Private.c ****   FUNCTION_ENTRY(GID_SDMMC00x, (uint32_t)SDMMC003_FUNCTION_ENTRY);
1098:../Dave/Generated/src/SDMMC003/SDMMC003_Private.c ****   do
1099:../Dave/Generated/src/SDMMC003/SDMMC003_Private.c ****   {
1100:../Dave/Generated/src/SDMMC003/SDMMC003_Private.c **** /* <<<DD_SDMMC_nonAPI_14_1>>> */
1101:../Dave/Generated/src/SDMMC003/SDMMC003_Private.c ****     /* Repeat the below steps 2 times if bad response is received.    */
1102:../Dave/Generated/src/SDMMC003/SDMMC003_Private.c ****     do
1103:../Dave/Generated/src/SDMMC003/SDMMC003_Private.c ****     {
1104:../Dave/Generated/src/SDMMC003/SDMMC003_Private.c ****       /* Reset the card. i.e cmd0 */
1105:../Dave/Generated/src/SDMMC003/SDMMC003_Private.c ****       Status = SDMMC003_lSendCommand( &(SDMMC003_COMMON_COMMAND(0)), \
 1819              		.loc 1 1105 0
 1820 000c 40F20003 		movw	r3, #:lower16:SDMMC003_SDHashTable
 1821 0010 C0F20003 		movt	r3, #:upper16:SDMMC003_SDHashTable
 1822 0014 1B78     		ldrb	r3, [r3, #0]	@ zero_extendqisi2
 1823 0016 4FEA4302 		lsl	r2, r3, #1
 1824 001a 40F20003 		movw	r3, #:lower16:SDMMC003_Command
 1825 001e C0F20003 		movt	r3, #:upper16:SDMMC003_Command
 1826 0022 D318     		adds	r3, r2, r3
 1827 0024 1846     		mov	r0, r3
 1828 0026 4FF00001 		mov	r1, #0
 1829 002a 4FF00002 		mov	r2, #0
 1830 002e 4FF00003 		mov	r3, #0
 1831 0032 FFF7FEFF 		bl	SDMMC003_lSendCommand
 1832 0036 F860     		str	r0, [r7, #12]
1106:../Dave/Generated/src/SDMMC003/SDMMC003_Private.c ****                                         SDMMC003_ARGUMENT0, \
1107:../Dave/Generated/src/SDMMC003/SDMMC003_Private.c ****                                         SDMMC003_NO_RESPONSE, \
1108:../Dave/Generated/src/SDMMC003/SDMMC003_Private.c ****                                         NULL);
1109:../Dave/Generated/src/SDMMC003/SDMMC003_Private.c **** /* <<<DD_SDMMC_nonAPI_14_2>>> */
1110:../Dave/Generated/src/SDMMC003/SDMMC003_Private.c ****       if (Status != (uint32_t)DAVEApp_SUCCESS)
 1833              		.loc 1 1110 0
 1834 0038 FB68     		ldr	r3, [r7, #12]
 1835 003a 002B     		cmp	r3, #0
 1836 003c 0DD1     		bne	.L115
 1837              	.L104:
1111:../Dave/Generated/src/SDMMC003/SDMMC003_Private.c ****       {
1112:../Dave/Generated/src/SDMMC003/SDMMC003_Private.c ****         break;
1113:../Dave/Generated/src/SDMMC003/SDMMC003_Private.c ****       }/* End of "if(Status != DAVEApp_SUCCESS )" */
1114:../Dave/Generated/src/SDMMC003/SDMMC003_Private.c ****       /* Query the Operation Condition Info from the card.*/
1115:../Dave/Generated/src/SDMMC003/SDMMC003_Private.c **** /* <<<DD_SDMMC_nonAPI_14_3>>> */
1116:../Dave/Generated/src/SDMMC003/SDMMC003_Private.c ****       Status = SDMMC003_lQueryOperatingCond();
 1838              		.loc 1 1116 0
 1839 003e FFF7FEFF 		bl	SDMMC003_lQueryOperatingCond
 1840 0042 F860     		str	r0, [r7, #12]
1117:../Dave/Generated/src/SDMMC003/SDMMC003_Private.c ****       Count++;
 1841              		.loc 1 1117 0
 1842 0044 FB7A     		ldrb	r3, [r7, #11]
 1843 0046 03F10103 		add	r3, r3, #1
 1844 004a FB72     		strb	r3, [r7, #11]
1118:../Dave/Generated/src/SDMMC003/SDMMC003_Private.c ****     } while(( Count < SDMMC003_NUM_CARD_RESET_RETRIES) && \
 1845              		.loc 1 1118 0
 1846 004c FB7A     		ldrb	r3, [r7, #11]	@ zero_extendqisi2
 1847 004e 012B     		cmp	r3, #1
 1848 0050 04D8     		bhi	.L105
 1849              		.loc 1 1118 0 is_stmt 0 discriminator 1
 1850 0052 FB68     		ldr	r3, [r7, #12]
 1851 0054 192B     		cmp	r3, #25
 1852 0056 D9D0     		beq	.L106
 1853 0058 00E0     		b	.L105
 1854              	.L115:
1112:../Dave/Generated/src/SDMMC003/SDMMC003_Private.c ****         break;
 1855              		.loc 1 1112 0 is_stmt 1
 1856 005a 00BF     		nop
 1857              	.L105:
1119:../Dave/Generated/src/SDMMC003/SDMMC003_Private.c ****             ( Status == (uint32_t)SDMMC003_BAD_RESPONSE));
1120:../Dave/Generated/src/SDMMC003/SDMMC003_Private.c **** /* <<<DD_SDMMC_nonAPI_14_4>> */
1121:../Dave/Generated/src/SDMMC003/SDMMC003_Private.c ****     if (Status != (uint32_t)DAVEApp_SUCCESS)
 1858              		.loc 1 1121 0
 1859 005c FB68     		ldr	r3, [r7, #12]
 1860 005e 002B     		cmp	r3, #0
 1861 0060 63D1     		bne	.L116
 1862              	.L107:
1122:../Dave/Generated/src/SDMMC003/SDMMC003_Private.c ****     {
1123:../Dave/Generated/src/SDMMC003/SDMMC003_Private.c ****       break;
1124:../Dave/Generated/src/SDMMC003/SDMMC003_Private.c ****     }/* End of "if(Status != DAVEApp_SUCCESS )" */
1125:../Dave/Generated/src/SDMMC003/SDMMC003_Private.c ****     /* Query & Set voltage window  */
1126:../Dave/Generated/src/SDMMC003/SDMMC003_Private.c **** 
1127:../Dave/Generated/src/SDMMC003/SDMMC003_Private.c ****     Status = SDMMC003_lQueryVoltage(SDMMC003_CardInfo.Rca);
 1863              		.loc 1 1127 0
 1864 0062 40F20003 		movw	r3, #:lower16:SDMMC003_CardInfo
 1865 0066 C0F20003 		movt	r3, #:upper16:SDMMC003_CardInfo
 1866 006a 9B8D     		ldrh	r3, [r3, #44]
 1867 006c 1846     		mov	r0, r3
 1868 006e FFF7FEFF 		bl	SDMMC003_lQueryVoltage
 1869 0072 F860     		str	r0, [r7, #12]
1128:../Dave/Generated/src/SDMMC003/SDMMC003_Private.c **** /* <<<DD_SDMMC_nonAPI_14_5>> */
1129:../Dave/Generated/src/SDMMC003/SDMMC003_Private.c ****     if (Status != (uint32_t)DAVEApp_SUCCESS)
 1870              		.loc 1 1129 0
 1871 0074 FB68     		ldr	r3, [r7, #12]
 1872 0076 002B     		cmp	r3, #0
 1873 0078 59D1     		bne	.L117
 1874              	.L109:
1130:../Dave/Generated/src/SDMMC003/SDMMC003_Private.c ****     {
1131:../Dave/Generated/src/SDMMC003/SDMMC003_Private.c ****       break;
1132:../Dave/Generated/src/SDMMC003/SDMMC003_Private.c ****     }
1133:../Dave/Generated/src/SDMMC003/SDMMC003_Private.c ****     /* Read CID */
1134:../Dave/Generated/src/SDMMC003/SDMMC003_Private.c ****     Status = SDMMC003_lSendCommand(&(SDMMC003_COMMON_COMMAND(2)), \
 1875              		.loc 1 1134 0
 1876 007a 40F20003 		movw	r3, #:lower16:SDMMC003_SDHashTable
 1877 007e C0F20003 		movt	r3, #:upper16:SDMMC003_SDHashTable
 1878 0082 9B78     		ldrb	r3, [r3, #2]	@ zero_extendqisi2
 1879 0084 4FEA4302 		lsl	r2, r3, #1
 1880 0088 40F20003 		movw	r3, #:lower16:SDMMC003_Command
 1881 008c C0F20003 		movt	r3, #:upper16:SDMMC003_Command
 1882 0090 D318     		adds	r3, r2, r3
 1883 0092 1846     		mov	r0, r3
 1884 0094 4FF00001 		mov	r1, #0
 1885 0098 4FF00302 		mov	r2, #3
 1886 009c 2A4B     		ldr	r3, .L121
 1887 009e FFF7FEFF 		bl	SDMMC003_lSendCommand
 1888 00a2 F860     		str	r0, [r7, #12]
1135:../Dave/Generated/src/SDMMC003/SDMMC003_Private.c ****                                      SDMMC003_ARGUMENT0,SDMMC003_RESPONSE_R2, \
1136:../Dave/Generated/src/SDMMC003/SDMMC003_Private.c ****                                      (void *)SDMMC003_CardInfo.CidArray);
1137:../Dave/Generated/src/SDMMC003/SDMMC003_Private.c **** /* <<<DD_SDMMC_nonAPI_14_6>> */
1138:../Dave/Generated/src/SDMMC003/SDMMC003_Private.c ****     if (Status != (uint32_t)DAVEApp_SUCCESS)
 1889              		.loc 1 1138 0
 1890 00a4 FB68     		ldr	r3, [r7, #12]
 1891 00a6 002B     		cmp	r3, #0
 1892 00a8 43D1     		bne	.L118
 1893              	.L110:
1139:../Dave/Generated/src/SDMMC003/SDMMC003_Private.c ****     {
1140:../Dave/Generated/src/SDMMC003/SDMMC003_Private.c ****       break;
1141:../Dave/Generated/src/SDMMC003/SDMMC003_Private.c ****     }
1142:../Dave/Generated/src/SDMMC003/SDMMC003_Private.c ****     /* Read RCA */
1143:../Dave/Generated/src/SDMMC003/SDMMC003_Private.c ****     Status = SDMMC003_lReadRca();
 1894              		.loc 1 1143 0
 1895 00aa FFF7FEFF 		bl	SDMMC003_lReadRca
 1896 00ae F860     		str	r0, [r7, #12]
1144:../Dave/Generated/src/SDMMC003/SDMMC003_Private.c **** /* <<<DD_SDMMC_nonAPI_14_7>> */
1145:../Dave/Generated/src/SDMMC003/SDMMC003_Private.c ****     if (Status != (uint32_t)DAVEApp_SUCCESS)
 1897              		.loc 1 1145 0
 1898 00b0 FB68     		ldr	r3, [r7, #12]
 1899 00b2 002B     		cmp	r3, #0
 1900 00b4 3FD1     		bne	.L119
 1901              	.L111:
1146:../Dave/Generated/src/SDMMC003/SDMMC003_Private.c ****     {
1147:../Dave/Generated/src/SDMMC003/SDMMC003_Private.c ****       break;
1148:../Dave/Generated/src/SDMMC003/SDMMC003_Private.c ****     } 
1149:../Dave/Generated/src/SDMMC003/SDMMC003_Private.c ****     /* Check the card Lock/ Unlock Status */
1150:../Dave/Generated/src/SDMMC003/SDMMC003_Private.c ****     Status = SDMMC003_GetLockStatus(&LockStatus);
 1902              		.loc 1 1150 0
 1903 00b6 07F10403 		add	r3, r7, #4
 1904 00ba 1846     		mov	r0, r3
 1905 00bc FFF7FEFF 		bl	SDMMC003_GetLockStatus
 1906 00c0 F860     		str	r0, [r7, #12]
1151:../Dave/Generated/src/SDMMC003/SDMMC003_Private.c ****     if (Status != (uint32_t)DAVEApp_SUCCESS)
 1907              		.loc 1 1151 0
 1908 00c2 FB68     		ldr	r3, [r7, #12]
 1909 00c4 002B     		cmp	r3, #0
 1910 00c6 38D1     		bne	.L120
 1911              	.L112:
1152:../Dave/Generated/src/SDMMC003/SDMMC003_Private.c ****     {
1153:../Dave/Generated/src/SDMMC003/SDMMC003_Private.c ****       break;
1154:../Dave/Generated/src/SDMMC003/SDMMC003_Private.c ****     }
1155:../Dave/Generated/src/SDMMC003/SDMMC003_Private.c **** /* <<<DD_SDMMC_nonAPI_14_8>> */
1156:../Dave/Generated/src/SDMMC003/SDMMC003_Private.c ****     if (LockStatus == (uint32_t)SDMMC003_CARD_IS_LOCKED)
 1912              		.loc 1 1156 0
 1913 00c8 7B68     		ldr	r3, [r7, #4]
 1914 00ca 202B     		cmp	r3, #32
 1915 00cc 10D1     		bne	.L113
1157:../Dave/Generated/src/SDMMC003/SDMMC003_Private.c ****     {
1158:../Dave/Generated/src/SDMMC003/SDMMC003_Private.c ****       SDMMC003_Handle.State |= SDMMC003_STATE_CARD_LOCKED ;
 1916              		.loc 1 1158 0
 1917 00ce 40F20003 		movw	r3, #:lower16:SDMMC003_Handle
 1918 00d2 C0F20003 		movt	r3, #:upper16:SDMMC003_Handle
 1919 00d6 1B88     		ldrh	r3, [r3, #0]	@ movhi
 1920 00d8 9BB2     		uxth	r3, r3
 1921 00da 43F04003 		orr	r3, r3, #64
 1922 00de 9AB2     		uxth	r2, r3
 1923 00e0 40F20003 		movw	r3, #:lower16:SDMMC003_Handle
 1924 00e4 C0F20003 		movt	r3, #:upper16:SDMMC003_Handle
 1925 00e8 1A80     		strh	r2, [r3, #0]	@ movhi
1159:../Dave/Generated/src/SDMMC003/SDMMC003_Private.c ****       Status = (uint32_t)SDMMC003_INITIALIZED_BUT_LOCKED;     
 1926              		.loc 1 1159 0
 1927 00ea 4FF02B03 		mov	r3, #43
 1928 00ee FB60     		str	r3, [r7, #12]
 1929              	.L113:
1160:../Dave/Generated/src/SDMMC003/SDMMC003_Private.c ****     }
1161:../Dave/Generated/src/SDMMC003/SDMMC003_Private.c ****     /* Update card initialization Status */
1162:../Dave/Generated/src/SDMMC003/SDMMC003_Private.c ****     SDMMC003_Handle.State |= SDMMC003_STATE_CARD_INITIALIZED;
 1930              		.loc 1 1162 0
 1931 00f0 40F20003 		movw	r3, #:lower16:SDMMC003_Handle
 1932 00f4 C0F20003 		movt	r3, #:upper16:SDMMC003_Handle
 1933 00f8 1B88     		ldrh	r3, [r3, #0]	@ movhi
 1934 00fa 9BB2     		uxth	r3, r3
 1935 00fc 43F00103 		orr	r3, r3, #1
 1936 0100 9AB2     		uxth	r2, r3
 1937 0102 40F20003 		movw	r3, #:lower16:SDMMC003_Handle
 1938 0106 C0F20003 		movt	r3, #:upper16:SDMMC003_Handle
 1939 010a 1A80     		strh	r2, [r3, #0]	@ movhi
1163:../Dave/Generated/src/SDMMC003/SDMMC003_Private.c ****     SDMMC003_Handle.State &=  ~(SDMMC003_STATE_NO_CARD);
 1940              		.loc 1 1163 0
 1941 010c 40F20003 		movw	r3, #:lower16:SDMMC003_Handle
 1942 0110 C0F20003 		movt	r3, #:upper16:SDMMC003_Handle
 1943 0114 1B88     		ldrh	r3, [r3, #0]	@ movhi
 1944 0116 9BB2     		uxth	r3, r3
 1945 0118 23F00203 		bic	r3, r3, #2
 1946 011c 9AB2     		uxth	r2, r3
 1947 011e 40F20003 		movw	r3, #:lower16:SDMMC003_Handle
 1948 0122 C0F20003 		movt	r3, #:upper16:SDMMC003_Handle
 1949 0126 1A80     		strh	r2, [r3, #0]	@ movhi
 1950 0128 08E0     		b	.L108
 1951              	.L116:
1123:../Dave/Generated/src/SDMMC003/SDMMC003_Private.c ****       break;
 1952              		.loc 1 1123 0
 1953 012a 00BF     		nop
 1954 012c 06E0     		b	.L108
 1955              	.L117:
1131:../Dave/Generated/src/SDMMC003/SDMMC003_Private.c ****       break;
 1956              		.loc 1 1131 0
 1957 012e 00BF     		nop
 1958 0130 04E0     		b	.L108
 1959              	.L118:
1140:../Dave/Generated/src/SDMMC003/SDMMC003_Private.c ****       break;
 1960              		.loc 1 1140 0
 1961 0132 00BF     		nop
 1962 0134 02E0     		b	.L108
 1963              	.L119:
1147:../Dave/Generated/src/SDMMC003/SDMMC003_Private.c ****       break;
 1964              		.loc 1 1147 0
 1965 0136 00BF     		nop
 1966 0138 00E0     		b	.L108
 1967              	.L120:
1153:../Dave/Generated/src/SDMMC003/SDMMC003_Private.c ****       break;
 1968              		.loc 1 1153 0
 1969 013a 00BF     		nop
 1970              	.L108:
1164:../Dave/Generated/src/SDMMC003/SDMMC003_Private.c ****   } while(0);
1165:../Dave/Generated/src/SDMMC003/SDMMC003_Private.c ****   FUNCTION_EXIT(GID_SDMMC00x, (uint32_t)SDMMC003_FUNCTION_EXIT);
1166:../Dave/Generated/src/SDMMC003/SDMMC003_Private.c ****   return Status;
 1971              		.loc 1 1166 0
 1972 013c FB68     		ldr	r3, [r7, #12]
1167:../Dave/Generated/src/SDMMC003/SDMMC003_Private.c **** }
 1973              		.loc 1 1167 0
 1974 013e 1846     		mov	r0, r3
 1975 0140 07F11007 		add	r7, r7, #16
 1976 0144 BD46     		mov	sp, r7
 1977 0146 80BD     		pop	{r7, pc}
 1978              	.L122:
 1979              		.align	2
 1980              	.L121:
 1981 0148 04000000 		.word	SDMMC003_CardInfo+4
 1982              		.cfi_endproc
 1983              	.LFE132:
 1985              		.section	.text.SDMMC003_lWriteCardType,"ax",%progbits
 1986              		.align	2
 1987              		.global	SDMMC003_lWriteCardType
 1988              		.thumb
 1989              		.thumb_func
 1991              	SDMMC003_lWriteCardType:
 1992              	.LFB133:
1168:../Dave/Generated/src/SDMMC003/SDMMC003_Private.c **** 
1169:../Dave/Generated/src/SDMMC003/SDMMC003_Private.c **** /* <<<DD_SDMMC_nonAPI_15>>> */
1170:../Dave/Generated/src/SDMMC003/SDMMC003_Private.c **** /*
1171:../Dave/Generated/src/SDMMC003/SDMMC003_Private.c ****  * This function finds out the card Type information.
1172:../Dave/Generated/src/SDMMC003/SDMMC003_Private.c ****  */
1173:../Dave/Generated/src/SDMMC003/SDMMC003_Private.c **** void SDMMC003_lWriteCardType()
1174:../Dave/Generated/src/SDMMC003/SDMMC003_Private.c **** {
 1993              		.loc 1 1174 0
 1994              		.cfi_startproc
 1995              		@ args = 0, pretend = 0, frame = 0
 1996              		@ frame_needed = 1, uses_anonymous_args = 0
 1997              		@ link register save eliminated.
 1998 0000 80B4     		push	{r7}
 1999              	.LCFI47:
 2000              		.cfi_def_cfa_offset 4
 2001              		.cfi_offset 7, -4
 2002 0002 00AF     		add	r7, sp, #0
 2003              	.LCFI48:
 2004              		.cfi_def_cfa_register 7
1175:../Dave/Generated/src/SDMMC003/SDMMC003_Private.c ****   FUNCTION_ENTRY(GID_SDMMC00x, (uint32_t)SDMMC003_FUNCTION_ENTRY);
1176:../Dave/Generated/src/SDMMC003/SDMMC003_Private.c ****   /* If F8 =0 , Standard Capacity V1 Card */
1177:../Dave/Generated/src/SDMMC003/SDMMC003_Private.c **** /* <<<DD_SDMMC_nonAPI_15_1>>> */
1178:../Dave/Generated/src/SDMMC003/SDMMC003_Private.c ****   if ( SDMMC003_Handle.f8 == 0)
 2005              		.loc 1 1178 0
 2006 0004 40F20003 		movw	r3, #:lower16:SDMMC003_Handle
 2007 0008 C0F20003 		movt	r3, #:upper16:SDMMC003_Handle
 2008 000c 5B7A     		ldrb	r3, [r3, #9]
 2009 000e DBB2     		uxtb	r3, r3
 2010 0010 002B     		cmp	r3, #0
 2011 0012 0ED1     		bne	.L124
1179:../Dave/Generated/src/SDMMC003/SDMMC003_Private.c ****   {
1180:../Dave/Generated/src/SDMMC003/SDMMC003_Private.c ****     SDMMC003_Handle.CardType |= SDMMC003_SD_STANDARD_CAPACITY_V1x;
 2012              		.loc 1 1180 0
 2013 0014 40F20003 		movw	r3, #:lower16:SDMMC003_Handle
 2014 0018 C0F20003 		movt	r3, #:upper16:SDMMC003_Handle
 2015 001c 9B78     		ldrb	r3, [r3, #2]
 2016 001e DBB2     		uxtb	r3, r3
 2017 0020 43F00203 		orr	r3, r3, #2
 2018 0024 DAB2     		uxtb	r2, r3
 2019 0026 40F20003 		movw	r3, #:lower16:SDMMC003_Handle
 2020 002a C0F20003 		movt	r3, #:upper16:SDMMC003_Handle
 2021 002e 9A70     		strb	r2, [r3, #2]
 2022 0030 25E0     		b	.L123
 2023              	.L124:
1181:../Dave/Generated/src/SDMMC003/SDMMC003_Private.c ****   }
1182:../Dave/Generated/src/SDMMC003/SDMMC003_Private.c ****   /* If F8 =1 , Standard Capacity V2 or High Capacity Card */
1183:../Dave/Generated/src/SDMMC003/SDMMC003_Private.c **** /* <<<DD_SDMMC_nonAPI_15_2>>> */
1184:../Dave/Generated/src/SDMMC003/SDMMC003_Private.c ****   else
1185:../Dave/Generated/src/SDMMC003/SDMMC003_Private.c ****   {
1186:../Dave/Generated/src/SDMMC003/SDMMC003_Private.c ****     /* Check CCS bit in the OCR register, CCS=1 means High Capacity  card*/
1187:../Dave/Generated/src/SDMMC003/SDMMC003_Private.c **** /* <<<DD_SDMMC_nonAPI_15_3>>> */
1188:../Dave/Generated/src/SDMMC003/SDMMC003_Private.c ****     if ((SDMMC003_CardInfo.Ocr & SDMMC003_OCR_CCS_BITMASK ) != 0)
 2024              		.loc 1 1188 0
 2025 0032 40F20003 		movw	r3, #:lower16:SDMMC003_CardInfo
 2026 0036 C0F20003 		movt	r3, #:upper16:SDMMC003_CardInfo
 2027 003a 1B68     		ldr	r3, [r3, #0]
 2028 003c 03F08043 		and	r3, r3, #1073741824
 2029 0040 002B     		cmp	r3, #0
 2030 0042 0ED0     		beq	.L126
1189:../Dave/Generated/src/SDMMC003/SDMMC003_Private.c ****     {
1190:../Dave/Generated/src/SDMMC003/SDMMC003_Private.c ****       SDMMC003_Handle.CardType |= SDMMC003_SD_HIGH_CAPACITY | \
 2031              		.loc 1 1190 0
 2032 0044 40F20003 		movw	r3, #:lower16:SDMMC003_Handle
 2033 0048 C0F20003 		movt	r3, #:upper16:SDMMC003_Handle
 2034 004c 9B78     		ldrb	r3, [r3, #2]
 2035 004e DBB2     		uxtb	r3, r3
 2036 0050 43F00C03 		orr	r3, r3, #12
 2037 0054 DAB2     		uxtb	r2, r3
 2038 0056 40F20003 		movw	r3, #:lower16:SDMMC003_Handle
 2039 005a C0F20003 		movt	r3, #:upper16:SDMMC003_Handle
 2040 005e 9A70     		strb	r2, [r3, #2]
 2041 0060 0DE0     		b	.L123
 2042              	.L126:
1191:../Dave/Generated/src/SDMMC003/SDMMC003_Private.c ****                                   SDMMC003_BLOCK_ADDRESSING;
1192:../Dave/Generated/src/SDMMC003/SDMMC003_Private.c ****     }
1193:../Dave/Generated/src/SDMMC003/SDMMC003_Private.c **** /* <<<DD_SDMMC_nonAPI_15_4>>> */
1194:../Dave/Generated/src/SDMMC003/SDMMC003_Private.c ****     /* CCS=0 means Standard Capacity Version2*/
1195:../Dave/Generated/src/SDMMC003/SDMMC003_Private.c ****     else
1196:../Dave/Generated/src/SDMMC003/SDMMC003_Private.c ****     {
1197:../Dave/Generated/src/SDMMC003/SDMMC003_Private.c ****       SDMMC003_Handle.CardType |= SDMMC003_SD_STANDARD_CAPACITY_V2;
 2043              		.loc 1 1197 0
 2044 0062 40F20003 		movw	r3, #:lower16:SDMMC003_Handle
 2045 0066 C0F20003 		movt	r3, #:upper16:SDMMC003_Handle
 2046 006a 9B78     		ldrb	r3, [r3, #2]
 2047 006c DBB2     		uxtb	r3, r3
 2048 006e 43F00103 		orr	r3, r3, #1
 2049 0072 DAB2     		uxtb	r2, r3
 2050 0074 40F20003 		movw	r3, #:lower16:SDMMC003_Handle
 2051 0078 C0F20003 		movt	r3, #:upper16:SDMMC003_Handle
 2052 007c 9A70     		strb	r2, [r3, #2]
 2053              	.L123:
1198:../Dave/Generated/src/SDMMC003/SDMMC003_Private.c ****     }
1199:../Dave/Generated/src/SDMMC003/SDMMC003_Private.c ****   }
1200:../Dave/Generated/src/SDMMC003/SDMMC003_Private.c ****   FUNCTION_EXIT(GID_SDMMC00x, (uint32_t)SDMMC003_FUNCTION_EXIT);
1201:../Dave/Generated/src/SDMMC003/SDMMC003_Private.c **** }
 2054              		.loc 1 1201 0
 2055 007e BD46     		mov	sp, r7
 2056 0080 80BC     		pop	{r7}
 2057 0082 7047     		bx	lr
 2058              		.cfi_endproc
 2059              	.LFE133:
 2061              		.section	.text.SDMMC003_lSetWriteProtect,"ax",%progbits
 2062              		.align	2
 2063              		.global	SDMMC003_lSetWriteProtect
 2064              		.thumb
 2065              		.thumb_func
 2067              	SDMMC003_lSetWriteProtect:
 2068              	.LFB134:
1202:../Dave/Generated/src/SDMMC003/SDMMC003_Private.c **** 
1203:../Dave/Generated/src/SDMMC003/SDMMC003_Private.c **** /* <<<DD_SDMMC_nonAPI_16>>> */
1204:../Dave/Generated/src/SDMMC003/SDMMC003_Private.c **** /*
1205:../Dave/Generated/src/SDMMC003/SDMMC003_Private.c ****  * This function finds out the Write protection status of the card.
1206:../Dave/Generated/src/SDMMC003/SDMMC003_Private.c ****  */
1207:../Dave/Generated/src/SDMMC003/SDMMC003_Private.c **** status_t SDMMC003_lSetWriteProtect (void)
1208:../Dave/Generated/src/SDMMC003/SDMMC003_Private.c **** {
 2069              		.loc 1 1208 0
 2070              		.cfi_startproc
 2071              		@ args = 0, pretend = 0, frame = 72
 2072              		@ frame_needed = 1, uses_anonymous_args = 0
 2073 0000 80B5     		push	{r7, lr}
 2074              	.LCFI49:
 2075              		.cfi_def_cfa_offset 8
 2076              		.cfi_offset 7, -8
 2077              		.cfi_offset 14, -4
 2078 0002 92B0     		sub	sp, sp, #72
 2079              	.LCFI50:
 2080              		.cfi_def_cfa_offset 80
 2081 0004 00AF     		add	r7, sp, #0
 2082              	.LCFI51:
 2083              		.cfi_def_cfa_register 7
1209:../Dave/Generated/src/SDMMC003/SDMMC003_Private.c ****   uint32_t SdStatus[16] = {0};
 2084              		.loc 1 1209 0
 2085 0006 3A46     		mov	r2, r7
 2086 0008 4FF04003 		mov	r3, #64
 2087 000c 1046     		mov	r0, r2
 2088 000e 4FF00001 		mov	r1, #0
 2089 0012 1A46     		mov	r2, r3
 2090 0014 FFF7FEFF 		bl	memset
1210:../Dave/Generated/src/SDMMC003/SDMMC003_Private.c ****   uint32_t WriteProtect;
1211:../Dave/Generated/src/SDMMC003/SDMMC003_Private.c ****   status_t Status = (uint32_t)SDMMC003_ERROR;
 2091              		.loc 1 1211 0
 2092 0018 4FF00103 		mov	r3, #1
 2093 001c 7B64     		str	r3, [r7, #68]
1212:../Dave/Generated/src/SDMMC003/SDMMC003_Private.c ****   FUNCTION_ENTRY(GID_SDMMC00x, (uint32_t)SDMMC003_FUNCTION_ENTRY);
1213:../Dave/Generated/src/SDMMC003/SDMMC003_Private.c ****   do
1214:../Dave/Generated/src/SDMMC003/SDMMC003_Private.c ****   {
1215:../Dave/Generated/src/SDMMC003/SDMMC003_Private.c **** #if SDMMC_SUPPORT_MMC_CARD
1216:../Dave/Generated/src/SDMMC003/SDMMC003_Private.c ****     SDMMC003_MMCCSDType *TmpMmcCsdPtr;
1217:../Dave/Generated/src/SDMMC003/SDMMC003_Private.c **** /* <<<DD_SDMMC_nonAPI_16_1>>> */
1218:../Dave/Generated/src/SDMMC003/SDMMC003_Private.c ****     if ((SDMMC003_Handle.CardType & SDMMC003_MMC) != 0)
1219:../Dave/Generated/src/SDMMC003/SDMMC003_Private.c ****     {
1220:../Dave/Generated/src/SDMMC003/SDMMC003_Private.c ****       TmpMmcCsdPtr = (SDMMC003_MMCCSDType *)&SDMMC003_CardInfo.CsdArray;
1221:../Dave/Generated/src/SDMMC003/SDMMC003_Private.c ****       /* Read Write Protection bits from CSD Register i.e both Temp & Permanent */
1222:../Dave/Generated/src/SDMMC003/SDMMC003_Private.c **** /* <<<DD_SDMMC_nonAPI_16_2>>> */
1223:../Dave/Generated/src/SDMMC003/SDMMC003_Private.c ****       if ( ((TmpMmcCsdPtr->TempWriteProtect) != 0) || \
1224:../Dave/Generated/src/SDMMC003/SDMMC003_Private.c ****            ((TmpMmcCsdPtr->PermWriteProtect) != 0))
1225:../Dave/Generated/src/SDMMC003/SDMMC003_Private.c ****       {
1226:../Dave/Generated/src/SDMMC003/SDMMC003_Private.c ****         SDMMC003_Handle.State |=(uint32_t)SDMMC003_STATE_CARD_WRITE_PROTECT;
1227:../Dave/Generated/src/SDMMC003/SDMMC003_Private.c ****       }
1228:../Dave/Generated/src/SDMMC003/SDMMC003_Private.c ****     }
1229:../Dave/Generated/src/SDMMC003/SDMMC003_Private.c ****     else
1230:../Dave/Generated/src/SDMMC003/SDMMC003_Private.c **** #endif
1231:../Dave/Generated/src/SDMMC003/SDMMC003_Private.c ****     {
1232:../Dave/Generated/src/SDMMC003/SDMMC003_Private.c ****       /* SD Card Write Protection.  */
1233:../Dave/Generated/src/SDMMC003/SDMMC003_Private.c ****       Status  = SDMMC003_GetSdStatus((void*)&(SdStatus[0]));
 2094              		.loc 1 1233 0
 2095 001e 3B46     		mov	r3, r7
 2096 0020 1846     		mov	r0, r3
 2097 0022 FFF7FEFF 		bl	SDMMC003_GetSdStatus
 2098 0026 7864     		str	r0, [r7, #68]
1234:../Dave/Generated/src/SDMMC003/SDMMC003_Private.c **** /* <<<DD_SDMMC_nonAPI_16_3>>> */
1235:../Dave/Generated/src/SDMMC003/SDMMC003_Private.c ****       if (Status != DAVEApp_SUCCESS)
 2099              		.loc 1 1235 0
 2100 0028 7B6C     		ldr	r3, [r7, #68]
 2101 002a 002B     		cmp	r3, #0
 2102 002c 21D1     		bne	.L131
 2103              	.L128:
1236:../Dave/Generated/src/SDMMC003/SDMMC003_Private.c ****       {
1237:../Dave/Generated/src/SDMMC003/SDMMC003_Private.c ****         break;
1238:../Dave/Generated/src/SDMMC003/SDMMC003_Private.c ****       }
1239:../Dave/Generated/src/SDMMC003/SDMMC003_Private.c **** /* <<<DD_SDMMC_nonAPI_16_4>>> */
1240:../Dave/Generated/src/SDMMC003/SDMMC003_Private.c ****       /* Bits 480:495 in the SD status gives the Write Protection Information */
1241:../Dave/Generated/src/SDMMC003/SDMMC003_Private.c ****       WriteProtect = ((SdStatus[0] & 0xFF000000) >> 24 ) | 
 2104              		.loc 1 1241 0
 2105 002e 3B68     		ldr	r3, [r7, #0]
 2106 0030 4FEA1362 		lsr	r2, r3, #24
1242:../Dave/Generated/src/SDMMC003/SDMMC003_Private.c ****                      (((SdStatus[0] & 0x00FF0000) >> 16 ) << 8) ;
 2107              		.loc 1 1242 0
 2108 0034 3B68     		ldr	r3, [r7, #0]
 2109 0036 03F47F03 		and	r3, r3, #16711680
 2110 003a 4FEA1343 		lsr	r3, r3, #16
 2111 003e 4FEA0323 		lsl	r3, r3, #8
1241:../Dave/Generated/src/SDMMC003/SDMMC003_Private.c ****       WriteProtect = ((SdStatus[0] & 0xFF000000) >> 24 ) | 
 2112              		.loc 1 1241 0
 2113 0042 1343     		orrs	r3, r3, r2
 2114 0044 3B64     		str	r3, [r7, #64]
1243:../Dave/Generated/src/SDMMC003/SDMMC003_Private.c ****       if ( (WriteProtect & SDMMC003_SD_CARD_TYPE_BITMASK) != 0 )
 2115              		.loc 1 1243 0
 2116 0046 3B6C     		ldr	r3, [r7, #64]
 2117 0048 4FEA0343 		lsl	r3, r3, #16
 2118 004c 4FEA1343 		lsr	r3, r3, #16
 2119 0050 002B     		cmp	r3, #0
 2120 0052 0FD0     		beq	.L129
1244:../Dave/Generated/src/SDMMC003/SDMMC003_Private.c ****       {
1245:../Dave/Generated/src/SDMMC003/SDMMC003_Private.c ****         SDMMC003_Handle.State |=(uint32_t)SDMMC003_STATE_CARD_WRITE_PROTECT;
 2121              		.loc 1 1245 0
 2122 0054 40F20003 		movw	r3, #:lower16:SDMMC003_Handle
 2123 0058 C0F20003 		movt	r3, #:upper16:SDMMC003_Handle
 2124 005c 1B88     		ldrh	r3, [r3, #0]	@ movhi
 2125 005e 9BB2     		uxth	r3, r3
 2126 0060 43F01003 		orr	r3, r3, #16
 2127 0064 9AB2     		uxth	r2, r3
 2128 0066 40F20003 		movw	r3, #:lower16:SDMMC003_Handle
 2129 006a C0F20003 		movt	r3, #:upper16:SDMMC003_Handle
 2130 006e 1A80     		strh	r2, [r3, #0]	@ movhi
 2131 0070 00E0     		b	.L129
 2132              	.L131:
1237:../Dave/Generated/src/SDMMC003/SDMMC003_Private.c ****         break;
 2133              		.loc 1 1237 0
 2134 0072 00BF     		nop
 2135              	.L129:
1246:../Dave/Generated/src/SDMMC003/SDMMC003_Private.c ****       }
1247:../Dave/Generated/src/SDMMC003/SDMMC003_Private.c ****     }
1248:../Dave/Generated/src/SDMMC003/SDMMC003_Private.c ****   } while(0);
1249:../Dave/Generated/src/SDMMC003/SDMMC003_Private.c ****   FUNCTION_EXIT(GID_SDMMC00x, (uint32_t)SDMMC003_FUNCTION_EXIT);
1250:../Dave/Generated/src/SDMMC003/SDMMC003_Private.c ****   return Status;
 2136              		.loc 1 1250 0
 2137 0074 7B6C     		ldr	r3, [r7, #68]
1251:../Dave/Generated/src/SDMMC003/SDMMC003_Private.c **** }
 2138              		.loc 1 1251 0
 2139 0076 1846     		mov	r0, r3
 2140 0078 07F14807 		add	r7, r7, #72
 2141 007c BD46     		mov	sp, r7
 2142 007e 80BD     		pop	{r7, pc}
 2143              		.cfi_endproc
 2144              	.LFE134:
 2146              		.section	.text.SDMMC003_lReadRca,"ax",%progbits
 2147              		.align	2
 2148              		.global	SDMMC003_lReadRca
 2149              		.thumb
 2150              		.thumb_func
 2152              	SDMMC003_lReadRca:
 2153              	.LFB135:
1252:../Dave/Generated/src/SDMMC003/SDMMC003_Private.c **** 
1253:../Dave/Generated/src/SDMMC003/SDMMC003_Private.c **** /* <<<DD_SDMMC_nonAPI_17>>> */
1254:../Dave/Generated/src/SDMMC003/SDMMC003_Private.c **** /*
1255:../Dave/Generated/src/SDMMC003/SDMMC003_Private.c ****  * This function reads the  Relative card address of the card.
1256:../Dave/Generated/src/SDMMC003/SDMMC003_Private.c ****  */
1257:../Dave/Generated/src/SDMMC003/SDMMC003_Private.c **** status_t SDMMC003_lReadRca()
1258:../Dave/Generated/src/SDMMC003/SDMMC003_Private.c **** {
 2154              		.loc 1 1258 0
 2155              		.cfi_startproc
 2156              		@ args = 0, pretend = 0, frame = 8
 2157              		@ frame_needed = 1, uses_anonymous_args = 0
 2158 0000 80B5     		push	{r7, lr}
 2159              	.LCFI52:
 2160              		.cfi_def_cfa_offset 8
 2161              		.cfi_offset 7, -8
 2162              		.cfi_offset 14, -4
 2163 0002 82B0     		sub	sp, sp, #8
 2164              	.LCFI53:
 2165              		.cfi_def_cfa_offset 16
 2166 0004 00AF     		add	r7, sp, #0
 2167              	.LCFI54:
 2168              		.cfi_def_cfa_register 7
1259:../Dave/Generated/src/SDMMC003/SDMMC003_Private.c ****   status_t Status ;
1260:../Dave/Generated/src/SDMMC003/SDMMC003_Private.c **** #if SDMMC_SUPPORT_MMC_CARD
1261:../Dave/Generated/src/SDMMC003/SDMMC003_Private.c ****   uint32_t CardStatus = 0;
1262:../Dave/Generated/src/SDMMC003/SDMMC003_Private.c **** #endif /* SDMMC_SUPPORT_MMC_CARD */
1263:../Dave/Generated/src/SDMMC003/SDMMC003_Private.c ****   FUNCTION_ENTRY(GID_SDMMC00x, (uint32_t)SDMMC003_FUNCTION_ENTRY);
1264:../Dave/Generated/src/SDMMC003/SDMMC003_Private.c ****   /*  Read RCA for MMC card */
1265:../Dave/Generated/src/SDMMC003/SDMMC003_Private.c **** #if SDMMC_SUPPORT_MMC_CARD
1266:../Dave/Generated/src/SDMMC003/SDMMC003_Private.c **** /* <<<DD_SDMMC_nonAPI_17_1>>> */
1267:../Dave/Generated/src/SDMMC003/SDMMC003_Private.c ****   if ((SDMMC003_Handle.CardType & SDMMC003_MMC) != 0)
1268:../Dave/Generated/src/SDMMC003/SDMMC003_Private.c ****   {
1269:../Dave/Generated/src/SDMMC003/SDMMC003_Private.c ****     Status = SDMMC003_lSendCommand( &(SDMMC003_COMMON_COMMAND(3)),
1270:../Dave/Generated/src/SDMMC003/SDMMC003_Private.c ****                                     (uint32_t)SDMMC003_MMC_DEFAULT_RCA,  \
1271:../Dave/Generated/src/SDMMC003/SDMMC003_Private.c ****                                     SDMMC003_RESPONSE_R1, &CardStatus);
1272:../Dave/Generated/src/SDMMC003/SDMMC003_Private.c ****     SDMMC003_CardInfo.Rca = SDMMC003_MMC_DEFAULT_RCA;
1273:../Dave/Generated/src/SDMMC003/SDMMC003_Private.c ****   }
1274:../Dave/Generated/src/SDMMC003/SDMMC003_Private.c ****   /*  Read RCA for SD  */
1275:../Dave/Generated/src/SDMMC003/SDMMC003_Private.c ****   else
1276:../Dave/Generated/src/SDMMC003/SDMMC003_Private.c **** #endif
1277:../Dave/Generated/src/SDMMC003/SDMMC003_Private.c ****   {
1278:../Dave/Generated/src/SDMMC003/SDMMC003_Private.c **** /* <<<DD_SDMMC_nonAPI_17_2>>> */
1279:../Dave/Generated/src/SDMMC003/SDMMC003_Private.c ****     Status = SDMMC003_lSendCommand( &(SDMMC003_COMMON_COMMAND(3)), \
 2169              		.loc 1 1279 0
 2170 0006 40F20003 		movw	r3, #:lower16:SDMMC003_SDHashTable
 2171 000a C0F20003 		movt	r3, #:upper16:SDMMC003_SDHashTable
 2172 000e DB78     		ldrb	r3, [r3, #3]	@ zero_extendqisi2
 2173 0010 4FEA4302 		lsl	r2, r3, #1
 2174 0014 40F20003 		movw	r3, #:lower16:SDMMC003_Command
 2175 0018 C0F20003 		movt	r3, #:upper16:SDMMC003_Command
 2176 001c D318     		adds	r3, r2, r3
 2177 001e 1846     		mov	r0, r3
 2178 0020 4FF00001 		mov	r1, #0
 2179 0024 4FF00502 		mov	r2, #5
 2180 0028 044B     		ldr	r3, .L134
 2181 002a FFF7FEFF 		bl	SDMMC003_lSendCommand
 2182 002e 7860     		str	r0, [r7, #4]
1280:../Dave/Generated/src/SDMMC003/SDMMC003_Private.c ****                                     SDMMC003_ARGUMENT0, \
1281:../Dave/Generated/src/SDMMC003/SDMMC003_Private.c ****                                     SDMMC003_RESPONSE_R6, \
1282:../Dave/Generated/src/SDMMC003/SDMMC003_Private.c ****                                     &(SDMMC003_CardInfo.Rca));
1283:../Dave/Generated/src/SDMMC003/SDMMC003_Private.c ****   }
1284:../Dave/Generated/src/SDMMC003/SDMMC003_Private.c ****   FUNCTION_EXIT(GID_SDMMC00x, (uint32_t)SDMMC003_FUNCTION_EXIT);
1285:../Dave/Generated/src/SDMMC003/SDMMC003_Private.c ****   return Status;
 2183              		.loc 1 1285 0
 2184 0030 7B68     		ldr	r3, [r7, #4]
1286:../Dave/Generated/src/SDMMC003/SDMMC003_Private.c **** }
 2185              		.loc 1 1286 0
 2186 0032 1846     		mov	r0, r3
 2187 0034 07F10807 		add	r7, r7, #8
 2188 0038 BD46     		mov	sp, r7
 2189 003a 80BD     		pop	{r7, pc}
 2190              	.L135:
 2191              		.align	2
 2192              	.L134:
 2193 003c 2C000000 		.word	SDMMC003_CardInfo+44
 2194              		.cfi_endproc
 2195              	.LFE135:
 2197              		.section	.text.SDMMC003_lReadCardRegisters,"ax",%progbits
 2198              		.align	2
 2199              		.global	SDMMC003_lReadCardRegisters
 2200              		.thumb
 2201              		.thumb_func
 2203              	SDMMC003_lReadCardRegisters:
 2204              	.LFB136:
1287:../Dave/Generated/src/SDMMC003/SDMMC003_Private.c **** 
1288:../Dave/Generated/src/SDMMC003/SDMMC003_Private.c **** /* <<<DD_SDMMC_nonAPI_18>>> */
1289:../Dave/Generated/src/SDMMC003/SDMMC003_Private.c **** /*
1290:../Dave/Generated/src/SDMMC003/SDMMC003_Private.c ****  * This function initializes the MMC card.
1291:../Dave/Generated/src/SDMMC003/SDMMC003_Private.c ****  */
1292:../Dave/Generated/src/SDMMC003/SDMMC003_Private.c **** #if SDMMC_SUPPORT_MMC_CARD
1293:../Dave/Generated/src/SDMMC003/SDMMC003_Private.c **** /* SDMMC_MMC Initialize */
1294:../Dave/Generated/src/SDMMC003/SDMMC003_Private.c **** status_t SDMMC003_lInitializeMmcCard()
1295:../Dave/Generated/src/SDMMC003/SDMMC003_Private.c **** {
1296:../Dave/Generated/src/SDMMC003/SDMMC003_Private.c ****   status_t Status;
1297:../Dave/Generated/src/SDMMC003/SDMMC003_Private.c ****   FUNCTION_ENTRY(GID_SDMMC00x, (uint32_t)SDMMC003_FUNCTION_ENTRY);
1298:../Dave/Generated/src/SDMMC003/SDMMC003_Private.c ****   do
1299:../Dave/Generated/src/SDMMC003/SDMMC003_Private.c ****   {
1300:../Dave/Generated/src/SDMMC003/SDMMC003_Private.c ****     /* Reset the card. i.e cmd0 */
1301:../Dave/Generated/src/SDMMC003/SDMMC003_Private.c ****     Status = (uint32_t)SDMMC003_lSendCommand( &(SDMMC003_COMMON_COMMAND(0)), \
1302:../Dave/Generated/src/SDMMC003/SDMMC003_Private.c ****                                                 SDMMC003_ARGUMENT0,  \
1303:../Dave/Generated/src/SDMMC003/SDMMC003_Private.c ****                                                 SDMMC003_NO_RESPONSE, NULL);
1304:../Dave/Generated/src/SDMMC003/SDMMC003_Private.c **** /* <<<DD_SDMMC_nonAPI_18_1>>> */
1305:../Dave/Generated/src/SDMMC003/SDMMC003_Private.c ****     if (Status != (uint32_t)DAVEApp_SUCCESS )
1306:../Dave/Generated/src/SDMMC003/SDMMC003_Private.c ****     {
1307:../Dave/Generated/src/SDMMC003/SDMMC003_Private.c ****       break;
1308:../Dave/Generated/src/SDMMC003/SDMMC003_Private.c ****     }/* End of "if(Status != DAVEApp_SUCCESS )" */
1309:../Dave/Generated/src/SDMMC003/SDMMC003_Private.c ****    /*Command1 indicating support for high capacity cards & voltage 2.7 to 3.6v */
1310:../Dave/Generated/src/SDMMC003/SDMMC003_Private.c ****     do
1311:../Dave/Generated/src/SDMMC003/SDMMC003_Private.c ****     {
1312:../Dave/Generated/src/SDMMC003/SDMMC003_Private.c ****       Status = SDMMC003_lSendCommand(&(SDMMC003_MMC_COMMAND(1)), \
1313:../Dave/Generated/src/SDMMC003/SDMMC003_Private.c ****                                         MMC_CMD1_ARG ,SDMMC003_RESPONSE_R3,\
1314:../Dave/Generated/src/SDMMC003/SDMMC003_Private.c ****                                         &(SDMMC003_CardInfo.Ocr) );
1315:../Dave/Generated/src/SDMMC003/SDMMC003_Private.c **** /* <<<DD_SDMMC_nonAPI_18_2>>> */
1316:../Dave/Generated/src/SDMMC003/SDMMC003_Private.c ****       if (Status != (uint32_t)DAVEApp_SUCCESS )
1317:../Dave/Generated/src/SDMMC003/SDMMC003_Private.c ****       {
1318:../Dave/Generated/src/SDMMC003/SDMMC003_Private.c ****         break;
1319:../Dave/Generated/src/SDMMC003/SDMMC003_Private.c ****       }/* End of "if(Status != DAVEApp_SUCCESS )" */
1320:../Dave/Generated/src/SDMMC003/SDMMC003_Private.c ****     } while(SDMMC003_CardInfo.Ocr & SDMMC003_OCR_POWER_STATUS_BITMASK );
1321:../Dave/Generated/src/SDMMC003/SDMMC003_Private.c ****    /* Check mode. 00b (byte mode) & 10b (sector mode)*/
1322:../Dave/Generated/src/SDMMC003/SDMMC003_Private.c **** /* <<<DD_SDMMC_nonAPI_18_3>>> */
1323:../Dave/Generated/src/SDMMC003/SDMMC003_Private.c ****     if( ((SDMMC003_CardInfo.Ocr & SDMMC003_MMC_OCR_ACCESS_MODE_BITMASK) >> \
1324:../Dave/Generated/src/SDMMC003/SDMMC003_Private.c ****        (SDMMC003_MMC_OCR_ACCESS_MODE_BITPOS) != 0))
1325:../Dave/Generated/src/SDMMC003/SDMMC003_Private.c ****     {
1326:../Dave/Generated/src/SDMMC003/SDMMC003_Private.c ****       SDMMC003_Handle.CardType |= SDMMC003_BLOCK_ADDRESSING;
1327:../Dave/Generated/src/SDMMC003/SDMMC003_Private.c ****     }
1328:../Dave/Generated/src/SDMMC003/SDMMC003_Private.c ****     SDMMC003_Handle.CardType |= SDMMC003_MMC;
1329:../Dave/Generated/src/SDMMC003/SDMMC003_Private.c ****   } while(0);
1330:../Dave/Generated/src/SDMMC003/SDMMC003_Private.c ****   FUNCTION_EXIT(GID_SDMMC00x, (uint32_t)SDMMC003_FUNCTION_EXIT);
1331:../Dave/Generated/src/SDMMC003/SDMMC003_Private.c ****   return Status;
1332:../Dave/Generated/src/SDMMC003/SDMMC003_Private.c **** }
1333:../Dave/Generated/src/SDMMC003/SDMMC003_Private.c **** #endif
1334:../Dave/Generated/src/SDMMC003/SDMMC003_Private.c **** 
1335:../Dave/Generated/src/SDMMC003/SDMMC003_Private.c **** /* <<<DD_SDMMC_nonAPI_19>>> */
1336:../Dave/Generated/src/SDMMC003/SDMMC003_Private.c **** /*
1337:../Dave/Generated/src/SDMMC003/SDMMC003_Private.c ****  * This function reads the CSD, SCR and Write protection status of the card.
1338:../Dave/Generated/src/SDMMC003/SDMMC003_Private.c ****  */
1339:../Dave/Generated/src/SDMMC003/SDMMC003_Private.c **** status_t SDMMC003_lReadCardRegisters (void)
1340:../Dave/Generated/src/SDMMC003/SDMMC003_Private.c **** {
 2205              		.loc 1 1340 0
 2206              		.cfi_startproc
 2207              		@ args = 0, pretend = 0, frame = 24
 2208              		@ frame_needed = 1, uses_anonymous_args = 0
 2209 0000 80B5     		push	{r7, lr}
 2210              	.LCFI55:
 2211              		.cfi_def_cfa_offset 8
 2212              		.cfi_offset 7, -8
 2213              		.cfi_offset 14, -4
 2214 0002 88B0     		sub	sp, sp, #32
 2215              	.LCFI56:
 2216              		.cfi_def_cfa_offset 40
 2217 0004 02AF     		add	r7, sp, #8
 2218              	.LCFI57:
 2219              		.cfi_def_cfa 7, 32
1341:../Dave/Generated/src/SDMMC003/SDMMC003_Private.c ****   uint32_t Argument = 0;
 2220              		.loc 1 1341 0
 2221 0006 4FF00003 		mov	r3, #0
 2222 000a 3B61     		str	r3, [r7, #16]
1342:../Dave/Generated/src/SDMMC003/SDMMC003_Private.c ****   uint32_t CardStatus = 0;
 2223              		.loc 1 1342 0
 2224 000c 4FF00003 		mov	r3, #0
 2225 0010 FB60     		str	r3, [r7, #12]
1343:../Dave/Generated/src/SDMMC003/SDMMC003_Private.c ****   status_t Status;
1344:../Dave/Generated/src/SDMMC003/SDMMC003_Private.c ****   SDMMC003_SCRType ScrContent = {0};
 2226              		.loc 1 1344 0
 2227 0012 4FF00003 		mov	r3, #0
 2228 0016 7B60     		str	r3, [r7, #4]
 2229 0018 4FF00003 		mov	r3, #0
 2230 001c BB60     		str	r3, [r7, #8]
1345:../Dave/Generated/src/SDMMC003/SDMMC003_Private.c ****   FUNCTION_ENTRY(GID_SDMMC00x, (uint32_t)SDMMC003_FUNCTION_ENTRY);
1346:../Dave/Generated/src/SDMMC003/SDMMC003_Private.c ****   do
1347:../Dave/Generated/src/SDMMC003/SDMMC003_Private.c ****   {
1348:../Dave/Generated/src/SDMMC003/SDMMC003_Private.c ****     /* Read CSD Register  */
1349:../Dave/Generated/src/SDMMC003/SDMMC003_Private.c ****     Argument |= SDMMC003_CardInfo.Rca << SDMMC003_ARG_RCA_BITPOS;
 2231              		.loc 1 1349 0
 2232 001e 40F20003 		movw	r3, #:lower16:SDMMC003_CardInfo
 2233 0022 C0F20003 		movt	r3, #:upper16:SDMMC003_CardInfo
 2234 0026 9B8D     		ldrh	r3, [r3, #44]
 2235 0028 4FEA0343 		lsl	r3, r3, #16
 2236 002c 3A69     		ldr	r2, [r7, #16]
 2237 002e 1343     		orrs	r3, r3, r2
 2238 0030 3B61     		str	r3, [r7, #16]
1350:../Dave/Generated/src/SDMMC003/SDMMC003_Private.c ****     Status = SDMMC003_lSendCommand( &(SDMMC003_COMMON_COMMAND(9)),Argument, \
 2239              		.loc 1 1350 0
 2240 0032 40F20003 		movw	r3, #:lower16:SDMMC003_SDHashTable
 2241 0036 C0F20003 		movt	r3, #:upper16:SDMMC003_SDHashTable
 2242 003a 5B7A     		ldrb	r3, [r3, #9]	@ zero_extendqisi2
 2243 003c 4FEA4302 		lsl	r2, r3, #1
 2244 0040 40F20003 		movw	r3, #:lower16:SDMMC003_Command
 2245 0044 C0F20003 		movt	r3, #:upper16:SDMMC003_Command
 2246 0048 D318     		adds	r3, r2, r3
 2247 004a 1846     		mov	r0, r3
 2248 004c 3969     		ldr	r1, [r7, #16]
 2249 004e 4FF00302 		mov	r2, #3
 2250 0052 424B     		ldr	r3, .L147
 2251 0054 FFF7FEFF 		bl	SDMMC003_lSendCommand
 2252 0058 7861     		str	r0, [r7, #20]
1351:../Dave/Generated/src/SDMMC003/SDMMC003_Private.c ****                                      SDMMC003_RESPONSE_R2, \
1352:../Dave/Generated/src/SDMMC003/SDMMC003_Private.c ****                                      (void *)SDMMC003_CardInfo.CsdArray);
1353:../Dave/Generated/src/SDMMC003/SDMMC003_Private.c **** /* <<<DD_SDMMC_nonAPI_19_1>>> */
1354:../Dave/Generated/src/SDMMC003/SDMMC003_Private.c ****     if( Status != (uint32_t)DAVEApp_SUCCESS )
 2253              		.loc 1 1354 0
 2254 005a 7B69     		ldr	r3, [r7, #20]
 2255 005c 002B     		cmp	r3, #0
 2256 005e 6FD1     		bne	.L143
 2257              	.L137:
1355:../Dave/Generated/src/SDMMC003/SDMMC003_Private.c ****     {
1356:../Dave/Generated/src/SDMMC003/SDMMC003_Private.c ****       break;
1357:../Dave/Generated/src/SDMMC003/SDMMC003_Private.c ****     }
1358:../Dave/Generated/src/SDMMC003/SDMMC003_Private.c ****     /* Set Write protection flags */
1359:../Dave/Generated/src/SDMMC003/SDMMC003_Private.c ****     Status = SDMMC003_lSetWriteProtect();
 2258              		.loc 1 1359 0
 2259 0060 FFF7FEFF 		bl	SDMMC003_lSetWriteProtect
 2260 0064 7861     		str	r0, [r7, #20]
1360:../Dave/Generated/src/SDMMC003/SDMMC003_Private.c **** /* <<<DD_SDMMC_nonAPI_19_2>>> */
1361:../Dave/Generated/src/SDMMC003/SDMMC003_Private.c ****     if (Status != (uint32_t)DAVEApp_SUCCESS)
 2261              		.loc 1 1361 0
 2262 0066 7B69     		ldr	r3, [r7, #20]
 2263 0068 002B     		cmp	r3, #0
 2264 006a 6BD1     		bne	.L144
 2265              	.L139:
1362:../Dave/Generated/src/SDMMC003/SDMMC003_Private.c ****     {
1363:../Dave/Generated/src/SDMMC003/SDMMC003_Private.c ****       break;
1364:../Dave/Generated/src/SDMMC003/SDMMC003_Private.c ****     }
1365:../Dave/Generated/src/SDMMC003/SDMMC003_Private.c **** /* <<<DD_SDMMC_nonAPI_19_3>>> */
1366:../Dave/Generated/src/SDMMC003/SDMMC003_Private.c ****     /* Read SCR register for SD card */
1367:../Dave/Generated/src/SDMMC003/SDMMC003_Private.c ****     if ((SDMMC003_Handle.CardType & SDMMC003_MMC) == 0)
 2266              		.loc 1 1367 0
 2267 006c 40F20003 		movw	r3, #:lower16:SDMMC003_Handle
 2268 0070 C0F20003 		movt	r3, #:upper16:SDMMC003_Handle
 2269 0074 9B78     		ldrb	r3, [r3, #2]
 2270 0076 DBB2     		uxtb	r3, r3
 2271 0078 03F01003 		and	r3, r3, #16
 2272 007c 002B     		cmp	r3, #0
 2273 007e 66D1     		bne	.L138
1368:../Dave/Generated/src/SDMMC003/SDMMC003_Private.c ****     {
1369:../Dave/Generated/src/SDMMC003/SDMMC003_Private.c ****       /* Switch to Transferring State. */
1370:../Dave/Generated/src/SDMMC003/SDMMC003_Private.c ****       Status = SDMMC003_lSwitchToTransferState();
 2274              		.loc 1 1370 0
 2275 0080 FFF7FEFF 		bl	SDMMC003_lSwitchToTransferState
 2276 0084 7861     		str	r0, [r7, #20]
1371:../Dave/Generated/src/SDMMC003/SDMMC003_Private.c **** /* <<<DD_SDMMC_nonAPI_19_4>>> */
1372:../Dave/Generated/src/SDMMC003/SDMMC003_Private.c ****       if( Status != (uint32_t)DAVEApp_SUCCESS)
 2277              		.loc 1 1372 0
 2278 0086 7B69     		ldr	r3, [r7, #20]
 2279 0088 002B     		cmp	r3, #0
 2280 008a 5DD1     		bne	.L145
 2281              	.L140:
1373:../Dave/Generated/src/SDMMC003/SDMMC003_Private.c ****       {
1374:../Dave/Generated/src/SDMMC003/SDMMC003_Private.c ****         break;
1375:../Dave/Generated/src/SDMMC003/SDMMC003_Private.c ****       }   
1376:../Dave/Generated/src/SDMMC003/SDMMC003_Private.c ****       /*Send the Application Specific Command i.e. Command 55.*/
1377:../Dave/Generated/src/SDMMC003/SDMMC003_Private.c ****       Argument |= SDMMC003_CardInfo.Rca << SDMMC003_ARG_RCA_BITPOS;
 2282              		.loc 1 1377 0
 2283 008c 40F20003 		movw	r3, #:lower16:SDMMC003_CardInfo
 2284 0090 C0F20003 		movt	r3, #:upper16:SDMMC003_CardInfo
 2285 0094 9B8D     		ldrh	r3, [r3, #44]
 2286 0096 4FEA0343 		lsl	r3, r3, #16
 2287 009a 3A69     		ldr	r2, [r7, #16]
 2288 009c 1343     		orrs	r3, r3, r2
 2289 009e 3B61     		str	r3, [r7, #16]
1378:../Dave/Generated/src/SDMMC003/SDMMC003_Private.c ****       Status = SDMMC003_lSendCommand( &(SDMMC003_COMMON_COMMAND(55)),Argument, \
 2290              		.loc 1 1378 0
 2291 00a0 40F20003 		movw	r3, #:lower16:SDMMC003_SDHashTable
 2292 00a4 C0F20003 		movt	r3, #:upper16:SDMMC003_SDHashTable
 2293 00a8 93F83730 		ldrb	r3, [r3, #55]	@ zero_extendqisi2
 2294 00ac 4FEA4302 		lsl	r2, r3, #1
 2295 00b0 40F20003 		movw	r3, #:lower16:SDMMC003_Command
 2296 00b4 C0F20003 		movt	r3, #:upper16:SDMMC003_Command
 2297 00b8 D218     		adds	r2, r2, r3
1379:../Dave/Generated/src/SDMMC003/SDMMC003_Private.c ****                                       SDMMC003_RESPONSE_R1, &CardStatus );
 2298              		.loc 1 1379 0
 2299 00ba 07F10C03 		add	r3, r7, #12
1378:../Dave/Generated/src/SDMMC003/SDMMC003_Private.c ****       Status = SDMMC003_lSendCommand( &(SDMMC003_COMMON_COMMAND(55)),Argument, \
 2300              		.loc 1 1378 0
 2301 00be 1046     		mov	r0, r2
 2302 00c0 3969     		ldr	r1, [r7, #16]
 2303 00c2 4FF00102 		mov	r2, #1
 2304 00c6 FFF7FEFF 		bl	SDMMC003_lSendCommand
 2305 00ca 7861     		str	r0, [r7, #20]
1380:../Dave/Generated/src/SDMMC003/SDMMC003_Private.c **** /* <<<DD_SDMMC_nonAPI_19_5>>> */
1381:../Dave/Generated/src/SDMMC003/SDMMC003_Private.c ****       if( Status != (uint32_t)DAVEApp_SUCCESS)
 2306              		.loc 1 1381 0
 2307 00cc 7B69     		ldr	r3, [r7, #20]
 2308 00ce 002B     		cmp	r3, #0
 2309 00d0 3CD1     		bne	.L146
 2310              	.L141:
1382:../Dave/Generated/src/SDMMC003/SDMMC003_Private.c ****       {
1383:../Dave/Generated/src/SDMMC003/SDMMC003_Private.c ****         break;
1384:../Dave/Generated/src/SDMMC003/SDMMC003_Private.c ****       }
1385:../Dave/Generated/src/SDMMC003/SDMMC003_Private.c ****       /* Set Direction Select bit in the Transfer Mode register */
1386:../Dave/Generated/src/SDMMC003/SDMMC003_Private.c ****       SET_BIT( SDMMC->TRANSFER_MODE,SDMMC_TRANSFER_MODE_TX_DIR_SELECT_Pos);
 2311              		.loc 1 1386 0
 2312 00d2 4FF44043 		mov	r3, #49152
 2313 00d6 C4F60103 		movt	r3, 18433
 2314 00da 4FF44042 		mov	r2, #49152
 2315 00de C4F60102 		movt	r2, 18433
 2316 00e2 9289     		ldrh	r2, [r2, #12]	@ movhi
 2317 00e4 92B2     		uxth	r2, r2
 2318 00e6 42F01002 		orr	r2, r2, #16
 2319 00ea 92B2     		uxth	r2, r2
 2320 00ec 9A81     		strh	r2, [r3, #12]	@ movhi
1387:../Dave/Generated/src/SDMMC003/SDMMC003_Private.c ****       /* Read the transferred SCR data*/
1388:../Dave/Generated/src/SDMMC003/SDMMC003_Private.c ****       Status = SDMMC003_lSingleBlockTransfer( &(SDMMC003_SD_COMMAND(64)), \
 2321              		.loc 1 1388 0
 2322 00ee 40F20003 		movw	r3, #:lower16:SDMMC003_SDHashTable
 2323 00f2 C0F20003 		movt	r3, #:upper16:SDMMC003_SDHashTable
 2324 00f6 93F84030 		ldrb	r3, [r3, #64]	@ zero_extendqisi2
 2325 00fa 4FEA4302 		lsl	r2, r3, #1
 2326 00fe 40F20003 		movw	r3, #:lower16:SDMMC003_Command
 2327 0102 C0F20003 		movt	r3, #:upper16:SDMMC003_Command
 2328 0106 D218     		adds	r2, r2, r3
1389:../Dave/Generated/src/SDMMC003/SDMMC003_Private.c ****                                               SDMMC003_ARGUMENT0,8, \
1390:../Dave/Generated/src/SDMMC003/SDMMC003_Private.c ****                                               (uint32_t *)&ScrContent, \
 2329              		.loc 1 1390 0
 2330 0108 07F10403 		add	r3, r7, #4
1388:../Dave/Generated/src/SDMMC003/SDMMC003_Private.c ****       Status = SDMMC003_lSingleBlockTransfer( &(SDMMC003_SD_COMMAND(64)), \
 2331              		.loc 1 1388 0
 2332 010c 4FF00101 		mov	r1, #1
 2333 0110 0091     		str	r1, [sp, #0]
 2334 0112 1046     		mov	r0, r2
 2335 0114 4FF00001 		mov	r1, #0
 2336 0118 4FF00802 		mov	r2, #8
 2337 011c FFF7FEFF 		bl	SDMMC003_lSingleBlockTransfer
 2338 0120 7861     		str	r0, [r7, #20]
1391:../Dave/Generated/src/SDMMC003/SDMMC003_Private.c ****                                               SDMMC003_READ_FROM_BUFF);
1392:../Dave/Generated/src/SDMMC003/SDMMC003_Private.c ****       SDMMC003_CardInfo.Scr  =   ScrContent;
 2339              		.loc 1 1392 0
 2340 0122 40F20003 		movw	r3, #:lower16:SDMMC003_CardInfo
 2341 0126 C0F20003 		movt	r3, #:upper16:SDMMC003_CardInfo
 2342 012a 03F12403 		add	r3, r3, #36
 2343 012e 07F10402 		add	r2, r7, #4
 2344 0132 92E80300 		ldmia	r2, {r0, r1}
 2345 0136 83E80300 		stmia	r3, {r0, r1}
1393:../Dave/Generated/src/SDMMC003/SDMMC003_Private.c **** /* <<<DD_SDMMC_nonAPI_19_6>>> */
1394:../Dave/Generated/src/SDMMC003/SDMMC003_Private.c ****       if( Status != (uint32_t)DAVEApp_SUCCESS)
 2346              		.loc 1 1394 0
 2347 013a 7B69     		ldr	r3, [r7, #20]
 2348 013c 002B     		cmp	r3, #0
 2349 013e 06E0     		b	.L138
 2350              	.L143:
1356:../Dave/Generated/src/SDMMC003/SDMMC003_Private.c ****       break;
 2351              		.loc 1 1356 0
 2352 0140 00BF     		nop
 2353 0142 04E0     		b	.L138
 2354              	.L144:
1363:../Dave/Generated/src/SDMMC003/SDMMC003_Private.c ****       break;
 2355              		.loc 1 1363 0
 2356 0144 00BF     		nop
 2357 0146 02E0     		b	.L138
 2358              	.L145:
1374:../Dave/Generated/src/SDMMC003/SDMMC003_Private.c ****         break;
 2359              		.loc 1 1374 0
 2360 0148 00BF     		nop
 2361 014a 00E0     		b	.L138
 2362              	.L146:
1383:../Dave/Generated/src/SDMMC003/SDMMC003_Private.c ****         break;
 2363              		.loc 1 1383 0
 2364 014c 00BF     		nop
 2365              	.L138:
1395:../Dave/Generated/src/SDMMC003/SDMMC003_Private.c ****       {
1396:../Dave/Generated/src/SDMMC003/SDMMC003_Private.c ****         break;
1397:../Dave/Generated/src/SDMMC003/SDMMC003_Private.c ****       } 
1398:../Dave/Generated/src/SDMMC003/SDMMC003_Private.c ****     } /* End of " if ((SDMMC003_Handle.CardType & SDMMC003_MMC) == 0)"*/
1399:../Dave/Generated/src/SDMMC003/SDMMC003_Private.c ****   } while(0);
1400:../Dave/Generated/src/SDMMC003/SDMMC003_Private.c ****   FUNCTION_EXIT(GID_SDMMC00x, (uint32_t)SDMMC003_FUNCTION_EXIT);
1401:../Dave/Generated/src/SDMMC003/SDMMC003_Private.c ****   return Status;
 2366              		.loc 1 1401 0
 2367 014e 7B69     		ldr	r3, [r7, #20]
1402:../Dave/Generated/src/SDMMC003/SDMMC003_Private.c **** }
 2368              		.loc 1 1402 0
 2369 0150 1846     		mov	r0, r3
 2370 0152 07F11807 		add	r7, r7, #24
 2371 0156 BD46     		mov	sp, r7
 2372 0158 80BD     		pop	{r7, pc}
 2373              	.L148:
 2374 015a 00BF     		.align	2
 2375              	.L147:
 2376 015c 14000000 		.word	SDMMC003_CardInfo+20
 2377              		.cfi_endproc
 2378              	.LFE136:
 2380              		.section	.text.SDMMC003_lConfigureForSingleTransfer,"ax",%progbits
 2381              		.align	2
 2382              		.global	SDMMC003_lConfigureForSingleTransfer
 2383              		.thumb
 2384              		.thumb_func
 2386              	SDMMC003_lConfigureForSingleTransfer:
 2387              	.LFB137:
1403:../Dave/Generated/src/SDMMC003/SDMMC003_Private.c **** 
1404:../Dave/Generated/src/SDMMC003/SDMMC003_Private.c **** /* <<<DD_SDMMC_nonAPI_20>>> */
1405:../Dave/Generated/src/SDMMC003/SDMMC003_Private.c **** /*
1406:../Dave/Generated/src/SDMMC003/SDMMC003_Private.c ****  * This function configures the registers for Single Block Transfer.
1407:../Dave/Generated/src/SDMMC003/SDMMC003_Private.c ****  */
1408:../Dave/Generated/src/SDMMC003/SDMMC003_Private.c **** status_t SDMMC003_lConfigureForSingleTransfer
1409:../Dave/Generated/src/SDMMC003/SDMMC003_Private.c **** (
1410:../Dave/Generated/src/SDMMC003/SDMMC003_Private.c ****   const SDMMC003_CommandType *CommandPtr,
1411:../Dave/Generated/src/SDMMC003/SDMMC003_Private.c ****   uint32_t Argument,
1412:../Dave/Generated/src/SDMMC003/SDMMC003_Private.c ****   uint16_t BlockSize
1413:../Dave/Generated/src/SDMMC003/SDMMC003_Private.c **** )
1414:../Dave/Generated/src/SDMMC003/SDMMC003_Private.c **** {
 2388              		.loc 1 1414 0
 2389              		.cfi_startproc
 2390              		@ args = 0, pretend = 0, frame = 24
 2391              		@ frame_needed = 1, uses_anonymous_args = 0
 2392 0000 80B5     		push	{r7, lr}
 2393              	.LCFI58:
 2394              		.cfi_def_cfa_offset 8
 2395              		.cfi_offset 7, -8
 2396              		.cfi_offset 14, -4
 2397 0002 86B0     		sub	sp, sp, #24
 2398              	.LCFI59:
 2399              		.cfi_def_cfa_offset 32
 2400 0004 00AF     		add	r7, sp, #0
 2401              	.LCFI60:
 2402              		.cfi_def_cfa_register 7
 2403 0006 F860     		str	r0, [r7, #12]
 2404 0008 B960     		str	r1, [r7, #8]
 2405 000a 1346     		mov	r3, r2
 2406 000c FB80     		strh	r3, [r7, #6]	@ movhi
1415:../Dave/Generated/src/SDMMC003/SDMMC003_Private.c ****   status_t Status = (uint32_t)SDMMC003_ERROR;
 2407              		.loc 1 1415 0
 2408 000e 4FF00103 		mov	r3, #1
 2409 0012 7B61     		str	r3, [r7, #20]
1416:../Dave/Generated/src/SDMMC003/SDMMC003_Private.c ****   uint32_t CardStatus = 0;
 2410              		.loc 1 1416 0
 2411 0014 4FF00003 		mov	r3, #0
 2412 0018 3B61     		str	r3, [r7, #16]
1417:../Dave/Generated/src/SDMMC003/SDMMC003_Private.c ****   FUNCTION_ENTRY(GID_SDMMC00x, (uint32_t)SDMMC003_FUNCTION_ENTRY);
1418:../Dave/Generated/src/SDMMC003/SDMMC003_Private.c ****   do
1419:../Dave/Generated/src/SDMMC003/SDMMC003_Private.c ****   {
1420:../Dave/Generated/src/SDMMC003/SDMMC003_Private.c ****     /* Set Block Size Register */
1421:../Dave/Generated/src/SDMMC003/SDMMC003_Private.c ****     WR_REG( SDMMC->BLOCK_SIZE,SDMMC_BLOCK_SIZE_TX_BLOCK_SIZE_Msk , \
 2413              		.loc 1 1421 0
 2414 001a 4FF44043 		mov	r3, #49152
 2415 001e C4F60103 		movt	r3, 18433
 2416 0022 FA88     		ldrh	r2, [r7, #6]	@ movhi
 2417 0024 4FEA0252 		lsl	r2, r2, #20
 2418 0028 4FEA1252 		lsr	r2, r2, #20
 2419 002c 91B2     		uxth	r1, r2
 2420 002e 4FF44042 		mov	r2, #49152
 2421 0032 C4F60102 		movt	r2, 18433
 2422 0036 9288     		ldrh	r2, [r2, #4]	@ movhi
 2423 0038 92B2     		uxth	r2, r2
 2424 003a 22F47F62 		bic	r2, r2, #4080
 2425 003e 22F00F02 		bic	r2, r2, #15
 2426 0042 92B2     		uxth	r2, r2
 2427 0044 0A43     		orrs	r2, r2, r1
 2428 0046 92B2     		uxth	r2, r2
 2429 0048 9A80     		strh	r2, [r3, #4]	@ movhi
1422:../Dave/Generated/src/SDMMC003/SDMMC003_Private.c ****             SDMMC_BLOCK_SIZE_TX_BLOCK_SIZE_Pos,BlockSize );
1423:../Dave/Generated/src/SDMMC003/SDMMC003_Private.c ****     /* Clear the Multi Block Select bit */
1424:../Dave/Generated/src/SDMMC003/SDMMC003_Private.c ****     CLR_BIT( SDMMC->TRANSFER_MODE,SDMMC_TRANSFER_MODE_MULTI_BLOCK_SELECT_Pos);
 2430              		.loc 1 1424 0
 2431 004a 4FF44043 		mov	r3, #49152
 2432 004e C4F60103 		movt	r3, 18433
 2433 0052 4FF44042 		mov	r2, #49152
 2434 0056 C4F60102 		movt	r2, 18433
 2435 005a 9289     		ldrh	r2, [r2, #12]	@ movhi
 2436 005c 92B2     		uxth	r2, r2
 2437 005e 22F02002 		bic	r2, r2, #32
 2438 0062 92B2     		uxth	r2, r2
 2439 0064 9A81     		strh	r2, [r3, #12]	@ movhi
1425:../Dave/Generated/src/SDMMC003/SDMMC003_Private.c ****     /* Clear the ACMD Enable bit*/
1426:../Dave/Generated/src/SDMMC003/SDMMC003_Private.c ****     CLR_BIT( SDMMC->TRANSFER_MODE,SDMMC_TRANSFER_MODE_ACMD_EN_Pos);
 2440              		.loc 1 1426 0
 2441 0066 4FF44043 		mov	r3, #49152
 2442 006a C4F60103 		movt	r3, 18433
 2443 006e 4FF44042 		mov	r2, #49152
 2444 0072 C4F60102 		movt	r2, 18433
 2445 0076 9289     		ldrh	r2, [r2, #12]	@ movhi
 2446 0078 92B2     		uxth	r2, r2
 2447 007a 22F00402 		bic	r2, r2, #4
 2448 007e 92B2     		uxth	r2, r2
 2449 0080 9A81     		strh	r2, [r3, #12]	@ movhi
1427:../Dave/Generated/src/SDMMC003/SDMMC003_Private.c ****     /* Clear the Block Count Enable bit*/
1428:../Dave/Generated/src/SDMMC003/SDMMC003_Private.c ****     CLR_BIT( SDMMC->TRANSFER_MODE,SDMMC_TRANSFER_MODE_BLOCK_COUNT_EN_Pos);
 2450              		.loc 1 1428 0
 2451 0082 4FF44043 		mov	r3, #49152
 2452 0086 C4F60103 		movt	r3, 18433
 2453 008a 4FF44042 		mov	r2, #49152
 2454 008e C4F60102 		movt	r2, 18433
 2455 0092 9289     		ldrh	r2, [r2, #12]	@ movhi
 2456 0094 92B2     		uxth	r2, r2
 2457 0096 22F00202 		bic	r2, r2, #2
 2458 009a 92B2     		uxth	r2, r2
 2459 009c 9A81     		strh	r2, [r3, #12]	@ movhi
1429:../Dave/Generated/src/SDMMC003/SDMMC003_Private.c **** 
1430:../Dave/Generated/src/SDMMC003/SDMMC003_Private.c **** #if SDMMC_UVP_TEST
1431:../Dave/Generated/src/SDMMC003/SDMMC003_Private.c ****     if (Test_TriggerInterrupt.Trigger_TC13Error == TRUE)
1432:../Dave/Generated/src/SDMMC003/SDMMC003_Private.c ****     {
1433:../Dave/Generated/src/SDMMC003/SDMMC003_Private.c ****       Test_TriggerInterrupt.Trigger_CommandErrorInterrupt =TRUE ;
1434:../Dave/Generated/src/SDMMC003/SDMMC003_Private.c ****     }
1435:../Dave/Generated/src/SDMMC003/SDMMC003_Private.c ****     if (Test_TriggerInterrupt.Trigger_TC20Error == TRUE)
1436:../Dave/Generated/src/SDMMC003/SDMMC003_Private.c ****     {
1437:../Dave/Generated/src/SDMMC003/SDMMC003_Private.c ****       Test_TriggerInterrupt.Trigger_CommandErrorInterrupt =TRUE ;
1438:../Dave/Generated/src/SDMMC003/SDMMC003_Private.c ****     }
1439:../Dave/Generated/src/SDMMC003/SDMMC003_Private.c ****     if (Test_TriggerInterrupt.Trigger_Command42Error == TRUE)
1440:../Dave/Generated/src/SDMMC003/SDMMC003_Private.c ****     {
1441:../Dave/Generated/src/SDMMC003/SDMMC003_Private.c ****       Test_TriggerInterrupt.Trigger_CommandErrorInterrupt =TRUE ;
1442:../Dave/Generated/src/SDMMC003/SDMMC003_Private.c ****     }
1443:../Dave/Generated/src/SDMMC003/SDMMC003_Private.c ****     if (Test_TriggerInterrupt.Trigger_CommandErrorInterrupt == TRUE)
1444:../Dave/Generated/src/SDMMC003/SDMMC003_Private.c ****     {
1445:../Dave/Generated/src/SDMMC003/SDMMC003_Private.c ****       /* Disable the Command Complete Status Interrupt */
1446:../Dave/Generated/src/SDMMC003/SDMMC003_Private.c ****       SDMMC->EN_INT_STATUS_NORM &= ~(SDMMC_EN_INT_STATUS_NORM_CMD_COMPLETE_EN_Msk);
1447:../Dave/Generated/src/SDMMC003/SDMMC003_Private.c ****       /* Disable the Command Complete Signal Interrupt */
1448:../Dave/Generated/src/SDMMC003/SDMMC003_Private.c ****       SDMMC->EN_INT_SIGNAL_NORM &= ~( SDMMC_EN_INT_SIGNAL_NORM_CMD_COMPLETE_EN_Msk);
1449:../Dave/Generated/src/SDMMC003/SDMMC003_Private.c **** 
1450:../Dave/Generated/src/SDMMC003/SDMMC003_Private.c ****       /* Disable the Buffer Ready Status & Signal Interrupt */
1451:../Dave/Generated/src/SDMMC003/SDMMC003_Private.c ****       SDMMC->EN_INT_STATUS_NORM &= ~(SDMMC_EN_INT_STATUS_NORM_BUFF_READ_READY_EN_Msk);
1452:../Dave/Generated/src/SDMMC003/SDMMC003_Private.c ****       SDMMC->EN_INT_SIGNAL_NORM &= ~(SDMMC_EN_INT_STATUS_NORM_BUFF_READ_READY_EN_Msk);
1453:../Dave/Generated/src/SDMMC003/SDMMC003_Private.c ****       /* Disable the Buffer Write  Status & Signal Interrupt */
1454:../Dave/Generated/src/SDMMC003/SDMMC003_Private.c ****       SDMMC->EN_INT_STATUS_NORM &= ~(SDMMC_EN_INT_STATUS_NORM_BUFF_WRITE_READY_EN_Msk);
1455:../Dave/Generated/src/SDMMC003/SDMMC003_Private.c ****       SDMMC->EN_INT_SIGNAL_NORM &= ~(SDMMC_EN_INT_STATUS_NORM_BUFF_WRITE_READY_EN_Msk);
1456:../Dave/Generated/src/SDMMC003/SDMMC003_Private.c ****        /* Disable the Transfer Complete  Status & Signal Interrupt */
1457:../Dave/Generated/src/SDMMC003/SDMMC003_Private.c ****       SDMMC->EN_INT_STATUS_NORM &= ~(SDMMC_EN_INT_STATUS_NORM_TX_COMPLETE_EN_Msk);
1458:../Dave/Generated/src/SDMMC003/SDMMC003_Private.c ****       SDMMC->EN_INT_SIGNAL_NORM &= ~(SDMMC_EN_INT_SIGNAL_NORM_TX_COMPLETE_EN_Msk);
1459:../Dave/Generated/src/SDMMC003/SDMMC003_Private.c ****     }
1460:../Dave/Generated/src/SDMMC003/SDMMC003_Private.c ****     if (Test_TriggerInterrupt.Trigger_DataErrorInterrupt == TRUE)
1461:../Dave/Generated/src/SDMMC003/SDMMC003_Private.c ****     {
1462:../Dave/Generated/src/SDMMC003/SDMMC003_Private.c ****       /* Disable the Buffer Ready Status & Signal Interrupt */
1463:../Dave/Generated/src/SDMMC003/SDMMC003_Private.c ****       SDMMC->EN_INT_STATUS_NORM &= ~(SDMMC_EN_INT_STATUS_NORM_BUFF_READ_READY_EN_Msk);
1464:../Dave/Generated/src/SDMMC003/SDMMC003_Private.c ****       SDMMC->EN_INT_SIGNAL_NORM &= ~(SDMMC_EN_INT_STATUS_NORM_BUFF_READ_READY_EN_Msk);
1465:../Dave/Generated/src/SDMMC003/SDMMC003_Private.c ****       /* Disable the Buffer Ready Status & Signal Interrupt */
1466:../Dave/Generated/src/SDMMC003/SDMMC003_Private.c ****       SDMMC->EN_INT_STATUS_NORM &= ~(SDMMC_EN_INT_STATUS_NORM_BUFF_WRITE_READY_EN_Msk);
1467:../Dave/Generated/src/SDMMC003/SDMMC003_Private.c ****       SDMMC->EN_INT_SIGNAL_NORM &= ~(SDMMC_EN_INT_STATUS_NORM_BUFF_WRITE_READY_EN_Msk);
1468:../Dave/Generated/src/SDMMC003/SDMMC003_Private.c ****     }
1469:../Dave/Generated/src/SDMMC003/SDMMC003_Private.c **** #endif
1470:../Dave/Generated/src/SDMMC003/SDMMC003_Private.c ****     /* Send Single Block Transfer Command */
1471:../Dave/Generated/src/SDMMC003/SDMMC003_Private.c ****     Status = (uint32_t)SDMMC003_lSendCommand( CommandPtr, Argument, \
1472:../Dave/Generated/src/SDMMC003/SDMMC003_Private.c ****                                               SDMMC003_RESPONSE_R1, &CardStatus);
 2460              		.loc 1 1472 0
 2461 009e 07F11003 		add	r3, r7, #16
1471:../Dave/Generated/src/SDMMC003/SDMMC003_Private.c ****     Status = (uint32_t)SDMMC003_lSendCommand( CommandPtr, Argument, \
 2462              		.loc 1 1471 0
 2463 00a2 F868     		ldr	r0, [r7, #12]
 2464 00a4 B968     		ldr	r1, [r7, #8]
 2465 00a6 4FF00102 		mov	r2, #1
 2466 00aa FFF7FEFF 		bl	SDMMC003_lSendCommand
 2467 00ae 7861     		str	r0, [r7, #20]
1473:../Dave/Generated/src/SDMMC003/SDMMC003_Private.c **** /* <<<DD_SDMMC_nonAPI_20_1>>> */
1474:../Dave/Generated/src/SDMMC003/SDMMC003_Private.c ****     if (Status != (uint32_t)DAVEApp_SUCCESS)
 2468              		.loc 1 1474 0
 2469 00b0 7B69     		ldr	r3, [r7, #20]
 2470 00b2 002B     		cmp	r3, #0
1475:../Dave/Generated/src/SDMMC003/SDMMC003_Private.c ****     {
1476:../Dave/Generated/src/SDMMC003/SDMMC003_Private.c ****       break;
1477:../Dave/Generated/src/SDMMC003/SDMMC003_Private.c ****     }
1478:../Dave/Generated/src/SDMMC003/SDMMC003_Private.c ****   } while(0);
1479:../Dave/Generated/src/SDMMC003/SDMMC003_Private.c ****   FUNCTION_EXIT(GID_SDMMC00x, (uint32_t)SDMMC003_FUNCTION_EXIT);
1480:../Dave/Generated/src/SDMMC003/SDMMC003_Private.c ****   return Status;
 2471              		.loc 1 1480 0
 2472 00b4 7B69     		ldr	r3, [r7, #20]
1481:../Dave/Generated/src/SDMMC003/SDMMC003_Private.c **** }
 2473              		.loc 1 1481 0
 2474 00b6 1846     		mov	r0, r3
 2475 00b8 07F11807 		add	r7, r7, #24
 2476 00bc BD46     		mov	sp, r7
 2477 00be 80BD     		pop	{r7, pc}
 2478              		.cfi_endproc
 2479              	.LFE137:
 2481              		.section	.text.SDMMC003_lConfigureRegForMultiTransfer,"ax",%progbits
 2482              		.align	2
 2483              		.global	SDMMC003_lConfigureRegForMultiTransfer
 2484              		.thumb
 2485              		.thumb_func
 2487              	SDMMC003_lConfigureRegForMultiTransfer:
 2488              	.LFB138:
1482:../Dave/Generated/src/SDMMC003/SDMMC003_Private.c **** 
1483:../Dave/Generated/src/SDMMC003/SDMMC003_Private.c **** /* <<<DD_SDMMC_nonAPI_21>>> */
1484:../Dave/Generated/src/SDMMC003/SDMMC003_Private.c **** /*
1485:../Dave/Generated/src/SDMMC003/SDMMC003_Private.c ****  * This function configures the registers for Multiple Block Transfer.
1486:../Dave/Generated/src/SDMMC003/SDMMC003_Private.c ****  */
1487:../Dave/Generated/src/SDMMC003/SDMMC003_Private.c **** status_t SDMMC003_lConfigureRegForMultiTransfer
1488:../Dave/Generated/src/SDMMC003/SDMMC003_Private.c **** (
1489:../Dave/Generated/src/SDMMC003/SDMMC003_Private.c ****   uint32_t *TmpAddrPtr,
1490:../Dave/Generated/src/SDMMC003/SDMMC003_Private.c ****   uint32_t NumberOfBlocks,
1491:../Dave/Generated/src/SDMMC003/SDMMC003_Private.c ****   const SDMMC003_CommandType *CommandPtr
1492:../Dave/Generated/src/SDMMC003/SDMMC003_Private.c **** )
1493:../Dave/Generated/src/SDMMC003/SDMMC003_Private.c **** {
 2489              		.loc 1 1493 0
 2490              		.cfi_startproc
 2491              		@ args = 0, pretend = 0, frame = 24
 2492              		@ frame_needed = 1, uses_anonymous_args = 0
 2493 0000 80B5     		push	{r7, lr}
 2494              	.LCFI61:
 2495              		.cfi_def_cfa_offset 8
 2496              		.cfi_offset 7, -8
 2497              		.cfi_offset 14, -4
 2498 0002 86B0     		sub	sp, sp, #24
 2499              	.LCFI62:
 2500              		.cfi_def_cfa_offset 32
 2501 0004 00AF     		add	r7, sp, #0
 2502              	.LCFI63:
 2503              		.cfi_def_cfa_register 7
 2504 0006 F860     		str	r0, [r7, #12]
 2505 0008 B960     		str	r1, [r7, #8]
 2506 000a 7A60     		str	r2, [r7, #4]
1494:../Dave/Generated/src/SDMMC003/SDMMC003_Private.c ****   status_t Status;
1495:../Dave/Generated/src/SDMMC003/SDMMC003_Private.c ****   uint32_t CardStatus = 0;
 2507              		.loc 1 1495 0
 2508 000c 4FF00003 		mov	r3, #0
 2509 0010 3B61     		str	r3, [r7, #16]
1496:../Dave/Generated/src/SDMMC003/SDMMC003_Private.c ****   FUNCTION_ENTRY(GID_SDMMC00x, (uint32_t)SDMMC003_FUNCTION_ENTRY);
1497:../Dave/Generated/src/SDMMC003/SDMMC003_Private.c ****   do
1498:../Dave/Generated/src/SDMMC003/SDMMC003_Private.c ****   {
1499:../Dave/Generated/src/SDMMC003/SDMMC003_Private.c ****     /* Block Addressing */
1500:../Dave/Generated/src/SDMMC003/SDMMC003_Private.c ****     /* <<<DD_SDMMC_nonAPI_21_1>>> */
1501:../Dave/Generated/src/SDMMC003/SDMMC003_Private.c ****     if ((SDMMC003_Handle.CardType & SDMMC003_BLOCK_ADDRESSING) == 0UL)
 2510              		.loc 1 1501 0
 2511 0012 40F20003 		movw	r3, #:lower16:SDMMC003_Handle
 2512 0016 C0F20003 		movt	r3, #:upper16:SDMMC003_Handle
 2513 001a 9B78     		ldrb	r3, [r3, #2]
 2514 001c DBB2     		uxtb	r3, r3
 2515 001e 03F00803 		and	r3, r3, #8
 2516 0022 002B     		cmp	r3, #0
 2517 0024 05D1     		bne	.L153
1502:../Dave/Generated/src/SDMMC003/SDMMC003_Private.c ****     {
1503:../Dave/Generated/src/SDMMC003/SDMMC003_Private.c ****       *TmpAddrPtr *= 512UL;
 2518              		.loc 1 1503 0
 2519 0026 FB68     		ldr	r3, [r7, #12]
 2520 0028 1B68     		ldr	r3, [r3, #0]
 2521 002a 4FEA4322 		lsl	r2, r3, #9
 2522 002e FB68     		ldr	r3, [r7, #12]
 2523 0030 1A60     		str	r2, [r3, #0]
 2524              	.L153:
1504:../Dave/Generated/src/SDMMC003/SDMMC003_Private.c ****     }
1505:../Dave/Generated/src/SDMMC003/SDMMC003_Private.c ****     /* Set Block Size Register */
1506:../Dave/Generated/src/SDMMC003/SDMMC003_Private.c ****     WR_REG( SDMMC->BLOCK_SIZE,SDMMC_BLOCK_SIZE_TX_BLOCK_SIZE_Msk , \
 2525              		.loc 1 1506 0
 2526 0032 4FF44043 		mov	r3, #49152
 2527 0036 C4F60103 		movt	r3, 18433
 2528 003a 4FF44042 		mov	r2, #49152
 2529 003e C4F60102 		movt	r2, 18433
 2530 0042 9288     		ldrh	r2, [r2, #4]	@ movhi
 2531 0044 92B2     		uxth	r2, r2
 2532 0046 22F47F62 		bic	r2, r2, #4080
 2533 004a 22F00F02 		bic	r2, r2, #15
 2534 004e 92B2     		uxth	r2, r2
 2535 0050 42F40072 		orr	r2, r2, #512
 2536 0054 92B2     		uxth	r2, r2
 2537 0056 9A80     		strh	r2, [r3, #4]	@ movhi
1507:../Dave/Generated/src/SDMMC003/SDMMC003_Private.c ****             SDMMC_BLOCK_SIZE_TX_BLOCK_SIZE_Pos,SDMMC003_TX_BLOCK_SIZE_VALUE);
1508:../Dave/Generated/src/SDMMC003/SDMMC003_Private.c ****     /* Set Transfer Mode Register */
1509:../Dave/Generated/src/SDMMC003/SDMMC003_Private.c ****     SET_BIT( SDMMC->TRANSFER_MODE,SDMMC_TRANSFER_MODE_MULTI_BLOCK_SELECT_Pos);
 2538              		.loc 1 1509 0
 2539 0058 4FF44043 		mov	r3, #49152
 2540 005c C4F60103 		movt	r3, 18433
 2541 0060 4FF44042 		mov	r2, #49152
 2542 0064 C4F60102 		movt	r2, 18433
 2543 0068 9289     		ldrh	r2, [r2, #12]	@ movhi
 2544 006a 92B2     		uxth	r2, r2
 2545 006c 42F02002 		orr	r2, r2, #32
 2546 0070 92B2     		uxth	r2, r2
 2547 0072 9A81     		strh	r2, [r3, #12]	@ movhi
1510:../Dave/Generated/src/SDMMC003/SDMMC003_Private.c ****     SET_BIT( SDMMC->TRANSFER_MODE,SDMMC_TRANSFER_MODE_ACMD_EN_Pos);
 2548              		.loc 1 1510 0
 2549 0074 4FF44043 		mov	r3, #49152
 2550 0078 C4F60103 		movt	r3, 18433
 2551 007c 4FF44042 		mov	r2, #49152
 2552 0080 C4F60102 		movt	r2, 18433
 2553 0084 9289     		ldrh	r2, [r2, #12]	@ movhi
 2554 0086 92B2     		uxth	r2, r2
 2555 0088 42F00402 		orr	r2, r2, #4
 2556 008c 92B2     		uxth	r2, r2
 2557 008e 9A81     		strh	r2, [r3, #12]	@ movhi
1511:../Dave/Generated/src/SDMMC003/SDMMC003_Private.c ****     SET_BIT( SDMMC->TRANSFER_MODE,SDMMC_TRANSFER_MODE_BLOCK_COUNT_EN_Pos);
 2558              		.loc 1 1511 0
 2559 0090 4FF44043 		mov	r3, #49152
 2560 0094 C4F60103 		movt	r3, 18433
 2561 0098 4FF44042 		mov	r2, #49152
 2562 009c C4F60102 		movt	r2, 18433
 2563 00a0 9289     		ldrh	r2, [r2, #12]	@ movhi
 2564 00a2 92B2     		uxth	r2, r2
 2565 00a4 42F00202 		orr	r2, r2, #2
 2566 00a8 92B2     		uxth	r2, r2
 2567 00aa 9A81     		strh	r2, [r3, #12]	@ movhi
1512:../Dave/Generated/src/SDMMC003/SDMMC003_Private.c **** 
1513:../Dave/Generated/src/SDMMC003/SDMMC003_Private.c ****     /* Set Block Count Register */
1514:../Dave/Generated/src/SDMMC003/SDMMC003_Private.c ****     WR_REG( SDMMC->BLOCK_COUNT, SDMMC_BLOCK_COUNT_BLOCK_COUNT_Msk ,   \
 2568              		.loc 1 1514 0
 2569 00ac 4FF44043 		mov	r3, #49152
 2570 00b0 C4F60103 		movt	r3, 18433
 2571 00b4 DB88     		ldrh	r3, [r3, #6]	@ movhi
 2572 00b6 4FF44043 		mov	r3, #49152
 2573 00ba C4F60103 		movt	r3, 18433
 2574 00be BA68     		ldr	r2, [r7, #8]
 2575 00c0 92B2     		uxth	r2, r2
 2576 00c2 DA80     		strh	r2, [r3, #6]	@ movhi
1515:../Dave/Generated/src/SDMMC003/SDMMC003_Private.c ****             SDMMC_BLOCK_COUNT_BLOCK_COUNT_Pos, NumberOfBlocks);
1516:../Dave/Generated/src/SDMMC003/SDMMC003_Private.c **** 
1517:../Dave/Generated/src/SDMMC003/SDMMC003_Private.c ****     /* Enable ACMD 12 Interrupt Signal  */
1518:../Dave/Generated/src/SDMMC003/SDMMC003_Private.c ****     SDMMC->EN_INT_SIGNAL_ERR &= ~SDMMC_EN_INT_SIGNAL_ERR_ACMD_ERR_EN_Msk;
 2577              		.loc 1 1518 0
 2578 00c4 4FF44043 		mov	r3, #49152
 2579 00c8 C4F60103 		movt	r3, 18433
 2580 00cc 4FF44042 		mov	r2, #49152
 2581 00d0 C4F60102 		movt	r2, 18433
 2582 00d4 528F     		ldrh	r2, [r2, #58]	@ movhi
 2583 00d6 92B2     		uxth	r2, r2
 2584 00d8 22F48072 		bic	r2, r2, #256
 2585 00dc 92B2     		uxth	r2, r2
 2586 00de 5A87     		strh	r2, [r3, #58]	@ movhi
1519:../Dave/Generated/src/SDMMC003/SDMMC003_Private.c ****     SDMMC->EN_INT_SIGNAL_ERR |= SDMMC_EN_INT_SIGNAL_ERR_ACMD_ERR_EN_Msk;
 2587              		.loc 1 1519 0
 2588 00e0 4FF44043 		mov	r3, #49152
 2589 00e4 C4F60103 		movt	r3, 18433
 2590 00e8 4FF44042 		mov	r2, #49152
 2591 00ec C4F60102 		movt	r2, 18433
 2592 00f0 528F     		ldrh	r2, [r2, #58]	@ movhi
 2593 00f2 92B2     		uxth	r2, r2
 2594 00f4 42F48072 		orr	r2, r2, #256
 2595 00f8 92B2     		uxth	r2, r2
 2596 00fa 5A87     		strh	r2, [r3, #58]	@ movhi
1520:../Dave/Generated/src/SDMMC003/SDMMC003_Private.c **** 
1521:../Dave/Generated/src/SDMMC003/SDMMC003_Private.c **** #if SDMMC_UVP_TEST 
1522:../Dave/Generated/src/SDMMC003/SDMMC003_Private.c ****     if ( Test_TriggerInterrupt.Trigger_TC8Error == TRUE)
1523:../Dave/Generated/src/SDMMC003/SDMMC003_Private.c ****     {
1524:../Dave/Generated/src/SDMMC003/SDMMC003_Private.c ****       Test_TriggerInterrupt.Trigger_CommandErrorInterrupt = TRUE;
1525:../Dave/Generated/src/SDMMC003/SDMMC003_Private.c ****     }
1526:../Dave/Generated/src/SDMMC003/SDMMC003_Private.c ****     if ( Test_TriggerInterrupt.Trigger_TC10Error == TRUE)
1527:../Dave/Generated/src/SDMMC003/SDMMC003_Private.c ****     {
1528:../Dave/Generated/src/SDMMC003/SDMMC003_Private.c ****       Test_TriggerInterrupt.Trigger_CommandErrorInterrupt = TRUE;
1529:../Dave/Generated/src/SDMMC003/SDMMC003_Private.c ****     }
1530:../Dave/Generated/src/SDMMC003/SDMMC003_Private.c ****     if ( Test_TriggerInterrupt.Trigger_TC17Error == TRUE)
1531:../Dave/Generated/src/SDMMC003/SDMMC003_Private.c ****     {
1532:../Dave/Generated/src/SDMMC003/SDMMC003_Private.c ****       Test_TriggerInterrupt.Trigger_CommandErrorInterrupt = TRUE;
1533:../Dave/Generated/src/SDMMC003/SDMMC003_Private.c ****     }
1534:../Dave/Generated/src/SDMMC003/SDMMC003_Private.c **** 
1535:../Dave/Generated/src/SDMMC003/SDMMC003_Private.c ****     if (Test_TriggerInterrupt.Trigger_CommandErrorInterrupt == TRUE)
1536:../Dave/Generated/src/SDMMC003/SDMMC003_Private.c ****     {
1537:../Dave/Generated/src/SDMMC003/SDMMC003_Private.c ****       /* Disable the Command Complete Status Interrupt */
1538:../Dave/Generated/src/SDMMC003/SDMMC003_Private.c ****       SDMMC->EN_INT_STATUS_NORM &= ~(SDMMC_EN_INT_STATUS_NORM_CMD_COMPLETE_EN_Msk);
1539:../Dave/Generated/src/SDMMC003/SDMMC003_Private.c ****       /* Disable the Command Complete Signal Interrupt */
1540:../Dave/Generated/src/SDMMC003/SDMMC003_Private.c ****       SDMMC->EN_INT_SIGNAL_NORM &= ~( SDMMC_EN_INT_SIGNAL_NORM_CMD_COMPLETE_EN_Msk);
1541:../Dave/Generated/src/SDMMC003/SDMMC003_Private.c ****       /* Disable the Buffer Ready Status & Signal Interrupt */
1542:../Dave/Generated/src/SDMMC003/SDMMC003_Private.c ****       SDMMC->EN_INT_STATUS_NORM &= ~(SDMMC_EN_INT_STATUS_NORM_BUFF_READ_READY_EN_Msk);
1543:../Dave/Generated/src/SDMMC003/SDMMC003_Private.c ****       SDMMC->EN_INT_SIGNAL_NORM &= ~(SDMMC_EN_INT_STATUS_NORM_BUFF_READ_READY_EN_Msk);
1544:../Dave/Generated/src/SDMMC003/SDMMC003_Private.c ****       /* Disable the Buffer Write Status & Signal Interrupt */
1545:../Dave/Generated/src/SDMMC003/SDMMC003_Private.c ****       SDMMC->EN_INT_STATUS_NORM &= ~(SDMMC_EN_INT_STATUS_NORM_BUFF_WRITE_READY_EN_Msk);
1546:../Dave/Generated/src/SDMMC003/SDMMC003_Private.c ****       SDMMC->EN_INT_SIGNAL_NORM &= ~(SDMMC_EN_INT_STATUS_NORM_BUFF_WRITE_READY_EN_Msk);
1547:../Dave/Generated/src/SDMMC003/SDMMC003_Private.c ****       /* Disable the Transfer Complete Status & Signal Interrupt */
1548:../Dave/Generated/src/SDMMC003/SDMMC003_Private.c ****       SDMMC->EN_INT_STATUS_NORM &= ~(SDMMC_EN_INT_STATUS_NORM_TX_COMPLETE_EN_Msk);
1549:../Dave/Generated/src/SDMMC003/SDMMC003_Private.c ****       SDMMC->EN_INT_SIGNAL_NORM &= ~(SDMMC_EN_INT_SIGNAL_NORM_TX_COMPLETE_EN_Msk);
1550:../Dave/Generated/src/SDMMC003/SDMMC003_Private.c ****     }
1551:../Dave/Generated/src/SDMMC003/SDMMC003_Private.c ****     if (Test_TriggerInterrupt.Trigger_DataErrorInterrupt == TRUE)
1552:../Dave/Generated/src/SDMMC003/SDMMC003_Private.c ****     {
1553:../Dave/Generated/src/SDMMC003/SDMMC003_Private.c ****       /* Disable the Buffer Ready Status & Signal Interrupt */
