   1              		.syntax unified
   2              		.cpu cortex-m4
   3              		.eabi_attribute 27, 3
   4              		.fpu fpv4-sp-d16
   5              		.eabi_attribute 20, 1
   6              		.eabi_attribute 21, 1
   7              		.eabi_attribute 23, 3
   8              		.eabi_attribute 24, 1
   9              		.eabi_attribute 25, 1
  10              		.eabi_attribute 26, 1
  11              		.eabi_attribute 30, 4
  12              		.eabi_attribute 34, 1
  13              		.eabi_attribute 18, 4
  14              		.thumb
  15              		.file	"ADCGlob001.c"
  16              		.section	.text.ADCGLOB001_Init,"ax",%progbits
  17              		.align	1
  18              		.global	ADCGLOB001_Init
  19              		.thumb
  20              		.thumb_func
  22              	ADCGLOB001_Init:
  23              		@ args = 0, pretend = 0, frame = 0
  24              		@ frame_needed = 0, uses_anonymous_args = 0
  25 0000 38B5     		push	{r3, r4, r5, lr}
  26 0002 2D4C     		ldr	r4, .L4
  27 0004 6568     		ldr	r5, [r4, #4]
  28 0006 2B78     		ldrb	r3, [r5, #0]	@ zero_extendqisi2
  29 0008 002B     		cmp	r3, #0
  30 000a 54D1     		bne	.L1
  31 000c FFF7FEFF 		bl	CLK001_Init
  32 0010 0120     		movs	r0, #1
  33 0012 FFF7FEFF 		bl	RESET001_DeassertReset
  34 0016 2068     		ldr	r0, [r4, #0]
  35 0018 237B     		ldrb	r3, [r4, #12]	@ zero_extendqisi2
  36 001a 0268     		ldr	r2, [r0, #0]
  37 001c 22F00101 		bic	r1, r2, #1
  38 0020 03F01F02 		and	r2, r3, #31
  39 0024 637B     		ldrb	r3, [r4, #13]	@ zero_extendqisi2
  40 0026 0160     		str	r1, [r0, #0]
  41 0028 42F40041 		orr	r1, r2, #32768
  42 002c 1A02     		lsls	r2, r3, #8
  43 002e 02F44073 		and	r3, r2, #768
  44 0032 41EA0302 		orr	r2, r1, r3
  45 0036 E17D     		ldrb	r1, [r4, #23]	@ zero_extendqisi2
  46 0038 CB01     		lsls	r3, r1, #7
  47 003a D9B2     		uxtb	r1, r3
  48 003c 0A43     		orrs	r2, r2, r1
  49 003e C0F88020 		str	r2, [r0, #128]
  50 0042 D0F88020 		ldr	r2, [r0, #128]
  51 0046 217D     		ldrb	r1, [r4, #20]	@ zero_extendqisi2
  52 0048 22F40043 		bic	r3, r2, #32768
  53 004c 0A06     		lsls	r2, r1, #24
  54 004e 217C     		ldrb	r1, [r4, #16]	@ zero_extendqisi2
  55 0050 C0F88030 		str	r3, [r0, #128]
  56 0054 02F0E063 		and	r3, r2, #117440512
  57 0058 0A04     		lsls	r2, r1, #16
  58 005a 02F4F811 		and	r1, r2, #2031616
  59 005e A27B     		ldrb	r2, [r4, #14]	@ zero_extendqisi2
  60 0060 0B43     		orrs	r3, r3, r1
  61 0062 02F01F01 		and	r1, r2, #31
  62 0066 A27C     		ldrb	r2, [r4, #18]	@ zero_extendqisi2
  63 0068 0B43     		orrs	r3, r3, r1
  64 006a 1102     		lsls	r1, r2, #8
  65 006c 01F4E062 		and	r2, r1, #1792
  66 0070 1343     		orrs	r3, r3, r2
  67 0072 C0F8A030 		str	r3, [r0, #160]
  68 0076 637D     		ldrb	r3, [r4, #21]	@ zero_extendqisi2
  69 0078 627C     		ldrb	r2, [r4, #17]	@ zero_extendqisi2
  70 007a 1906     		lsls	r1, r3, #24
  71 007c 01F0E063 		and	r3, r1, #117440512
  72 0080 1104     		lsls	r1, r2, #16
  73 0082 01F4F812 		and	r2, r1, #2031616
  74 0086 E17B     		ldrb	r1, [r4, #15]	@ zero_extendqisi2
  75 0088 1343     		orrs	r3, r3, r2
  76 008a 01F01F02 		and	r2, r1, #31
  77 008e E17C     		ldrb	r1, [r4, #19]	@ zero_extendqisi2
  78 0090 1343     		orrs	r3, r3, r2
  79 0092 0A02     		lsls	r2, r1, #8
  80 0094 02F4E061 		and	r1, r2, #1792
  81 0098 0B43     		orrs	r3, r3, r1
  82 009a C0F8A430 		str	r3, [r0, #164]
  83 009e 6389     		ldrh	r3, [r4, #10]
  84 00a0 064A     		ldr	r2, .L4+4
  85 00a2 1904     		lsls	r1, r3, #16
  86 00a4 2389     		ldrh	r3, [r4, #8]
  87 00a6 0A40     		ands	r2, r2, r1
  88 00a8 1905     		lsls	r1, r3, #20
  89 00aa 42EA1152 		orr	r2, r2, r1, lsr #20
  90 00ae C0F8B820 		str	r2, [r0, #184]
  91 00b2 0120     		movs	r0, #1
  92 00b4 2870     		strb	r0, [r5, #0]
  93              	.L1:
  94 00b6 38BD     		pop	{r3, r4, r5, pc}
  95              	.L5:
  96              		.align	2
  97              	.L4:
  98 00b8 00000000 		.word	ADCGLOB001_Handle0
  99 00bc 0000FF0F 		.word	268369920
 101              		.section	.text.ADCGLOB001_DeInit,"ax",%progbits
 102              		.align	1
 103              		.global	ADCGLOB001_DeInit
 104              		.thumb
 105              		.thumb_func
 107              	ADCGLOB001_DeInit:
 108              		@ args = 0, pretend = 0, frame = 0
 109              		@ frame_needed = 0, uses_anonymous_args = 0
 110              		@ link register save eliminated.
 111 0000 4268     		ldr	r2, [r0, #4]
 112 0002 1378     		ldrb	r3, [r2, #0]	@ zero_extendqisi2
 113 0004 012B     		cmp	r3, #1
 114 0006 19D1     		bne	.L8
 115 0008 0068     		ldr	r0, [r0, #0]
 116 000a 0168     		ldr	r1, [r0, #0]
 117 000c 21F00103 		bic	r3, r1, #1
 118 0010 0B49     		ldr	r1, .L9
 119 0012 0360     		str	r3, [r0, #0]
 120 0014 C0F88010 		str	r1, [r0, #128]
 121 0018 D0F88030 		ldr	r3, [r0, #128]
 122 001c 23F40041 		bic	r1, r3, #32768
 123 0020 084B     		ldr	r3, .L9+4
 124 0022 C0F88010 		str	r1, [r0, #128]
 125 0026 4FF0F021 		mov	r1, #-268374016
 126 002a C0F8A030 		str	r3, [r0, #160]
 127 002e C0F8A430 		str	r3, [r0, #164]
 128 0032 C0F8B810 		str	r1, [r0, #184]
 129 0036 0020     		movs	r0, #0
 130 0038 1070     		strb	r0, [r2, #0]
 131 003a 7047     		bx	lr
 132              	.L8:
 133 003c 0120     		movs	r0, #1
 134 003e 7047     		bx	lr
 135              	.L10:
 136              		.align	2
 137              	.L9:
 138 0040 60FCFFFF 		.word	-928
 139 0044 E0F8E0F8 		.word	-119473952
 141              		.section	.text.ADCGLOB001_CLKRequestDisable,"ax",%progbits
 142              		.align	1
 143              		.global	ADCGLOB001_CLKRequestDisable
 144              		.thumb
 145              		.thumb_func
 147              	ADCGLOB001_CLKRequestDisable:
 148              		@ args = 0, pretend = 0, frame = 0
 149              		@ frame_needed = 0, uses_anonymous_args = 0
 150              		@ link register save eliminated.
 151 0000 4368     		ldr	r3, [r0, #4]
 152 0002 1978     		ldrb	r1, [r3, #0]	@ zero_extendqisi2
 153 0004 0129     		cmp	r1, #1
 154 0006 06D1     		bne	.L13
 155 0008 0068     		ldr	r0, [r0, #0]
 156 000a 0268     		ldr	r2, [r0, #0]
 157 000c 42F00103 		orr	r3, r2, #1
 158 0010 0360     		str	r3, [r0, #0]
 159 0012 0020     		movs	r0, #0
 160 0014 7047     		bx	lr
 161              	.L13:
 162 0016 0120     		movs	r0, #1
 163 0018 7047     		bx	lr
 165              		.section	.text.ADCGLOB001_CLKRequestEnable,"ax",%progbits
 166              		.align	1
 167              		.global	ADCGLOB001_CLKRequestEnable
 168              		.thumb
 169              		.thumb_func
 171              	ADCGLOB001_CLKRequestEnable:
 172              		@ args = 0, pretend = 0, frame = 0
 173              		@ frame_needed = 0, uses_anonymous_args = 0
 174              		@ link register save eliminated.
 175 0000 4368     		ldr	r3, [r0, #4]
 176 0002 1978     		ldrb	r1, [r3, #0]	@ zero_extendqisi2
 177 0004 0129     		cmp	r1, #1
 178 0006 06D1     		bne	.L16
 179 0008 0068     		ldr	r0, [r0, #0]
 180 000a 0268     		ldr	r2, [r0, #0]
 181 000c 22F00103 		bic	r3, r2, #1
 182 0010 0360     		str	r3, [r0, #0]
 183 0012 0020     		movs	r0, #0
 184 0014 7047     		bx	lr
 185              	.L16:
 186 0016 0120     		movs	r0, #1
 187 0018 7047     		bx	lr
 189              		.section	.text.ADCGLOB001_SetStartUpCalibration,"ax",%progbits
 190              		.align	1
 191              		.global	ADCGLOB001_SetStartUpCalibration
 192              		.thumb
 193              		.thumb_func
 195              	ADCGLOB001_SetStartUpCalibration:
 196              		@ args = 0, pretend = 0, frame = 0
 197              		@ frame_needed = 0, uses_anonymous_args = 0
 198              		@ link register save eliminated.
 199 0000 4368     		ldr	r3, [r0, #4]
 200 0002 1978     		ldrb	r1, [r3, #0]	@ zero_extendqisi2
 201 0004 0129     		cmp	r1, #1
 202 0006 0CD1     		bne	.L20
 203 0008 0368     		ldr	r3, [r0, #0]
 204 000a D3F88020 		ldr	r2, [r3, #128]
 205 000e 42F00040 		orr	r0, r2, #-2147483648
 206 0012 C3F88000 		str	r0, [r3, #128]
 207              	.L19:
 208 0016 D3F88010 		ldr	r1, [r3, #128]
 209 001a 11F00040 		ands	r0, r1, #-2147483648
 210 001e FAD1     		bne	.L19
 211 0020 7047     		bx	lr
 212              	.L20:
 213 0022 0120     		movs	r0, #1
 214 0024 7047     		bx	lr
 216              		.section	.text.ADCGLOB001_StartUpCalibrationInit,"ax",%progbits
 217              		.align	1
 218              		.global	ADCGLOB001_StartUpCalibrationInit
 219              		.thumb
 220              		.thumb_func
 222              	ADCGLOB001_StartUpCalibrationInit:
 223              		@ args = 0, pretend = 0, frame = 0
 224              		@ frame_needed = 0, uses_anonymous_args = 0
 225              		@ link register save eliminated.
 226 0000 0B4B     		ldr	r3, .L29
 227 0002 5A68     		ldr	r2, [r3, #4]
 228 0004 1078     		ldrb	r0, [r2, #0]	@ zero_extendqisi2
 229 0006 0128     		cmp	r0, #1
 230 0008 10D1     		bne	.L27
 231 000a 997D     		ldrb	r1, [r3, #22]	@ zero_extendqisi2
 232 000c 0129     		cmp	r1, #1
 233 000e 01D0     		beq	.L24
 234              	.L26:
 235 0010 0020     		movs	r0, #0
 236 0012 7047     		bx	lr
 237              	.L24:
 238 0014 1B68     		ldr	r3, [r3, #0]
 239 0016 D3F88020 		ldr	r2, [r3, #128]
 240 001a 42F00040 		orr	r0, r2, #-2147483648
 241 001e C3F88000 		str	r0, [r3, #128]
 242              	.L25:
 243 0022 D3F88010 		ldr	r1, [r3, #128]
 244 0026 0029     		cmp	r1, #0
 245 0028 FBDB     		blt	.L25
 246 002a F1E7     		b	.L26
 247              	.L27:
 248 002c 0120     		movs	r0, #1
 249 002e 7047     		bx	lr
 250              	.L30:
 251              		.align	2
 252              	.L29:
 253 0030 00000000 		.word	ADCGLOB001_Handle0
 255              		.section	.text.ADCGLOB001_EnableSleepModeControl,"ax",%progbits
 256              		.align	1
 257              		.global	ADCGLOB001_EnableSleepModeControl
 258              		.thumb
 259              		.thumb_func
 261              	ADCGLOB001_EnableSleepModeControl:
 262              		@ args = 0, pretend = 0, frame = 0
 263              		@ frame_needed = 0, uses_anonymous_args = 0
 264              		@ link register save eliminated.
 265 0000 4368     		ldr	r3, [r0, #4]
 266 0002 1978     		ldrb	r1, [r3, #0]	@ zero_extendqisi2
 267 0004 0129     		cmp	r1, #1
 268 0006 06D1     		bne	.L33
 269 0008 0068     		ldr	r0, [r0, #0]
 270 000a 0268     		ldr	r2, [r0, #0]
 271 000c 22F00803 		bic	r3, r2, #8
 272 0010 0360     		str	r3, [r0, #0]
 273 0012 0020     		movs	r0, #0
 274 0014 7047     		bx	lr
 275              	.L33:
 276 0016 0120     		movs	r0, #1
 277 0018 7047     		bx	lr
 279              		.section	.text.ADCGLOB001_DisregardSleepModeControl,"ax",%progbits
 280              		.align	1
 281              		.global	ADCGLOB001_DisregardSleepModeControl
 282              		.thumb
 283              		.thumb_func
 285              	ADCGLOB001_DisregardSleepModeControl:
 286              		@ args = 0, pretend = 0, frame = 0
 287              		@ frame_needed = 0, uses_anonymous_args = 0
 288              		@ link register save eliminated.
 289 0000 4368     		ldr	r3, [r0, #4]
 290 0002 1978     		ldrb	r1, [r3, #0]	@ zero_extendqisi2
 291 0004 0129     		cmp	r1, #1
 292 0006 06D1     		bne	.L36
 293 0008 0068     		ldr	r0, [r0, #0]
 294 000a 0268     		ldr	r2, [r0, #0]
 295 000c 42F00803 		orr	r3, r2, #8
 296 0010 0360     		str	r3, [r0, #0]
 297 0012 0020     		movs	r0, #0
 298 0014 7047     		bx	lr
 299              	.L36:
 300 0016 0120     		movs	r0, #1
 301 0018 7047     		bx	lr
 303              		.section	.text.ADCGLOB001_SetGlobClass0ConvMode,"ax",%progbits
 304              		.align	1
 305              		.global	ADCGLOB001_SetGlobClass0ConvMode
 306              		.thumb
 307              		.thumb_func
 309              	ADCGLOB001_SetGlobClass0ConvMode:
 310              		@ args = 0, pretend = 0, frame = 0
 311              		@ frame_needed = 0, uses_anonymous_args = 0
 312              		@ link register save eliminated.
 313 0000 4368     		ldr	r3, [r0, #4]
 314 0002 1A78     		ldrb	r2, [r3, #0]	@ zero_extendqisi2
 315 0004 012A     		cmp	r2, #1
 316 0006 10D1     		bne	.L40
 317 0008 0229     		cmp	r1, #2
 318 000a 01D9     		bls	.L39
 319 000c 0529     		cmp	r1, #5
 320 000e 0ED1     		bne	.L41
 321              	.L39:
 322 0010 0068     		ldr	r0, [r0, #0]
 323 0012 D0F8A030 		ldr	r3, [r0, #160]
 324 0016 0902     		lsls	r1, r1, #8
 325 0018 23F4E062 		bic	r2, r3, #1792
 326 001c 01F4E061 		and	r1, r1, #1792
 327 0020 1143     		orrs	r1, r1, r2
 328 0022 C0F8A010 		str	r1, [r0, #160]
 329 0026 0020     		movs	r0, #0
 330 0028 7047     		bx	lr
 331              	.L40:
 332 002a 0120     		movs	r0, #1
 333 002c 7047     		bx	lr
 334              	.L41:
 335 002e 0220     		movs	r0, #2
 336 0030 7047     		bx	lr
 338              		.section	.text.ADCGLOB001_SetGlobClass0SampleTime,"ax",%progbits
 339              		.align	1
 340              		.global	ADCGLOB001_SetGlobClass0SampleTime
 341              		.thumb
 342              		.thumb_func
 344              	ADCGLOB001_SetGlobClass0SampleTime:
 345              		@ args = 0, pretend = 0, frame = 0
 346              		@ frame_needed = 0, uses_anonymous_args = 0
 347              		@ link register save eliminated.
 348 0000 4368     		ldr	r3, [r0, #4]
 349 0002 1A78     		ldrb	r2, [r3, #0]	@ zero_extendqisi2
 350 0004 012A     		cmp	r2, #1
 351 0006 0BD1     		bne	.L44
 352 0008 1F29     		cmp	r1, #31
 353 000a 0BD8     		bhi	.L45
 354 000c 0068     		ldr	r0, [r0, #0]
 355 000e D0F8A030 		ldr	r3, [r0, #160]
 356 0012 23F01F02 		bic	r2, r3, #31
 357 0016 1143     		orrs	r1, r1, r2
 358 0018 C0F8A010 		str	r1, [r0, #160]
 359 001c 0020     		movs	r0, #0
 360 001e 7047     		bx	lr
 361              	.L44:
 362 0020 0120     		movs	r0, #1
 363 0022 7047     		bx	lr
 364              	.L45:
 365 0024 0220     		movs	r0, #2
 366 0026 7047     		bx	lr
 368              		.section	.text.ADCGLOB001_SetGlobClass0EmuxConvMode,"ax",%progbits
 369              		.align	1
 370              		.global	ADCGLOB001_SetGlobClass0EmuxConvMode
 371              		.thumb
 372              		.thumb_func
 374              	ADCGLOB001_SetGlobClass0EmuxConvMode:
 375              		@ args = 0, pretend = 0, frame = 0
 376              		@ frame_needed = 0, uses_anonymous_args = 0
 377              		@ link register save eliminated.
 378 0000 4368     		ldr	r3, [r0, #4]
 379 0002 1A78     		ldrb	r2, [r3, #0]	@ zero_extendqisi2
 380 0004 012A     		cmp	r2, #1
 381 0006 10D1     		bne	.L49
 382 0008 0229     		cmp	r1, #2
 383 000a 01D9     		bls	.L48
 384 000c 0529     		cmp	r1, #5
 385 000e 0ED1     		bne	.L50
 386              	.L48:
 387 0010 0068     		ldr	r0, [r0, #0]
 388 0012 D0F8A030 		ldr	r3, [r0, #160]
 389 0016 0906     		lsls	r1, r1, #24
 390 0018 23F0E062 		bic	r2, r3, #117440512
 391 001c 01F0E061 		and	r1, r1, #117440512
 392 0020 1143     		orrs	r1, r1, r2
 393 0022 C0F8A010 		str	r1, [r0, #160]
 394 0026 0020     		movs	r0, #0
 395 0028 7047     		bx	lr
 396              	.L49:
 397 002a 0120     		movs	r0, #1
 398 002c 7047     		bx	lr
 399              	.L50:
 400 002e 0220     		movs	r0, #2
 401 0030 7047     		bx	lr
 403              		.section	.text.ADCGLOB001_SetGlobClass0EmuxSampleTime,"ax",%progbits
 404              		.align	1
 405              		.global	ADCGLOB001_SetGlobClass0EmuxSampleTime
 406              		.thumb
 407              		.thumb_func
 409              	ADCGLOB001_SetGlobClass0EmuxSampleTime:
 410              		@ args = 0, pretend = 0, frame = 0
 411              		@ frame_needed = 0, uses_anonymous_args = 0
 412              		@ link register save eliminated.
 413 0000 4368     		ldr	r3, [r0, #4]
 414 0002 1A78     		ldrb	r2, [r3, #0]	@ zero_extendqisi2
 415 0004 012A     		cmp	r2, #1
 416 0006 0ED1     		bne	.L53
 417 0008 1F29     		cmp	r1, #31
 418 000a 0ED8     		bhi	.L54
 419 000c 0068     		ldr	r0, [r0, #0]
 420 000e D0F8A030 		ldr	r3, [r0, #160]
 421 0012 0904     		lsls	r1, r1, #16
 422 0014 23F4F812 		bic	r2, r3, #2031616
 423 0018 01F4F811 		and	r1, r1, #2031616
 424 001c 1143     		orrs	r1, r1, r2
 425 001e C0F8A010 		str	r1, [r0, #160]
 426 0022 0020     		movs	r0, #0
 427 0024 7047     		bx	lr
 428              	.L53:
 429 0026 0120     		movs	r0, #1
 430 0028 7047     		bx	lr
 431              	.L54:
 432 002a 0220     		movs	r0, #2
 433 002c 7047     		bx	lr
 435              		.section	.text.ADCGLOB001_SetGlobClass1ConvMode,"ax",%progbits
 436              		.align	1
 437              		.global	ADCGLOB001_SetGlobClass1ConvMode
 438              		.thumb
 439              		.thumb_func
 441              	ADCGLOB001_SetGlobClass1ConvMode:
 442              		@ args = 0, pretend = 0, frame = 0
 443              		@ frame_needed = 0, uses_anonymous_args = 0
 444              		@ link register save eliminated.
 445 0000 4368     		ldr	r3, [r0, #4]
 446 0002 1A78     		ldrb	r2, [r3, #0]	@ zero_extendqisi2
 447 0004 012A     		cmp	r2, #1
 448 0006 10D1     		bne	.L58
 449 0008 0229     		cmp	r1, #2
 450 000a 01D9     		bls	.L57
 451 000c 0529     		cmp	r1, #5
 452 000e 0ED1     		bne	.L59
 453              	.L57:
 454 0010 0068     		ldr	r0, [r0, #0]
 455 0012 D0F8A430 		ldr	r3, [r0, #164]
 456 0016 0902     		lsls	r1, r1, #8
 457 0018 23F4E062 		bic	r2, r3, #1792
 458 001c 01F4E061 		and	r1, r1, #1792
 459 0020 1143     		orrs	r1, r1, r2
 460 0022 C0F8A410 		str	r1, [r0, #164]
 461 0026 0020     		movs	r0, #0
 462 0028 7047     		bx	lr
 463              	.L58:
 464 002a 0120     		movs	r0, #1
 465 002c 7047     		bx	lr
 466              	.L59:
 467 002e 0220     		movs	r0, #2
 468 0030 7047     		bx	lr
 470              		.section	.text.ADCGLOB001_SetGlobClass1SampleTime,"ax",%progbits
 471              		.align	1
 472              		.global	ADCGLOB001_SetGlobClass1SampleTime
 473              		.thumb
 474              		.thumb_func
 476              	ADCGLOB001_SetGlobClass1SampleTime:
 477              		@ args = 0, pretend = 0, frame = 0
 478              		@ frame_needed = 0, uses_anonymous_args = 0
 479              		@ link register save eliminated.
 480 0000 4368     		ldr	r3, [r0, #4]
 481 0002 1A78     		ldrb	r2, [r3, #0]	@ zero_extendqisi2
 482 0004 012A     		cmp	r2, #1
 483 0006 0BD1     		bne	.L62
 484 0008 1F29     		cmp	r1, #31
 485 000a 0BD8     		bhi	.L63
 486 000c 0068     		ldr	r0, [r0, #0]
 487 000e D0F8A430 		ldr	r3, [r0, #164]
 488 0012 23F01F02 		bic	r2, r3, #31
 489 0016 1143     		orrs	r1, r1, r2
 490 0018 C0F8A410 		str	r1, [r0, #164]
 491 001c 0020     		movs	r0, #0
 492 001e 7047     		bx	lr
 493              	.L62:
 494 0020 0120     		movs	r0, #1
 495 0022 7047     		bx	lr
 496              	.L63:
 497 0024 0220     		movs	r0, #2
 498 0026 7047     		bx	lr
 500              		.section	.text.ADCGLOB001_SetGlobClass1EmuxConvMode,"ax",%progbits
 501              		.align	1
 502              		.global	ADCGLOB001_SetGlobClass1EmuxConvMode
 503              		.thumb
 504              		.thumb_func
 506              	ADCGLOB001_SetGlobClass1EmuxConvMode:
 507              		@ args = 0, pretend = 0, frame = 0
 508              		@ frame_needed = 0, uses_anonymous_args = 0
 509              		@ link register save eliminated.
 510 0000 4368     		ldr	r3, [r0, #4]
 511 0002 1A78     		ldrb	r2, [r3, #0]	@ zero_extendqisi2
 512 0004 012A     		cmp	r2, #1
 513 0006 10D1     		bne	.L67
 514 0008 0229     		cmp	r1, #2
 515 000a 01D9     		bls	.L66
 516 000c 0529     		cmp	r1, #5
 517 000e 0ED1     		bne	.L68
 518              	.L66:
 519 0010 0068     		ldr	r0, [r0, #0]
 520 0012 D0F8A430 		ldr	r3, [r0, #164]
 521 0016 0906     		lsls	r1, r1, #24
 522 0018 23F0E062 		bic	r2, r3, #117440512
 523 001c 01F0E061 		and	r1, r1, #117440512
 524 0020 1143     		orrs	r1, r1, r2
 525 0022 C0F8A410 		str	r1, [r0, #164]
 526 0026 0020     		movs	r0, #0
 527 0028 7047     		bx	lr
 528              	.L67:
 529 002a 0120     		movs	r0, #1
 530 002c 7047     		bx	lr
 531              	.L68:
 532 002e 0220     		movs	r0, #2
 533 0030 7047     		bx	lr
 535              		.section	.text.ADCGLOB001_SetGlobClass1EmuxSampleTime,"ax",%progbits
 536              		.align	1
 537              		.global	ADCGLOB001_SetGlobClass1EmuxSampleTime
 538              		.thumb
 539              		.thumb_func
 541              	ADCGLOB001_SetGlobClass1EmuxSampleTime:
 542              		@ args = 0, pretend = 0, frame = 0
 543              		@ frame_needed = 0, uses_anonymous_args = 0
 544              		@ link register save eliminated.
 545 0000 4368     		ldr	r3, [r0, #4]
 546 0002 1A78     		ldrb	r2, [r3, #0]	@ zero_extendqisi2
 547 0004 012A     		cmp	r2, #1
 548 0006 0ED1     		bne	.L71
 549 0008 1F29     		cmp	r1, #31
 550 000a 0ED8     		bhi	.L72
 551 000c 0068     		ldr	r0, [r0, #0]
 552 000e D0F8A430 		ldr	r3, [r0, #164]
 553 0012 0904     		lsls	r1, r1, #16
 554 0014 23F4F812 		bic	r2, r3, #2031616
 555 0018 01F4F811 		and	r1, r1, #2031616
 556 001c 1143     		orrs	r1, r1, r2
 557 001e C0F8A410 		str	r1, [r0, #164]
 558 0022 0020     		movs	r0, #0
 559 0024 7047     		bx	lr
 560              	.L71:
 561 0026 0120     		movs	r0, #1
 562 0028 7047     		bx	lr
 563              	.L72:
 564 002a 0220     		movs	r0, #2
 565 002c 7047     		bx	lr
 567              		.section	.text.ADCGLOB001_GetDisableBitStatus,"ax",%progbits
 568              		.align	1
 569              		.global	ADCGLOB001_GetDisableBitStatus
 570              		.thumb
 571              		.thumb_func
 573              	ADCGLOB001_GetDisableBitStatus:
 574              		@ args = 0, pretend = 0, frame = 0
 575              		@ frame_needed = 0, uses_anonymous_args = 0
 576              		@ link register save eliminated.
 577 0000 4368     		ldr	r3, [r0, #4]
 578 0002 1A78     		ldrb	r2, [r3, #0]	@ zero_extendqisi2
 579 0004 012A     		cmp	r2, #1
 580 0006 06D1     		bne	.L75
 581 0008 0068     		ldr	r0, [r0, #0]
 582 000a 0368     		ldr	r3, [r0, #0]
 583 000c C3F34002 		ubfx	r2, r3, #1, #1
 584 0010 0A70     		strb	r2, [r1, #0]
 585 0012 0020     		movs	r0, #0
 586 0014 7047     		bx	lr
 587              	.L75:
 588 0016 0120     		movs	r0, #1
 589 0018 7047     		bx	lr
 591              		.section	.text.ADCGLOB001_GetIdValue,"ax",%progbits
 592              		.align	1
 593              		.global	ADCGLOB001_GetIdValue
 594              		.thumb
 595              		.thumb_func
 597              	ADCGLOB001_GetIdValue:
 598              		@ args = 0, pretend = 0, frame = 0
 599              		@ frame_needed = 0, uses_anonymous_args = 0
 600              		@ link register save eliminated.
 601 0000 4368     		ldr	r3, [r0, #4]
 602 0002 1A78     		ldrb	r2, [r3, #0]	@ zero_extendqisi2
 603 0004 012A     		cmp	r2, #1
 604 0006 04D1     		bne	.L78
 605 0008 0068     		ldr	r0, [r0, #0]
 606 000a 8368     		ldr	r3, [r0, #8]
 607 000c 0020     		movs	r0, #0
 608 000e 0B60     		str	r3, [r1, #0]
 609 0010 7047     		bx	lr
 610              	.L78:
 611 0012 0120     		movs	r0, #1
 612 0014 7047     		bx	lr
 614              		.section	.text.ADCGLOB001_GTFRConvtrDiagnoGrp,"ax",%progbits
 615              		.align	1
 616              		.global	ADCGLOB001_GTFRConvtrDiagnoGrp
 617              		.thumb
 618              		.thumb_func
 620              	ADCGLOB001_GTFRConvtrDiagnoGrp:
 621              		@ args = 0, pretend = 0, frame = 0
 622              		@ frame_needed = 0, uses_anonymous_args = 0
 623              		@ link register save eliminated.
 624 0000 4368     		ldr	r3, [r0, #4]
 625 0002 1A78     		ldrb	r2, [r3, #0]	@ zero_extendqisi2
 626 0004 012A     		cmp	r2, #1
 627 0006 1DD1     		bne	.L81
 628 0008 0F29     		cmp	r1, #15
 629 000a 1DD8     		bhi	.L82
 630 000c 0068     		ldr	r0, [r0, #0]
 631 000e D0F86031 		ldr	r3, [r0, #352]
 632 0012 23F40042 		bic	r2, r3, #32768
 633 0016 22F0F003 		bic	r3, r2, #240
 634 001a 43F40042 		orr	r2, r3, #32768
 635 001e C0F86021 		str	r2, [r0, #352]
 636 0022 D0F86031 		ldr	r3, [r0, #352]
 637 0026 0901     		lsls	r1, r1, #4
 638 0028 43F40042 		orr	r2, r3, #32768
 639 002c CBB2     		uxtb	r3, r1
 640 002e 1A43     		orrs	r2, r2, r3
 641 0030 C0F86021 		str	r2, [r0, #352]
 642 0034 D0F86011 		ldr	r1, [r0, #352]
 643 0038 21F40043 		bic	r3, r1, #32768
 644 003c C0F86031 		str	r3, [r0, #352]
 645 0040 0020     		movs	r0, #0
 646 0042 7047     		bx	lr
 647              	.L81:
 648 0044 0120     		movs	r0, #1
 649 0046 7047     		bx	lr
 650              	.L82:
 651 0048 0220     		movs	r0, #2
 652 004a 7047     		bx	lr
 654              		.section	.text.ADCGLOB001_GTFRConvtrDiagnoEnable,"ax",%progbits
 655              		.align	1
 656              		.global	ADCGLOB001_GTFRConvtrDiagnoEnable
 657              		.thumb
 658              		.thumb_func
 660              	ADCGLOB001_GTFRConvtrDiagnoEnable:
 661              		@ args = 0, pretend = 0, frame = 0
 662              		@ frame_needed = 0, uses_anonymous_args = 0
 663              		@ link register save eliminated.
 664 0000 4368     		ldr	r3, [r0, #4]
 665 0002 1978     		ldrb	r1, [r3, #0]	@ zero_extendqisi2
 666 0004 0129     		cmp	r1, #1
 667 0006 0ED1     		bne	.L85
 668 0008 0068     		ldr	r0, [r0, #0]
 669 000a D0F86021 		ldr	r2, [r0, #352]
 670 000e 42F40143 		orr	r3, r2, #33024
 671 0012 C0F86031 		str	r3, [r0, #352]
 672 0016 D0F86011 		ldr	r1, [r0, #352]
 673 001a 21F40042 		bic	r2, r1, #32768
 674 001e C0F86021 		str	r2, [r0, #352]
 675 0022 0020     		movs	r0, #0
 676 0024 7047     		bx	lr
 677              	.L85:
 678 0026 0120     		movs	r0, #1
 679 0028 7047     		bx	lr
 681              		.section	.text.ADCGLOB001_GTFRConvtrDiagnoPullDevicesSelect,"ax",%progbits
 682              		.align	1
 683              		.global	ADCGLOB001_GTFRConvtrDiagnoPullDevicesSelect
 684              		.thumb
 685              		.thumb_func
 687              	ADCGLOB001_GTFRConvtrDiagnoPullDevicesSelect:
 688              		@ args = 0, pretend = 0, frame = 0
 689              		@ frame_needed = 0, uses_anonymous_args = 0
 690              		@ link register save eliminated.
 691 0000 4368     		ldr	r3, [r0, #4]
 692 0002 1A78     		ldrb	r2, [r3, #0]	@ zero_extendqisi2
 693 0004 012A     		cmp	r2, #1
 694 0006 1CD1     		bne	.L88
 695 0008 0329     		cmp	r1, #3
 696 000a 1CD8     		bhi	.L89
 697 000c 0068     		ldr	r0, [r0, #0]
 698 000e D0F86031 		ldr	r3, [r0, #352]
 699 0012 23F40642 		bic	r2, r3, #34304
 700 0016 42F40043 		orr	r3, r2, #32768
 701 001a C0F86031 		str	r3, [r0, #352]
 702 001e D0F86021 		ldr	r2, [r0, #352]
 703 0022 4902     		lsls	r1, r1, #9
 704 0024 42F40043 		orr	r3, r2, #32768
 705 0028 01F4C062 		and	r2, r1, #1536
 706 002c 1343     		orrs	r3, r3, r2
 707 002e C0F86031 		str	r3, [r0, #352]
 708 0032 D0F86011 		ldr	r1, [r0, #352]
 709 0036 21F40042 		bic	r2, r1, #32768
 710 003a C0F86021 		str	r2, [r0, #352]
 711 003e 0020     		movs	r0, #0
 712 0040 7047     		bx	lr
 713              	.L88:
 714 0042 0120     		movs	r0, #1
 715 0044 7047     		bx	lr
 716              	.L89:
 717 0046 0220     		movs	r0, #2
 718 0048 7047     		bx	lr
 720              		.section	.text.ADCGLOB001_GTFRPullDwnDiagnoEnable,"ax",%progbits
 721              		.align	1
 722              		.global	ADCGLOB001_GTFRPullDwnDiagnoEnable
 723              		.thumb
 724              		.thumb_func
 726              	ADCGLOB001_GTFRPullDwnDiagnoEnable:
 727              		@ args = 0, pretend = 0, frame = 0
 728              		@ frame_needed = 0, uses_anonymous_args = 0
 729              		@ link register save eliminated.
 730 0000 4368     		ldr	r3, [r0, #4]
 731 0002 1978     		ldrb	r1, [r3, #0]	@ zero_extendqisi2
 732 0004 0129     		cmp	r1, #1
 733 0006 0ED1     		bne	.L92
 734 0008 0068     		ldr	r0, [r0, #0]
 735 000a D0F86021 		ldr	r2, [r0, #352]
 736 000e 42F40103 		orr	r3, r2, #8454144
 737 0012 C0F86031 		str	r3, [r0, #352]
 738 0016 D0F86011 		ldr	r1, [r0, #352]
 739 001a 21F40002 		bic	r2, r1, #8388608
 740 001e C0F86021 		str	r2, [r0, #352]
 741 0022 0020     		movs	r0, #0
 742 0024 7047     		bx	lr
 743              	.L92:
 744 0026 0120     		movs	r0, #1
 745 0028 7047     		bx	lr
 747              		.ident	"GCC: (GNU Tools for ARM Embedded Processors) 4.7.4 20130913 (release) [ARM/embedded-4_7-br