   1              		.syntax unified
   2              		.cpu cortex-m4
   3              		.eabi_attribute 27, 3
   4              		.fpu fpv4-sp-d16
   5              		.eabi_attribute 20, 1
   6              		.eabi_attribute 21, 1
   7              		.eabi_attribute 23, 3
   8              		.eabi_attribute 24, 1
   9              		.eabi_attribute 25, 1
  10              		.eabi_attribute 26, 1
  11              		.eabi_attribute 30, 6
  12              		.eabi_attribute 34, 1
  13              		.eabi_attribute 18, 4
  14              		.thumb
  15              		.file	"ff.c"
  16              		.text
  17              	.Ltext0:
  18              		.cfi_sections	.debug_frame
  19              		.bss
  20              		.align	2
  21              	FatFs:
  22 0000 00000000 		.space	8
  22      00000000 
  23              		.align	1
  24              	Fsid:
  25 0008 0000     		.space	2
  26              	CurrVol:
  27 000a 00       		.space	1
  28 000b 00       		.section	.text.mem_cpy,"ax",%progbits
  29              		.align	2
  30              		.thumb
  31              		.thumb_func
  33              	mem_cpy:
  34              	.LFB0:
  35              		.file 1 "../Dave/Generated/src/FATFS002/Src/ff.c"
   1:../Dave/Generated/src/FATFS002/Src/ff.c **** /*----------------------------------------------------------------------------/
   2:../Dave/Generated/src/FATFS002/Src/ff.c **** /  FatFs - FAT file system module  R0.09                  (C)ChaN, 2011
   3:../Dave/Generated/src/FATFS002/Src/ff.c **** /-----------------------------------------------------------------------------/
   4:../Dave/Generated/src/FATFS002/Src/ff.c **** / FatFs module is a generic FAT file system module for small embedded systems.
   5:../Dave/Generated/src/FATFS002/Src/ff.c **** / This is a free software that opened for education, research and commercial
   6:../Dave/Generated/src/FATFS002/Src/ff.c **** / developments under license policy of following terms.
   7:../Dave/Generated/src/FATFS002/Src/ff.c **** /
   8:../Dave/Generated/src/FATFS002/Src/ff.c **** /  Copyright (C) 2011, ChaN, all right reserved.
   9:../Dave/Generated/src/FATFS002/Src/ff.c **** /
  10:../Dave/Generated/src/FATFS002/Src/ff.c **** / * The FatFs module is a free software and there is NO WARRANTY.
  11:../Dave/Generated/src/FATFS002/Src/ff.c **** / * No restriction on use. You can use, modify and redistribute it for
  12:../Dave/Generated/src/FATFS002/Src/ff.c **** /   personal, non-profit or commercial products UNDER YOUR RESPONSIBILITY.
  13:../Dave/Generated/src/FATFS002/Src/ff.c **** / * Redistributions of source code must retain the above copyright notice.
  14:../Dave/Generated/src/FATFS002/Src/ff.c **** /
  15:../Dave/Generated/src/FATFS002/Src/ff.c **** /-----------------------------------------------------------------------------/
  16:../Dave/Generated/src/FATFS002/Src/ff.c **** / Feb 26,'06 R0.00  Prototype.
  17:../Dave/Generated/src/FATFS002/Src/ff.c **** /
  18:../Dave/Generated/src/FATFS002/Src/ff.c **** / Apr 29,'06 R0.01  First stable version.
  19:../Dave/Generated/src/FATFS002/Src/ff.c **** /
  20:../Dave/Generated/src/FATFS002/Src/ff.c **** / Jun 01,'06 R0.02  Added FAT12 support.
  21:../Dave/Generated/src/FATFS002/Src/ff.c **** /                   Removed unbuffered mode.
  22:../Dave/Generated/src/FATFS002/Src/ff.c **** /                   Fixed a problem on small (<32M) partition.
  23:../Dave/Generated/src/FATFS002/Src/ff.c **** / Jun 10,'06 R0.02a Added a configuration option (_FS_MINIMUM).
  24:../Dave/Generated/src/FATFS002/Src/ff.c **** /
  25:../Dave/Generated/src/FATFS002/Src/ff.c **** / Sep 22,'06 R0.03  Added f_rename().
  26:../Dave/Generated/src/FATFS002/Src/ff.c **** /                   Changed option _FS_MINIMUM to _FS_MINIMIZE.
  27:../Dave/Generated/src/FATFS002/Src/ff.c **** / Dec 11,'06 R0.03a Improved cluster scan algorithm to write files fast.
  28:../Dave/Generated/src/FATFS002/Src/ff.c **** /                   Fixed f_mkdir() creates incorrect directory on FAT32.
  29:../Dave/Generated/src/FATFS002/Src/ff.c **** /
  30:../Dave/Generated/src/FATFS002/Src/ff.c **** / Feb 04,'07 R0.04  Supported multiple drive system.
  31:../Dave/Generated/src/FATFS002/Src/ff.c **** /                   Changed some interfaces for multiple drive system.
  32:../Dave/Generated/src/FATFS002/Src/ff.c **** /                   Changed f_mountdrv() to f_mount().
  33:../Dave/Generated/src/FATFS002/Src/ff.c **** /                   Added f_mkfs().
  34:../Dave/Generated/src/FATFS002/Src/ff.c **** / Apr 01,'07 R0.04a Supported multiple partitions on a physical drive.
  35:../Dave/Generated/src/FATFS002/Src/ff.c **** /                   Added a capability of extending file size to f_lseek().
  36:../Dave/Generated/src/FATFS002/Src/ff.c **** /                   Added minimization level 3.
  37:../Dave/Generated/src/FATFS002/Src/ff.c **** /                   Fixed an endian sensitive code in f_mkfs().
  38:../Dave/Generated/src/FATFS002/Src/ff.c **** / May 05,'07 R0.04b Added a configuration option _USE_NTFLAG.
  39:../Dave/Generated/src/FATFS002/Src/ff.c **** /                   Added FSInfo support.
  40:../Dave/Generated/src/FATFS002/Src/ff.c **** /                   Fixed DBCS name can result FR_INVALID_NAME.
  41:../Dave/Generated/src/FATFS002/Src/ff.c **** /                   Fixed short seek (<= csize) collapses the file object.
  42:../Dave/Generated/src/FATFS002/Src/ff.c **** /
  43:../Dave/Generated/src/FATFS002/Src/ff.c **** / Aug 25,'07 R0.05  Changed arguments of f_read(), f_write() and f_mkfs().
  44:../Dave/Generated/src/FATFS002/Src/ff.c **** /                   Fixed f_mkfs() on FAT32 creates incorrect FSInfo.
  45:../Dave/Generated/src/FATFS002/Src/ff.c **** /                   Fixed f_mkdir() on FAT32 creates incorrect directory.
  46:../Dave/Generated/src/FATFS002/Src/ff.c **** / Feb 03,'08 R0.05a Added f_truncate() and f_utime().
  47:../Dave/Generated/src/FATFS002/Src/ff.c **** /                   Fixed off by one error at FAT sub-type determination.
  48:../Dave/Generated/src/FATFS002/Src/ff.c **** /                   Fixed btr in f_read() can be mistruncated.
  49:../Dave/Generated/src/FATFS002/Src/ff.c **** /                   Fixed cached sector is not flushed when create and close without write.
  50:../Dave/Generated/src/FATFS002/Src/ff.c **** /
  51:../Dave/Generated/src/FATFS002/Src/ff.c **** / Apr 01,'08 R0.06  Added fputc(), fputs(), fprintf() and fgets().
  52:../Dave/Generated/src/FATFS002/Src/ff.c **** /                   Improved performance of f_lseek() on moving to the same or following cluster.
  53:../Dave/Generated/src/FATFS002/Src/ff.c **** /
  54:../Dave/Generated/src/FATFS002/Src/ff.c **** / Apr 01,'09 R0.07  Merged Tiny-FatFs as a configuration option. (_FS_TINY)
  55:../Dave/Generated/src/FATFS002/Src/ff.c **** /                   Added long file name feature.
  56:../Dave/Generated/src/FATFS002/Src/ff.c **** /                   Added multiple code page feature.
  57:../Dave/Generated/src/FATFS002/Src/ff.c **** /                   Added re-entrancy for multitask operation.
  58:../Dave/Generated/src/FATFS002/Src/ff.c **** /                   Added auto cluster size selection to f_mkfs().
  59:../Dave/Generated/src/FATFS002/Src/ff.c **** /                   Added rewind option to f_readdir().
  60:../Dave/Generated/src/FATFS002/Src/ff.c **** /                   Changed result code of critical errors.
  61:../Dave/Generated/src/FATFS002/Src/ff.c **** /                   Renamed string functions to avoid name collision.
  62:../Dave/Generated/src/FATFS002/Src/ff.c **** / Apr 14,'09 R0.07a Separated out OS dependent code on reentrant cfg.
  63:../Dave/Generated/src/FATFS002/Src/ff.c **** /                   Added multiple sector size feature.
  64:../Dave/Generated/src/FATFS002/Src/ff.c **** / Jun 21,'09 R0.07c Fixed f_unlink() can return FR_OK on error.
  65:../Dave/Generated/src/FATFS002/Src/ff.c **** /                   Fixed wrong cache control in f_lseek().
  66:../Dave/Generated/src/FATFS002/Src/ff.c **** /                   Added relative path feature.
  67:../Dave/Generated/src/FATFS002/Src/ff.c **** /                   Added f_chdir() and f_chdrive().
  68:../Dave/Generated/src/FATFS002/Src/ff.c **** /                   Added proper case conversion to extended char.
  69:../Dave/Generated/src/FATFS002/Src/ff.c **** / Nov 03,'09 R0.07e Separated out configuration options from ff.h to ffconf.h.
  70:../Dave/Generated/src/FATFS002/Src/ff.c **** /                   Fixed f_unlink() fails to remove a sub-dir on _FS_RPATH.
  71:../Dave/Generated/src/FATFS002/Src/ff.c **** /                   Fixed name matching error on the 13 char boundary.
  72:../Dave/Generated/src/FATFS002/Src/ff.c **** /                   Added a configuration option, _LFN_UNICODE.
  73:../Dave/Generated/src/FATFS002/Src/ff.c **** /                   Changed f_readdir() to return the SFN with always upper case on non-LFN cfg.
  74:../Dave/Generated/src/FATFS002/Src/ff.c **** /
  75:../Dave/Generated/src/FATFS002/Src/ff.c **** / May 15,'10 R0.08  Added a memory configuration option. (_USE_LFN = 3)
  76:../Dave/Generated/src/FATFS002/Src/ff.c **** /                   Added file lock feature. (_FS_SHARE)
  77:../Dave/Generated/src/FATFS002/Src/ff.c **** /                   Added fast seek feature. (_USE_FASTSEEK)
  78:../Dave/Generated/src/FATFS002/Src/ff.c **** /                   Changed some types on the API, XCHAR->TCHAR.
  79:../Dave/Generated/src/FATFS002/Src/ff.c **** /                   Changed fname member in the FILINFO structure on Unicode cfg.
  80:../Dave/Generated/src/FATFS002/Src/ff.c **** /                   String functions support UTF-8 encoding files on Unicode cfg.
  81:../Dave/Generated/src/FATFS002/Src/ff.c **** / Aug 16,'10 R0.08a Added f_getcwd(). (_FS_RPATH = 2)
  82:../Dave/Generated/src/FATFS002/Src/ff.c **** /                   Added sector erase feature. (_USE_ERASE)
  83:../Dave/Generated/src/FATFS002/Src/ff.c **** /                   Moved file lock semaphore table from fs object to the bss.
  84:../Dave/Generated/src/FATFS002/Src/ff.c **** /                   Fixed a wrong directory entry is created on non-LFN cfg when the given name con
  85:../Dave/Generated/src/FATFS002/Src/ff.c **** /                   Fixed f_mkfs() creates wrong FAT32 volume.
  86:../Dave/Generated/src/FATFS002/Src/ff.c **** / Jan 15,'11 R0.08b Fast seek feature is also applied to f_read() and f_write().
  87:../Dave/Generated/src/FATFS002/Src/ff.c **** /                   f_lseek() reports required table size on creating CLMP.
  88:../Dave/Generated/src/FATFS002/Src/ff.c **** /                   Extended format syntax of f_printf function.
  89:../Dave/Generated/src/FATFS002/Src/ff.c **** /                   Ignores duplicated directory separators in given path names.
  90:../Dave/Generated/src/FATFS002/Src/ff.c **** /
  91:../Dave/Generated/src/FATFS002/Src/ff.c **** / Sep 06,'11 R0.09  f_mkfs() supports multiple partition to finish the multiple partition feature.
  92:../Dave/Generated/src/FATFS002/Src/ff.c **** /                   Added f_fdisk(). (_MULTI_PARTITION = 2)
  93:../Dave/Generated/src/FATFS002/Src/ff.c **** /---------------------------------------------------------------------------*/
  94:../Dave/Generated/src/FATFS002/Src/ff.c **** /*******************************************************************************
  95:../Dave/Generated/src/FATFS002/Src/ff.c ****  Copyright (c) 2011, Infineon Technologies AG                                 **
  96:../Dave/Generated/src/FATFS002/Src/ff.c ****  All rights reserved.                                                         **
  97:../Dave/Generated/src/FATFS002/Src/ff.c ****                                                                               **
  98:../Dave/Generated/src/FATFS002/Src/ff.c ****  Redistribution and use in source and binary forms, with or without           **
  99:../Dave/Generated/src/FATFS002/Src/ff.c ****  modification,are permitted provided that the following conditions are met:   **
 100:../Dave/Generated/src/FATFS002/Src/ff.c ****                                                                               **
 101:../Dave/Generated/src/FATFS002/Src/ff.c ****  *Redistributions of source code must retain the above copyright notice,      **
 102:../Dave/Generated/src/FATFS002/Src/ff.c ****  this list of conditions and the following disclaimer.                        **
 103:../Dave/Generated/src/FATFS002/Src/ff.c ****  *Redistributions in binary form must reproduce the above copyright notice,   **
 104:../Dave/Generated/src/FATFS002/Src/ff.c ****  this list of conditions and the following disclaimer in the documentation    **
 105:../Dave/Generated/src/FATFS002/Src/ff.c ****  and/or other materials provided with the distribution.                       **
 106:../Dave/Generated/src/FATFS002/Src/ff.c ****  *Neither the name of the copyright holders nor the names of its contributors **
 107:../Dave/Generated/src/FATFS002/Src/ff.c ****  may be used to endorse or promote products derived from this software without**
 108:../Dave/Generated/src/FATFS002/Src/ff.c ****  specific prior written permission.                                           **
 109:../Dave/Generated/src/FATFS002/Src/ff.c ****                                                                               **
 110:../Dave/Generated/src/FATFS002/Src/ff.c ****  THIS SOFTWARE IS PROVIDED BY THE COPYRIGHT HOLDERS AND CONTRIBUTORS "AS IS"  **
 111:../Dave/Generated/src/FATFS002/Src/ff.c ****  AND ANY EXPRESS OR IMPLIED WARRANTIES, INCLUDING, BUT NOT LIMITED TO, THE    **
 112:../Dave/Generated/src/FATFS002/Src/ff.c ****  IMPLIED WARRANTIES OF MERCHANTABILITY AND FITNESS FOR A PARTICULAR PURPOSE   **
 113:../Dave/Generated/src/FATFS002/Src/ff.c ****  ARE  DISCLAIMED. IN NO EVENT SHALL THE COPYRIGHT HOLDER OR CONTRIBUTORS BE   **
 114:../Dave/Generated/src/FATFS002/Src/ff.c ****  LIABLE  FOR ANY DIRECT, INDIRECT, INCIDENTAL, SPECIAL, EXEMPLARY, OR         **
 115:../Dave/Generated/src/FATFS002/Src/ff.c ****  CONSEQUENTIAL DAMAGES (INCLUDING, BUT NOT LIMITED TO, PROCUREMENT OF         **
 116:../Dave/Generated/src/FATFS002/Src/ff.c ****  SUBSTITUTE GOODS OR  SERVICES; LOSS OF USE, DATA, OR PROFITS; OR BUSINESS    **
 117:../Dave/Generated/src/FATFS002/Src/ff.c ****  INTERRUPTION) HOWEVER CAUSED AND ON ANY THEORY OF LIABILITY, WHETHER IN      **
 118:../Dave/Generated/src/FATFS002/Src/ff.c ****  CONTRACT, STRICT LIABILITY,OR TORT (INCLUDING NEGLIGENCE OR OTHERWISE)       **
 119:../Dave/Generated/src/FATFS002/Src/ff.c ****  ARISING IN ANY WAY OUT OF THE USE OF THIS SOFTWARE, EVEN IF ADVISED OF THE   **
 120:../Dave/Generated/src/FATFS002/Src/ff.c ****  POSSIBILITY OF SUCH DAMAGE.                                                  **
 121:../Dave/Generated/src/FATFS002/Src/ff.c ****                                                                               **
 122:../Dave/Generated/src/FATFS002/Src/ff.c ****  To improve the quality of the software, users are encouraged to share        **
 123:../Dave/Generated/src/FATFS002/Src/ff.c ****  modifications, enhancements or bug fixes with Infineon Technologies AG       **
 124:../Dave/Generated/src/FATFS002/Src/ff.c ****  dave@infineon.com).                                                          **
 125:../Dave/Generated/src/FATFS002/Src/ff.c ****                                                                               **
 126:../Dave/Generated/src/FATFS002/Src/ff.c **** ********************************************************************************
 127:../Dave/Generated/src/FATFS002/Src/ff.c **** **                                                                            **
 128:../Dave/Generated/src/FATFS002/Src/ff.c **** **                                                                            **
 129:../Dave/Generated/src/FATFS002/Src/ff.c **** ** PLATFORM : Infineon XMC4000 Series                                         **
 130:../Dave/Generated/src/FATFS002/Src/ff.c **** **                                                                            **
 131:../Dave/Generated/src/FATFS002/Src/ff.c **** ** COMPILER : Compiler Independent                                            **
 132:../Dave/Generated/src/FATFS002/Src/ff.c **** **                                                                            **
 133:../Dave/Generated/src/FATFS002/Src/ff.c **** ** AUTHOR : App Developer                                                     **
 134:../Dave/Generated/src/FATFS002/Src/ff.c **** **                                                                            **
 135:../Dave/Generated/src/FATFS002/Src/ff.c **** ** MAY BE CHANGED BY USER [yes/no]: Yes                                       **
 136:../Dave/Generated/src/FATFS002/Src/ff.c **** **                                                                            **
 137:../Dave/Generated/src/FATFS002/Src/ff.c **** ** MODIFICATION DATE : July 31, 2012                                           **
 138:../Dave/Generated/src/FATFS002/Src/ff.c **** **                                                                            **
 139:../Dave/Generated/src/FATFS002/Src/ff.c **** *******************************************************************************/
 140:../Dave/Generated/src/FATFS002/Src/ff.c **** 
 141:../Dave/Generated/src/FATFS002/Src/ff.c **** /*******************************************************************************
 142:../Dave/Generated/src/FATFS002/Src/ff.c **** **                       Author(s) Identity                                   **
 143:../Dave/Generated/src/FATFS002/Src/ff.c **** ********************************************************************************
 144:../Dave/Generated/src/FATFS002/Src/ff.c **** **                                                                            **
 145:../Dave/Generated/src/FATFS002/Src/ff.c **** ** Initials    Name                                                           **
 146:../Dave/Generated/src/FATFS002/Src/ff.c **** ** ---------------------------------------------------------------------------**
 147:../Dave/Generated/src/FATFS002/Src/ff.c **** ** SK          App Developer                                                  **
 148:../Dave/Generated/src/FATFS002/Src/ff.c **** *******************************************************************************/
 149:../Dave/Generated/src/FATFS002/Src/ff.c **** #include "ff.h"			/* FatFs configurations and declarations */
 150:../Dave/Generated/src/FATFS002/Src/ff.c **** #include "../../../inc/FATFS004/diskio.h"			/* Declarations of low level disk I/O functions */
 151:../Dave/Generated/src/FATFS002/Src/ff.c **** 
 152:../Dave/Generated/src/FATFS002/Src/ff.c **** 
 153:../Dave/Generated/src/FATFS002/Src/ff.c **** /*--------------------------------------------------------------------------
 154:../Dave/Generated/src/FATFS002/Src/ff.c **** 
 155:../Dave/Generated/src/FATFS002/Src/ff.c ****    Module Private Definitions
 156:../Dave/Generated/src/FATFS002/Src/ff.c **** 
 157:../Dave/Generated/src/FATFS002/Src/ff.c **** ---------------------------------------------------------------------------*/
 158:../Dave/Generated/src/FATFS002/Src/ff.c **** 
 159:../Dave/Generated/src/FATFS002/Src/ff.c **** #if _FATFS != 6502	/* Revision ID */
 160:../Dave/Generated/src/FATFS002/Src/ff.c **** #error Wrong include file (ff.h).
 161:../Dave/Generated/src/FATFS002/Src/ff.c **** #endif
 162:../Dave/Generated/src/FATFS002/Src/ff.c **** 
 163:../Dave/Generated/src/FATFS002/Src/ff.c **** 
 164:../Dave/Generated/src/FATFS002/Src/ff.c **** /* Definitions on sector size */
 165:../Dave/Generated/src/FATFS002/Src/ff.c **** #if _MAX_SS != 512 && _MAX_SS != 1024 && _MAX_SS != 2048 && _MAX_SS != 4096
 166:../Dave/Generated/src/FATFS002/Src/ff.c **** #error Wrong sector size.
 167:../Dave/Generated/src/FATFS002/Src/ff.c **** #endif
 168:../Dave/Generated/src/FATFS002/Src/ff.c **** #if _MAX_SS != 512
 169:../Dave/Generated/src/FATFS002/Src/ff.c **** #define	SS(fs)	((fs)->ssize)	/* Variable sector size */
 170:../Dave/Generated/src/FATFS002/Src/ff.c **** #else
 171:../Dave/Generated/src/FATFS002/Src/ff.c **** #define	SS(fs)	512U			/* Fixed sector size */
 172:../Dave/Generated/src/FATFS002/Src/ff.c **** #endif
 173:../Dave/Generated/src/FATFS002/Src/ff.c **** 
 174:../Dave/Generated/src/FATFS002/Src/ff.c **** 
 175:../Dave/Generated/src/FATFS002/Src/ff.c **** /* Reentrancy related */
 176:../Dave/Generated/src/FATFS002/Src/ff.c **** #if _FS_REENTRANT
 177:../Dave/Generated/src/FATFS002/Src/ff.c **** #if _USE_LFN == 1
 178:../Dave/Generated/src/FATFS002/Src/ff.c **** #error Static LFN work area must not be used in re-entrant configuration.
 179:../Dave/Generated/src/FATFS002/Src/ff.c **** #endif
 180:../Dave/Generated/src/FATFS002/Src/ff.c **** #define	ENTER_FF(fs)		{ if (!lock_fs(fs)) return FR_TIMEOUT; }
 181:../Dave/Generated/src/FATFS002/Src/ff.c **** #define	LEAVE_FF(fs, res)	{ unlock_fs(fs, res); return res; }
 182:../Dave/Generated/src/FATFS002/Src/ff.c **** #else
 183:../Dave/Generated/src/FATFS002/Src/ff.c **** #define	ENTER_FF(fs)
 184:../Dave/Generated/src/FATFS002/Src/ff.c **** #define LEAVE_FF(fs, res)	return res
 185:../Dave/Generated/src/FATFS002/Src/ff.c **** #endif
 186:../Dave/Generated/src/FATFS002/Src/ff.c **** 
 187:../Dave/Generated/src/FATFS002/Src/ff.c **** #define	ABORT(fs, res)		{ fp->flag |= FA__ERROR; LEAVE_FF(fs, res); }
 188:../Dave/Generated/src/FATFS002/Src/ff.c **** 
 189:../Dave/Generated/src/FATFS002/Src/ff.c **** 
 190:../Dave/Generated/src/FATFS002/Src/ff.c **** /* File shareing feature */
 191:../Dave/Generated/src/FATFS002/Src/ff.c **** #if _FS_SHARE
 192:../Dave/Generated/src/FATFS002/Src/ff.c **** #if _FS_READONLY
 193:../Dave/Generated/src/FATFS002/Src/ff.c **** #error _FS_SHARE must be 0 on read-only cfg.
 194:../Dave/Generated/src/FATFS002/Src/ff.c **** #endif
 195:../Dave/Generated/src/FATFS002/Src/ff.c **** typedef struct {
 196:../Dave/Generated/src/FATFS002/Src/ff.c **** 	FATFS *fs;				/* File ID 1, volume (NULL:blank entry) */
 197:../Dave/Generated/src/FATFS002/Src/ff.c **** 	DWORD clu;				/* File ID 2, directory */
 198:../Dave/Generated/src/FATFS002/Src/ff.c **** 	WORD idx;				/* File ID 3, directory index */
 199:../Dave/Generated/src/FATFS002/Src/ff.c **** 	WORD ctr;				/* File open counter, 0:none, 0x01..0xFF:read open count, 0x100:write mode */
 200:../Dave/Generated/src/FATFS002/Src/ff.c **** } FILESEM;
 201:../Dave/Generated/src/FATFS002/Src/ff.c **** #endif
 202:../Dave/Generated/src/FATFS002/Src/ff.c **** 
 203:../Dave/Generated/src/FATFS002/Src/ff.c **** 
 204:../Dave/Generated/src/FATFS002/Src/ff.c **** /* Misc definitions */
 205:../Dave/Generated/src/FATFS002/Src/ff.c **** #define LD_CLUST(dir)	(((DWORD)LD_WORD(dir+DIR_FstClusHI)<<16) | LD_WORD(dir+DIR_FstClusLO))
 206:../Dave/Generated/src/FATFS002/Src/ff.c **** #define ST_CLUST(dir,cl) {ST_WORD(dir+DIR_FstClusLO, cl); ST_WORD(dir+DIR_FstClusHI, (DWORD)cl>>16)
 207:../Dave/Generated/src/FATFS002/Src/ff.c **** 
 208:../Dave/Generated/src/FATFS002/Src/ff.c **** 
 209:../Dave/Generated/src/FATFS002/Src/ff.c **** /* DBCS code ranges and SBCS extend char conversion table */
 210:../Dave/Generated/src/FATFS002/Src/ff.c **** 
 211:../Dave/Generated/src/FATFS002/Src/ff.c **** #if _CODE_PAGE == 932	/* Japanese Shift-JIS */
 212:../Dave/Generated/src/FATFS002/Src/ff.c **** #define _DF1S	0x81	/* DBC 1st byte range 1 start */
 213:../Dave/Generated/src/FATFS002/Src/ff.c **** #define _DF1E	0x9F	/* DBC 1st byte range 1 end */
 214:../Dave/Generated/src/FATFS002/Src/ff.c **** #define _DF2S	0xE0	/* DBC 1st byte range 2 start */
 215:../Dave/Generated/src/FATFS002/Src/ff.c **** #define _DF2E	0xFC	/* DBC 1st byte range 2 end */
 216:../Dave/Generated/src/FATFS002/Src/ff.c **** #define _DS1S	0x40	/* DBC 2nd byte range 1 start */
 217:../Dave/Generated/src/FATFS002/Src/ff.c **** #define _DS1E	0x7E	/* DBC 2nd byte range 1 end */
 218:../Dave/Generated/src/FATFS002/Src/ff.c **** #define _DS2S	0x80	/* DBC 2nd byte range 2 start */
 219:../Dave/Generated/src/FATFS002/Src/ff.c **** #define _DS2E	0xFC	/* DBC 2nd byte range 2 end */
 220:../Dave/Generated/src/FATFS002/Src/ff.c **** 
 221:../Dave/Generated/src/FATFS002/Src/ff.c **** #elif _CODE_PAGE == 936	/* Simplified Chinese GBK */
 222:../Dave/Generated/src/FATFS002/Src/ff.c **** #define _DF1S	0x81
 223:../Dave/Generated/src/FATFS002/Src/ff.c **** #define _DF1E	0xFE
 224:../Dave/Generated/src/FATFS002/Src/ff.c **** #define _DS1S	0x40
 225:../Dave/Generated/src/FATFS002/Src/ff.c **** #define _DS1E	0x7E
 226:../Dave/Generated/src/FATFS002/Src/ff.c **** #define _DS2S	0x80
 227:../Dave/Generated/src/FATFS002/Src/ff.c **** #define _DS2E	0xFE
 228:../Dave/Generated/src/FATFS002/Src/ff.c **** 
 229:../Dave/Generated/src/FATFS002/Src/ff.c **** #elif _CODE_PAGE == 949	/* Korean */
 230:../Dave/Generated/src/FATFS002/Src/ff.c **** #define _DF1S	0x81
 231:../Dave/Generated/src/FATFS002/Src/ff.c **** #define _DF1E	0xFE
 232:../Dave/Generated/src/FATFS002/Src/ff.c **** #define _DS1S	0x41
 233:../Dave/Generated/src/FATFS002/Src/ff.c **** #define _DS1E	0x5A
 234:../Dave/Generated/src/FATFS002/Src/ff.c **** #define _DS2S	0x61
 235:../Dave/Generated/src/FATFS002/Src/ff.c **** #define _DS2E	0x7A
 236:../Dave/Generated/src/FATFS002/Src/ff.c **** #define _DS3S	0x81
 237:../Dave/Generated/src/FATFS002/Src/ff.c **** #define _DS3E	0xFE
 238:../Dave/Generated/src/FATFS002/Src/ff.c **** 
 239:../Dave/Generated/src/FATFS002/Src/ff.c **** #elif _CODE_PAGE == 950	/* Traditional Chinese Big5 */
 240:../Dave/Generated/src/FATFS002/Src/ff.c **** #define _DF1S	0x81
 241:../Dave/Generated/src/FATFS002/Src/ff.c **** #define _DF1E	0xFE
 242:../Dave/Generated/src/FATFS002/Src/ff.c **** #define _DS1S	0x40
 243:../Dave/Generated/src/FATFS002/Src/ff.c **** #define _DS1E	0x7E
 244:../Dave/Generated/src/FATFS002/Src/ff.c **** #define _DS2S	0xA1
 245:../Dave/Generated/src/FATFS002/Src/ff.c **** #define _DS2E	0xFE
 246:../Dave/Generated/src/FATFS002/Src/ff.c **** 
 247:../Dave/Generated/src/FATFS002/Src/ff.c **** #elif _CODE_PAGE == 437	/* U.S. (OEM) */
 248:../Dave/Generated/src/FATFS002/Src/ff.c **** #define _DF1S	0
 249:../Dave/Generated/src/FATFS002/Src/ff.c **** #define _EXCVT {0x80,0x9A,0x90,0x41,0x8E,0x41,0x8F,0x80,0x45,0x45,0x45,0x49,0x49,0x49,0x8E,0x8F,0x9
 250:../Dave/Generated/src/FATFS002/Src/ff.c **** 				0x41,0x49,0x4F,0x55,0xA5,0xA5,0xA6,0xA7,0xA8,0xA9,0xAA,0xAB,0xAC,0x21,0xAE,0xAF,0xB0,0xB1,0xB2,
 251:../Dave/Generated/src/FATFS002/Src/ff.c **** 				0xC0,0xC1,0xC2,0xC3,0xC4,0xC5,0xC6,0xC7,0xC8,0xC9,0xCA,0xCB,0xCC,0xCD,0xCE,0xCF,0xD0,0xD1,0xD2,
 252:../Dave/Generated/src/FATFS002/Src/ff.c **** 				0xE0,0xE1,0xE2,0xE3,0xE4,0xE5,0xE6,0xE7,0xE8,0xE9,0xEA,0xEB,0xEC,0xED,0xEE,0xEF,0xF0,0xF1,0xF2,
 253:../Dave/Generated/src/FATFS002/Src/ff.c **** 
 254:../Dave/Generated/src/FATFS002/Src/ff.c **** #elif _CODE_PAGE == 720	/* Arabic (OEM) */
 255:../Dave/Generated/src/FATFS002/Src/ff.c **** #define _DF1S	0
 256:../Dave/Generated/src/FATFS002/Src/ff.c **** #define _EXCVT {0x80,0x81,0x45,0x41,0x84,0x41,0x86,0x43,0x45,0x45,0x45,0x49,0x49,0x8D,0x8E,0x8F,0x9
 257:../Dave/Generated/src/FATFS002/Src/ff.c **** 				0xA0,0xA1,0xA2,0xA3,0xA4,0xA5,0xA6,0xA7,0xA8,0xA9,0xAA,0xAB,0xAC,0xAD,0xAE,0xAF,0xB0,0xB1,0xB2,
 258:../Dave/Generated/src/FATFS002/Src/ff.c **** 				0xC0,0xC1,0xC2,0xC3,0xC4,0xC5,0xC6,0xC7,0xC8,0xC9,0xCA,0xCB,0xCC,0xCD,0xCE,0xCF,0xD0,0xD1,0xD2,
 259:../Dave/Generated/src/FATFS002/Src/ff.c **** 				0xE0,0xE1,0xE2,0xE3,0xE4,0xE5,0xE6,0xE7,0xE8,0xE9,0xEA,0xEB,0xEC,0xED,0xEE,0xEF,0xF0,0xF1,0xF2,
 260:../Dave/Generated/src/FATFS002/Src/ff.c **** 
 261:../Dave/Generated/src/FATFS002/Src/ff.c **** #elif _CODE_PAGE == 737	/* Greek (OEM) */
 262:../Dave/Generated/src/FATFS002/Src/ff.c **** #define _DF1S	0
 263:../Dave/Generated/src/FATFS002/Src/ff.c **** #define _EXCVT {0x80,0x81,0x82,0x83,0x84,0x85,0x86,0x87,0x88,0x89,0x8A,0x8B,0x8C,0x8D,0x8E,0x8F,0x9
 264:../Dave/Generated/src/FATFS002/Src/ff.c **** 				0x88,0x89,0x8A,0x8B,0x8C,0x8D,0x8E,0x8F,0x90,0x91,0xAA,0x92,0x93,0x94,0x95,0x96,0xB0,0xB1,0xB2,
 265:../Dave/Generated/src/FATFS002/Src/ff.c **** 				0xC0,0xC1,0xC2,0xC3,0xC4,0xC5,0xC6,0xC7,0xC8,0xC9,0xCA,0xCB,0xCC,0xCD,0xCE,0xCF,0xD0,0xD1,0xD2,
 266:../Dave/Generated/src/FATFS002/Src/ff.c **** 				0x97,0xEA,0xEB,0xEC,0xE4,0xED,0xEE,0xE7,0xE8,0xF1,0xEA,0xEB,0xEC,0xED,0xEE,0xEF,0xF0,0xF1,0xF2,
 267:../Dave/Generated/src/FATFS002/Src/ff.c **** 
 268:../Dave/Generated/src/FATFS002/Src/ff.c **** #elif _CODE_PAGE == 775	/* Baltic (OEM) */
 269:../Dave/Generated/src/FATFS002/Src/ff.c **** #define _DF1S	0
 270:../Dave/Generated/src/FATFS002/Src/ff.c **** #define _EXCVT {0x80,0x9A,0x91,0xA0,0x8E,0x95,0x8F,0x80,0xAD,0xED,0x8A,0x8A,0xA1,0x8D,0x8E,0x8F,0x9
 271:../Dave/Generated/src/FATFS002/Src/ff.c **** 				0xA0,0xA1,0xE0,0xA3,0xA3,0xA5,0xA6,0xA7,0xA8,0xA9,0xAA,0xAB,0xAC,0xAD,0xAE,0xAF,0xB0,0xB1,0xB2,
 272:../Dave/Generated/src/FATFS002/Src/ff.c **** 				0xC0,0xC1,0xC2,0xC3,0xC4,0xC5,0xC6,0xC7,0xC8,0xC9,0xCA,0xCB,0xCC,0xCD,0xCE,0xCF,0xB5,0xB6,0xB7,
 273:../Dave/Generated/src/FATFS002/Src/ff.c **** 				0xE0,0xE1,0xE2,0xE3,0xE5,0xE5,0xE6,0xE3,0xE8,0xE8,0xEA,0xEA,0xEE,0xED,0xEE,0xEF,0xF0,0xF1,0xF2,
 274:../Dave/Generated/src/FATFS002/Src/ff.c **** 
 275:../Dave/Generated/src/FATFS002/Src/ff.c **** #elif _CODE_PAGE == 850	/* Multilingual Latin 1 (OEM) */
 276:../Dave/Generated/src/FATFS002/Src/ff.c **** #define _DF1S	0
 277:../Dave/Generated/src/FATFS002/Src/ff.c **** #define _EXCVT {0x80,0x9A,0x90,0xB6,0x8E,0xB7,0x8F,0x80,0xD2,0xD3,0xD4,0xD8,0xD7,0xDE,0x8E,0x8F,0x9
 278:../Dave/Generated/src/FATFS002/Src/ff.c **** 				0xB5,0xD6,0xE0,0xE9,0xA5,0xA5,0xA6,0xA7,0xA8,0xA9,0xAA,0xAB,0xAC,0x21,0xAE,0xAF,0xB0,0xB1,0xB2,
 279:../Dave/Generated/src/FATFS002/Src/ff.c **** 				0xC0,0xC1,0xC2,0xC3,0xC4,0xC5,0xC7,0xC7,0xC8,0xC9,0xCA,0xCB,0xCC,0xCD,0xCE,0xCF,0xD0,0xD1,0xD2,
 280:../Dave/Generated/src/FATFS002/Src/ff.c **** 				0xE0,0xE1,0xE2,0xE3,0xE5,0xE5,0xE6,0xE7,0xE7,0xE9,0xEA,0xEB,0xED,0xED,0xEE,0xEF,0xF0,0xF1,0xF2,
 281:../Dave/Generated/src/FATFS002/Src/ff.c **** 
 282:../Dave/Generated/src/FATFS002/Src/ff.c **** #elif _CODE_PAGE == 852	/* Latin 2 (OEM) */
 283:../Dave/Generated/src/FATFS002/Src/ff.c **** #define _DF1S	0
 284:../Dave/Generated/src/FATFS002/Src/ff.c **** #define _EXCVT {0x80,0x9A,0x90,0xB6,0x8E,0xDE,0x8F,0x80,0x9D,0xD3,0x8A,0x8A,0xD7,0x8D,0x8E,0x8F,0x9
 285:../Dave/Generated/src/FATFS002/Src/ff.c **** 				0xB5,0xD6,0xE0,0xE9,0xA4,0xA4,0xA6,0xA6,0xA8,0xA8,0xAA,0x8D,0xAC,0xB8,0xAE,0xAF,0xB0,0xB1,0xB2,
 286:../Dave/Generated/src/FATFS002/Src/ff.c **** 				0xC0,0xC1,0xC2,0xC3,0xC4,0xC5,0xC6,0xC6,0xC8,0xC9,0xCA,0xCB,0xCC,0xCD,0xCE,0xCF,0xD1,0xD1,0xD2,
 287:../Dave/Generated/src/FATFS002/Src/ff.c **** 				0xE0,0xE1,0xE2,0xE3,0xE3,0xD5,0xE6,0xE6,0xE8,0xE9,0xE8,0xEB,0xED,0xED,0xDD,0xEF,0xF0,0xF1,0xF2,
 288:../Dave/Generated/src/FATFS002/Src/ff.c **** 
 289:../Dave/Generated/src/FATFS002/Src/ff.c **** #elif _CODE_PAGE == 855	/* Cyrillic (OEM) */
 290:../Dave/Generated/src/FATFS002/Src/ff.c **** #define _DF1S	0
 291:../Dave/Generated/src/FATFS002/Src/ff.c **** #define _EXCVT {0x81,0x81,0x83,0x83,0x85,0x85,0x87,0x87,0x89,0x89,0x8B,0x8B,0x8D,0x8D,0x8F,0x8F,0x9
 292:../Dave/Generated/src/FATFS002/Src/ff.c **** 				0xA1,0xA1,0xA3,0xA3,0xA5,0xA5,0xA7,0xA7,0xA9,0xA9,0xAB,0xAB,0xAD,0xAD,0xAE,0xAF,0xB0,0xB1,0xB2,
 293:../Dave/Generated/src/FATFS002/Src/ff.c **** 				0xC0,0xC1,0xC2,0xC3,0xC4,0xC5,0xC7,0xC7,0xC8,0xC9,0xCA,0xCB,0xCC,0xCD,0xCE,0xCF,0xD1,0xD1,0xD3,
 294:../Dave/Generated/src/FATFS002/Src/ff.c **** 				0xE0,0xE2,0xE2,0xE4,0xE4,0xE6,0xE6,0xE8,0xE8,0xEA,0xEA,0xEC,0xEC,0xEE,0xEE,0xEF,0xF0,0xF2,0xF2,
 295:../Dave/Generated/src/FATFS002/Src/ff.c **** 
 296:../Dave/Generated/src/FATFS002/Src/ff.c **** #elif _CODE_PAGE == 857	/* Turkish (OEM) */
 297:../Dave/Generated/src/FATFS002/Src/ff.c **** #define _DF1S	0
 298:../Dave/Generated/src/FATFS002/Src/ff.c **** #define _EXCVT {0x80,0x9A,0x90,0xB6,0x8E,0xB7,0x8F,0x80,0xD2,0xD3,0xD4,0xD8,0xD7,0x98,0x8E,0x8F,0x9
 299:../Dave/Generated/src/FATFS002/Src/ff.c **** 				0xB5,0xD6,0xE0,0xE9,0xA5,0xA5,0xA6,0xA6,0xA8,0xA9,0xAA,0xAB,0xAC,0x21,0xAE,0xAF,0xB0,0xB1,0xB2,
 300:../Dave/Generated/src/FATFS002/Src/ff.c **** 				0xC0,0xC1,0xC2,0xC3,0xC4,0xC5,0xC7,0xC7,0xC8,0xC9,0xCA,0xCB,0xCC,0xCD,0xCE,0xCF,0xD0,0xD1,0xD2,
 301:../Dave/Generated/src/FATFS002/Src/ff.c **** 				0xE0,0xE1,0xE2,0xE3,0xE5,0xE5,0xE6,0xE7,0xE8,0xE9,0xEA,0xEB,0xDE,0x59,0xEE,0xEF,0xF0,0xF1,0xF2,
 302:../Dave/Generated/src/FATFS002/Src/ff.c **** 
 303:../Dave/Generated/src/FATFS002/Src/ff.c **** #elif _CODE_PAGE == 858	/* Multilingual Latin 1 + Euro (OEM) */
 304:../Dave/Generated/src/FATFS002/Src/ff.c **** #define _DF1S	0
 305:../Dave/Generated/src/FATFS002/Src/ff.c **** #define _EXCVT {0x80,0x9A,0x90,0xB6,0x8E,0xB7,0x8F,0x80,0xD2,0xD3,0xD4,0xD8,0xD7,0xDE,0x8E,0x8F,0x9
 306:../Dave/Generated/src/FATFS002/Src/ff.c **** 				0xB5,0xD6,0xE0,0xE9,0xA5,0xA5,0xA6,0xA7,0xA8,0xA9,0xAA,0xAB,0xAC,0x21,0xAE,0xAF,0xB0,0xB1,0xB2,
 307:../Dave/Generated/src/FATFS002/Src/ff.c **** 				0xC0,0xC1,0xC2,0xC3,0xC4,0xC5,0xC7,0xC7,0xC8,0xC9,0xCA,0xCB,0xCC,0xCD,0xCE,0xCF,0xD1,0xD1,0xD2,
 308:../Dave/Generated/src/FATFS002/Src/ff.c **** 				0xE0,0xE1,0xE2,0xE3,0xE5,0xE5,0xE6,0xE7,0xE7,0xE9,0xEA,0xEB,0xED,0xED,0xEE,0xEF,0xF0,0xF1,0xF2,
 309:../Dave/Generated/src/FATFS002/Src/ff.c **** 
 310:../Dave/Generated/src/FATFS002/Src/ff.c **** #elif _CODE_PAGE == 862	/* Hebrew (OEM) */
 311:../Dave/Generated/src/FATFS002/Src/ff.c **** #define _DF1S	0
 312:../Dave/Generated/src/FATFS002/Src/ff.c **** #define _EXCVT {0x80,0x81,0x82,0x83,0x84,0x85,0x86,0x87,0x88,0x89,0x8A,0x8B,0x8C,0x8D,0x8E,0x8F,0x9
 313:../Dave/Generated/src/FATFS002/Src/ff.c **** 				0x41,0x49,0x4F,0x55,0xA5,0xA5,0xA6,0xA7,0xA8,0xA9,0xAA,0xAB,0xAC,0x21,0xAE,0xAF,0xB0,0xB1,0xB2,
 314:../Dave/Generated/src/FATFS002/Src/ff.c **** 				0xC0,0xC1,0xC2,0xC3,0xC4,0xC5,0xC6,0xC7,0xC8,0xC9,0xCA,0xCB,0xCC,0xCD,0xCE,0xCF,0xD0,0xD1,0xD2,
 315:../Dave/Generated/src/FATFS002/Src/ff.c **** 				0xE0,0xE1,0xE2,0xE3,0xE4,0xE5,0xE6,0xE7,0xE8,0xE9,0xEA,0xEB,0xEC,0xED,0xEE,0xEF,0xF0,0xF1,0xF2,
 316:../Dave/Generated/src/FATFS002/Src/ff.c **** 
 317:../Dave/Generated/src/FATFS002/Src/ff.c **** #elif _CODE_PAGE == 866	/* Russian (OEM) */
 318:../Dave/Generated/src/FATFS002/Src/ff.c **** #define _DF1S	0
 319:../Dave/Generated/src/FATFS002/Src/ff.c **** #define _EXCVT {0x80,0x81,0x82,0x83,0x84,0x85,0x86,0x87,0x88,0x89,0x8A,0x8B,0x8C,0x8D,0x8E,0x8F,0x9
 320:../Dave/Generated/src/FATFS002/Src/ff.c **** 				0x80,0x81,0x82,0x83,0x84,0x85,0x86,0x87,0x88,0x89,0x8A,0x8B,0x8C,0x8D,0x8E,0x8F,0xB0,0xB1,0xB2,
 321:../Dave/Generated/src/FATFS002/Src/ff.c **** 				0xC0,0xC1,0xC2,0xC3,0xC4,0xC5,0xC6,0xC7,0xC8,0xC9,0xCA,0xCB,0xCC,0xCD,0xCE,0xCF,0xD0,0xD1,0xD2,
 322:../Dave/Generated/src/FATFS002/Src/ff.c **** 				0x90,0x91,0x92,0x93,0x9d,0x95,0x96,0x97,0x98,0x99,0x9A,0x9B,0x9C,0x9D,0x9E,0x9F,0xF0,0xF0,0xF2,
 323:../Dave/Generated/src/FATFS002/Src/ff.c **** 
 324:../Dave/Generated/src/FATFS002/Src/ff.c **** #elif _CODE_PAGE == 874	/* Thai (OEM, Windows) */
 325:../Dave/Generated/src/FATFS002/Src/ff.c **** #define _DF1S	0
 326:../Dave/Generated/src/FATFS002/Src/ff.c **** #define _EXCVT {0x80,0x81,0x82,0x83,0x84,0x85,0x86,0x87,0x88,0x89,0x8A,0x8B,0x8C,0x8D,0x8E,0x8F,0x9
 327:../Dave/Generated/src/FATFS002/Src/ff.c **** 				0xA0,0xA1,0xA2,0xA3,0xA4,0xA5,0xA6,0xA7,0xA8,0xA9,0xAA,0xAB,0xAC,0xAD,0xAE,0xAF,0xB0,0xB1,0xB2,
 328:../Dave/Generated/src/FATFS002/Src/ff.c **** 				0xC0,0xC1,0xC2,0xC3,0xC4,0xC5,0xC6,0xC7,0xC8,0xC9,0xCA,0xCB,0xCC,0xCD,0xCE,0xCF,0xD0,0xD1,0xD2,
 329:../Dave/Generated/src/FATFS002/Src/ff.c **** 				0xE0,0xE1,0xE2,0xE3,0xE4,0xE5,0xE6,0xE7,0xE8,0xE9,0xEA,0xEB,0xEC,0xED,0xEE,0xEF,0xF0,0xF1,0xF2,
 330:../Dave/Generated/src/FATFS002/Src/ff.c **** 
 331:../Dave/Generated/src/FATFS002/Src/ff.c **** #elif _CODE_PAGE == 1250 /* Central Europe (Windows) */
 332:../Dave/Generated/src/FATFS002/Src/ff.c **** #define _DF1S	0
 333:../Dave/Generated/src/FATFS002/Src/ff.c **** #define _EXCVT {0x80,0x81,0x82,0x83,0x84,0x85,0x86,0x87,0x88,0x89,0x8A,0x8B,0x8C,0x8D,0x8E,0x8F,0x9
 334:../Dave/Generated/src/FATFS002/Src/ff.c **** 				0xA0,0xA1,0xA2,0xA3,0xA4,0xA5,0xA6,0xA7,0xA8,0xA9,0xAA,0xAB,0xAC,0xAD,0xAE,0xAF,0xB0,0xB1,0xB2,
 335:../Dave/Generated/src/FATFS002/Src/ff.c **** 				0xC0,0xC1,0xC2,0xC3,0xC4,0xC5,0xC6,0xC7,0xC8,0xC9,0xCA,0xCB,0xCC,0xCD,0xCE,0xCF,0xD0,0xD1,0xD2,
 336:../Dave/Generated/src/FATFS002/Src/ff.c **** 				0xC0,0xC1,0xC2,0xC3,0xC4,0xC5,0xC6,0xC7,0xC8,0xC9,0xCA,0xCB,0xCC,0xCD,0xCE,0xCF,0xD0,0xD1,0xD2,
 337:../Dave/Generated/src/FATFS002/Src/ff.c **** 
 338:../Dave/Generated/src/FATFS002/Src/ff.c **** #elif _CODE_PAGE == 1251 /* Cyrillic (Windows) */
 339:../Dave/Generated/src/FATFS002/Src/ff.c **** #define _DF1S	0
 340:../Dave/Generated/src/FATFS002/Src/ff.c **** #define _EXCVT {0x80,0x81,0x82,0x82,0x84,0x85,0x86,0x87,0x88,0x89,0x8A,0x8B,0x8C,0x8D,0x8E,0x8F,0x8
 341:../Dave/Generated/src/FATFS002/Src/ff.c **** 				0xA0,0xA2,0xA2,0xA3,0xA4,0xA5,0xA6,0xA7,0xA8,0xA9,0xAA,0xAB,0xAC,0xAD,0xAE,0xAF,0xB0,0xB1,0xB2,
 342:../Dave/Generated/src/FATFS002/Src/ff.c **** 				0xC0,0xC1,0xC2,0xC3,0xC4,0xC5,0xC6,0xC7,0xC8,0xC9,0xCA,0xCB,0xCC,0xCD,0xCE,0xCF,0xD0,0xD1,0xD2,
 343:../Dave/Generated/src/FATFS002/Src/ff.c **** 				0xC0,0xC1,0xC2,0xC3,0xC4,0xC5,0xC6,0xC7,0xC8,0xC9,0xCA,0xCB,0xCC,0xCD,0xCE,0xCF,0xD0,0xD1,0xD2,
 344:../Dave/Generated/src/FATFS002/Src/ff.c **** 
 345:../Dave/Generated/src/FATFS002/Src/ff.c **** #elif _CODE_PAGE == 1252 /* Latin 1 (Windows) */
 346:../Dave/Generated/src/FATFS002/Src/ff.c **** #define _DF1S	0
 347:../Dave/Generated/src/FATFS002/Src/ff.c **** #define _EXCVT {0x80,0x81,0x82,0x83,0x84,0x85,0x86,0x87,0x88,0x89,0x8A,0x8B,0x8C,0x8D,0x8E,0x8F,0x9
 348:../Dave/Generated/src/FATFS002/Src/ff.c **** 				0xA0,0x21,0xA2,0xA3,0xA4,0xA5,0xA6,0xA7,0xA8,0xA9,0xAA,0xAB,0xAC,0xAD,0xAE,0xAF,0xB0,0xB1,0xB2,
 349:../Dave/Generated/src/FATFS002/Src/ff.c **** 				0xC0,0xC1,0xC2,0xC3,0xC4,0xC5,0xC6,0xC7,0xC8,0xC9,0xCA,0xCB,0xCC,0xCD,0xCE,0xCF,0xD0,0xD1,0xD2,
 350:../Dave/Generated/src/FATFS002/Src/ff.c **** 				0xC0,0xC1,0xC2,0xC3,0xC4,0xC5,0xC6,0xC7,0xC8,0xC9,0xCA,0xCB,0xCC,0xCD,0xCE,0xCF,0xD0,0xD1,0xD2,
 351:../Dave/Generated/src/FATFS002/Src/ff.c **** 
 352:../Dave/Generated/src/FATFS002/Src/ff.c **** #elif _CODE_PAGE == 1253 /* Greek (Windows) */
 353:../Dave/Generated/src/FATFS002/Src/ff.c **** #define _DF1S	0
 354:../Dave/Generated/src/FATFS002/Src/ff.c **** #define _EXCVT {0x80,0x81,0x82,0x83,0x84,0x85,0x86,0x87,0x88,0x89,0x8A,0x8B,0x8C,0x8D,0x8E,0x8F,0x9
 355:../Dave/Generated/src/FATFS002/Src/ff.c **** 				0xA0,0xA1,0xA2,0xA3,0xA4,0xA5,0xA6,0xA7,0xA8,0xA9,0xAA,0xAB,0xAC,0xAD,0xAE,0xAF,0xB0,0xB1,0xB2,
 356:../Dave/Generated/src/FATFS002/Src/ff.c **** 				0xC0,0xC1,0xC2,0xC3,0xC4,0xC5,0xC6,0xC7,0xC8,0xC9,0xCA,0xCB,0xCC,0xCD,0xCE,0xCF,0xD0,0xD1,0xD2,
 357:../Dave/Generated/src/FATFS002/Src/ff.c **** 				0xE0,0xC1,0xC2,0xC3,0xC4,0xC5,0xC6,0xC7,0xC8,0xC9,0xCA,0xCB,0xCC,0xCD,0xCE,0xCF,0xD0,0xD1,0xF2,
 358:../Dave/Generated/src/FATFS002/Src/ff.c **** 
 359:../Dave/Generated/src/FATFS002/Src/ff.c **** #elif _CODE_PAGE == 1254 /* Turkish (Windows) */
 360:../Dave/Generated/src/FATFS002/Src/ff.c **** #define _DF1S	0
 361:../Dave/Generated/src/FATFS002/Src/ff.c **** #define _EXCVT {0x80,0x81,0x82,0x83,0x84,0x85,0x86,0x87,0x88,0x89,0x8A,0x8B,0x8C,0x8D,0x8E,0x8F,0x9
 362:../Dave/Generated/src/FATFS002/Src/ff.c **** 				0xA0,0x21,0xA2,0xA3,0xA4,0xA5,0xA6,0xA7,0xA8,0xA9,0xAA,0xAB,0xAC,0xAD,0xAE,0xAF,0xB0,0xB1,0xB2,
 363:../Dave/Generated/src/FATFS002/Src/ff.c **** 				0xC0,0xC1,0xC2,0xC3,0xC4,0xC5,0xC6,0xC7,0xC8,0xC9,0xCA,0xCB,0xCC,0xCD,0xCE,0xCF,0xD0,0xD1,0xD2,
 364:../Dave/Generated/src/FATFS002/Src/ff.c **** 				0xC0,0xC1,0xC2,0xC3,0xC4,0xC5,0xC6,0xC7,0xC8,0xC9,0xCA,0xCB,0xCC,0xCD,0xCE,0xCF,0xD0,0xD1,0xD2,
 365:../Dave/Generated/src/FATFS002/Src/ff.c **** 
 366:../Dave/Generated/src/FATFS002/Src/ff.c **** #elif _CODE_PAGE == 1255 /* Hebrew (Windows) */
 367:../Dave/Generated/src/FATFS002/Src/ff.c **** #define _DF1S	0
 368:../Dave/Generated/src/FATFS002/Src/ff.c **** #define _EXCVT {0x80,0x81,0x82,0x83,0x84,0x85,0x86,0x87,0x88,0x89,0x8A,0x8B,0x8C,0x8D,0x8E,0x8F,0x9
 369:../Dave/Generated/src/FATFS002/Src/ff.c **** 				0xA0,0x21,0xA2,0xA3,0xA4,0xA5,0xA6,0xA7,0xA8,0xA9,0xAA,0xAB,0xAC,0xAD,0xAE,0xAF,0xB0,0xB1,0xB2,
 370:../Dave/Generated/src/FATFS002/Src/ff.c **** 				0xC0,0xC1,0xC2,0xC3,0xC4,0xC5,0xC6,0xC7,0xC8,0xC9,0xCA,0xCB,0xCC,0xCD,0xCE,0xCF,0xD0,0xD1,0xD2,
 371:../Dave/Generated/src/FATFS002/Src/ff.c **** 				0xE0,0xE1,0xE2,0xE3,0xE4,0xE5,0xE6,0xE7,0xE8,0xE9,0xEA,0xEB,0xEC,0xED,0xEE,0xEF,0xF0,0xF1,0xF2,
 372:../Dave/Generated/src/FATFS002/Src/ff.c **** 
 373:../Dave/Generated/src/FATFS002/Src/ff.c **** #elif _CODE_PAGE == 1256 /* Arabic (Windows) */
 374:../Dave/Generated/src/FATFS002/Src/ff.c **** #define _DF1S	0
 375:../Dave/Generated/src/FATFS002/Src/ff.c **** #define _EXCVT {0x80,0x81,0x82,0x83,0x84,0x85,0x86,0x87,0x88,0x89,0x8A,0x8B,0x8C,0x8D,0x8E,0x8F,0x9
 376:../Dave/Generated/src/FATFS002/Src/ff.c **** 				0xA0,0xA1,0xA2,0xA3,0xA4,0xA5,0xA6,0xA7,0xA8,0xA9,0xAA,0xAB,0xAC,0xAD,0xAE,0xAF,0xB0,0xB1,0xB2,
 377:../Dave/Generated/src/FATFS002/Src/ff.c **** 				0xC0,0xC1,0xC2,0xC3,0xC4,0xC5,0xC6,0xC7,0xC8,0xC9,0xCA,0xCB,0xCC,0xCD,0xCE,0xCF,0xD0,0xD1,0xD2,
 378:../Dave/Generated/src/FATFS002/Src/ff.c **** 				0x41,0xE1,0x41,0xE3,0xE4,0xE5,0xE6,0x43,0x45,0x45,0x45,0x45,0xEC,0xED,0x49,0x49,0xF0,0xF1,0xF2,
 379:../Dave/Generated/src/FATFS002/Src/ff.c **** 
 380:../Dave/Generated/src/FATFS002/Src/ff.c **** #elif _CODE_PAGE == 1257 /* Baltic (Windows) */
 381:../Dave/Generated/src/FATFS002/Src/ff.c **** #define _DF1S	0
 382:../Dave/Generated/src/FATFS002/Src/ff.c **** #define _EXCVT {0x80,0x81,0x82,0x83,0x84,0x85,0x86,0x87,0x88,0x89,0x8A,0x8B,0x8C,0x8D,0x8E,0x8F,0x9
 383:../Dave/Generated/src/FATFS002/Src/ff.c **** 				0xA0,0xA1,0xA2,0xA3,0xA4,0xA5,0xA6,0xA7,0xA8,0xA9,0xAA,0xAB,0xAC,0xAD,0xAE,0xAF,0xB0,0xB1,0xB2,
 384:../Dave/Generated/src/FATFS002/Src/ff.c **** 				0xC0,0xC1,0xC2,0xC3,0xC4,0xC5,0xC6,0xC7,0xC8,0xC9,0xCA,0xCB,0xCC,0xCD,0xCE,0xCF,0xD0,0xD1,0xD2,
 385:../Dave/Generated/src/FATFS002/Src/ff.c **** 				0xC0,0xC1,0xC2,0xC3,0xC4,0xC5,0xC6,0xC7,0xC8,0xC9,0xCA,0xCB,0xCC,0xCD,0xCE,0xCF,0xD0,0xD1,0xD2,
 386:../Dave/Generated/src/FATFS002/Src/ff.c **** 
 387:../Dave/Generated/src/FATFS002/Src/ff.c **** #elif _CODE_PAGE == 1258 /* Vietnam (OEM, Windows) */
 388:../Dave/Generated/src/FATFS002/Src/ff.c **** #define _DF1S	0
 389:../Dave/Generated/src/FATFS002/Src/ff.c **** #define _EXCVT {0x80,0x81,0x82,0x83,0x84,0x85,0x86,0x87,0x88,0x89,0x8A,0x8B,0x8C,0x8D,0x8E,0x8F,0x9
 390:../Dave/Generated/src/FATFS002/Src/ff.c **** 				0xA0,0x21,0xA2,0xA3,0xA4,0xA5,0xA6,0xA7,0xA8,0xA9,0xAA,0xAB,0xAC,0xAD,0xAE,0xAF,0xB0,0xB1,0xB2,
 391:../Dave/Generated/src/FATFS002/Src/ff.c **** 				0xC0,0xC1,0xC2,0xC3,0xC4,0xC5,0xC6,0xC7,0xC8,0xC9,0xCA,0xCB,0xCC,0xCD,0xCE,0xCF,0xD0,0xD1,0xD2,
 392:../Dave/Generated/src/FATFS002/Src/ff.c **** 				0xC0,0xC1,0xC2,0xC3,0xC4,0xC5,0xC6,0xC7,0xC8,0xC9,0xCA,0xCB,0xEC,0xCD,0xCE,0xCF,0xD0,0xD1,0xF2,
 393:../Dave/Generated/src/FATFS002/Src/ff.c **** 
 394:../Dave/Generated/src/FATFS002/Src/ff.c **** #elif _CODE_PAGE == 1	/* ASCII (for only non-LFN cfg) */
 395:../Dave/Generated/src/FATFS002/Src/ff.c **** #if _USE_LFN
 396:../Dave/Generated/src/FATFS002/Src/ff.c **** #error Cannot use LFN feature without valid code page.
 397:../Dave/Generated/src/FATFS002/Src/ff.c **** #endif
 398:../Dave/Generated/src/FATFS002/Src/ff.c **** #define _DF1S	0
 399:../Dave/Generated/src/FATFS002/Src/ff.c **** 
 400:../Dave/Generated/src/FATFS002/Src/ff.c **** #else
 401:../Dave/Generated/src/FATFS002/Src/ff.c **** #error Unknown code page
 402:../Dave/Generated/src/FATFS002/Src/ff.c **** 
 403:../Dave/Generated/src/FATFS002/Src/ff.c **** #endif
 404:../Dave/Generated/src/FATFS002/Src/ff.c **** 
 405:../Dave/Generated/src/FATFS002/Src/ff.c **** 
 406:../Dave/Generated/src/FATFS002/Src/ff.c **** /* Character code support macros */
 407:../Dave/Generated/src/FATFS002/Src/ff.c **** #define IsUpper(c)	(((c)>='A')&&((c)<='Z'))
 408:../Dave/Generated/src/FATFS002/Src/ff.c **** #define IsLower(c)	(((c)>='a')&&((c)<='z'))
 409:../Dave/Generated/src/FATFS002/Src/ff.c **** #define IsDigit(c)	(((c)>='0')&&((c)<='9'))
 410:../Dave/Generated/src/FATFS002/Src/ff.c **** 
 411:../Dave/Generated/src/FATFS002/Src/ff.c **** #if _DF1S		/* Code page is DBCS */
 412:../Dave/Generated/src/FATFS002/Src/ff.c **** 
 413:../Dave/Generated/src/FATFS002/Src/ff.c **** #ifdef _DF2S	/* Two 1st byte areas */
 414:../Dave/Generated/src/FATFS002/Src/ff.c **** #define IsDBCS1(c)	(((BYTE)(c) >= _DF1S && (BYTE)(c) <= _DF1E) || ((BYTE)(c) >= _DF2S && (BYTE)(c) 
 415:../Dave/Generated/src/FATFS002/Src/ff.c **** #else			/* One 1st byte area */
 416:../Dave/Generated/src/FATFS002/Src/ff.c **** #define IsDBCS1(c)	((BYTE)(c) >= _DF1S && (BYTE)(c) <= _DF1E)
 417:../Dave/Generated/src/FATFS002/Src/ff.c **** #endif
 418:../Dave/Generated/src/FATFS002/Src/ff.c **** 
 419:../Dave/Generated/src/FATFS002/Src/ff.c **** #ifdef _DS3S	/* Three 2nd byte areas */
 420:../Dave/Generated/src/FATFS002/Src/ff.c **** #define IsDBCS2(c)	(((BYTE)(c) >= _DS1S && (BYTE)(c) <= _DS1E) || ((BYTE)(c) >= _DS2S && (BYTE)(c) 
 421:../Dave/Generated/src/FATFS002/Src/ff.c **** #else			/* Two 2nd byte areas */
 422:../Dave/Generated/src/FATFS002/Src/ff.c **** #define IsDBCS2(c)	(((BYTE)(c) >= _DS1S && (BYTE)(c) <= _DS1E) || ((BYTE)(c) >= _DS2S && (BYTE)(c) 
 423:../Dave/Generated/src/FATFS002/Src/ff.c **** #endif
 424:../Dave/Generated/src/FATFS002/Src/ff.c **** 
 425:../Dave/Generated/src/FATFS002/Src/ff.c **** #else			/* Code page is SBCS */
 426:../Dave/Generated/src/FATFS002/Src/ff.c **** 
 427:../Dave/Generated/src/FATFS002/Src/ff.c **** #define IsDBCS1(c)	0
 428:../Dave/Generated/src/FATFS002/Src/ff.c **** #define IsDBCS2(c)	0
 429:../Dave/Generated/src/FATFS002/Src/ff.c **** 
 430:../Dave/Generated/src/FATFS002/Src/ff.c **** #endif /* _DF1S */
 431:../Dave/Generated/src/FATFS002/Src/ff.c **** 
 432:../Dave/Generated/src/FATFS002/Src/ff.c **** 
 433:../Dave/Generated/src/FATFS002/Src/ff.c **** /* Name status flags */
 434:../Dave/Generated/src/FATFS002/Src/ff.c **** #define NS			11		/* Index of name status byte in fn[] */
 435:../Dave/Generated/src/FATFS002/Src/ff.c **** #define NS_LOSS		0x01	/* Out of 8.3 format */
 436:../Dave/Generated/src/FATFS002/Src/ff.c **** #define NS_LFN		0x02	/* Force to create LFN entry */
 437:../Dave/Generated/src/FATFS002/Src/ff.c **** #define NS_LAST		0x04	/* Last segment */
 438:../Dave/Generated/src/FATFS002/Src/ff.c **** #define NS_BODY		0x08	/* Lower case flag (body) */
 439:../Dave/Generated/src/FATFS002/Src/ff.c **** #define NS_EXT		0x10	/* Lower case flag (ext) */
 440:../Dave/Generated/src/FATFS002/Src/ff.c **** #define NS_DOT		0x20	/* Dot entry */
 441:../Dave/Generated/src/FATFS002/Src/ff.c **** 
 442:../Dave/Generated/src/FATFS002/Src/ff.c **** 
 443:../Dave/Generated/src/FATFS002/Src/ff.c **** /* FAT sub-type boundaries */
 444:../Dave/Generated/src/FATFS002/Src/ff.c **** /* Note that the FAT spec by Microsoft says 4085 but Windows works with 4087! */
 445:../Dave/Generated/src/FATFS002/Src/ff.c **** #define MIN_FAT16	4086	/* Minimum number of clusters for FAT16 */
 446:../Dave/Generated/src/FATFS002/Src/ff.c **** #define	MIN_FAT32	65526	/* Minimum number of clusters for FAT32 */
 447:../Dave/Generated/src/FATFS002/Src/ff.c **** 
 448:../Dave/Generated/src/FATFS002/Src/ff.c **** 
 449:../Dave/Generated/src/FATFS002/Src/ff.c **** /* FatFs refers the members in the FAT structures as byte array instead of
 450:../Dave/Generated/src/FATFS002/Src/ff.c **** / structure member because the structure is not binary compatible between
 451:../Dave/Generated/src/FATFS002/Src/ff.c **** / different platforms */
 452:../Dave/Generated/src/FATFS002/Src/ff.c **** 
 453:../Dave/Generated/src/FATFS002/Src/ff.c **** #define BS_jmpBoot			0	/* Jump instruction (3) */
 454:../Dave/Generated/src/FATFS002/Src/ff.c **** #define BS_OEMName			3	/* OEM name (8) */
 455:../Dave/Generated/src/FATFS002/Src/ff.c **** #define BPB_BytsPerSec		11	/* Sector size [byte] (2) */
 456:../Dave/Generated/src/FATFS002/Src/ff.c **** #define BPB_SecPerClus		13	/* Cluster size [sector] (1) */
 457:../Dave/Generated/src/FATFS002/Src/ff.c **** #define BPB_RsvdSecCnt		14	/* Size of reserved area [sector] (2) */
 458:../Dave/Generated/src/FATFS002/Src/ff.c **** #define BPB_NumFATs			16	/* Number of FAT copies (1) */
 459:../Dave/Generated/src/FATFS002/Src/ff.c **** #define BPB_RootEntCnt		17	/* Number of root dir entries for FAT12/16 (2) */
 460:../Dave/Generated/src/FATFS002/Src/ff.c **** #define BPB_TotSec16		19	/* Volume size [sector] (2) */
 461:../Dave/Generated/src/FATFS002/Src/ff.c **** #define BPB_Media			21	/* Media descriptor (1) */
 462:../Dave/Generated/src/FATFS002/Src/ff.c **** #define BPB_FATSz16			22	/* FAT size [sector] (2) */
 463:../Dave/Generated/src/FATFS002/Src/ff.c **** #define BPB_SecPerTrk		24	/* Track size [sector] (2) */
 464:../Dave/Generated/src/FATFS002/Src/ff.c **** #define BPB_NumHeads		26	/* Number of heads (2) */
 465:../Dave/Generated/src/FATFS002/Src/ff.c **** #define BPB_HiddSec			28	/* Number of special hidden sectors (4) */
 466:../Dave/Generated/src/FATFS002/Src/ff.c **** #define BPB_TotSec32		32	/* Volume size [sector] (4) */
 467:../Dave/Generated/src/FATFS002/Src/ff.c **** #define BS_DrvNum			36	/* Physical drive number (2) */
 468:../Dave/Generated/src/FATFS002/Src/ff.c **** #define BS_BootSig			38	/* Extended boot signature (1) */
 469:../Dave/Generated/src/FATFS002/Src/ff.c **** #define BS_VolID			39	/* Volume serial number (4) */
 470:../Dave/Generated/src/FATFS002/Src/ff.c **** #define BS_VolLab			43	/* Volume label (8) */
 471:../Dave/Generated/src/FATFS002/Src/ff.c **** #define BS_FilSysType		54	/* File system type (1) */
 472:../Dave/Generated/src/FATFS002/Src/ff.c **** #define BPB_FATSz32			36	/* FAT size [sector] (4) */
 473:../Dave/Generated/src/FATFS002/Src/ff.c **** #define BPB_ExtFlags		40	/* Extended flags (2) */
 474:../Dave/Generated/src/FATFS002/Src/ff.c **** #define BPB_FSVer			42	/* File system version (2) */
 475:../Dave/Generated/src/FATFS002/Src/ff.c **** #define BPB_RootClus		44	/* Root dir first cluster (4) */
 476:../Dave/Generated/src/FATFS002/Src/ff.c **** #define BPB_FSInfo			48	/* Offset of FSInfo sector (2) */
 477:../Dave/Generated/src/FATFS002/Src/ff.c **** #define BPB_BkBootSec		50	/* Offset of backup boot sectot (2) */
 478:../Dave/Generated/src/FATFS002/Src/ff.c **** #define BS_DrvNum32			64	/* Physical drive number (2) */
 479:../Dave/Generated/src/FATFS002/Src/ff.c **** #define BS_BootSig32		66	/* Extended boot signature (1) */
 480:../Dave/Generated/src/FATFS002/Src/ff.c **** #define BS_VolID32			67	/* Volume serial number (4) */
 481:../Dave/Generated/src/FATFS002/Src/ff.c **** #define BS_VolLab32			71	/* Volume label (8) */
 482:../Dave/Generated/src/FATFS002/Src/ff.c **** #define BS_FilSysType32		82	/* File system type (1) */
 483:../Dave/Generated/src/FATFS002/Src/ff.c **** #define	FSI_LeadSig			0	/* FSI: Leading signature (4) */
 484:../Dave/Generated/src/FATFS002/Src/ff.c **** #define	FSI_StrucSig		484	/* FSI: Structure signature (4) */
 485:../Dave/Generated/src/FATFS002/Src/ff.c **** #define	FSI_Free_Count		488	/* FSI: Number of free clusters (4) */
 486:../Dave/Generated/src/FATFS002/Src/ff.c **** #define	FSI_Nxt_Free		492	/* FSI: Last allocated cluster (4) */
 487:../Dave/Generated/src/FATFS002/Src/ff.c **** #define MBR_Table			446	/* MBR: Partition table offset (2) */
 488:../Dave/Generated/src/FATFS002/Src/ff.c **** #define	SZ_PTE				16	/* MBR: Size of a partition table entry */
 489:../Dave/Generated/src/FATFS002/Src/ff.c **** #define BS_55AA				510	/* Boot sector signature (2) */
 490:../Dave/Generated/src/FATFS002/Src/ff.c **** 
 491:../Dave/Generated/src/FATFS002/Src/ff.c **** #define	DIR_Name			0	/* Short file name (11) */
 492:../Dave/Generated/src/FATFS002/Src/ff.c **** #define	DIR_Attr			11	/* Attribute (1) */
 493:../Dave/Generated/src/FATFS002/Src/ff.c **** #define	DIR_NTres			12	/* NT flag (1) */
 494:../Dave/Generated/src/FATFS002/Src/ff.c **** #define	DIR_CrtTime			14	/* Created time (2) */
 495:../Dave/Generated/src/FATFS002/Src/ff.c **** #define	DIR_CrtDate			16	/* Created date (2) */
 496:../Dave/Generated/src/FATFS002/Src/ff.c **** #define	DIR_FstClusHI		20	/* Higher 16-bit of first cluster (2) */
 497:../Dave/Generated/src/FATFS002/Src/ff.c **** #define	DIR_WrtTime			22	/* Modified time (2) */
 498:../Dave/Generated/src/FATFS002/Src/ff.c **** #define	DIR_WrtDate			24	/* Modified date (2) */
 499:../Dave/Generated/src/FATFS002/Src/ff.c **** #define	DIR_FstClusLO		26	/* Lower 16-bit of first cluster (2) */
 500:../Dave/Generated/src/FATFS002/Src/ff.c **** #define	DIR_FileSize		28	/* File size (4) */
 501:../Dave/Generated/src/FATFS002/Src/ff.c **** #define	LDIR_Ord			0	/* LFN entry order and LLE flag (1) */
 502:../Dave/Generated/src/FATFS002/Src/ff.c **** #define	LDIR_Attr			11	/* LFN attribute (1) */
 503:../Dave/Generated/src/FATFS002/Src/ff.c **** #define	LDIR_Type			12	/* LFN type (1) */
 504:../Dave/Generated/src/FATFS002/Src/ff.c **** #define	LDIR_Chksum			13	/* Sum of corresponding SFN entry */
 505:../Dave/Generated/src/FATFS002/Src/ff.c **** #define	LDIR_FstClusLO		26	/* Filled by zero (0) */
 506:../Dave/Generated/src/FATFS002/Src/ff.c **** #define	SZ_DIR				32		/* Size of a directory entry */
 507:../Dave/Generated/src/FATFS002/Src/ff.c **** #define	LLE					0x40	/* Last long entry flag in LDIR_Ord */
 508:../Dave/Generated/src/FATFS002/Src/ff.c **** #define	DDE					0xE5	/* Deleted directory enrty mark in DIR_Name[0] */
 509:../Dave/Generated/src/FATFS002/Src/ff.c **** #define	NDDE				0x05	/* Replacement of a character collides with DDE */
 510:../Dave/Generated/src/FATFS002/Src/ff.c **** 
 511:../Dave/Generated/src/FATFS002/Src/ff.c **** 
 512:../Dave/Generated/src/FATFS002/Src/ff.c **** /*------------------------------------------------------------*/
 513:../Dave/Generated/src/FATFS002/Src/ff.c **** /* Module private work area                                   */
 514:../Dave/Generated/src/FATFS002/Src/ff.c **** /*------------------------------------------------------------*/
 515:../Dave/Generated/src/FATFS002/Src/ff.c **** /* Note that uninitialized variables with static duration are
 516:../Dave/Generated/src/FATFS002/Src/ff.c **** /  zeroed/nulled at start-up. If not, the compiler or start-up
 517:../Dave/Generated/src/FATFS002/Src/ff.c **** /  routine is out of ANSI-C standard.
 518:../Dave/Generated/src/FATFS002/Src/ff.c **** */
 519:../Dave/Generated/src/FATFS002/Src/ff.c **** 
 520:../Dave/Generated/src/FATFS002/Src/ff.c **** #if _VOLUMES
 521:../Dave/Generated/src/FATFS002/Src/ff.c **** static
 522:../Dave/Generated/src/FATFS002/Src/ff.c **** FATFS *FatFs[_VOLUMES];	/* Pointer to the file system objects (logical drives) */
 523:../Dave/Generated/src/FATFS002/Src/ff.c **** #else
 524:../Dave/Generated/src/FATFS002/Src/ff.c **** #error Number of volumes must not be 0.
 525:../Dave/Generated/src/FATFS002/Src/ff.c **** #endif
 526:../Dave/Generated/src/FATFS002/Src/ff.c **** 
 527:../Dave/Generated/src/FATFS002/Src/ff.c **** static
 528:../Dave/Generated/src/FATFS002/Src/ff.c **** WORD Fsid;				/* File system mount ID */
 529:../Dave/Generated/src/FATFS002/Src/ff.c **** 
 530:../Dave/Generated/src/FATFS002/Src/ff.c **** #if _FS_RPATH
 531:../Dave/Generated/src/FATFS002/Src/ff.c **** static
 532:../Dave/Generated/src/FATFS002/Src/ff.c **** BYTE CurrVol;			/* Current drive */
 533:../Dave/Generated/src/FATFS002/Src/ff.c **** #endif
 534:../Dave/Generated/src/FATFS002/Src/ff.c **** 
 535:../Dave/Generated/src/FATFS002/Src/ff.c **** #if _FS_SHARE
 536:../Dave/Generated/src/FATFS002/Src/ff.c **** static
 537:../Dave/Generated/src/FATFS002/Src/ff.c **** FILESEM	Files[_FS_SHARE];	/* File lock semaphores */
 538:../Dave/Generated/src/FATFS002/Src/ff.c **** #endif
 539:../Dave/Generated/src/FATFS002/Src/ff.c **** 
 540:../Dave/Generated/src/FATFS002/Src/ff.c **** #if _USE_LFN == 0			/* No LFN feature */
 541:../Dave/Generated/src/FATFS002/Src/ff.c **** #define	DEF_NAMEBUF			BYTE sfn[12]
 542:../Dave/Generated/src/FATFS002/Src/ff.c **** #define INIT_BUF(dobj)		(dobj).fn = sfn
 543:../Dave/Generated/src/FATFS002/Src/ff.c **** #define	FREE_BUF()
 544:../Dave/Generated/src/FATFS002/Src/ff.c **** 
 545:../Dave/Generated/src/FATFS002/Src/ff.c **** #elif _USE_LFN == 1			/* LFN feature with static working buffer */
 546:../Dave/Generated/src/FATFS002/Src/ff.c **** static WCHAR LfnBuf[_MAX_LFN+1];
 547:../Dave/Generated/src/FATFS002/Src/ff.c **** #define	DEF_NAMEBUF			BYTE sfn[12]
 548:../Dave/Generated/src/FATFS002/Src/ff.c **** #define INIT_BUF(dobj)		{ (dobj).fn = sfn; (dobj).lfn = LfnBuf; }
 549:../Dave/Generated/src/FATFS002/Src/ff.c **** #define	FREE_BUF()
 550:../Dave/Generated/src/FATFS002/Src/ff.c **** 
 551:../Dave/Generated/src/FATFS002/Src/ff.c **** #elif _USE_LFN == 2 		/* LFN feature with dynamic working buffer on the stack */
 552:../Dave/Generated/src/FATFS002/Src/ff.c **** #define	DEF_NAMEBUF			BYTE sfn[12]; WCHAR lbuf[_MAX_LFN+1]
 553:../Dave/Generated/src/FATFS002/Src/ff.c **** #define INIT_BUF(dobj)		{ (dobj).fn = sfn; (dobj).lfn = lbuf; }
 554:../Dave/Generated/src/FATFS002/Src/ff.c **** #define	FREE_BUF()
 555:../Dave/Generated/src/FATFS002/Src/ff.c **** 
 556:../Dave/Generated/src/FATFS002/Src/ff.c **** #elif _USE_LFN == 3 		/* LFN feature with dynamic working buffer on the heap */
 557:../Dave/Generated/src/FATFS002/Src/ff.c **** #define	DEF_NAMEBUF			BYTE sfn[12]; WCHAR *lfn
 558:../Dave/Generated/src/FATFS002/Src/ff.c **** #define INIT_BUF(dobj)		{ lfn = ff_memalloc((_MAX_LFN + 1) * 2); \
 559:../Dave/Generated/src/FATFS002/Src/ff.c **** 							  if (!lfn) LEAVE_FF((dobj).fs, FR_NOT_ENOUGH_CORE); \
 560:../Dave/Generated/src/FATFS002/Src/ff.c **** 							  (dobj).lfn = lfn;	(dobj).fn = sfn; }
 561:../Dave/Generated/src/FATFS002/Src/ff.c **** #define	FREE_BUF()			ff_memfree(lfn)
 562:../Dave/Generated/src/FATFS002/Src/ff.c **** 
 563:../Dave/Generated/src/FATFS002/Src/ff.c **** #else
 564:../Dave/Generated/src/FATFS002/Src/ff.c **** #error Wrong LFN configuration.
 565:../Dave/Generated/src/FATFS002/Src/ff.c **** #endif
 566:../Dave/Generated/src/FATFS002/Src/ff.c **** 
 567:../Dave/Generated/src/FATFS002/Src/ff.c **** 
 568:../Dave/Generated/src/FATFS002/Src/ff.c **** 
 569:../Dave/Generated/src/FATFS002/Src/ff.c **** 
 570:../Dave/Generated/src/FATFS002/Src/ff.c **** /*--------------------------------------------------------------------------
 571:../Dave/Generated/src/FATFS002/Src/ff.c **** 
 572:../Dave/Generated/src/FATFS002/Src/ff.c ****    Module Private Functions
 573:../Dave/Generated/src/FATFS002/Src/ff.c **** 
 574:../Dave/Generated/src/FATFS002/Src/ff.c **** ---------------------------------------------------------------------------*/
 575:../Dave/Generated/src/FATFS002/Src/ff.c **** 
 576:../Dave/Generated/src/FATFS002/Src/ff.c **** 
 577:../Dave/Generated/src/FATFS002/Src/ff.c **** /*-----------------------------------------------------------------------*/
 578:../Dave/Generated/src/FATFS002/Src/ff.c **** /* String functions                                                      */
 579:../Dave/Generated/src/FATFS002/Src/ff.c **** /*-----------------------------------------------------------------------*/
 580:../Dave/Generated/src/FATFS002/Src/ff.c **** 
 581:../Dave/Generated/src/FATFS002/Src/ff.c **** /* Copy memory to memory */
 582:../Dave/Generated/src/FATFS002/Src/ff.c **** static
 583:../Dave/Generated/src/FATFS002/Src/ff.c **** void mem_cpy (void* dst, const void* src, UINT cnt) {
  36              		.loc 1 583 0
  37              		.cfi_startproc
  38              		@ args = 0, pretend = 0, frame = 24
  39              		@ frame_needed = 1, uses_anonymous_args = 0
  40              		@ link register save eliminated.
  41 0000 80B4     		push	{r7}
  42              	.LCFI0:
  43              		.cfi_def_cfa_offset 4
  44              		.cfi_offset 7, -4
  45 0002 87B0     		sub	sp, sp, #28
  46              	.LCFI1:
  47              		.cfi_def_cfa_offset 32
  48 0004 00AF     		add	r7, sp, #0
  49              	.LCFI2:
  50              		.cfi_def_cfa_register 7
  51 0006 F860     		str	r0, [r7, #12]
  52 0008 B960     		str	r1, [r7, #8]
  53 000a 7A60     		str	r2, [r7, #4]
 584:../Dave/Generated/src/FATFS002/Src/ff.c **** 	BYTE *d = (BYTE*)dst;
  54              		.loc 1 584 0
  55 000c FB68     		ldr	r3, [r7, #12]
  56 000e 7B61     		str	r3, [r7, #20]
 585:../Dave/Generated/src/FATFS002/Src/ff.c **** 	const BYTE *s = (const BYTE*)src;
  57              		.loc 1 585 0
  58 0010 BB68     		ldr	r3, [r7, #8]
  59 0012 3B61     		str	r3, [r7, #16]
 586:../Dave/Generated/src/FATFS002/Src/ff.c **** 
 587:../Dave/Generated/src/FATFS002/Src/ff.c **** #if _WORD_ACCESS == 1
 588:../Dave/Generated/src/FATFS002/Src/ff.c **** 	while (cnt >= sizeof(int)) {
 589:../Dave/Generated/src/FATFS002/Src/ff.c **** 		*(int*)d = *(int*)s;
 590:../Dave/Generated/src/FATFS002/Src/ff.c **** 		d += sizeof(int); s += sizeof(int);
 591:../Dave/Generated/src/FATFS002/Src/ff.c **** 		cnt -= sizeof(int);
 592:../Dave/Generated/src/FATFS002/Src/ff.c **** 	}
 593:../Dave/Generated/src/FATFS002/Src/ff.c **** #endif
 594:../Dave/Generated/src/FATFS002/Src/ff.c **** 	while (cnt--)
  60              		.loc 1 594 0
  61 0014 0BE0     		b	.L2
  62              	.L3:
 595:../Dave/Generated/src/FATFS002/Src/ff.c **** 		*d++ = *s++;
  63              		.loc 1 595 0
  64 0016 3B69     		ldr	r3, [r7, #16]
  65 0018 1A78     		ldrb	r2, [r3, #0]	@ zero_extendqisi2
  66 001a 7B69     		ldr	r3, [r7, #20]
  67 001c 1A70     		strb	r2, [r3, #0]
  68 001e 7B69     		ldr	r3, [r7, #20]
  69 0020 03F10103 		add	r3, r3, #1
  70 0024 7B61     		str	r3, [r7, #20]
  71 0026 3B69     		ldr	r3, [r7, #16]
  72 0028 03F10103 		add	r3, r3, #1
  73 002c 3B61     		str	r3, [r7, #16]
  74              	.L2:
 594:../Dave/Generated/src/FATFS002/Src/ff.c **** 	while (cnt--)
  75              		.loc 1 594 0 discriminator 1
  76 002e 7B68     		ldr	r3, [r7, #4]
  77 0030 002B     		cmp	r3, #0
  78 0032 0CBF     		ite	eq
  79 0034 0023     		moveq	r3, #0
  80 0036 0123     		movne	r3, #1
  81 0038 DBB2     		uxtb	r3, r3
  82 003a 7A68     		ldr	r2, [r7, #4]
  83 003c 02F1FF32 		add	r2, r2, #-1
  84 0040 7A60     		str	r2, [r7, #4]
  85 0042 002B     		cmp	r3, #0
  86 0044 E7D1     		bne	.L3
 596:../Dave/Generated/src/FATFS002/Src/ff.c **** }
  87              		.loc 1 596 0
  88 0046 07F11C07 		add	r7, r7, #28
  89 004a BD46     		mov	sp, r7
  90 004c 80BC     		pop	{r7}
  91 004e 7047     		bx	lr
  92              		.cfi_endproc
  93              	.LFE0:
  95              		.section	.text.mem_set,"ax",%progbits
  96              		.align	2
  97              		.thumb
  98              		.thumb_func
 100              	mem_set:
 101              	.LFB1:
 597:../Dave/Generated/src/FATFS002/Src/ff.c **** 
 598:../Dave/Generated/src/FATFS002/Src/ff.c **** /* Fill memory */
 599:../Dave/Generated/src/FATFS002/Src/ff.c **** static
 600:../Dave/Generated/src/FATFS002/Src/ff.c **** void mem_set (void* dst, int val, UINT cnt) {
 102              		.loc 1 600 0
 103              		.cfi_startproc
 104              		@ args = 0, pretend = 0, frame = 24
 105              		@ frame_needed = 1, uses_anonymous_args = 0
 106              		@ link register save eliminated.
 107 0000 80B4     		push	{r7}
 108              	.LCFI3:
 109              		.cfi_def_cfa_offset 4
 110              		.cfi_offset 7, -4
 111 0002 87B0     		sub	sp, sp, #28
 112              	.LCFI4:
 113              		.cfi_def_cfa_offset 32
 114 0004 00AF     		add	r7, sp, #0
 115              	.LCFI5:
 116              		.cfi_def_cfa_register 7
 117 0006 F860     		str	r0, [r7, #12]
 118 0008 B960     		str	r1, [r7, #8]
 119 000a 7A60     		str	r2, [r7, #4]
 601:../Dave/Generated/src/FATFS002/Src/ff.c **** 	BYTE *d = (BYTE*)dst;
 120              		.loc 1 601 0
 121 000c FB68     		ldr	r3, [r7, #12]
 122 000e 7B61     		str	r3, [r7, #20]
 602:../Dave/Generated/src/FATFS002/Src/ff.c **** 
 603:../Dave/Generated/src/FATFS002/Src/ff.c **** 	while (cnt--)
 123              		.loc 1 603 0
 124 0010 07E0     		b	.L5
 125              	.L6:
 604:../Dave/Generated/src/FATFS002/Src/ff.c **** 		*d++ = (BYTE)val;
 126              		.loc 1 604 0
 127 0012 BB68     		ldr	r3, [r7, #8]
 128 0014 DAB2     		uxtb	r2, r3
 129 0016 7B69     		ldr	r3, [r7, #20]
 130 0018 1A70     		strb	r2, [r3, #0]
 131 001a 7B69     		ldr	r3, [r7, #20]
 132 001c 03F10103 		add	r3, r3, #1
 133 0020 7B61     		str	r3, [r7, #20]
 134              	.L5:
 603:../Dave/Generated/src/FATFS002/Src/ff.c **** 	while (cnt--)
 135              		.loc 1 603 0 discriminator 1
 136 0022 7B68     		ldr	r3, [r7, #4]
 137 0024 002B     		cmp	r3, #0
 138 0026 0CBF     		ite	eq
 139 0028 0023     		moveq	r3, #0
 140 002a 0123     		movne	r3, #1
 141 002c DBB2     		uxtb	r3, r3
 142 002e 7A68     		ldr	r2, [r7, #4]
 143 0030 02F1FF32 		add	r2, r2, #-1
 144 0034 7A60     		str	r2, [r7, #4]
 145 0036 002B     		cmp	r3, #0
 146 0038 EBD1     		bne	.L6
 605:../Dave/Generated/src/FATFS002/Src/ff.c **** }
 147              		.loc 1 605 0
 148 003a 07F11C07 		add	r7, r7, #28
 149 003e BD46     		mov	sp, r7
 150 0040 80BC     		pop	{r7}
 151 0042 7047     		bx	lr
 152              		.cfi_endproc
 153              	.LFE1:
 155              		.section	.text.mem_cmp,"ax",%progbits
 156              		.align	2
 157              		.thumb
 158              		.thumb_func
 160              	mem_cmp:
 161              	.LFB2:
 606:../Dave/Generated/src/FATFS002/Src/ff.c **** 
 607:../Dave/Generated/src/FATFS002/Src/ff.c **** /* Compare memory to memory */
 608:../Dave/Generated/src/FATFS002/Src/ff.c **** static
 609:../Dave/Generated/src/FATFS002/Src/ff.c **** int mem_cmp (const void* dst, const void* src, UINT cnt) {
 162              		.loc 1 609 0
 163              		.cfi_startproc
 164              		@ args = 0, pretend = 0, frame = 32
 165              		@ frame_needed = 1, uses_anonymous_args = 0
 166              		@ link register save eliminated.
 167 0000 80B4     		push	{r7}
 168              	.LCFI6:
 169              		.cfi_def_cfa_offset 4
 170              		.cfi_offset 7, -4
 171 0002 89B0     		sub	sp, sp, #36
 172              	.LCFI7:
 173              		.cfi_def_cfa_offset 40
 174 0004 00AF     		add	r7, sp, #0
 175              	.LCFI8:
 176              		.cfi_def_cfa_register 7
 177 0006 F860     		str	r0, [r7, #12]
 178 0008 B960     		str	r1, [r7, #8]
 179 000a 7A60     		str	r2, [r7, #4]
 610:../Dave/Generated/src/FATFS002/Src/ff.c **** 	const BYTE *d = (const BYTE *)dst, *s = (const BYTE *)src;
 180              		.loc 1 610 0
 181 000c FB68     		ldr	r3, [r7, #12]
 182 000e FB61     		str	r3, [r7, #28]
 183 0010 BB68     		ldr	r3, [r7, #8]
 184 0012 BB61     		str	r3, [r7, #24]
 611:../Dave/Generated/src/FATFS002/Src/ff.c **** 	int r = 0;
 185              		.loc 1 611 0
 186 0014 4FF00003 		mov	r3, #0
 187 0018 7B61     		str	r3, [r7, #20]
 612:../Dave/Generated/src/FATFS002/Src/ff.c **** 
 613:../Dave/Generated/src/FATFS002/Src/ff.c **** 	while (cnt-- && (r = *d++ - *s++) == 0) ;
 188              		.loc 1 613 0
 189 001a 00BF     		nop
 190              	.L9:
 191              		.loc 1 613 0 is_stmt 0 discriminator 1
 192 001c 7B68     		ldr	r3, [r7, #4]
 193 001e 002B     		cmp	r3, #0
 194 0020 0CBF     		ite	eq
 195 0022 0023     		moveq	r3, #0
 196 0024 0123     		movne	r3, #1
 197 0026 DBB2     		uxtb	r3, r3
 198 0028 7A68     		ldr	r2, [r7, #4]
 199 002a 02F1FF32 		add	r2, r2, #-1
 200 002e 7A60     		str	r2, [r7, #4]
 201 0030 002B     		cmp	r3, #0
 202 0032 16D0     		beq	.L8
 203              		.loc 1 613 0 discriminator 2
 204 0034 FB69     		ldr	r3, [r7, #28]
 205 0036 1B78     		ldrb	r3, [r3, #0]	@ zero_extendqisi2
 206 0038 1A46     		mov	r2, r3
 207 003a BB69     		ldr	r3, [r7, #24]
 208 003c 1B78     		ldrb	r3, [r3, #0]	@ zero_extendqisi2
 209 003e D31A     		subs	r3, r2, r3
 210 0040 7B61     		str	r3, [r7, #20]
 211 0042 7B69     		ldr	r3, [r7, #20]
 212 0044 002B     		cmp	r3, #0
 213 0046 14BF     		ite	ne
 214 0048 0023     		movne	r3, #0
 215 004a 0123     		moveq	r3, #1
 216 004c DBB2     		uxtb	r3, r3
 217 004e FA69     		ldr	r2, [r7, #28]
 218 0050 02F10102 		add	r2, r2, #1
 219 0054 FA61     		str	r2, [r7, #28]
 220 0056 BA69     		ldr	r2, [r7, #24]
 221 0058 02F10102 		add	r2, r2, #1
 222 005c BA61     		str	r2, [r7, #24]
 223 005e 002B     		cmp	r3, #0
 224 0060 DCD1     		bne	.L9
 225              	.L8:
 614:../Dave/Generated/src/FATFS002/Src/ff.c **** 	return r;
 226              		.loc 1 614 0 is_stmt 1
 227 0062 7B69     		ldr	r3, [r7, #20]
 615:../Dave/Generated/src/FATFS002/Src/ff.c **** }
 228              		.loc 1 615 0
 229 0064 1846     		mov	r0, r3
 230 0066 07F12407 		add	r7, r7, #36
 231 006a BD46     		mov	sp, r7
 232 006c 80BC     		pop	{r7}
 233 006e 7047     		bx	lr
 234              		.cfi_endproc
 235              	.LFE2:
 237              		.section	.text.chk_chr,"ax",%progbits
 238              		.align	2
 239              		.thumb
 240              		.thumb_func
 242              	chk_chr:
 243              	.LFB3:
 616:../Dave/Generated/src/FATFS002/Src/ff.c **** 
 617:../Dave/Generated/src/FATFS002/Src/ff.c **** /* Check if chr is contained in the string */
 618:../Dave/Generated/src/FATFS002/Src/ff.c **** static
 619:../Dave/Generated/src/FATFS002/Src/ff.c **** int chk_chr (const char* str, int chr) {
 244              		.loc 1 619 0
 245              		.cfi_startproc
 246              		@ args = 0, pretend = 0, frame = 8
 247              		@ frame_needed = 1, uses_anonymous_args = 0
 248              		@ link register save eliminated.
 249 0000 80B4     		push	{r7}
 250              	.LCFI9:
 251              		.cfi_def_cfa_offset 4
 252              		.cfi_offset 7, -4
 253 0002 83B0     		sub	sp, sp, #12
 254              	.LCFI10:
 255              		.cfi_def_cfa_offset 16
 256 0004 00AF     		add	r7, sp, #0
 257              	.LCFI11:
 258              		.cfi_def_cfa_register 7
 259 0006 7860     		str	r0, [r7, #4]
 260 0008 3960     		str	r1, [r7, #0]
 620:../Dave/Generated/src/FATFS002/Src/ff.c **** 	while (*str && *str != chr) str++;
 261              		.loc 1 620 0
 262 000a 03E0     		b	.L12
 263              	.L14:
 264              		.loc 1 620 0 is_stmt 0 discriminator 1
 265 000c 7B68     		ldr	r3, [r7, #4]
 266 000e 03F10103 		add	r3, r3, #1
 267 0012 7B60     		str	r3, [r7, #4]
 268              	.L12:
 269 0014 7B68     		ldr	r3, [r7, #4]
 270 0016 1B78     		ldrb	r3, [r3, #0]	@ zero_extendqisi2
 271 0018 002B     		cmp	r3, #0
 272 001a 05D0     		beq	.L13
 273              		.loc 1 620 0 discriminator 2
 274 001c 7B68     		ldr	r3, [r7, #4]
 275 001e 1B78     		ldrb	r3, [r3, #0]	@ zero_extendqisi2
 276 0020 1A46     		mov	r2, r3
 277 0022 3B68     		ldr	r3, [r7, #0]
 278 0024 9A42     		cmp	r2, r3
 279 0026 F1D1     		bne	.L14
 280              	.L13:
 621:../Dave/Generated/src/FATFS002/Src/ff.c **** 	return *str;
 281              		.loc 1 621 0 is_stmt 1
 282 0028 7B68     		ldr	r3, [r7, #4]
 283 002a 1B78     		ldrb	r3, [r3, #0]	@ zero_extendqisi2
 622:../Dave/Generated/src/FATFS002/Src/ff.c **** }
 284              		.loc 1 622 0
 285 002c 1846     		mov	r0, r3
 286 002e 07F10C07 		add	r7, r7, #12
 287 0032 BD46     		mov	sp, r7
 288 0034 80BC     		pop	{r7}
 289 0036 7047     		bx	lr
 290              		.cfi_endproc
 291              	.LFE3:
 293              		.section	.text.move_window,"ax",%progbits
 294              		.align	2
 295              		.thumb
 296              		.thumb_func
 298              	move_window:
 299              	.LFB4:
 623:../Dave/Generated/src/FATFS002/Src/ff.c **** 
 624:../Dave/Generated/src/FATFS002/Src/ff.c **** 
 625:../Dave/Generated/src/FATFS002/Src/ff.c **** 
 626:../Dave/Generated/src/FATFS002/Src/ff.c **** /*-----------------------------------------------------------------------*/
 627:../Dave/Generated/src/FATFS002/Src/ff.c **** /* Request/Release grant to access the volume                            */
 628:../Dave/Generated/src/FATFS002/Src/ff.c **** /*-----------------------------------------------------------------------*/
 629:../Dave/Generated/src/FATFS002/Src/ff.c **** #if _FS_REENTRANT
 630:../Dave/Generated/src/FATFS002/Src/ff.c **** 
 631:../Dave/Generated/src/FATFS002/Src/ff.c **** static
 632:../Dave/Generated/src/FATFS002/Src/ff.c **** int lock_fs (
 633:../Dave/Generated/src/FATFS002/Src/ff.c **** 	FATFS *fs		/* File system object */
 634:../Dave/Generated/src/FATFS002/Src/ff.c **** )
 635:../Dave/Generated/src/FATFS002/Src/ff.c **** {
 636:../Dave/Generated/src/FATFS002/Src/ff.c **** 	return ff_req_grant(fs->sobj);
 637:../Dave/Generated/src/FATFS002/Src/ff.c **** }
 638:../Dave/Generated/src/FATFS002/Src/ff.c **** 
 639:../Dave/Generated/src/FATFS002/Src/ff.c **** 
 640:../Dave/Generated/src/FATFS002/Src/ff.c **** static
 641:../Dave/Generated/src/FATFS002/Src/ff.c **** void unlock_fs (
 642:../Dave/Generated/src/FATFS002/Src/ff.c **** 	FATFS *fs,		/* File system object */
 643:../Dave/Generated/src/FATFS002/Src/ff.c **** 	FRESULT res		/* Result code to be returned */
 644:../Dave/Generated/src/FATFS002/Src/ff.c **** )
 645:../Dave/Generated/src/FATFS002/Src/ff.c **** {
 646:../Dave/Generated/src/FATFS002/Src/ff.c **** 	if (res != FR_NOT_ENABLED &&
 647:../Dave/Generated/src/FATFS002/Src/ff.c **** 		res != FR_INVALID_DRIVE &&
 648:../Dave/Generated/src/FATFS002/Src/ff.c **** 		res != FR_INVALID_OBJECT &&
 649:../Dave/Generated/src/FATFS002/Src/ff.c **** 		res != FR_TIMEOUT) {
 650:../Dave/Generated/src/FATFS002/Src/ff.c **** 		ff_rel_grant(fs->sobj);
 651:../Dave/Generated/src/FATFS002/Src/ff.c **** 	}
 652:../Dave/Generated/src/FATFS002/Src/ff.c **** }
 653:../Dave/Generated/src/FATFS002/Src/ff.c **** #endif
 654:../Dave/Generated/src/FATFS002/Src/ff.c **** 
 655:../Dave/Generated/src/FATFS002/Src/ff.c **** 
 656:../Dave/Generated/src/FATFS002/Src/ff.c **** 
 657:../Dave/Generated/src/FATFS002/Src/ff.c **** /*-----------------------------------------------------------------------*/
 658:../Dave/Generated/src/FATFS002/Src/ff.c **** /* File shareing control functions                                       */
 659:../Dave/Generated/src/FATFS002/Src/ff.c **** /*-----------------------------------------------------------------------*/
 660:../Dave/Generated/src/FATFS002/Src/ff.c **** #if _FS_SHARE
 661:../Dave/Generated/src/FATFS002/Src/ff.c **** 
 662:../Dave/Generated/src/FATFS002/Src/ff.c **** static
 663:../Dave/Generated/src/FATFS002/Src/ff.c **** FRESULT chk_lock (	/* Check if the file can be accessed */
 664:../Dave/Generated/src/FATFS002/Src/ff.c **** 	DIR* dj,		/* Directory object pointing the file to be checked */
 665:../Dave/Generated/src/FATFS002/Src/ff.c **** 	int acc			/* Desired access (0:Read, 1:Write, 2:Delete/Rename) */
 666:../Dave/Generated/src/FATFS002/Src/ff.c **** )
 667:../Dave/Generated/src/FATFS002/Src/ff.c **** {
 668:../Dave/Generated/src/FATFS002/Src/ff.c **** 	UINT i, be;
 669:../Dave/Generated/src/FATFS002/Src/ff.c **** 
 670:../Dave/Generated/src/FATFS002/Src/ff.c **** 	/* Search file semaphore table */
 671:../Dave/Generated/src/FATFS002/Src/ff.c **** 	for (i = be = 0; i < _FS_SHARE; i++) {
 672:../Dave/Generated/src/FATFS002/Src/ff.c **** 		if (Files[i].fs) {	/* Existing entry */
 673:../Dave/Generated/src/FATFS002/Src/ff.c **** 			if (Files[i].fs == dj->fs &&	 	/* Check if the file matched with an open file */
 674:../Dave/Generated/src/FATFS002/Src/ff.c **** 				Files[i].clu == dj->sclust &&
 675:../Dave/Generated/src/FATFS002/Src/ff.c **** 				Files[i].idx == dj->index) break;
 676:../Dave/Generated/src/FATFS002/Src/ff.c **** 		} else {			/* Blank entry */
 677:../Dave/Generated/src/FATFS002/Src/ff.c **** 			be++;
 678:../Dave/Generated/src/FATFS002/Src/ff.c **** 		}
 679:../Dave/Generated/src/FATFS002/Src/ff.c **** 	}
 680:../Dave/Generated/src/FATFS002/Src/ff.c **** 	if (i == _FS_SHARE)	/* The file is not opened */
 681:../Dave/Generated/src/FATFS002/Src/ff.c **** 		return (be || acc == 2) ? FR_OK : FR_TOO_MANY_OPEN_FILES;	/* Is there a blank entry for new file?
 682:../Dave/Generated/src/FATFS002/Src/ff.c **** 
 683:../Dave/Generated/src/FATFS002/Src/ff.c **** 	/* The file has been opened. Reject any open against writing file and all write mode open */
 684:../Dave/Generated/src/FATFS002/Src/ff.c **** 	return (acc || Files[i].ctr == 0x100) ? FR_LOCKED : FR_OK;
 685:../Dave/Generated/src/FATFS002/Src/ff.c **** }
 686:../Dave/Generated/src/FATFS002/Src/ff.c **** 
 687:../Dave/Generated/src/FATFS002/Src/ff.c **** 
 688:../Dave/Generated/src/FATFS002/Src/ff.c **** static
 689:../Dave/Generated/src/FATFS002/Src/ff.c **** int enq_lock (void)	/* Check if an entry is available for a new file */
 690:../Dave/Generated/src/FATFS002/Src/ff.c **** {
 691:../Dave/Generated/src/FATFS002/Src/ff.c **** 	UINT i;
 692:../Dave/Generated/src/FATFS002/Src/ff.c **** 
 693:../Dave/Generated/src/FATFS002/Src/ff.c **** 	for (i = 0; i < _FS_SHARE && Files[i].fs; i++) ;
 694:../Dave/Generated/src/FATFS002/Src/ff.c **** 	return (i == _FS_SHARE) ? 0 : 1;
 695:../Dave/Generated/src/FATFS002/Src/ff.c **** }
 696:../Dave/Generated/src/FATFS002/Src/ff.c **** 
 697:../Dave/Generated/src/FATFS002/Src/ff.c **** 
 698:../Dave/Generated/src/FATFS002/Src/ff.c **** static
 699:../Dave/Generated/src/FATFS002/Src/ff.c **** UINT inc_lock (	/* Increment file open counter and returns its index (0:int error) */
 700:../Dave/Generated/src/FATFS002/Src/ff.c **** 	DIR* dj,	/* Directory object pointing the file to register or increment */
 701:../Dave/Generated/src/FATFS002/Src/ff.c **** 	int acc		/* Desired access mode (0:Read, !0:Write) */
 702:../Dave/Generated/src/FATFS002/Src/ff.c **** )
 703:../Dave/Generated/src/FATFS002/Src/ff.c **** {
 704:../Dave/Generated/src/FATFS002/Src/ff.c **** 	UINT i;
 705:../Dave/Generated/src/FATFS002/Src/ff.c **** 
 706:../Dave/Generated/src/FATFS002/Src/ff.c **** 
 707:../Dave/Generated/src/FATFS002/Src/ff.c **** 	for (i = 0; i < _FS_SHARE; i++) {	/* Find the file */
 708:../Dave/Generated/src/FATFS002/Src/ff.c **** 		if (Files[i].fs == dj->fs &&
 709:../Dave/Generated/src/FATFS002/Src/ff.c **** 			Files[i].clu == dj->sclust &&
 710:../Dave/Generated/src/FATFS002/Src/ff.c **** 			Files[i].idx == dj->index) break;
 711:../Dave/Generated/src/FATFS002/Src/ff.c **** 	}
 712:../Dave/Generated/src/FATFS002/Src/ff.c **** 
 713:../Dave/Generated/src/FATFS002/Src/ff.c **** 	if (i == _FS_SHARE) {				/* Not opened. Register it as new. */
 714:../Dave/Generated/src/FATFS002/Src/ff.c **** 		for (i = 0; i < _FS_SHARE && Files[i].fs; i++) ;
 715:../Dave/Generated/src/FATFS002/Src/ff.c **** 		if (i == _FS_SHARE) return 0;	/* No space to register (int err) */
 716:../Dave/Generated/src/FATFS002/Src/ff.c **** 		Files[i].fs = dj->fs;
 717:../Dave/Generated/src/FATFS002/Src/ff.c **** 		Files[i].clu = dj->sclust;
 718:../Dave/Generated/src/FATFS002/Src/ff.c **** 		Files[i].idx = dj->index;
 719:../Dave/Generated/src/FATFS002/Src/ff.c **** 		Files[i].ctr = 0;
 720:../Dave/Generated/src/FATFS002/Src/ff.c **** 	}
 721:../Dave/Generated/src/FATFS002/Src/ff.c **** 
 722:../Dave/Generated/src/FATFS002/Src/ff.c **** 	if (acc && Files[i].ctr) return 0;	/* Access violation (int err) */
 723:../Dave/Generated/src/FATFS002/Src/ff.c **** 
 724:../Dave/Generated/src/FATFS002/Src/ff.c **** 	Files[i].ctr = acc ? 0x100 : Files[i].ctr + 1;	/* Set semaphore value */
 725:../Dave/Generated/src/FATFS002/Src/ff.c **** 
 726:../Dave/Generated/src/FATFS002/Src/ff.c **** 	return i + 1;
 727:../Dave/Generated/src/FATFS002/Src/ff.c **** }
 728:../Dave/Generated/src/FATFS002/Src/ff.c **** 
 729:../Dave/Generated/src/FATFS002/Src/ff.c **** 
 730:../Dave/Generated/src/FATFS002/Src/ff.c **** static
 731:../Dave/Generated/src/FATFS002/Src/ff.c **** FRESULT dec_lock (	/* Decrement file open counter */
 732:../Dave/Generated/src/FATFS002/Src/ff.c **** 	UINT i			/* Semaphore index */
 733:../Dave/Generated/src/FATFS002/Src/ff.c **** )
 734:../Dave/Generated/src/FATFS002/Src/ff.c **** {
 735:../Dave/Generated/src/FATFS002/Src/ff.c **** 	WORD n;
 736:../Dave/Generated/src/FATFS002/Src/ff.c **** 	FRESULT res;
 737:../Dave/Generated/src/FATFS002/Src/ff.c **** 
 738:../Dave/Generated/src/FATFS002/Src/ff.c **** 
 739:../Dave/Generated/src/FATFS002/Src/ff.c **** 	if (--i < _FS_SHARE) {
 740:../Dave/Generated/src/FATFS002/Src/ff.c **** 		n = Files[i].ctr;
 741:../Dave/Generated/src/FATFS002/Src/ff.c **** 		if (n == 0x100) n = 0;
 742:../Dave/Generated/src/FATFS002/Src/ff.c **** 		if (n) n--;
 743:../Dave/Generated/src/FATFS002/Src/ff.c **** 		Files[i].ctr = n;
 744:../Dave/Generated/src/FATFS002/Src/ff.c **** 		if (!n) Files[i].fs = 0;
 745:../Dave/Generated/src/FATFS002/Src/ff.c **** 		res = FR_OK;
 746:../Dave/Generated/src/FATFS002/Src/ff.c **** 	} else {
 747:../Dave/Generated/src/FATFS002/Src/ff.c **** 		res = FR_INT_ERR;
 748:../Dave/Generated/src/FATFS002/Src/ff.c **** 	}
 749:../Dave/Generated/src/FATFS002/Src/ff.c **** 	return res;
 750:../Dave/Generated/src/FATFS002/Src/ff.c **** }
 751:../Dave/Generated/src/FATFS002/Src/ff.c **** 
 752:../Dave/Generated/src/FATFS002/Src/ff.c **** 
 753:../Dave/Generated/src/FATFS002/Src/ff.c **** static
 754:../Dave/Generated/src/FATFS002/Src/ff.c **** void clear_lock (	/* Clear lock entries of the volume */
 755:../Dave/Generated/src/FATFS002/Src/ff.c **** 	FATFS *fs
 756:../Dave/Generated/src/FATFS002/Src/ff.c **** )
 757:../Dave/Generated/src/FATFS002/Src/ff.c **** {
 758:../Dave/Generated/src/FATFS002/Src/ff.c **** 	UINT i;
 759:../Dave/Generated/src/FATFS002/Src/ff.c **** 
 760:../Dave/Generated/src/FATFS002/Src/ff.c **** 	for (i = 0; i < _FS_SHARE; i++) {
 761:../Dave/Generated/src/FATFS002/Src/ff.c **** 		if (Files[i].fs == fs) Files[i].fs = 0;
 762:../Dave/Generated/src/FATFS002/Src/ff.c **** 	}
 763:../Dave/Generated/src/FATFS002/Src/ff.c **** }
 764:../Dave/Generated/src/FATFS002/Src/ff.c **** #endif
 765:../Dave/Generated/src/FATFS002/Src/ff.c **** 
 766:../Dave/Generated/src/FATFS002/Src/ff.c **** 
 767:../Dave/Generated/src/FATFS002/Src/ff.c **** 
 768:../Dave/Generated/src/FATFS002/Src/ff.c **** /*-----------------------------------------------------------------------*/
 769:../Dave/Generated/src/FATFS002/Src/ff.c **** /* Change window offset                                                  */
 770:../Dave/Generated/src/FATFS002/Src/ff.c **** /*-----------------------------------------------------------------------*/
 771:../Dave/Generated/src/FATFS002/Src/ff.c **** 
 772:../Dave/Generated/src/FATFS002/Src/ff.c **** static
 773:../Dave/Generated/src/FATFS002/Src/ff.c **** FRESULT move_window (
 774:../Dave/Generated/src/FATFS002/Src/ff.c **** 	FATFS *fs,		/* File system object */
 775:../Dave/Generated/src/FATFS002/Src/ff.c **** 	DWORD sector	/* Sector number to make appearance in the fs->win[] */
 776:../Dave/Generated/src/FATFS002/Src/ff.c **** )					/* Move to zero only writes back dirty window */
 777:../Dave/Generated/src/FATFS002/Src/ff.c **** {
 300              		.loc 1 777 0
 301              		.cfi_startproc
 302              		@ args = 0, pretend = 0, frame = 16
 303              		@ frame_needed = 1, uses_anonymous_args = 0
 304 0000 80B5     		push	{r7, lr}
 305              	.LCFI12:
 306              		.cfi_def_cfa_offset 8
 307              		.cfi_offset 7, -8
 308              		.cfi_offset 14, -4
 309 0002 84B0     		sub	sp, sp, #16
 310              	.LCFI13:
 311              		.cfi_def_cfa_offset 24
 312 0004 00AF     		add	r7, sp, #0
 313              	.LCFI14:
 314              		.cfi_def_cfa_register 7
 315 0006 7860     		str	r0, [r7, #4]
 316 0008 3960     		str	r1, [r7, #0]
 778:../Dave/Generated/src/FATFS002/Src/ff.c **** 	DWORD wsect;
 779:../Dave/Generated/src/FATFS002/Src/ff.c **** 
 780:../Dave/Generated/src/FATFS002/Src/ff.c **** 
 781:../Dave/Generated/src/FATFS002/Src/ff.c **** 	wsect = fs->winsect;
 317              		.loc 1 781 0
 318 000a 7B68     		ldr	r3, [r7, #4]
 319 000c 1B6B     		ldr	r3, [r3, #48]
 320 000e FB60     		str	r3, [r7, #12]
 782:../Dave/Generated/src/FATFS002/Src/ff.c **** 	if (wsect != sector) {	/* Changed current window */
 321              		.loc 1 782 0
 322 0010 FA68     		ldr	r2, [r7, #12]
 323 0012 3B68     		ldr	r3, [r7, #0]
 324 0014 9A42     		cmp	r2, r3
 325 0016 55D0     		beq	.L17
 783:../Dave/Generated/src/FATFS002/Src/ff.c **** #if !_FS_READONLY
 784:../Dave/Generated/src/FATFS002/Src/ff.c **** 		if (fs->wflag) {	/* Write back dirty window if needed */
 326              		.loc 1 784 0
 327 0018 7B68     		ldr	r3, [r7, #4]
 328 001a 1B79     		ldrb	r3, [r3, #4]	@ zero_extendqisi2
 329 001c 002B     		cmp	r3, #0
 330 001e 39D0     		beq	.L18
 785:../Dave/Generated/src/FATFS002/Src/ff.c **** 			if (disk_write(fs->drv, fs->win, wsect, 1) != RES_OK)
 331              		.loc 1 785 0
 332 0020 7B68     		ldr	r3, [r7, #4]
 333 0022 5A78     		ldrb	r2, [r3, #1]	@ zero_extendqisi2
 334 0024 7B68     		ldr	r3, [r7, #4]
 335 0026 03F13403 		add	r3, r3, #52
 336 002a 1046     		mov	r0, r2
 337 002c 1946     		mov	r1, r3
 338 002e FA68     		ldr	r2, [r7, #12]
 339 0030 4FF00103 		mov	r3, #1
 340 0034 FFF7FEFF 		bl	disk_write
 341 0038 0346     		mov	r3, r0
 342 003a 002B     		cmp	r3, #0
 343 003c 02D0     		beq	.L19
 786:../Dave/Generated/src/FATFS002/Src/ff.c **** 				return FR_DISK_ERR;
 344              		.loc 1 786 0
 345 003e 4FF00103 		mov	r3, #1
 346 0042 41E0     		b	.L20
 347              	.L19:
 787:../Dave/Generated/src/FATFS002/Src/ff.c **** 			fs->wflag = 0;
 348              		.loc 1 787 0
 349 0044 7B68     		ldr	r3, [r7, #4]
 350 0046 4FF00002 		mov	r2, #0
 351 004a 1A71     		strb	r2, [r3, #4]
 788:../Dave/Generated/src/FATFS002/Src/ff.c **** 			if (wsect < (fs->fatbase + fs->fsize)) {	/* In FAT area */
 352              		.loc 1 788 0
 353 004c 7B68     		ldr	r3, [r7, #4]
 354 004e 5A6A     		ldr	r2, [r3, #36]
 355 0050 7B68     		ldr	r3, [r7, #4]
 356 0052 1B6A     		ldr	r3, [r3, #32]
 357 0054 D218     		adds	r2, r2, r3
 358 0056 FB68     		ldr	r3, [r7, #12]
 359 0058 9A42     		cmp	r2, r3
 360 005a 1BD9     		bls	.L18
 361              	.LBB2:
 789:../Dave/Generated/src/FATFS002/Src/ff.c **** 				BYTE nf;
 790:../Dave/Generated/src/FATFS002/Src/ff.c **** 				for (nf = fs->n_fats; nf > 1; nf--) {	/* Reflect the change to all FAT copies */
 362              		.loc 1 790 0
 363 005c 7B68     		ldr	r3, [r7, #4]
 364 005e DB78     		ldrb	r3, [r3, #3]
 365 0060 FB72     		strb	r3, [r7, #11]
 366 0062 14E0     		b	.L21
 367              	.L22:
 791:../Dave/Generated/src/FATFS002/Src/ff.c **** 					wsect += fs->fsize;
 368              		.loc 1 791 0 discriminator 2
 369 0064 7B68     		ldr	r3, [r7, #4]
 370 0066 1B6A     		ldr	r3, [r3, #32]
 371 0068 FA68     		ldr	r2, [r7, #12]
 372 006a D318     		adds	r3, r2, r3
 373 006c FB60     		str	r3, [r7, #12]
 792:../Dave/Generated/src/FATFS002/Src/ff.c **** 					disk_write(fs->drv, fs->win, wsect, 1);
 374              		.loc 1 792 0 discriminator 2
 375 006e 7B68     		ldr	r3, [r7, #4]
 376 0070 5A78     		ldrb	r2, [r3, #1]	@ zero_extendqisi2
 377 0072 7B68     		ldr	r3, [r7, #4]
 378 0074 03F13403 		add	r3, r3, #52
 379 0078 1046     		mov	r0, r2
 380 007a 1946     		mov	r1, r3
 381 007c FA68     		ldr	r2, [r7, #12]
 382 007e 4FF00103 		mov	r3, #1
 383 0082 FFF7FEFF 		bl	disk_write
 790:../Dave/Generated/src/FATFS002/Src/ff.c **** 				for (nf = fs->n_fats; nf > 1; nf--) {	/* Reflect the change to all FAT copies */
 384              		.loc 1 790 0 discriminator 2
 385 0086 FB7A     		ldrb	r3, [r7, #11]
 386 0088 03F1FF33 		add	r3, r3, #-1
 387 008c FB72     		strb	r3, [r7, #11]
 388              	.L21:
 790:../Dave/Generated/src/FATFS002/Src/ff.c **** 				for (nf = fs->n_fats; nf > 1; nf--) {	/* Reflect the change to all FAT copies */
 389              		.loc 1 790 0 is_stmt 0 discriminator 1
 390 008e FB7A     		ldrb	r3, [r7, #11]	@ zero_extendqisi2
 391 0090 012B     		cmp	r3, #1
 392 0092 E7D8     		bhi	.L22
 393              	.L18:
 394              	.LBE2:
 793:../Dave/Generated/src/FATFS002/Src/ff.c **** 				}
 794:../Dave/Generated/src/FATFS002/Src/ff.c **** 			}
 795:../Dave/Generated/src/FATFS002/Src/ff.c **** 		}
 796:../Dave/Generated/src/FATFS002/Src/ff.c **** #endif
 797:../Dave/Generated/src/FATFS002/Src/ff.c **** 		if (sector) {
 395              		.loc 1 797 0 is_stmt 1
 396 0094 3B68     		ldr	r3, [r7, #0]
 397 0096 002B     		cmp	r3, #0
 398 0098 14D0     		beq	.L17
 798:../Dave/Generated/src/FATFS002/Src/ff.c **** 			if (disk_read(fs->drv, fs->win, sector, 1) != RES_OK)
 399              		.loc 1 798 0
 400 009a 7B68     		ldr	r3, [r7, #4]
 401 009c 5A78     		ldrb	r2, [r3, #1]	@ zero_extendqisi2
 402 009e 7B68     		ldr	r3, [r7, #4]
 403 00a0 03F13403 		add	r3, r3, #52
 404 00a4 1046     		mov	r0, r2
 405 00a6 1946     		mov	r1, r3
 406 00a8 3A68     		ldr	r2, [r7, #0]
 407 00aa 4FF00103 		mov	r3, #1
 408 00ae FFF7FEFF 		bl	disk_read
 409 00b2 0346     		mov	r3, r0
 410 00b4 002B     		cmp	r3, #0
 411 00b6 02D0     		beq	.L23
 799:../Dave/Generated/src/FATFS002/Src/ff.c **** 				return FR_DISK_ERR;
 412              		.loc 1 799 0
 413 00b8 4FF00103 		mov	r3, #1
 414 00bc 04E0     		b	.L20
 415              	.L23:
 800:../Dave/Generated/src/FATFS002/Src/ff.c **** 			fs->winsect = sector;
 416              		.loc 1 800 0
 417 00be 7B68     		ldr	r3, [r7, #4]
 418 00c0 3A68     		ldr	r2, [r7, #0]
 419 00c2 1A63     		str	r2, [r3, #48]
 420              	.L17:
 801:../Dave/Generated/src/FATFS002/Src/ff.c **** 		}
 802:../Dave/Generated/src/FATFS002/Src/ff.c **** 	}
 803:../Dave/Generated/src/FATFS002/Src/ff.c **** 
 804:../Dave/Generated/src/FATFS002/Src/ff.c **** 	return FR_OK;
 421              		.loc 1 804 0
 422 00c4 4FF00003 		mov	r3, #0
 423              	.L20:
 805:../Dave/Generated/src/FATFS002/Src/ff.c **** }
 424              		.loc 1 805 0
 425 00c8 1846     		mov	r0, r3
 426 00ca 07F11007 		add	r7, r7, #16
 427 00ce BD46     		mov	sp, r7
 428 00d0 80BD     		pop	{r7, pc}
 429              		.cfi_endproc
 430              	.LFE4:
 432 00d2 00BF     		.section	.text.sync,"ax",%progbits
 433              		.align	2
 434              		.thumb
 435              		.thumb_func
 437              	sync:
 438              	.LFB5:
 806:../Dave/Generated/src/FATFS002/Src/ff.c **** 
 807:../Dave/Generated/src/FATFS002/Src/ff.c **** 
 808:../Dave/Generated/src/FATFS002/Src/ff.c **** 
 809:../Dave/Generated/src/FATFS002/Src/ff.c **** 
 810:../Dave/Generated/src/FATFS002/Src/ff.c **** /*-----------------------------------------------------------------------*/
 811:../Dave/Generated/src/FATFS002/Src/ff.c **** /* Clean-up cached data                                                  */
 812:../Dave/Generated/src/FATFS002/Src/ff.c **** /*-----------------------------------------------------------------------*/
 813:../Dave/Generated/src/FATFS002/Src/ff.c **** #if !_FS_READONLY
 814:../Dave/Generated/src/FATFS002/Src/ff.c **** static
 815:../Dave/Generated/src/FATFS002/Src/ff.c **** FRESULT sync (	/* FR_OK: successful, FR_DISK_ERR: failed */
 816:../Dave/Generated/src/FATFS002/Src/ff.c **** 	FATFS *fs	/* File system object */
 817:../Dave/Generated/src/FATFS002/Src/ff.c **** )
 818:../Dave/Generated/src/FATFS002/Src/ff.c **** {
 439              		.loc 1 818 0
 440              		.cfi_startproc
 441              		@ args = 0, pretend = 0, frame = 16
 442              		@ frame_needed = 1, uses_anonymous_args = 0
 443 0000 80B5     		push	{r7, lr}
 444              	.LCFI15:
 445              		.cfi_def_cfa_offset 8
 446              		.cfi_offset 7, -8
 447              		.cfi_offset 14, -4
 448 0002 84B0     		sub	sp, sp, #16
 449              	.LCFI16:
 450              		.cfi_def_cfa_offset 24
 451 0004 00AF     		add	r7, sp, #0
 452              	.LCFI17:
 453              		.cfi_def_cfa_register 7
 454 0006 7860     		str	r0, [r7, #4]
 819:../Dave/Generated/src/FATFS002/Src/ff.c **** 	FRESULT res;
 820:../Dave/Generated/src/FATFS002/Src/ff.c **** 
 821:../Dave/Generated/src/FATFS002/Src/ff.c **** 
 822:../Dave/Generated/src/FATFS002/Src/ff.c **** 	res = move_window(fs, 0);
 455              		.loc 1 822 0
 456 0008 7868     		ldr	r0, [r7, #4]
 457 000a 4FF00001 		mov	r1, #0
 458 000e FFF7FEFF 		bl	move_window
 459 0012 0346     		mov	r3, r0
 460 0014 FB73     		strb	r3, [r7, #15]
 823:../Dave/Generated/src/FATFS002/Src/ff.c **** 	if (res == FR_OK) {
 461              		.loc 1 823 0
 462 0016 FB7B     		ldrb	r3, [r7, #15]	@ zero_extendqisi2
 463 0018 002B     		cmp	r3, #0
 464 001a 40F0AB80 		bne	.L25
 824:../Dave/Generated/src/FATFS002/Src/ff.c **** 		/* Update FSInfo sector if needed */
 825:../Dave/Generated/src/FATFS002/Src/ff.c **** 		if (fs->fs_type == FS_FAT32 && fs->fsi_flag) {
 465              		.loc 1 825 0
 466 001e 7B68     		ldr	r3, [r7, #4]
 467 0020 1B78     		ldrb	r3, [r3, #0]	@ zero_extendqisi2
 468 0022 032B     		cmp	r3, #3
 469 0024 40F09780 		bne	.L26
 470              		.loc 1 825 0 is_stmt 0 discriminator 1
 471 0028 7B68     		ldr	r3, [r7, #4]
 472 002a 5B79     		ldrb	r3, [r3, #5]	@ zero_extendqisi2
 473 002c 002B     		cmp	r3, #0
 474 002e 00F09280 		beq	.L26
 826:../Dave/Generated/src/FATFS002/Src/ff.c **** 			fs->winsect = 0;
 475              		.loc 1 826 0 is_stmt 1
 476 0032 7B68     		ldr	r3, [r7, #4]
 477 0034 4FF00002 		mov	r2, #0
 478 0038 1A63     		str	r2, [r3, #48]
 827:../Dave/Generated/src/FATFS002/Src/ff.c **** 			/* Create FSInfo structure */
 828:../Dave/Generated/src/FATFS002/Src/ff.c **** 			mem_set(fs->win, 0, 512);
 479              		.loc 1 828 0
 480 003a 7B68     		ldr	r3, [r7, #4]
 481 003c 03F13403 		add	r3, r3, #52
 482 0040 1846     		mov	r0, r3
 483 0042 4FF00001 		mov	r1, #0
 484 0046 4FF40072 		mov	r2, #512
 485 004a FFF7FEFF 		bl	mem_set
 829:../Dave/Generated/src/FATFS002/Src/ff.c **** 			ST_WORD(fs->win+BS_55AA, 0xAA55);
 486              		.loc 1 829 0
 487 004e 7B68     		ldr	r3, [r7, #4]
 488 0050 4FF05502 		mov	r2, #85
 489 0054 83F83222 		strb	r2, [r3, #562]
 490 0058 7B68     		ldr	r3, [r7, #4]
 491 005a 4FF0AA02 		mov	r2, #170
 492 005e 83F83322 		strb	r2, [r3, #563]
 830:../Dave/Generated/src/FATFS002/Src/ff.c **** 			ST_DWORD(fs->win+FSI_LeadSig, 0x41615252);
 493              		.loc 1 830 0
 494 0062 7B68     		ldr	r3, [r7, #4]
 495 0064 4FF05202 		mov	r2, #82
 496 0068 83F83420 		strb	r2, [r3, #52]
 497 006c 7B68     		ldr	r3, [r7, #4]
 498 006e 4FF05202 		mov	r2, #82
 499 0072 83F83520 		strb	r2, [r3, #53]
 500 0076 7B68     		ldr	r3, [r7, #4]
 501 0078 4FF06102 		mov	r2, #97
 502 007c 83F83620 		strb	r2, [r3, #54]
 503 0080 7B68     		ldr	r3, [r7, #4]
 504 0082 4FF04102 		mov	r2, #65
 505 0086 83F83720 		strb	r2, [r3, #55]
 831:../Dave/Generated/src/FATFS002/Src/ff.c **** 			ST_DWORD(fs->win+FSI_StrucSig, 0x61417272);
 506              		.loc 1 831 0
 507 008a 7B68     		ldr	r3, [r7, #4]
 508 008c 4FF07202 		mov	r2, #114
 509 0090 83F81822 		strb	r2, [r3, #536]
 510 0094 7B68     		ldr	r3, [r7, #4]
 511 0096 4FF07202 		mov	r2, #114
 512 009a 83F81922 		strb	r2, [r3, #537]
 513 009e 7B68     		ldr	r3, [r7, #4]
 514 00a0 4FF04102 		mov	r2, #65
 515 00a4 83F81A22 		strb	r2, [r3, #538]
 516 00a8 7B68     		ldr	r3, [r7, #4]
 517 00aa 4FF06102 		mov	r2, #97
 518 00ae 83F81B22 		strb	r2, [r3, #539]
 832:../Dave/Generated/src/FATFS002/Src/ff.c **** 			ST_DWORD(fs->win+FSI_Free_Count, fs->free_clust);
 519              		.loc 1 832 0
 520 00b2 7B68     		ldr	r3, [r7, #4]
 521 00b4 1B69     		ldr	r3, [r3, #16]
 522 00b6 DAB2     		uxtb	r2, r3
 523 00b8 7B68     		ldr	r3, [r7, #4]
 524 00ba 83F81C22 		strb	r2, [r3, #540]
 525 00be 7B68     		ldr	r3, [r7, #4]
 526 00c0 1B69     		ldr	r3, [r3, #16]
 527 00c2 9BB2     		uxth	r3, r3
 528 00c4 4FEA1323 		lsr	r3, r3, #8
 529 00c8 9BB2     		uxth	r3, r3
 530 00ca DAB2     		uxtb	r2, r3
 531 00cc 7B68     		ldr	r3, [r7, #4]
 532 00ce 83F81D22 		strb	r2, [r3, #541]
 533 00d2 7B68     		ldr	r3, [r7, #4]
 534 00d4 1B69     		ldr	r3, [r3, #16]
 535 00d6 4FEA1343 		lsr	r3, r3, #16
 536 00da DAB2     		uxtb	r2, r3
 537 00dc 7B68     		ldr	r3, [r7, #4]
 538 00de 83F81E22 		strb	r2, [r3, #542]
 539 00e2 7B68     		ldr	r3, [r7, #4]
 540 00e4 1B69     		ldr	r3, [r3, #16]
 541 00e6 4FEA1363 		lsr	r3, r3, #24
 542 00ea DAB2     		uxtb	r2, r3
 543 00ec 7B68     		ldr	r3, [r7, #4]
 544 00ee 83F81F22 		strb	r2, [r3, #543]
 833:../Dave/Generated/src/FATFS002/Src/ff.c **** 			ST_DWORD(fs->win+FSI_Nxt_Free, fs->last_clust);
 545              		.loc 1 833 0
 546 00f2 7B68     		ldr	r3, [r7, #4]
 547 00f4 DB68     		ldr	r3, [r3, #12]
 548 00f6 DAB2     		uxtb	r2, r3
 549 00f8 7B68     		ldr	r3, [r7, #4]
 550 00fa 83F82022 		strb	r2, [r3, #544]
 551 00fe 7B68     		ldr	r3, [r7, #4]
 552 0100 DB68     		ldr	r3, [r3, #12]
 553 0102 9BB2     		uxth	r3, r3
 554 0104 4FEA1323 		lsr	r3, r3, #8
 555 0108 9BB2     		uxth	r3, r3
 556 010a DAB2     		uxtb	r2, r3
 557 010c 7B68     		ldr	r3, [r7, #4]
 558 010e 83F82122 		strb	r2, [r3, #545]
 559 0112 7B68     		ldr	r3, [r7, #4]
 560 0114 DB68     		ldr	r3, [r3, #12]
 561 0116 4FEA1343 		lsr	r3, r3, #16
 562 011a DAB2     		uxtb	r2, r3
 563 011c 7B68     		ldr	r3, [r7, #4]
 564 011e 83F82222 		strb	r2, [r3, #546]
 565 0122 7B68     		ldr	r3, [r7, #4]
 566 0124 DB68     		ldr	r3, [r3, #12]
 567 0126 4FEA1363 		lsr	r3, r3, #24
 568 012a DAB2     		uxtb	r2, r3
 569 012c 7B68     		ldr	r3, [r7, #4]
 570 012e 83F82322 		strb	r2, [r3, #547]
 834:../Dave/Generated/src/FATFS002/Src/ff.c **** 			/* Write it into the FSInfo sector */
 835:../Dave/Generated/src/FATFS002/Src/ff.c **** 			disk_write(fs->drv, fs->win, fs->fsi_sector, 1);
 571              		.loc 1 835 0
 572 0132 7B68     		ldr	r3, [r7, #4]
 573 0134 5978     		ldrb	r1, [r3, #1]	@ zero_extendqisi2
 574 0136 7B68     		ldr	r3, [r7, #4]
 575 0138 03F13402 		add	r2, r3, #52
 576 013c 7B68     		ldr	r3, [r7, #4]
 577 013e 5B69     		ldr	r3, [r3, #20]
 578 0140 0846     		mov	r0, r1
 579 0142 1146     		mov	r1, r2
 580 0144 1A46     		mov	r2, r3
 581 0146 4FF00103 		mov	r3, #1
 582 014a FFF7FEFF 		bl	disk_write
 836:../Dave/Generated/src/FATFS002/Src/ff.c **** 			fs->fsi_flag = 0;
 583              		.loc 1 836 0
 584 014e 7B68     		ldr	r3, [r7, #4]
 585 0150 4FF00002 		mov	r2, #0
 586 0154 5A71     		strb	r2, [r3, #5]
 587              	.L26:
 837:../Dave/Generated/src/FATFS002/Src/ff.c **** 		}
 838:../Dave/Generated/src/FATFS002/Src/ff.c **** 		/* Make sure that no pending write process in the physical drive */
 839:../Dave/Generated/src/FATFS002/Src/ff.c **** 		if (disk_ioctl(fs->drv, CTRL_SYNC, 0) != RES_OK)
 588              		.loc 1 839 0
 589 0156 7B68     		ldr	r3, [r7, #4]
 590 0158 5B78     		ldrb	r3, [r3, #1]	@ zero_extendqisi2
 591 015a 1846     		mov	r0, r3
 592 015c 4FF00001 		mov	r1, #0
 593 0160 4FF00002 		mov	r2, #0
 594 0164 FFF7FEFF 		bl	disk_ioctl
 595 0168 0346     		mov	r3, r0
 596 016a 002B     		cmp	r3, #0
 597 016c 02D0     		beq	.L25
 840:../Dave/Generated/src/FATFS002/Src/ff.c **** 			res = FR_DISK_ERR;
 598              		.loc 1 840 0
 599 016e 4FF00103 		mov	r3, #1
 600 0172 FB73     		strb	r3, [r7, #15]
 601              	.L25:
 841:../Dave/Generated/src/FATFS002/Src/ff.c **** 	}
 842:../Dave/Generated/src/FATFS002/Src/ff.c **** 
 843:../Dave/Generated/src/FATFS002/Src/ff.c **** 	return res;
 602              		.loc 1 843 0
 603 0174 FB7B     		ldrb	r3, [r7, #15]	@ zero_extendqisi2
 844:../Dave/Generated/src/FATFS002/Src/ff.c **** }
 604              		.loc 1 844 0
 605 0176 1846     		mov	r0, r3
 606 0178 07F11007 		add	r7, r7, #16
 607 017c BD46     		mov	sp, r7
 608 017e 80BD     		pop	{r7, pc}
 609              		.cfi_endproc
 610              	.LFE5:
 612              		.section	.text.clust2sect,"ax",%progbits
 613              		.align	2
 614              		.global	clust2sect
 615              		.thumb
 616              		.thumb_func
 618              	clust2sect:
 619              	.LFB6:
 845:../Dave/Generated/src/FATFS002/Src/ff.c **** #endif
 846:../Dave/Generated/src/FATFS002/Src/ff.c **** 
 847:../Dave/Generated/src/FATFS002/Src/ff.c **** 
 848:../Dave/Generated/src/FATFS002/Src/ff.c **** 
 849:../Dave/Generated/src/FATFS002/Src/ff.c **** 
 850:../Dave/Generated/src/FATFS002/Src/ff.c **** /*-----------------------------------------------------------------------*/
 851:../Dave/Generated/src/FATFS002/Src/ff.c **** /* Get sector# from cluster#                                             */
 852:../Dave/Generated/src/FATFS002/Src/ff.c **** /*-----------------------------------------------------------------------*/
 853:../Dave/Generated/src/FATFS002/Src/ff.c **** 
 854:../Dave/Generated/src/FATFS002/Src/ff.c **** 
 855:../Dave/Generated/src/FATFS002/Src/ff.c **** DWORD clust2sect (	/* !=0: Sector number, 0: Failed - invalid cluster# */
 856:../Dave/Generated/src/FATFS002/Src/ff.c **** 	FATFS *fs,		/* File system object */
 857:../Dave/Generated/src/FATFS002/Src/ff.c **** 	DWORD clst		/* Cluster# to be converted */
 858:../Dave/Generated/src/FATFS002/Src/ff.c **** )
 859:../Dave/Generated/src/FATFS002/Src/ff.c **** {
 620              		.loc 1 859 0
 621              		.cfi_startproc
 622              		@ args = 0, pretend = 0, frame = 8
 623              		@ frame_needed = 1, uses_anonymous_args = 0
 624              		@ link register save eliminated.
 625 0000 80B4     		push	{r7}
 626              	.LCFI18:
 627              		.cfi_def_cfa_offset 4
 628              		.cfi_offset 7, -4
 629 0002 83B0     		sub	sp, sp, #12
 630              	.LCFI19:
 631              		.cfi_def_cfa_offset 16
 632 0004 00AF     		add	r7, sp, #0
 633              	.LCFI20:
 634              		.cfi_def_cfa_register 7
 635 0006 7860     		str	r0, [r7, #4]
 636 0008 3960     		str	r1, [r7, #0]
 860:../Dave/Generated/src/FATFS002/Src/ff.c **** 	clst -= 2;
 637              		.loc 1 860 0
 638 000a 3B68     		ldr	r3, [r7, #0]
 639 000c A3F10203 		sub	r3, r3, #2
 640 0010 3B60     		str	r3, [r7, #0]
 861:../Dave/Generated/src/FATFS002/Src/ff.c **** 	if (clst >= (fs->n_fatent - 2)) return 0;		/* Invalid cluster# */
 641              		.loc 1 861 0
 642 0012 7B68     		ldr	r3, [r7, #4]
 643 0014 DB69     		ldr	r3, [r3, #28]
 644 0016 A3F10202 		sub	r2, r3, #2
 645 001a 3B68     		ldr	r3, [r7, #0]
 646 001c 9A42     		cmp	r2, r3
 647 001e 02D8     		bhi	.L29
 648              		.loc 1 861 0 is_stmt 0 discriminator 1
 649 0020 4FF00003 		mov	r3, #0
 650 0024 07E0     		b	.L30
 651              	.L29:
 862:../Dave/Generated/src/FATFS002/Src/ff.c **** 	return clst * fs->csize + fs->database;
 652              		.loc 1 862 0 is_stmt 1
 653 0026 7B68     		ldr	r3, [r7, #4]
 654 0028 9B78     		ldrb	r3, [r3, #2]	@ zero_extendqisi2
 655 002a 3A68     		ldr	r2, [r7, #0]
 656 002c 02FB03F2 		mul	r2, r2, r3
 657 0030 7B68     		ldr	r3, [r7, #4]
 658 0032 DB6A     		ldr	r3, [r3, #44]
 659 0034 D318     		adds	r3, r2, r3
 660              	.L30:
 863:../Dave/Generated/src/FATFS002/Src/ff.c **** }
 661              		.loc 1 863 0
 662 0036 1846     		mov	r0, r3
 663 0038 07F10C07 		add	r7, r7, #12
 664 003c BD46     		mov	sp, r7
 665 003e 80BC     		pop	{r7}
 666 0040 7047     		bx	lr
 667              		.cfi_endproc
 668              	.LFE6:
 670 0042 00BF     		.section	.text.get_fat,"ax",%progbits
 671              		.align	2
 672              		.global	get_fat
 673              		.thumb
 674              		.thumb_func
 676              	get_fat:
 677              	.LFB7:
 864:../Dave/Generated/src/FATFS002/Src/ff.c **** 
 865:../Dave/Generated/src/FATFS002/Src/ff.c **** 
 866:../Dave/Generated/src/FATFS002/Src/ff.c **** 
 867:../Dave/Generated/src/FATFS002/Src/ff.c **** 
 868:../Dave/Generated/src/FATFS002/Src/ff.c **** /*-----------------------------------------------------------------------*/
 869:../Dave/Generated/src/FATFS002/Src/ff.c **** /* FAT access - Read value of a FAT entry                                */
 870:../Dave/Generated/src/FATFS002/Src/ff.c **** /*-----------------------------------------------------------------------*/
 871:../Dave/Generated/src/FATFS002/Src/ff.c **** 
 872:../Dave/Generated/src/FATFS002/Src/ff.c **** 
 873:../Dave/Generated/src/FATFS002/Src/ff.c **** DWORD get_fat (	/* 0xFFFFFFFF:Disk error, 1:Internal error, Else:Cluster status */
 874:../Dave/Generated/src/FATFS002/Src/ff.c **** 	FATFS *fs,	/* File system object */
 875:../Dave/Generated/src/FATFS002/Src/ff.c **** 	DWORD clst	/* Cluster# to get the link information */
 876:../Dave/Generated/src/FATFS002/Src/ff.c **** )
 877:../Dave/Generated/src/FATFS002/Src/ff.c **** {
 678              		.loc 1 877 0
 679              		.cfi_startproc
 680              		@ args = 0, pretend = 0, frame = 24
 681              		@ frame_needed = 1, uses_anonymous_args = 0
 682 0000 80B5     		push	{r7, lr}
 683              	.LCFI21:
 684              		.cfi_def_cfa_offset 8
 685              		.cfi_offset 7, -8
 686              		.cfi_offset 14, -4
 687 0002 86B0     		sub	sp, sp, #24
 688              	.LCFI22:
 689              		.cfi_def_cfa_offset 32
 690 0004 00AF     		add	r7, sp, #0
 691              	.LCFI23:
 692              		.cfi_def_cfa_register 7
 693 0006 7860     		str	r0, [r7, #4]
 694 0008 3960     		str	r1, [r7, #0]
 878:../Dave/Generated/src/FATFS002/Src/ff.c **** 	UINT wc, bc;
 879:../Dave/Generated/src/FATFS002/Src/ff.c **** 	BYTE *p;
 880:../Dave/Generated/src/FATFS002/Src/ff.c **** 
 881:../Dave/Generated/src/FATFS002/Src/ff.c **** 
 882:../Dave/Generated/src/FATFS002/Src/ff.c **** 	if (clst < 2 || clst >= fs->n_fatent)	/* Chack range */
 695              		.loc 1 882 0
 696 000a 3B68     		ldr	r3, [r7, #0]
 697 000c 012B     		cmp	r3, #1
 698 000e 04D9     		bls	.L32
 699              		.loc 1 882 0 is_stmt 0 discriminator 1
 700 0010 7B68     		ldr	r3, [r7, #4]
 701 0012 DA69     		ldr	r2, [r3, #28]
 702 0014 3B68     		ldr	r3, [r7, #0]
 703 0016 9A42     		cmp	r2, r3
 704 0018 02D8     		bhi	.L33
 705              	.L32:
 883:../Dave/Generated/src/FATFS002/Src/ff.c **** 		return 1;
 706              		.loc 1 883 0 is_stmt 1
 707 001a 4FF00103 		mov	r3, #1
 708 001e BCE0     		b	.L34
 709              	.L33:
 884:../Dave/Generated/src/FATFS002/Src/ff.c **** 
 885:../Dave/Generated/src/FATFS002/Src/ff.c **** 	switch (fs->fs_type) {
 710              		.loc 1 885 0
 711 0020 7B68     		ldr	r3, [r7, #4]
 712 0022 1B78     		ldrb	r3, [r3, #0]	@ zero_extendqisi2
 713 0024 022B     		cmp	r3, #2
 714 0026 52D0     		beq	.L37
 715 0028 032B     		cmp	r3, #3
 716 002a 78D0     		beq	.L38
 717 002c 012B     		cmp	r3, #1
 718 002e 40F0B280 		bne	.L35
 719              	.L36:
 886:../Dave/Generated/src/FATFS002/Src/ff.c **** 	case FS_FAT12 :
 887:../Dave/Generated/src/FATFS002/Src/ff.c **** 		bc = (UINT)clst; bc += bc / 2;
 720              		.loc 1 887 0
 721 0032 3B68     		ldr	r3, [r7, #0]
 722 0034 7B61     		str	r3, [r7, #20]
 723 0036 7B69     		ldr	r3, [r7, #20]
 724 0038 4FEA5303 		lsr	r3, r3, #1
 725 003c 7A69     		ldr	r2, [r7, #20]
 726 003e D318     		adds	r3, r2, r3
 727 0040 7B61     		str	r3, [r7, #20]
 888:../Dave/Generated/src/FATFS002/Src/ff.c **** 		if (move_window(fs, fs->fatbase + (bc / SS(fs)))) break;
 728              		.loc 1 888 0
 729 0042 7B68     		ldr	r3, [r7, #4]
 730 0044 5A6A     		ldr	r2, [r3, #36]
 731 0046 7B69     		ldr	r3, [r7, #20]
 732 0048 4FEA5323 		lsr	r3, r3, #9
 733 004c D318     		adds	r3, r2, r3
 734 004e 7868     		ldr	r0, [r7, #4]
 735 0050 1946     		mov	r1, r3
 736 0052 FFF7FEFF 		bl	move_window
 737 0056 0346     		mov	r3, r0
 738 0058 002B     		cmp	r3, #0
 739 005a 40F09580 		bne	.L45
 740              	.L39:
 889:../Dave/Generated/src/FATFS002/Src/ff.c **** 		wc = fs->win[bc % SS(fs)]; bc++;
 741              		.loc 1 889 0
 742 005e 7B69     		ldr	r3, [r7, #20]
 743 0060 4FEAC353 		lsl	r3, r3, #23
 744 0064 4FEAD353 		lsr	r3, r3, #23
 745 0068 7A68     		ldr	r2, [r7, #4]
 746 006a D318     		adds	r3, r2, r3
 747 006c 93F83430 		ldrb	r3, [r3, #52]	@ zero_extendqisi2
 748 0070 3B61     		str	r3, [r7, #16]
 749 0072 7B69     		ldr	r3, [r7, #20]
 750 0074 03F10103 		add	r3, r3, #1
 751 0078 7B61     		str	r3, [r7, #20]
 890:../Dave/Generated/src/FATFS002/Src/ff.c **** 		if (move_window(fs, fs->fatbase + (bc / SS(fs)))) break;
 752              		.loc 1 890 0
 753 007a 7B68     		ldr	r3, [r7, #4]
 754 007c 5A6A     		ldr	r2, [r3, #36]
 755 007e 7B69     		ldr	r3, [r7, #20]
 756 0080 4FEA5323 		lsr	r3, r3, #9
 757 0084 D318     		adds	r3, r2, r3
 758 0086 7868     		ldr	r0, [r7, #4]
 759 0088 1946     		mov	r1, r3
 760 008a FFF7FEFF 		bl	move_window
 761 008e 0346     		mov	r3, r0
 762 0090 002B     		cmp	r3, #0
 763 0092 7BD1     		bne	.L46
 764              	.L40:
 891:../Dave/Generated/src/FATFS002/Src/ff.c **** 		wc |= fs->win[bc % SS(fs)] << 8;
 765              		.loc 1 891 0
 766 0094 7B69     		ldr	r3, [r7, #20]
 767 0096 4FEAC353 		lsl	r3, r3, #23
 768 009a 4FEAD353 		lsr	r3, r3, #23
 769 009e 7A68     		ldr	r2, [r7, #4]
 770 00a0 D318     		adds	r3, r2, r3
 771 00a2 93F83430 		ldrb	r3, [r3, #52]	@ zero_extendqisi2
 772 00a6 4FEA0323 		lsl	r3, r3, #8
 773 00aa 3A69     		ldr	r2, [r7, #16]
 774 00ac 1343     		orrs	r3, r3, r2
 775 00ae 3B61     		str	r3, [r7, #16]
 892:../Dave/Generated/src/FATFS002/Src/ff.c **** 		return (clst & 1) ? (wc >> 4) : (wc & 0xFFF);
 776              		.loc 1 892 0
 777 00b0 3B68     		ldr	r3, [r7, #0]
 778 00b2 03F00103 		and	r3, r3, #1
 779 00b6 002B     		cmp	r3, #0
 780 00b8 03D0     		beq	.L41
 781              		.loc 1 892 0 is_stmt 0 discriminator 1
 782 00ba 3B69     		ldr	r3, [r7, #16]
 783 00bc 4FEA1313 		lsr	r3, r3, #4
 784 00c0 04E0     		b	.L42
 785              	.L41:
 786              		.loc 1 892 0 discriminator 2
 787 00c2 3B69     		ldr	r3, [r7, #16]
 788 00c4 4FEA0353 		lsl	r3, r3, #20
 789 00c8 4FEA1353 		lsr	r3, r3, #20
 790              	.L42:
 791              		.loc 1 892 0 discriminator 3
 792 00cc 65E0     		b	.L34
 793              	.L37:
 893:../Dave/Generated/src/FATFS002/Src/ff.c **** 
 894:../Dave/Generated/src/FATFS002/Src/ff.c **** 	case FS_FAT16 :
 895:../Dave/Generated/src/FATFS002/Src/ff.c **** 		if (move_window(fs, fs->fatbase + (clst / (SS(fs) / 2)))) break;
 794              		.loc 1 895 0 is_stmt 1
 795 00ce 7B68     		ldr	r3, [r7, #4]
 796 00d0 5A6A     		ldr	r2, [r3, #36]
 797 00d2 3B68     		ldr	r3, [r7, #0]
 798 00d4 4FEA1323 		lsr	r3, r3, #8
 799 00d8 D318     		adds	r3, r2, r3
 800 00da 7868     		ldr	r0, [r7, #4]
 801 00dc 1946     		mov	r1, r3
 802 00de FFF7FEFF 		bl	move_window
 803 00e2 0346     		mov	r3, r0
 804 00e4 002B     		cmp	r3, #0
 805 00e6 53D1     		bne	.L47
 806              	.L43:
 896:../Dave/Generated/src/FATFS002/Src/ff.c **** 		p = &fs->win[clst * 2 % SS(fs)];
 807              		.loc 1 896 0
 808 00e8 3B68     		ldr	r3, [r7, #0]
 809 00ea 4FEA4303 		lsl	r3, r3, #1
 810 00ee 4FEAC353 		lsl	r3, r3, #23
 811 00f2 4FEAD353 		lsr	r3, r3, #23
 812 00f6 03F13003 		add	r3, r3, #48
 813 00fa 7A68     		ldr	r2, [r7, #4]
 814 00fc D318     		adds	r3, r2, r3
 815 00fe 03F10403 		add	r3, r3, #4
 816 0102 FB60     		str	r3, [r7, #12]
 897:../Dave/Generated/src/FATFS002/Src/ff.c **** 		return LD_WORD(p);
 817              		.loc 1 897 0
 818 0104 FB68     		ldr	r3, [r7, #12]
 819 0106 03F10103 		add	r3, r3, #1
 820 010a 1B78     		ldrb	r3, [r3, #0]	@ zero_extendqisi2
 821 010c 4FEA0323 		lsl	r3, r3, #8
 822 0110 9AB2     		uxth	r2, r3
 823 0112 FB68     		ldr	r3, [r7, #12]
 824 0114 1B78     		ldrb	r3, [r3, #0]	@ zero_extendqisi2
 825 0116 1343     		orrs	r3, r3, r2
 826 0118 9BB2     		uxth	r3, r3
 827 011a 9BB2     		uxth	r3, r3
 828 011c 3DE0     		b	.L34
 829              	.L38:
 898:../Dave/Generated/src/FATFS002/Src/ff.c **** 
 899:../Dave/Generated/src/FATFS002/Src/ff.c **** 	case FS_FAT32 :
 900:../Dave/Generated/src/FATFS002/Src/ff.c **** 		if (move_window(fs, fs->fatbase + (clst / (SS(fs) / 4)))) break;
 830              		.loc 1 900 0
 831 011e 7B68     		ldr	r3, [r7, #4]
 832 0120 5A6A     		ldr	r2, [r3, #36]
 833 0122 3B68     		ldr	r3, [r7, #0]
 834 0124 4FEAD313 		lsr	r3, r3, #7
 835 0128 D318     		adds	r3, r2, r3
 836 012a 7868     		ldr	r0, [r7, #4]
 837 012c 1946     		mov	r1, r3
 838 012e FFF7FEFF 		bl	move_window
 839 0132 0346     		mov	r3, r0
 840 0134 002B     		cmp	r3, #0
 841 0136 2DD1     		bne	.L48
 842              	.L44:
 901:../Dave/Generated/src/FATFS002/Src/ff.c **** 		p = &fs->win[clst * 4 % SS(fs)];
 843              		.loc 1 901 0
 844 0138 3B68     		ldr	r3, [r7, #0]
 845 013a 4FEA8303 		lsl	r3, r3, #2
 846 013e 4FEAC353 		lsl	r3, r3, #23
 847 0142 4FEAD353 		lsr	r3, r3, #23
 848 0146 03F13003 		add	r3, r3, #48
 849 014a 7A68     		ldr	r2, [r7, #4]
 850 014c D318     		adds	r3, r2, r3
 851 014e 03F10403 		add	r3, r3, #4
 852 0152 FB60     		str	r3, [r7, #12]
 902:../Dave/Generated/src/FATFS002/Src/ff.c **** 		return LD_DWORD(p) & 0x0FFFFFFF;
 853              		.loc 1 902 0
 854 0154 FB68     		ldr	r3, [r7, #12]
 855 0156 03F10303 		add	r3, r3, #3
 856 015a 1B78     		ldrb	r3, [r3, #0]	@ zero_extendqisi2
 857 015c 4FEA0362 		lsl	r2, r3, #24
 858 0160 FB68     		ldr	r3, [r7, #12]
 859 0162 03F10203 		add	r3, r3, #2
 860 0166 1B78     		ldrb	r3, [r3, #0]	@ zero_extendqisi2
 861 0168 4FEA0343 		lsl	r3, r3, #16
 862 016c 1A43     		orrs	r2, r2, r3
 863 016e FB68     		ldr	r3, [r7, #12]
 864 0170 03F10103 		add	r3, r3, #1
 865 0174 1B78     		ldrb	r3, [r3, #0]	@ zero_extendqisi2
 866 0176 4FEA0323 		lsl	r3, r3, #8
 867 017a 1A43     		orrs	r2, r2, r3
 868 017c FB68     		ldr	r3, [r7, #12]
 869 017e 1B78     		ldrb	r3, [r3, #0]	@ zero_extendqisi2
 870 0180 1343     		orrs	r3, r3, r2
 871 0182 23F07043 		bic	r3, r3, #-268435456
 872 0186 08E0     		b	.L34
 873              	.L45:
 888:../Dave/Generated/src/FATFS002/Src/ff.c **** 		if (move_window(fs, fs->fatbase + (bc / SS(fs)))) break;
 874              		.loc 1 888 0
 875 0188 00BF     		nop
 876 018a 04E0     		b	.L35
 877              	.L46:
 890:../Dave/Generated/src/FATFS002/Src/ff.c **** 		if (move_window(fs, fs->fatbase + (bc / SS(fs)))) break;
 878              		.loc 1 890 0
 879 018c 00BF     		nop
 880 018e 02E0     		b	.L35
 881              	.L47:
 895:../Dave/Generated/src/FATFS002/Src/ff.c **** 		if (move_window(fs, fs->fatbase + (clst / (SS(fs) / 2)))) break;
 882              		.loc 1 895 0
 883 0190 00BF     		nop
 884 0192 00E0     		b	.L35
 885              	.L48:
 900:../Dave/Generated/src/FATFS002/Src/ff.c **** 		if (move_window(fs, fs->fatbase + (clst / (SS(fs) / 4)))) break;
 886              		.loc 1 900 0
 887 0194 00BF     		nop
 888              	.L35:
 903:../Dave/Generated/src/FATFS002/Src/ff.c **** 	}
 904:../Dave/Generated/src/FATFS002/Src/ff.c **** 
 905:../Dave/Generated/src/FATFS002/Src/ff.c **** 	return 0xFFFFFFFF;	/* An error occurred at the disk I/O layer */
 889              		.loc 1 905 0
 890 0196 4FF0FF33 		mov	r3, #-1
 891              	.L34:
 906:../Dave/Generated/src/FATFS002/Src/ff.c **** }
 892              		.loc 1 906 0
 893 019a 1846     		mov	r0, r3
 894 019c 07F11807 		add	r7, r7, #24
 895 01a0 BD46     		mov	sp, r7
 896 01a2 80BD     		pop	{r7, pc}
 897              		.cfi_endproc
 898              	.LFE7:
 900              		.section	.text.put_fat,"ax",%progbits
 901              		.align	2
 902              		.global	put_fat
 903              		.thumb
 904              		.thumb_func
 906              	put_fat:
 907              	.LFB8:
 907:../Dave/Generated/src/FATFS002/Src/ff.c **** 
 908:../Dave/Generated/src/FATFS002/Src/ff.c **** 
 909:../Dave/Generated/src/FATFS002/Src/ff.c **** 
 910:../Dave/Generated/src/FATFS002/Src/ff.c **** 
 911:../Dave/Generated/src/FATFS002/Src/ff.c **** /*-----------------------------------------------------------------------*/
 912:../Dave/Generated/src/FATFS002/Src/ff.c **** /* FAT access - Change value of a FAT entry                              */
 913:../Dave/Generated/src/FATFS002/Src/ff.c **** /*-----------------------------------------------------------------------*/
 914:../Dave/Generated/src/FATFS002/Src/ff.c **** #if !_FS_READONLY
 915:../Dave/Generated/src/FATFS002/Src/ff.c **** 
 916:../Dave/Generated/src/FATFS002/Src/ff.c **** FRESULT put_fat (
 917:../Dave/Generated/src/FATFS002/Src/ff.c **** 	FATFS *fs,	/* File system object */
 918:../Dave/Generated/src/FATFS002/Src/ff.c **** 	DWORD clst,	/* Cluster# to be changed in range of 2 to fs->n_fatent - 1 */
 919:../Dave/Generated/src/FATFS002/Src/ff.c **** 	DWORD val	/* New value to mark the cluster */
 920:../Dave/Generated/src/FATFS002/Src/ff.c **** )
 921:../Dave/Generated/src/FATFS002/Src/ff.c **** {
 908              		.loc 1 921 0
 909              		.cfi_startproc
 910              		@ args = 0, pretend = 0, frame = 32
 911              		@ frame_needed = 1, uses_anonymous_args = 0
 912 0000 80B5     		push	{r7, lr}
 913              	.LCFI24:
 914              		.cfi_def_cfa_offset 8
 915              		.cfi_offset 7, -8
 916              		.cfi_offset 14, -4
 917 0002 88B0     		sub	sp, sp, #32
 918              	.LCFI25:
 919              		.cfi_def_cfa_offset 40
 920 0004 00AF     		add	r7, sp, #0
 921              	.LCFI26:
 922              		.cfi_def_cfa_register 7
 923 0006 F860     		str	r0, [r7, #12]
 924 0008 B960     		str	r1, [r7, #8]
 925 000a 7A60     		str	r2, [r7, #4]
 922:../Dave/Generated/src/FATFS002/Src/ff.c **** 	UINT bc;
 923:../Dave/Generated/src/FATFS002/Src/ff.c **** 	BYTE *p;
 924:../Dave/Generated/src/FATFS002/Src/ff.c **** 	FRESULT res;
 925:../Dave/Generated/src/FATFS002/Src/ff.c **** 
 926:../Dave/Generated/src/FATFS002/Src/ff.c **** 
 927:../Dave/Generated/src/FATFS002/Src/ff.c **** 	if (clst < 2 || clst >= fs->n_fatent) {	/* Check range */
 926              		.loc 1 927 0
 927 000c BB68     		ldr	r3, [r7, #8]
 928 000e 012B     		cmp	r3, #1
 929 0010 04D9     		bls	.L50
 930              		.loc 1 927 0 is_stmt 0 discriminator 1
 931 0012 FB68     		ldr	r3, [r7, #12]
 932 0014 DA69     		ldr	r2, [r3, #28]
 933 0016 BB68     		ldr	r3, [r7, #8]
 934 0018 9A42     		cmp	r2, r3
 935 001a 03D8     		bhi	.L51
 936              	.L50:
 928:../Dave/Generated/src/FATFS002/Src/ff.c **** 		res = FR_INT_ERR;
 937              		.loc 1 928 0 is_stmt 1
 938 001c 4FF00203 		mov	r3, #2
 939 0020 FB77     		strb	r3, [r7, #31]
 940 0022 1AE1     		b	.L52
 941              	.L51:
 929:../Dave/Generated/src/FATFS002/Src/ff.c **** 
 930:../Dave/Generated/src/FATFS002/Src/ff.c **** 	} else {
 931:../Dave/Generated/src/FATFS002/Src/ff.c **** 		switch (fs->fs_type) {
 942              		.loc 1 931 0
 943 0024 FB68     		ldr	r3, [r7, #12]
 944 0026 1B78     		ldrb	r3, [r3, #0]	@ zero_extendqisi2
 945 0028 022B     		cmp	r3, #2
 946 002a 00F08380 		beq	.L55
 947 002e 032B     		cmp	r3, #3
 948 0030 00F0AC80 		beq	.L56
 949 0034 012B     		cmp	r3, #1
 950 0036 40F00181 		bne	.L67
 951              	.L54:
 932:../Dave/Generated/src/FATFS002/Src/ff.c **** 		case FS_FAT12 :
 933:../Dave/Generated/src/FATFS002/Src/ff.c **** 			bc = clst; bc += bc / 2;
 952              		.loc 1 933 0
 953 003a BB68     		ldr	r3, [r7, #8]
 954 003c BB61     		str	r3, [r7, #24]
 955 003e BB69     		ldr	r3, [r7, #24]
 956 0040 4FEA5303 		lsr	r3, r3, #1
 957 0044 BA69     		ldr	r2, [r7, #24]
 958 0046 D318     		adds	r3, r2, r3
 959 0048 BB61     		str	r3, [r7, #24]
 934:../Dave/Generated/src/FATFS002/Src/ff.c **** 			res = move_window(fs, fs->fatbase + (bc / SS(fs)));
 960              		.loc 1 934 0
 961 004a FB68     		ldr	r3, [r7, #12]
 962 004c 5A6A     		ldr	r2, [r3, #36]
 963 004e BB69     		ldr	r3, [r7, #24]
 964 0050 4FEA5323 		lsr	r3, r3, #9
 965 0054 D318     		adds	r3, r2, r3
 966 0056 F868     		ldr	r0, [r7, #12]
 967 0058 1946     		mov	r1, r3
 968 005a FFF7FEFF 		bl	move_window
 969 005e 0346     		mov	r3, r0
 970 0060 FB77     		strb	r3, [r7, #31]
 935:../Dave/Generated/src/FATFS002/Src/ff.c **** 			if (res != FR_OK) break;
 971              		.loc 1 935 0
 972 0062 FB7F     		ldrb	r3, [r7, #31]	@ zero_extendqisi2
 973 0064 002B     		cmp	r3, #0
 974 0066 40F0ED80 		bne	.L68
 975              	.L57:
 936:../Dave/Generated/src/FATFS002/Src/ff.c **** 			p = &fs->win[bc % SS(fs)];
 976              		.loc 1 936 0
 977 006a BB69     		ldr	r3, [r7, #24]
 978 006c 4FEAC353 		lsl	r3, r3, #23
 979 0070 4FEAD353 		lsr	r3, r3, #23
 980 0074 03F13003 		add	r3, r3, #48
 981 0078 FA68     		ldr	r2, [r7, #12]
 982 007a D318     		adds	r3, r2, r3
 983 007c 03F10403 		add	r3, r3, #4
 984 0080 7B61     		str	r3, [r7, #20]
 937:../Dave/Generated/src/FATFS002/Src/ff.c **** 			*p = (clst & 1) ? ((*p & 0x0F) | ((BYTE)val << 4)) : (BYTE)val;
 985              		.loc 1 937 0
 986 0082 BB68     		ldr	r3, [r7, #8]
 987 0084 03F00103 		and	r3, r3, #1
 988 0088 002B     		cmp	r3, #0
 989 008a 0ED0     		beq	.L59
 990              		.loc 1 937 0 is_stmt 0 discriminator 1
 991 008c 7B69     		ldr	r3, [r7, #20]
 992 008e 1B78     		ldrb	r3, [r3, #0]	@ zero_extendqisi2
 993 0090 DBB2     		uxtb	r3, r3
 994 0092 03F00F03 		and	r3, r3, #15
 995 0096 DAB2     		uxtb	r2, r3
 996 0098 7B68     		ldr	r3, [r7, #4]
 997 009a DBB2     		uxtb	r3, r3
 998 009c 4FEA0313 		lsl	r3, r3, #4
 999 00a0 DBB2     		uxtb	r3, r3
 1000 00a2 1343     		orrs	r3, r3, r2
 1001 00a4 DBB2     		uxtb	r3, r3
 1002 00a6 DBB2     		uxtb	r3, r3
 1003 00a8 01E0     		b	.L60
 1004              	.L59:
 1005              		.loc 1 937 0 discriminator 2
 1006 00aa 7B68     		ldr	r3, [r7, #4]
 1007 00ac DBB2     		uxtb	r3, r3
 1008              	.L60:
 1009              		.loc 1 937 0 discriminator 3
 1010 00ae 7A69     		ldr	r2, [r7, #20]
 1011 00b0 1370     		strb	r3, [r2, #0]
 938:../Dave/Generated/src/FATFS002/Src/ff.c **** 			bc++;
 1012              		.loc 1 938 0 is_stmt 1 discriminator 3
 1013 00b2 BB69     		ldr	r3, [r7, #24]
 1014 00b4 03F10103 		add	r3, r3, #1
 1015 00b8 BB61     		str	r3, [r7, #24]
 939:../Dave/Generated/src/FATFS002/Src/ff.c **** 			fs->wflag = 1;
 1016              		.loc 1 939 0 discriminator 3
 1017 00ba FB68     		ldr	r3, [r7, #12]
 1018 00bc 4FF00102 		mov	r2, #1
 1019 00c0 1A71     		strb	r2, [r3, #4]
 940:../Dave/Generated/src/FATFS002/Src/ff.c **** 			res = move_window(fs, fs->fatbase + (bc / SS(fs)));
 1020              		.loc 1 940 0 discriminator 3
 1021 00c2 FB68     		ldr	r3, [r7, #12]
 1022 00c4 5A6A     		ldr	r2, [r3, #36]
 1023 00c6 BB69     		ldr	r3, [r7, #24]
 1024 00c8 4FEA5323 		lsr	r3, r3, #9
 1025 00cc D318     		adds	r3, r2, r3
 1026 00ce F868     		ldr	r0, [r7, #12]
 1027 00d0 1946     		mov	r1, r3
 1028 00d2 FFF7FEFF 		bl	move_window
 1029 00d6 0346     		mov	r3, r0
 1030 00d8 FB77     		strb	r3, [r7, #31]
 941:../Dave/Generated/src/FATFS002/Src/ff.c **** 			if (res != FR_OK) break;
 1031              		.loc 1 941 0 discriminator 3
 1032 00da FB7F     		ldrb	r3, [r7, #31]	@ zero_extendqisi2
 1033 00dc 002B     		cmp	r3, #0
 1034 00de 40F0B380 		bne	.L69
 1035              	.L61:
 942:../Dave/Generated/src/FATFS002/Src/ff.c **** 			p = &fs->win[bc % SS(fs)];
 1036              		.loc 1 942 0
 1037 00e2 BB69     		ldr	r3, [r7, #24]
 1038 00e4 4FEAC353 		lsl	r3, r3, #23
 1039 00e8 4FEAD353 		lsr	r3, r3, #23
 1040 00ec 03F13003 		add	r3, r3, #48
 1041 00f0 FA68     		ldr	r2, [r7, #12]
 1042 00f2 D318     		adds	r3, r2, r3
 1043 00f4 03F10403 		add	r3, r3, #4
 1044 00f8 7B61     		str	r3, [r7, #20]
 943:../Dave/Generated/src/FATFS002/Src/ff.c **** 			*p = (clst & 1) ? (BYTE)(val >> 4) : ((*p & 0xF0) | ((BYTE)(val >> 8) & 0x0F));
 1045              		.loc 1 943 0
 1046 00fa BB68     		ldr	r3, [r7, #8]
 1047 00fc 03F00103 		and	r3, r3, #1
 1048 0100 002B     		cmp	r3, #0
 1049 0102 04D0     		beq	.L62
 1050              		.loc 1 943 0 is_stmt 0 discriminator 1
 1051 0104 7B68     		ldr	r3, [r7, #4]
 1052 0106 4FEA1313 		lsr	r3, r3, #4
 1053 010a DBB2     		uxtb	r3, r3
 1054 010c 0FE0     		b	.L63
 1055              	.L62:
 1056              		.loc 1 943 0 discriminator 2
 1057 010e 7B69     		ldr	r3, [r7, #20]
 1058 0110 1B78     		ldrb	r3, [r3, #0]	@ zero_extendqisi2
 1059 0112 DBB2     		uxtb	r3, r3
 1060 0114 23F00F03 		bic	r3, r3, #15
 1061 0118 DAB2     		uxtb	r2, r3
 1062 011a 7B68     		ldr	r3, [r7, #4]
 1063 011c 4FEA1323 		lsr	r3, r3, #8
 1064 0120 DBB2     		uxtb	r3, r3
 1065 0122 03F00F03 		and	r3, r3, #15
 1066 0126 DBB2     		uxtb	r3, r3
 1067 0128 1343     		orrs	r3, r3, r2
 1068 012a DBB2     		uxtb	r3, r3
 1069 012c DBB2     		uxtb	r3, r3
 1070              	.L63:
 1071              		.loc 1 943 0 discriminator 3
 1072 012e 7A69     		ldr	r2, [r7, #20]
 1073 0130 1370     		strb	r3, [r2, #0]
 944:../Dave/Generated/src/FATFS002/Src/ff.c **** 			break;
 1074              		.loc 1 944 0 is_stmt 1 discriminator 3
 1075 0132 8EE0     		b	.L58
 1076              	.L55:
 945:../Dave/Generated/src/FATFS002/Src/ff.c **** 
 946:../Dave/Generated/src/FATFS002/Src/ff.c **** 		case FS_FAT16 :
 947:../Dave/Generated/src/FATFS002/Src/ff.c **** 			res = move_window(fs, fs->fatbase + (clst / (SS(fs) / 2)));
 1077              		.loc 1 947 0
 1078 0134 FB68     		ldr	r3, [r7, #12]
 1079 0136 5A6A     		ldr	r2, [r3, #36]
 1080 0138 BB68     		ldr	r3, [r7, #8]
 1081 013a 4FEA1323 		lsr	r3, r3, #8
 1082 013e D318     		adds	r3, r2, r3
 1083 0140 F868     		ldr	r0, [r7, #12]
 1084 0142 1946     		mov	r1, r3
 1085 0144 FFF7FEFF 		bl	move_window
 1086 0148 0346     		mov	r3, r0
 1087 014a FB77     		strb	r3, [r7, #31]
 948:../Dave/Generated/src/FATFS002/Src/ff.c **** 			if (res != FR_OK) break;
 1088              		.loc 1 948 0
 1089 014c FB7F     		ldrb	r3, [r7, #31]	@ zero_extendqisi2
 1090 014e 002B     		cmp	r3, #0
 1091 0150 7CD1     		bne	.L70
 1092              	.L64:
 949:../Dave/Generated/src/FATFS002/Src/ff.c **** 			p = &fs->win[clst * 2 % SS(fs)];
 1093              		.loc 1 949 0
 1094 0152 BB68     		ldr	r3, [r7, #8]
 1095 0154 4FEA4303 		lsl	r3, r3, #1
 1096 0158 4FEAC353 		lsl	r3, r3, #23
 1097 015c 4FEAD353 		lsr	r3, r3, #23
 1098 0160 03F13003 		add	r3, r3, #48
 1099 0164 FA68     		ldr	r2, [r7, #12]
 1100 0166 D318     		adds	r3, r2, r3
 1101 0168 03F10403 		add	r3, r3, #4
 1102 016c 7B61     		str	r3, [r7, #20]
 950:../Dave/Generated/src/FATFS002/Src/ff.c **** 			ST_WORD(p, (WORD)val);
 1103              		.loc 1 950 0
 1104 016e 7B68     		ldr	r3, [r7, #4]
 1105 0170 DAB2     		uxtb	r2, r3
 1106 0172 7B69     		ldr	r3, [r7, #20]
 1107 0174 1A70     		strb	r2, [r3, #0]
 1108 0176 7B69     		ldr	r3, [r7, #20]
 1109 0178 03F10103 		add	r3, r3, #1
 1110 017c 7A68     		ldr	r2, [r7, #4]
 1111 017e 92B2     		uxth	r2, r2
 1112 0180 4FEA1222 		lsr	r2, r2, #8
 1113 0184 92B2     		uxth	r2, r2
 1114 0186 D2B2     		uxtb	r2, r2
 1115 0188 1A70     		strb	r2, [r3, #0]
 951:../Dave/Generated/src/FATFS002/Src/ff.c **** 			break;
 1116              		.loc 1 951 0
 1117 018a 62E0     		b	.L58
 1118              	.L56:
 952:../Dave/Generated/src/FATFS002/Src/ff.c **** 
 953:../Dave/Generated/src/FATFS002/Src/ff.c **** 		case FS_FAT32 :
 954:../Dave/Generated/src/FATFS002/Src/ff.c **** 			res = move_window(fs, fs->fatbase + (clst / (SS(fs) / 4)));
 1119              		.loc 1 954 0
 1120 018c FB68     		ldr	r3, [r7, #12]
 1121 018e 5A6A     		ldr	r2, [r3, #36]
 1122 0190 BB68     		ldr	r3, [r7, #8]
 1123 0192 4FEAD313 		lsr	r3, r3, #7
 1124 0196 D318     		adds	r3, r2, r3
 1125 0198 F868     		ldr	r0, [r7, #12]
 1126 019a 1946     		mov	r1, r3
 1127 019c FFF7FEFF 		bl	move_window
 1128 01a0 0346     		mov	r3, r0
 1129 01a2 FB77     		strb	r3, [r7, #31]
 955:../Dave/Generated/src/FATFS002/Src/ff.c **** 			if (res != FR_OK) break;
 1130              		.loc 1 955 0
 1131 01a4 FB7F     		ldrb	r3, [r7, #31]	@ zero_extendqisi2
 1132 01a6 002B     		cmp	r3, #0
 1133 01a8 52D1     		bne	.L71
 1134              	.L65:
 956:../Dave/Generated/src/FATFS002/Src/ff.c **** 			p = &fs->win[clst * 4 % SS(fs)];
 1135              		.loc 1 956 0
 1136 01aa BB68     		ldr	r3, [r7, #8]
 1137 01ac 4FEA8303 		lsl	r3, r3, #2
 1138 01b0 4FEAC353 		lsl	r3, r3, #23
 1139 01b4 4FEAD353 		lsr	r3, r3, #23
 1140 01b8 03F13003 		add	r3, r3, #48
 1141 01bc FA68     		ldr	r2, [r7, #12]
 1142 01be D318     		adds	r3, r2, r3
 1143 01c0 03F10403 		add	r3, r3, #4
 1144 01c4 7B61     		str	r3, [r7, #20]
 957:../Dave/Generated/src/FATFS002/Src/ff.c **** 			val |= LD_DWORD(p) & 0xF0000000;
 1145              		.loc 1 957 0
 1146 01c6 7B69     		ldr	r3, [r7, #20]
 1147 01c8 03F10303 		add	r3, r3, #3
 1148 01cc 1B78     		ldrb	r3, [r3, #0]	@ zero_extendqisi2
 1149 01ce 4FEA0362 		lsl	r2, r3, #24
 1150 01d2 7B69     		ldr	r3, [r7, #20]
 1151 01d4 03F10203 		add	r3, r3, #2
 1152 01d8 1B78     		ldrb	r3, [r3, #0]	@ zero_extendqisi2
 1153 01da 4FEA0343 		lsl	r3, r3, #16
 1154 01de 1A43     		orrs	r2, r2, r3
 1155 01e0 7B69     		ldr	r3, [r7, #20]
 1156 01e2 03F10103 		add	r3, r3, #1
 1157 01e6 1B78     		ldrb	r3, [r3, #0]	@ zero_extendqisi2
 1158 01e8 4FEA0323 		lsl	r3, r3, #8
 1159 01ec 1A43     		orrs	r2, r2, r3
 1160 01ee 7B69     		ldr	r3, [r7, #20]
 1161 01f0 1B78     		ldrb	r3, [r3, #0]	@ zero_extendqisi2
 1162 01f2 1343     		orrs	r3, r3, r2
 1163 01f4 03F07043 		and	r3, r3, #-268435456
 1164 01f8 7A68     		ldr	r2, [r7, #4]
 1165 01fa 1343     		orrs	r3, r3, r2
 1166 01fc 7B60     		str	r3, [r7, #4]
 958:../Dave/Generated/src/FATFS002/Src/ff.c **** 			ST_DWORD(p, val);
 1167              		.loc 1 958 0
 1168 01fe 7B68     		ldr	r3, [r7, #4]
 1169 0200 DAB2     		uxtb	r2, r3
 1170 0202 7B69     		ldr	r3, [r7, #20]
 1171 0204 1A70     		strb	r2, [r3, #0]
 1172 0206 7B69     		ldr	r3, [r7, #20]
 1173 0208 03F10103 		add	r3, r3, #1
 1174 020c 7A68     		ldr	r2, [r7, #4]
 1175 020e 92B2     		uxth	r2, r2
 1176 0210 4FEA1222 		lsr	r2, r2, #8
 1177 0214 92B2     		uxth	r2, r2
 1178 0216 D2B2     		uxtb	r2, r2
 1179 0218 1A70     		strb	r2, [r3, #0]
 1180 021a 7B69     		ldr	r3, [r7, #20]
 1181 021c 03F10203 		add	r3, r3, #2
 1182 0220 7A68     		ldr	r2, [r7, #4]
 1183 0222 4FEA1242 		lsr	r2, r2, #16
 1184 0226 D2B2     		uxtb	r2, r2
 1185 0228 1A70     		strb	r2, [r3, #0]
 1186 022a 7B69     		ldr	r3, [r7, #20]
 1187 022c 03F10303 		add	r3, r3, #3
 1188 0230 7A68     		ldr	r2, [r7, #4]
 1189 0232 4FEA1262 		lsr	r2, r2, #24
 1190 0236 D2B2     		uxtb	r2, r2
 1191 0238 1A70     		strb	r2, [r3, #0]
 959:../Dave/Generated/src/FATFS002/Src/ff.c **** 			break;
 1192              		.loc 1 959 0
 1193 023a 0AE0     		b	.L58
 1194              	.L67:
 960:../Dave/Generated/src/FATFS002/Src/ff.c **** 
 961:../Dave/Generated/src/FATFS002/Src/ff.c **** 		default :
 962:../Dave/Generated/src/FATFS002/Src/ff.c **** 			res = FR_INT_ERR;
 1195              		.loc 1 962 0
 1196 023c 4FF00203 		mov	r3, #2
 1197 0240 FB77     		strb	r3, [r7, #31]
 1198 0242 06E0     		b	.L58
 1199              	.L68:
 935:../Dave/Generated/src/FATFS002/Src/ff.c **** 			if (res != FR_OK) break;
 1200              		.loc 1 935 0
 1201 0244 00BF     		nop
 1202 0246 04E0     		b	.L58
 1203              	.L69:
 941:../Dave/Generated/src/FATFS002/Src/ff.c **** 			if (res != FR_OK) break;
 1204              		.loc 1 941 0
 1205 0248 00BF     		nop
 1206 024a 02E0     		b	.L58
 1207              	.L70:
 948:../Dave/Generated/src/FATFS002/Src/ff.c **** 			if (res != FR_OK) break;
 1208              		.loc 1 948 0
 1209 024c 00BF     		nop
 1210 024e 00E0     		b	.L58
 1211              	.L71:
 955:../Dave/Generated/src/FATFS002/Src/ff.c **** 			if (res != FR_OK) break;
 1212              		.loc 1 955 0
 1213 0250 00BF     		nop
 1214              	.L58:
 963:../Dave/Generated/src/FATFS002/Src/ff.c **** 		}
 964:../Dave/Generated/src/FATFS002/Src/ff.c **** 		fs->wflag = 1;
 1215              		.loc 1 964 0
 1216 0252 FB68     		ldr	r3, [r7, #12]
 1217 0254 4FF00102 		mov	r2, #1
 1218 0258 1A71     		strb	r2, [r3, #4]
 1219              	.L52:
 965:../Dave/Generated/src/FATFS002/Src/ff.c **** 	}
 966:../Dave/Generated/src/FATFS002/Src/ff.c **** 
 967:../Dave/Generated/src/FATFS002/Src/ff.c **** 	return res;
 1220              		.loc 1 967 0
 1221 025a FB7F     		ldrb	r3, [r7, #31]	@ zero_extendqisi2
 968:../Dave/Generated/src/FATFS002/Src/ff.c **** }
 1222              		.loc 1 968 0
 1223 025c 1846     		mov	r0, r3
 1224 025e 07F12007 		add	r7, r7, #32
 1225 0262 BD46     		mov	sp, r7
 1226 0264 80BD     		pop	{r7, pc}
 1227              		.cfi_endproc
 1228              	.LFE8:
 1230 0266 00BF     		.section	.text.remove_chain,"ax",%progbits
 1231              		.align	2
 1232              		.thumb
 1233              		.thumb_func
 1235              	remove_chain:
 1236              	.LFB9:
 969:../Dave/Generated/src/FATFS002/Src/ff.c **** #endif /* !_FS_READONLY */
 970:../Dave/Generated/src/FATFS002/Src/ff.c **** 
 971:../Dave/Generated/src/FATFS002/Src/ff.c **** 
 972:../Dave/Generated/src/FATFS002/Src/ff.c **** 
 973:../Dave/Generated/src/FATFS002/Src/ff.c **** 
 974:../Dave/Generated/src/FATFS002/Src/ff.c **** /*-----------------------------------------------------------------------*/
 975:../Dave/Generated/src/FATFS002/Src/ff.c **** /* FAT handling - Remove a cluster chain                                 */
 976:../Dave/Generated/src/FATFS002/Src/ff.c **** /*-----------------------------------------------------------------------*/
 977:../Dave/Generated/src/FATFS002/Src/ff.c **** #if !_FS_READONLY
 978:../Dave/Generated/src/FATFS002/Src/ff.c **** static
 979:../Dave/Generated/src/FATFS002/Src/ff.c **** FRESULT remove_chain (
 980:../Dave/Generated/src/FATFS002/Src/ff.c **** 	FATFS *fs,			/* File system object */
 981:../Dave/Generated/src/FATFS002/Src/ff.c **** 	DWORD clst			/* Cluster# to remove a chain from */
 982:../Dave/Generated/src/FATFS002/Src/ff.c **** )
 983:../Dave/Generated/src/FATFS002/Src/ff.c **** {
 1237              		.loc 1 983 0
 1238              		.cfi_startproc
 1239              		@ args = 0, pretend = 0, frame = 32
 1240              		@ frame_needed = 1, uses_anonymous_args = 0
 1241 0000 80B5     		push	{r7, lr}
 1242              	.LCFI27:
 1243              		.cfi_def_cfa_offset 8
 1244              		.cfi_offset 7, -8
 1245              		.cfi_offset 14, -4
 1246 0002 88B0     		sub	sp, sp, #32
 1247              	.LCFI28:
 1248              		.cfi_def_cfa_offset 40
 1249 0004 00AF     		add	r7, sp, #0
 1250              	.LCFI29:
 1251              		.cfi_def_cfa_register 7
 1252 0006 7860     		str	r0, [r7, #4]
 1253 0008 3960     		str	r1, [r7, #0]
 984:../Dave/Generated/src/FATFS002/Src/ff.c **** 	FRESULT res;
 985:../Dave/Generated/src/FATFS002/Src/ff.c **** 	DWORD nxt;
 986:../Dave/Generated/src/FATFS002/Src/ff.c **** #if _USE_ERASE
 987:../Dave/Generated/src/FATFS002/Src/ff.c **** 	DWORD scl = clst, ecl = clst, resion[2];
 1254              		.loc 1 987 0
 1255 000a 3B68     		ldr	r3, [r7, #0]
 1256 000c BB61     		str	r3, [r7, #24]
 1257 000e 3B68     		ldr	r3, [r7, #0]
 1258 0010 7B61     		str	r3, [r7, #20]
 988:../Dave/Generated/src/FATFS002/Src/ff.c **** #endif
 989:../Dave/Generated/src/FATFS002/Src/ff.c **** 
 990:../Dave/Generated/src/FATFS002/Src/ff.c **** 	if (clst < 2 || clst >= fs->n_fatent) {	/* Check range */
 1259              		.loc 1 990 0
 1260 0012 3B68     		ldr	r3, [r7, #0]
 1261 0014 012B     		cmp	r3, #1
 1262 0016 04D9     		bls	.L73
 1263              		.loc 1 990 0 is_stmt 0 discriminator 1
 1264 0018 7B68     		ldr	r3, [r7, #4]
 1265 001a DA69     		ldr	r2, [r3, #28]
 1266 001c 3B68     		ldr	r3, [r7, #0]
 1267 001e 9A42     		cmp	r2, r3
 1268 0020 03D8     		bhi	.L74
 1269              	.L73:
 991:../Dave/Generated/src/FATFS002/Src/ff.c **** 		res = FR_INT_ERR;
 1270              		.loc 1 991 0 is_stmt 1
 1271 0022 4FF00203 		mov	r3, #2
 1272 0026 FB77     		strb	r3, [r7, #31]
 1273 0028 67E0     		b	.L75
 1274              	.L74:
 992:../Dave/Generated/src/FATFS002/Src/ff.c **** 
 993:../Dave/Generated/src/FATFS002/Src/ff.c **** 	} else {
 994:../Dave/Generated/src/FATFS002/Src/ff.c **** 		res = FR_OK;
 1275              		.loc 1 994 0
 1276 002a 4FF00003 		mov	r3, #0
 1277 002e FB77     		strb	r3, [r7, #31]
 995:../Dave/Generated/src/FATFS002/Src/ff.c **** 		while (clst < fs->n_fatent) {			/* Not a last link? */
 1278              		.loc 1 995 0
 1279 0030 5AE0     		b	.L76
 1280              	.L84:
 996:../Dave/Generated/src/FATFS002/Src/ff.c **** 			nxt = get_fat(fs, clst);			/* Get cluster status */
 1281              		.loc 1 996 0
 1282 0032 7868     		ldr	r0, [r7, #4]
 1283 0034 3968     		ldr	r1, [r7, #0]
 1284 0036 FFF7FEFF 		bl	get_fat
 1285 003a 3861     		str	r0, [r7, #16]
 997:../Dave/Generated/src/FATFS002/Src/ff.c **** 			if (nxt == 0) break;				/* Empty cluster? */
 1286              		.loc 1 997 0
 1287 003c 3B69     		ldr	r3, [r7, #16]
 1288 003e 002B     		cmp	r3, #0
 1289 0040 58D0     		beq	.L86
 1290              	.L77:
 998:../Dave/Generated/src/FATFS002/Src/ff.c **** 			if (nxt == 1) { res = FR_INT_ERR; break; }	/* Internal error? */
 1291              		.loc 1 998 0
 1292 0042 3B69     		ldr	r3, [r7, #16]
 1293 0044 012B     		cmp	r3, #1
 1294 0046 03D1     		bne	.L78
 1295              		.loc 1 998 0 is_stmt 0 discriminator 1
 1296 0048 4FF00203 		mov	r3, #2
 1297 004c FB77     		strb	r3, [r7, #31]
 1298 004e 54E0     		b	.L75
 1299              	.L78:
 999:../Dave/Generated/src/FATFS002/Src/ff.c **** 			if (nxt == 0xFFFFFFFF) { res = FR_DISK_ERR; break; }	/* Disk error? */
 1300              		.loc 1 999 0 is_stmt 1
 1301 0050 3B69     		ldr	r3, [r7, #16]
 1302 0052 B3F1FF3F 		cmp	r3, #-1
 1303 0056 03D1     		bne	.L79
 1304              		.loc 1 999 0 is_stmt 0 discriminator 1
 1305 0058 4FF00103 		mov	r3, #1
 1306 005c FB77     		strb	r3, [r7, #31]
 1307 005e 4CE0     		b	.L75
 1308              	.L79:
1000:../Dave/Generated/src/FATFS002/Src/ff.c **** 			res = put_fat(fs, clst, 0);			/* Mark the cluster "empty" */
 1309              		.loc 1 1000 0 is_stmt 1
 1310 0060 7868     		ldr	r0, [r7, #4]
 1311 0062 3968     		ldr	r1, [r7, #0]
 1312 0064 4FF00002 		mov	r2, #0
 1313 0068 FFF7FEFF 		bl	put_fat
 1314 006c 0346     		mov	r3, r0
 1315 006e FB77     		strb	r3, [r7, #31]
1001:../Dave/Generated/src/FATFS002/Src/ff.c **** 			if (res != FR_OK) break;
 1316              		.loc 1 1001 0
 1317 0070 FB7F     		ldrb	r3, [r7, #31]	@ zero_extendqisi2
 1318 0072 002B     		cmp	r3, #0
 1319 0074 40D1     		bne	.L87
 1320              	.L80:
1002:../Dave/Generated/src/FATFS002/Src/ff.c **** 			if (fs->free_clust != 0xFFFFFFFF) {	/* Update FSInfo */
 1321              		.loc 1 1002 0
 1322 0076 7B68     		ldr	r3, [r7, #4]
 1323 0078 1B69     		ldr	r3, [r3, #16]
 1324 007a B3F1FF3F 		cmp	r3, #-1
 1325 007e 09D0     		beq	.L81
1003:../Dave/Generated/src/FATFS002/Src/ff.c **** 				fs->free_clust++;
 1326              		.loc 1 1003 0
 1327 0080 7B68     		ldr	r3, [r7, #4]
 1328 0082 1B69     		ldr	r3, [r3, #16]
 1329 0084 03F10102 		add	r2, r3, #1
 1330 0088 7B68     		ldr	r3, [r7, #4]
 1331 008a 1A61     		str	r2, [r3, #16]
1004:../Dave/Generated/src/FATFS002/Src/ff.c **** 				fs->fsi_flag = 1;
 1332              		.loc 1 1004 0
 1333 008c 7B68     		ldr	r3, [r7, #4]
 1334 008e 4FF00102 		mov	r2, #1
 1335 0092 5A71     		strb	r2, [r3, #5]
 1336              	.L81:
1005:../Dave/Generated/src/FATFS002/Src/ff.c **** 			}
1006:../Dave/Generated/src/FATFS002/Src/ff.c **** #if _USE_ERASE
1007:../Dave/Generated/src/FATFS002/Src/ff.c **** 			if (ecl + 1 == nxt) {	/* Next cluster is contiguous */
 1337              		.loc 1 1007 0
 1338 0094 7B69     		ldr	r3, [r7, #20]
 1339 0096 03F10102 		add	r2, r3, #1
 1340 009a 3B69     		ldr	r3, [r7, #16]
 1341 009c 9A42     		cmp	r2, r3
 1342 009e 02D1     		bne	.L82
1008:../Dave/Generated/src/FATFS002/Src/ff.c **** 				ecl = nxt;
 1343              		.loc 1 1008 0
 1344 00a0 3B69     		ldr	r3, [r7, #16]
 1345 00a2 7B61     		str	r3, [r7, #20]
 1346 00a4 1EE0     		b	.L83
 1347              	.L82:
1009:../Dave/Generated/src/FATFS002/Src/ff.c **** 			} else {				/* End of contiguous clusters */ 
1010:../Dave/Generated/src/FATFS002/Src/ff.c **** 				resion[0] = clust2sect(fs, scl);					/* Start sector */
 1348              		.loc 1 1010 0
 1349 00a6 7868     		ldr	r0, [r7, #4]
 1350 00a8 B969     		ldr	r1, [r7, #24]
 1351 00aa FFF7FEFF 		bl	clust2sect
 1352 00ae 0346     		mov	r3, r0
 1353 00b0 BB60     		str	r3, [r7, #8]
1011:../Dave/Generated/src/FATFS002/Src/ff.c **** 				resion[1] = clust2sect(fs, ecl) + fs->csize - 1;	/* End sector */
 1354              		.loc 1 1011 0
 1355 00b2 7868     		ldr	r0, [r7, #4]
 1356 00b4 7969     		ldr	r1, [r7, #20]
 1357 00b6 FFF7FEFF 		bl	clust2sect
 1358 00ba 0246     		mov	r2, r0
 1359 00bc 7B68     		ldr	r3, [r7, #4]
 1360 00be 9B78     		ldrb	r3, [r3, #2]	@ zero_extendqisi2
 1361 00c0 D318     		adds	r3, r2, r3
 1362 00c2 03F1FF33 		add	r3, r3, #-1
 1363 00c6 FB60     		str	r3, [r7, #12]
1012:../Dave/Generated/src/FATFS002/Src/ff.c **** 				disk_ioctl(fs->drv, CTRL_ERASE_SECTOR, resion);		/* Erase the block */
 1364              		.loc 1 1012 0
 1365 00c8 7B68     		ldr	r3, [r7, #4]
 1366 00ca 5A78     		ldrb	r2, [r3, #1]	@ zero_extendqisi2
 1367 00cc 07F10803 		add	r3, r7, #8
 1368 00d0 1046     		mov	r0, r2
 1369 00d2 4FF00401 		mov	r1, #4
 1370 00d6 1A46     		mov	r2, r3
 1371 00d8 FFF7FEFF 		bl	disk_ioctl
1013:../Dave/Generated/src/FATFS002/Src/ff.c **** 				scl = ecl = nxt;
 1372              		.loc 1 1013 0
 1373 00dc 3B69     		ldr	r3, [r7, #16]
 1374 00de 7B61     		str	r3, [r7, #20]
 1375 00e0 7B69     		ldr	r3, [r7, #20]
 1376 00e2 BB61     		str	r3, [r7, #24]
 1377              	.L83:
1014:../Dave/Generated/src/FATFS002/Src/ff.c **** 			}
1015:../Dave/Generated/src/FATFS002/Src/ff.c **** #endif
1016:../Dave/Generated/src/FATFS002/Src/ff.c **** 			clst = nxt;	/* Next cluster */
 1378              		.loc 1 1016 0
 1379 00e4 3B69     		ldr	r3, [r7, #16]
 1380 00e6 3B60     		str	r3, [r7, #0]
 1381              	.L76:
 995:../Dave/Generated/src/FATFS002/Src/ff.c **** 		while (clst < fs->n_fatent) {			/* Not a last link? */
 1382              		.loc 1 995 0 discriminator 1
 1383 00e8 7B68     		ldr	r3, [r7, #4]
 1384 00ea DA69     		ldr	r2, [r3, #28]
 1385 00ec 3B68     		ldr	r3, [r7, #0]
 1386 00ee 9A42     		cmp	r2, r3
 1387 00f0 9FD8     		bhi	.L84
 1388 00f2 02E0     		b	.L75
 1389              	.L86:
 997:../Dave/Generated/src/FATFS002/Src/ff.c **** 			if (nxt == 0) break;				/* Empty cluster? */
 1390              		.loc 1 997 0
 1391 00f4 00BF     		nop
 1392 00f6 00E0     		b	.L75
 1393              	.L87:
1001:../Dave/Generated/src/FATFS002/Src/ff.c **** 			if (res != FR_OK) break;
 1394              		.loc 1 1001 0
 1395 00f8 00BF     		nop
 1396              	.L75:
1017:../Dave/Generated/src/FATFS002/Src/ff.c **** 		}
1018:../Dave/Generated/src/FATFS002/Src/ff.c **** 	}
1019:../Dave/Generated/src/FATFS002/Src/ff.c **** 
1020:../Dave/Generated/src/FATFS002/Src/ff.c **** 	return res;
 1397              		.loc 1 1020 0
 1398 00fa FB7F     		ldrb	r3, [r7, #31]	@ zero_extendqisi2
1021:../Dave/Generated/src/FATFS002/Src/ff.c **** }
 1399              		.loc 1 1021 0
 1400 00fc 1846     		mov	r0, r3
 1401 00fe 07F12007 		add	r7, r7, #32
 1402 0102 BD46     		mov	sp, r7
 1403 0104 80BD     		pop	{r7, pc}
 1404              		.cfi_endproc
 1405              	.LFE9:
 1407 0106 00BF     		.section	.text.create_chain,"ax",%progbits
 1408              		.align	2
 1409              		.thumb
 1410              		.thumb_func
 1412              	create_chain:
 1413              	.LFB10:
1022:../Dave/Generated/src/FATFS002/Src/ff.c **** #endif
1023:../Dave/Generated/src/FATFS002/Src/ff.c **** 
1024:../Dave/Generated/src/FATFS002/Src/ff.c **** 
1025:../Dave/Generated/src/FATFS002/Src/ff.c **** 
1026:../Dave/Generated/src/FATFS002/Src/ff.c **** 
1027:../Dave/Generated/src/FATFS002/Src/ff.c **** /*-----------------------------------------------------------------------*/
1028:../Dave/Generated/src/FATFS002/Src/ff.c **** /* FAT handling - Stretch or Create a cluster chain                      */
1029:../Dave/Generated/src/FATFS002/Src/ff.c **** /*-----------------------------------------------------------------------*/
1030:../Dave/Generated/src/FATFS002/Src/ff.c **** #if !_FS_READONLY
1031:../Dave/Generated/src/FATFS002/Src/ff.c **** static
1032:../Dave/Generated/src/FATFS002/Src/ff.c **** DWORD create_chain (	/* 0:No free cluster, 1:Internal error, 0xFFFFFFFF:Disk error, >=2:New cluster
1033:../Dave/Generated/src/FATFS002/Src/ff.c **** 	FATFS *fs,			/* File system object */
1034:../Dave/Generated/src/FATFS002/Src/ff.c **** 	DWORD clst			/* Cluster# to stretch. 0 means create a new chain. */
1035:../Dave/Generated/src/FATFS002/Src/ff.c **** )
1036:../Dave/Generated/src/FATFS002/Src/ff.c **** {
 1414              		.loc 1 1036 0
 1415              		.cfi_startproc
 1416              		@ args = 0, pretend = 0, frame = 24
 1417              		@ frame_needed = 1, uses_anonymous_args = 0
 1418 0000 80B5     		push	{r7, lr}
 1419              	.LCFI30:
 1420              		.cfi_def_cfa_offset 8
 1421              		.cfi_offset 7, -8
 1422              		.cfi_offset 14, -4
 1423 0002 86B0     		sub	sp, sp, #24
 1424              	.LCFI31:
 1425              		.cfi_def_cfa_offset 32
 1426 0004 00AF     		add	r7, sp, #0
 1427              	.LCFI32:
 1428              		.cfi_def_cfa_register 7
 1429 0006 7860     		str	r0, [r7, #4]
 1430 0008 3960     		str	r1, [r7, #0]
1037:../Dave/Generated/src/FATFS002/Src/ff.c **** 	DWORD cs, ncl, scl;
1038:../Dave/Generated/src/FATFS002/Src/ff.c **** 	FRESULT res;
1039:../Dave/Generated/src/FATFS002/Src/ff.c **** 
1040:../Dave/Generated/src/FATFS002/Src/ff.c **** 
1041:../Dave/Generated/src/FATFS002/Src/ff.c **** 	if (clst == 0) {		/* Create a new chain */
 1431              		.loc 1 1041 0
 1432 000a 3B68     		ldr	r3, [r7, #0]
 1433 000c 002B     		cmp	r3, #0
 1434 000e 0ED1     		bne	.L89
1042:../Dave/Generated/src/FATFS002/Src/ff.c **** 		scl = fs->last_clust;			/* Get suggested start point */
 1435              		.loc 1 1042 0
 1436 0010 7B68     		ldr	r3, [r7, #4]
 1437 0012 DB68     		ldr	r3, [r3, #12]
 1438 0014 3B61     		str	r3, [r7, #16]
1043:../Dave/Generated/src/FATFS002/Src/ff.c **** 		if (!scl || scl >= fs->n_fatent) scl = 1;
 1439              		.loc 1 1043 0
 1440 0016 3B69     		ldr	r3, [r7, #16]
 1441 0018 002B     		cmp	r3, #0
 1442 001a 04D0     		beq	.L90
 1443              		.loc 1 1043 0 is_stmt 0 discriminator 2
 1444 001c 7B68     		ldr	r3, [r7, #4]
 1445 001e DA69     		ldr	r2, [r3, #28]
 1446 0020 3B69     		ldr	r3, [r7, #16]
 1447 0022 9A42     		cmp	r2, r3
 1448 0024 17D8     		bhi	.L91
 1449              	.L90:
 1450              		.loc 1 1043 0 discriminator 1
 1451 0026 4FF00103 		mov	r3, #1
 1452 002a 3B61     		str	r3, [r7, #16]
 1453 002c 13E0     		b	.L91
 1454              	.L89:
1044:../Dave/Generated/src/FATFS002/Src/ff.c **** 	}
1045:../Dave/Generated/src/FATFS002/Src/ff.c **** 	else {					/* Stretch the current chain */
1046:../Dave/Generated/src/FATFS002/Src/ff.c **** 		cs = get_fat(fs, clst);			/* Check the cluster status */
 1455              		.loc 1 1046 0 is_stmt 1
 1456 002e 7868     		ldr	r0, [r7, #4]
 1457 0030 3968     		ldr	r1, [r7, #0]
 1458 0032 FFF7FEFF 		bl	get_fat
 1459 0036 B860     		str	r0, [r7, #8]
1047:../Dave/Generated/src/FATFS002/Src/ff.c **** 		if (cs < 2) return 1;			/* It is an invalid cluster */
 1460              		.loc 1 1047 0
 1461 0038 BB68     		ldr	r3, [r7, #8]
 1462 003a 012B     		cmp	r3, #1
 1463 003c 02D8     		bhi	.L92
 1464              		.loc 1 1047 0 is_stmt 0 discriminator 1
 1465 003e 4FF00103 		mov	r3, #1
 1466 0042 6DE0     		b	.L93
 1467              	.L92:
1048:../Dave/Generated/src/FATFS002/Src/ff.c **** 		if (cs < fs->n_fatent) return cs;	/* It is already followed by next cluster */
 1468              		.loc 1 1048 0 is_stmt 1
 1469 0044 7B68     		ldr	r3, [r7, #4]
 1470 0046 DA69     		ldr	r2, [r3, #28]
 1471 0048 BB68     		ldr	r3, [r7, #8]
 1472 004a 9A42     		cmp	r2, r3
 1473 004c 01D9     		bls	.L94
 1474              		.loc 1 1048 0 is_stmt 0 discriminator 1
 1475 004e BB68     		ldr	r3, [r7, #8]
 1476 0050 66E0     		b	.L93
 1477              	.L94:
1049:../Dave/Generated/src/FATFS002/Src/ff.c **** 		scl = clst;
 1478              		.loc 1 1049 0 is_stmt 1
 1479 0052 3B68     		ldr	r3, [r7, #0]
 1480 0054 3B61     		str	r3, [r7, #16]
 1481              	.L91:
1050:../Dave/Generated/src/FATFS002/Src/ff.c **** 	}
1051:../Dave/Generated/src/FATFS002/Src/ff.c **** 
1052:../Dave/Generated/src/FATFS002/Src/ff.c **** 	ncl = scl;				/* Start cluster */
 1482              		.loc 1 1052 0
 1483 0056 3B69     		ldr	r3, [r7, #16]
 1484 0058 7B61     		str	r3, [r7, #20]
 1485 005a 00E0     		b	.L101
 1486              	.L109:
1053:../Dave/Generated/src/FATFS002/Src/ff.c **** 	for (;;) {
1054:../Dave/Generated/src/FATFS002/Src/ff.c **** 		ncl++;							/* Next cluster */
1055:../Dave/Generated/src/FATFS002/Src/ff.c **** 		if (ncl >= fs->n_fatent) {		/* Wrap around */
1056:../Dave/Generated/src/FATFS002/Src/ff.c **** 			ncl = 2;
1057:../Dave/Generated/src/FATFS002/Src/ff.c **** 			if (ncl > scl) return 0;	/* No free cluster */
1058:../Dave/Generated/src/FATFS002/Src/ff.c **** 		}
1059:../Dave/Generated/src/FATFS002/Src/ff.c **** 		cs = get_fat(fs, ncl);			/* Get the cluster status */
1060:../Dave/Generated/src/FATFS002/Src/ff.c **** 		if (cs == 0) break;				/* Found a free cluster */
1061:../Dave/Generated/src/FATFS002/Src/ff.c **** 		if (cs == 0xFFFFFFFF || cs == 1)/* An error occurred */
1062:../Dave/Generated/src/FATFS002/Src/ff.c **** 			return cs;
1063:../Dave/Generated/src/FATFS002/Src/ff.c **** 		if (ncl == scl) return 0;		/* No free cluster */
1064:../Dave/Generated/src/FATFS002/Src/ff.c **** 	}
 1487              		.loc 1 1064 0
 1488 005c 00BF     		nop
 1489              	.L101:
1054:../Dave/Generated/src/FATFS002/Src/ff.c **** 		ncl++;							/* Next cluster */
 1490              		.loc 1 1054 0
 1491 005e 7B69     		ldr	r3, [r7, #20]
 1492 0060 03F10103 		add	r3, r3, #1
 1493 0064 7B61     		str	r3, [r7, #20]
1055:../Dave/Generated/src/FATFS002/Src/ff.c **** 		if (ncl >= fs->n_fatent) {		/* Wrap around */
 1494              		.loc 1 1055 0
 1495 0066 7B68     		ldr	r3, [r7, #4]
 1496 0068 DA69     		ldr	r2, [r3, #28]
 1497 006a 7B69     		ldr	r3, [r7, #20]
 1498 006c 9A42     		cmp	r2, r3
 1499 006e 09D8     		bhi	.L95
1056:../Dave/Generated/src/FATFS002/Src/ff.c **** 			ncl = 2;
 1500              		.loc 1 1056 0
 1501 0070 4FF00203 		mov	r3, #2
 1502 0074 7B61     		str	r3, [r7, #20]
1057:../Dave/Generated/src/FATFS002/Src/ff.c **** 			if (ncl > scl) return 0;	/* No free cluster */
 1503              		.loc 1 1057 0
 1504 0076 7A69     		ldr	r2, [r7, #20]
 1505 0078 3B69     		ldr	r3, [r7, #16]
 1506 007a 9A42     		cmp	r2, r3
 1507 007c 02D9     		bls	.L95
1057:../Dave/Generated/src/FATFS002/Src/ff.c **** 			if (ncl > scl) return 0;	/* No free cluster */
 1508              		.loc 1 1057 0 is_stmt 0 discriminator 1
 1509 007e 4FF00003 		mov	r3, #0
 1510 0082 4DE0     		b	.L93
 1511              	.L95:
1059:../Dave/Generated/src/FATFS002/Src/ff.c **** 		cs = get_fat(fs, ncl);			/* Get the cluster status */
 1512              		.loc 1 1059 0 is_stmt 1
 1513 0084 7868     		ldr	r0, [r7, #4]
 1514 0086 7969     		ldr	r1, [r7, #20]
 1515 0088 FFF7FEFF 		bl	get_fat
 1516 008c B860     		str	r0, [r7, #8]
1060:../Dave/Generated/src/FATFS002/Src/ff.c **** 		if (cs == 0) break;				/* Found a free cluster */
 1517              		.loc 1 1060 0
 1518 008e BB68     		ldr	r3, [r7, #8]
 1519 0090 002B     		cmp	r3, #0
 1520 0092 0FD0     		beq	.L108
 1521              	.L96:
1061:../Dave/Generated/src/FATFS002/Src/ff.c **** 		if (cs == 0xFFFFFFFF || cs == 1)/* An error occurred */
 1522              		.loc 1 1061 0
 1523 0094 BB68     		ldr	r3, [r7, #8]
 1524 0096 B3F1FF3F 		cmp	r3, #-1
 1525 009a 02D0     		beq	.L98
1061:../Dave/Generated/src/FATFS002/Src/ff.c **** 		if (cs == 0xFFFFFFFF || cs == 1)/* An error occurred */
 1526              		.loc 1 1061 0 is_stmt 0 discriminator 1
 1527 009c BB68     		ldr	r3, [r7, #8]
 1528 009e 012B     		cmp	r3, #1
 1529 00a0 01D1     		bne	.L99
 1530              	.L98:
1062:../Dave/Generated/src/FATFS002/Src/ff.c **** 			return cs;
 1531              		.loc 1 1062 0 is_stmt 1
 1532 00a2 BB68     		ldr	r3, [r7, #8]
 1533 00a4 3CE0     		b	.L93
 1534              	.L99:
1063:../Dave/Generated/src/FATFS002/Src/ff.c **** 		if (ncl == scl) return 0;		/* No free cluster */
 1535              		.loc 1 1063 0
 1536 00a6 7A69     		ldr	r2, [r7, #20]
 1537 00a8 3B69     		ldr	r3, [r7, #16]
 1538 00aa 9A42     		cmp	r2, r3
 1539 00ac D6D1     		bne	.L109
1063:../Dave/Generated/src/FATFS002/Src/ff.c **** 		if (ncl == scl) return 0;		/* No free cluster */
 1540              		.loc 1 1063 0 is_stmt 0 discriminator 1
 1541 00ae 4FF00003 		mov	r3, #0
 1542 00b2 35E0     		b	.L93
 1543              	.L108:
1060:../Dave/Generated/src/FATFS002/Src/ff.c **** 		if (cs == 0) break;				/* Found a free cluster */
 1544              		.loc 1 1060 0 is_stmt 1
 1545 00b4 00BF     		nop
 1546              	.L107:
1065:../Dave/Generated/src/FATFS002/Src/ff.c **** 
1066:../Dave/Generated/src/FATFS002/Src/ff.c **** 	res = put_fat(fs, ncl, 0x0FFFFFFF);	/* Mark the new cluster "last link" */
 1547              		.loc 1 1066 0
 1548 00b6 7868     		ldr	r0, [r7, #4]
 1549 00b8 7969     		ldr	r1, [r7, #20]
 1550 00ba 6FF07042 		mvn	r2, #-268435456
 1551 00be FFF7FEFF 		bl	put_fat
 1552 00c2 0346     		mov	r3, r0
 1553 00c4 FB73     		strb	r3, [r7, #15]
1067:../Dave/Generated/src/FATFS002/Src/ff.c **** 	if (res == FR_OK && clst != 0) {
 1554              		.loc 1 1067 0
 1555 00c6 FB7B     		ldrb	r3, [r7, #15]	@ zero_extendqisi2
 1556 00c8 002B     		cmp	r3, #0
 1557 00ca 09D1     		bne	.L102
 1558              		.loc 1 1067 0 is_stmt 0 discriminator 1
 1559 00cc 3B68     		ldr	r3, [r7, #0]
 1560 00ce 002B     		cmp	r3, #0
 1561 00d0 06D0     		beq	.L102
1068:../Dave/Generated/src/FATFS002/Src/ff.c **** 		res = put_fat(fs, clst, ncl);	/* Link it to the previous one if needed */
 1562              		.loc 1 1068 0 is_stmt 1
 1563 00d2 7868     		ldr	r0, [r7, #4]
 1564 00d4 3968     		ldr	r1, [r7, #0]
 1565 00d6 7A69     		ldr	r2, [r7, #20]
 1566 00d8 FFF7FEFF 		bl	put_fat
 1567 00dc 0346     		mov	r3, r0
 1568 00de FB73     		strb	r3, [r7, #15]
 1569              	.L102:
1069:../Dave/Generated/src/FATFS002/Src/ff.c **** 	}
1070:../Dave/Generated/src/FATFS002/Src/ff.c **** 	if (res == FR_OK) {
 1570              		.loc 1 1070 0
 1571 00e0 FB7B     		ldrb	r3, [r7, #15]	@ zero_extendqisi2
 1572 00e2 002B     		cmp	r3, #0
 1573 00e4 12D1     		bne	.L103
1071:../Dave/Generated/src/FATFS002/Src/ff.c **** 		fs->last_clust = ncl;			/* Update FSINFO */
 1574              		.loc 1 1071 0
 1575 00e6 7B68     		ldr	r3, [r7, #4]
 1576 00e8 7A69     		ldr	r2, [r7, #20]
 1577 00ea DA60     		str	r2, [r3, #12]
1072:../Dave/Generated/src/FATFS002/Src/ff.c **** 		if (fs->free_clust != 0xFFFFFFFF) {
 1578              		.loc 1 1072 0
 1579 00ec 7B68     		ldr	r3, [r7, #4]
 1580 00ee 1B69     		ldr	r3, [r3, #16]
 1581 00f0 B3F1FF3F 		cmp	r3, #-1
 1582 00f4 13D0     		beq	.L104
1073:../Dave/Generated/src/FATFS002/Src/ff.c **** 			fs->free_clust--;
 1583              		.loc 1 1073 0
 1584 00f6 7B68     		ldr	r3, [r7, #4]
 1585 00f8 1B69     		ldr	r3, [r3, #16]
 1586 00fa 03F1FF32 		add	r2, r3, #-1
 1587 00fe 7B68     		ldr	r3, [r7, #4]
 1588 0100 1A61     		str	r2, [r3, #16]
1074:../Dave/Generated/src/FATFS002/Src/ff.c **** 			fs->fsi_flag = 1;
 1589              		.loc 1 1074 0
 1590 0102 7B68     		ldr	r3, [r7, #4]
 1591 0104 4FF00102 		mov	r2, #1
 1592 0108 5A71     		strb	r2, [r3, #5]
 1593 010a 08E0     		b	.L104
 1594              	.L103:
1075:../Dave/Generated/src/FATFS002/Src/ff.c **** 		}
1076:../Dave/Generated/src/FATFS002/Src/ff.c **** 	} else {
1077:../Dave/Generated/src/FATFS002/Src/ff.c **** 		ncl = (res == FR_DISK_ERR) ? 0xFFFFFFFF : 1;
 1595              		.loc 1 1077 0
 1596 010c FB7B     		ldrb	r3, [r7, #15]	@ zero_extendqisi2
 1597 010e 012B     		cmp	r3, #1
 1598 0110 02D1     		bne	.L105
 1599              		.loc 1 1077 0 is_stmt 0 discriminator 1
 1600 0112 4FF0FF33 		mov	r3, #-1
 1601 0116 01E0     		b	.L106
 1602              	.L105:
 1603              		.loc 1 1077 0 discriminator 2
 1604 0118 4FF00103 		mov	r3, #1
 1605              	.L106:
 1606              		.loc 1 1077 0 discriminator 3
 1607 011c 7B61     		str	r3, [r7, #20]
 1608              	.L104:
1078:../Dave/Generated/src/FATFS002/Src/ff.c **** 	}
1079:../Dave/Generated/src/FATFS002/Src/ff.c **** 
1080:../Dave/Generated/src/FATFS002/Src/ff.c **** 	return ncl;		/* Return new cluster number or error code */
 1609              		.loc 1 1080 0 is_stmt 1
 1610 011e 7B69     		ldr	r3, [r7, #20]
 1611              	.L93:
1081:../Dave/Generated/src/FATFS002/Src/ff.c **** }
 1612              		.loc 1 1081 0
 1613 0120 1846     		mov	r0, r3
 1614 0122 07F11807 		add	r7, r7, #24
 1615 0126 BD46     		mov	sp, r7
 1616 0128 80BD     		pop	{r7, pc}
 1617              		.cfi_endproc
 1618              	.LFE10:
 1620 012a 00BF     		.section	.text.dir_sdi,"ax",%progbits
 1621              		.align	2
 1622              		.thumb
 1623              		.thumb_func
 1625              	dir_sdi:
 1626              	.LFB11:
1082:../Dave/Generated/src/FATFS002/Src/ff.c **** #endif /* !_FS_READONLY */
1083:../Dave/Generated/src/FATFS002/Src/ff.c **** 
1084:../Dave/Generated/src/FATFS002/Src/ff.c **** 
1085:../Dave/Generated/src/FATFS002/Src/ff.c **** 
1086:../Dave/Generated/src/FATFS002/Src/ff.c **** /*-----------------------------------------------------------------------*/
1087:../Dave/Generated/src/FATFS002/Src/ff.c **** /* FAT handling - Convert offset into cluster with link map table        */
1088:../Dave/Generated/src/FATFS002/Src/ff.c **** /*-----------------------------------------------------------------------*/
1089:../Dave/Generated/src/FATFS002/Src/ff.c **** 
1090:../Dave/Generated/src/FATFS002/Src/ff.c **** #if _USE_FASTSEEK
1091:../Dave/Generated/src/FATFS002/Src/ff.c **** static
1092:../Dave/Generated/src/FATFS002/Src/ff.c **** DWORD clmt_clust (	/* <2:Error, >=2:Cluster number */
1093:../Dave/Generated/src/FATFS002/Src/ff.c **** 	FIL* fp,		/* Pointer to the file object */
1094:../Dave/Generated/src/FATFS002/Src/ff.c **** 	DWORD ofs		/* File offset to be converted to cluster# */
1095:../Dave/Generated/src/FATFS002/Src/ff.c **** )
1096:../Dave/Generated/src/FATFS002/Src/ff.c **** {
1097:../Dave/Generated/src/FATFS002/Src/ff.c **** 	DWORD cl, ncl, *tbl;
1098:../Dave/Generated/src/FATFS002/Src/ff.c **** 
1099:../Dave/Generated/src/FATFS002/Src/ff.c **** 
1100:../Dave/Generated/src/FATFS002/Src/ff.c **** 	tbl = fp->cltbl + 1;	/* Top of CLMT */
1101:../Dave/Generated/src/FATFS002/Src/ff.c **** 	cl = ofs / SS(fp->fs) / fp->fs->csize;	/* Cluster order from top of the file */
1102:../Dave/Generated/src/FATFS002/Src/ff.c **** 	for (;;) {
1103:../Dave/Generated/src/FATFS002/Src/ff.c **** 		ncl = *tbl++;			/* Number of cluters in the fragment */
1104:../Dave/Generated/src/FATFS002/Src/ff.c **** 		if (!ncl) return 0;		/* End of table? (error) */
1105:../Dave/Generated/src/FATFS002/Src/ff.c **** 		if (cl < ncl) break;	/* In this fragment? */
1106:../Dave/Generated/src/FATFS002/Src/ff.c **** 		cl -= ncl; tbl++;		/* Next fragment */
1107:../Dave/Generated/src/FATFS002/Src/ff.c **** 	}
1108:../Dave/Generated/src/FATFS002/Src/ff.c **** 	return cl + *tbl;	/* Return the cluster number */
1109:../Dave/Generated/src/FATFS002/Src/ff.c **** }
1110:../Dave/Generated/src/FATFS002/Src/ff.c **** #endif	/* _USE_FASTSEEK */
1111:../Dave/Generated/src/FATFS002/Src/ff.c **** 
1112:../Dave/Generated/src/FATFS002/Src/ff.c **** 
1113:../Dave/Generated/src/FATFS002/Src/ff.c **** 
1114:../Dave/Generated/src/FATFS002/Src/ff.c **** /*-----------------------------------------------------------------------*/
1115:../Dave/Generated/src/FATFS002/Src/ff.c **** /* Directory handling - Set directory index                              */
1116:../Dave/Generated/src/FATFS002/Src/ff.c **** /*-----------------------------------------------------------------------*/
1117:../Dave/Generated/src/FATFS002/Src/ff.c **** 
1118:../Dave/Generated/src/FATFS002/Src/ff.c **** static
1119:../Dave/Generated/src/FATFS002/Src/ff.c **** FRESULT dir_sdi (
1120:../Dave/Generated/src/FATFS002/Src/ff.c **** 	DIR *dj,		/* Pointer to directory object */
1121:../Dave/Generated/src/FATFS002/Src/ff.c **** 	WORD idx		/* Directory index number */
1122:../Dave/Generated/src/FATFS002/Src/ff.c **** )
1123:../Dave/Generated/src/FATFS002/Src/ff.c **** {
 1627              		.loc 1 1123 0
 1628              		.cfi_startproc
 1629              		@ args = 0, pretend = 0, frame = 16
 1630              		@ frame_needed = 1, uses_anonymous_args = 0
 1631 0000 80B5     		push	{r7, lr}
 1632              	.LCFI33:
 1633              		.cfi_def_cfa_offset 8
 1634              		.cfi_offset 7, -8
 1635              		.cfi_offset 14, -4
 1636 0002 84B0     		sub	sp, sp, #16
 1637              	.LCFI34:
 1638              		.cfi_def_cfa_offset 24
 1639 0004 00AF     		add	r7, sp, #0
 1640              	.LCFI35:
 1641              		.cfi_def_cfa_register 7
 1642 0006 7860     		str	r0, [r7, #4]
 1643 0008 0B46     		mov	r3, r1
 1644 000a 7B80     		strh	r3, [r7, #2]	@ movhi
1124:../Dave/Generated/src/FATFS002/Src/ff.c **** 	DWORD clst;
1125:../Dave/Generated/src/FATFS002/Src/ff.c **** 	WORD ic;
1126:../Dave/Generated/src/FATFS002/Src/ff.c **** 
1127:../Dave/Generated/src/FATFS002/Src/ff.c **** 
1128:../Dave/Generated/src/FATFS002/Src/ff.c **** 	dj->index = idx;
 1645              		.loc 1 1128 0
 1646 000c 7B68     		ldr	r3, [r7, #4]
 1647 000e 7A88     		ldrh	r2, [r7, #2]	@ movhi
 1648 0010 DA80     		strh	r2, [r3, #6]	@ movhi
1129:../Dave/Generated/src/FATFS002/Src/ff.c **** 	clst = dj->sclust;
 1649              		.loc 1 1129 0
 1650 0012 7B68     		ldr	r3, [r7, #4]
 1651 0014 9B68     		ldr	r3, [r3, #8]
 1652 0016 FB60     		str	r3, [r7, #12]
1130:../Dave/Generated/src/FATFS002/Src/ff.c **** 	if (clst == 1 || clst >= dj->fs->n_fatent)	/* Check start cluster range */
 1653              		.loc 1 1130 0
 1654 0018 FB68     		ldr	r3, [r7, #12]
 1655 001a 012B     		cmp	r3, #1
 1656 001c 05D0     		beq	.L111
 1657              		.loc 1 1130 0 is_stmt 0 discriminator 1
 1658 001e 7B68     		ldr	r3, [r7, #4]
 1659 0020 1B68     		ldr	r3, [r3, #0]
 1660 0022 DA69     		ldr	r2, [r3, #28]
 1661 0024 FB68     		ldr	r3, [r7, #12]
 1662 0026 9A42     		cmp	r2, r3
 1663 0028 02D8     		bhi	.L112
 1664              	.L111:
1131:../Dave/Generated/src/FATFS002/Src/ff.c **** 		return FR_INT_ERR;
 1665              		.loc 1 1131 0 is_stmt 1
 1666 002a 4FF00203 		mov	r3, #2
 1667 002e 6FE0     		b	.L113
 1668              	.L112:
1132:../Dave/Generated/src/FATFS002/Src/ff.c **** 	if (!clst && dj->fs->fs_type == FS_FAT32)	/* Replace cluster# 0 with root cluster# if in FAT32 */
 1669              		.loc 1 1132 0
 1670 0030 FB68     		ldr	r3, [r7, #12]
 1671 0032 002B     		cmp	r3, #0
 1672 0034 08D1     		bne	.L114
 1673              		.loc 1 1132 0 is_stmt 0 discriminator 1
 1674 0036 7B68     		ldr	r3, [r7, #4]
 1675 0038 1B68     		ldr	r3, [r3, #0]
 1676 003a 1B78     		ldrb	r3, [r3, #0]	@ zero_extendqisi2
 1677 003c 032B     		cmp	r3, #3
 1678 003e 03D1     		bne	.L114
1133:../Dave/Generated/src/FATFS002/Src/ff.c **** 		clst = dj->fs->dirbase;
 1679              		.loc 1 1133 0 is_stmt 1
 1680 0040 7B68     		ldr	r3, [r7, #4]
 1681 0042 1B68     		ldr	r3, [r3, #0]
 1682 0044 9B6A     		ldr	r3, [r3, #40]
 1683 0046 FB60     		str	r3, [r7, #12]
 1684              	.L114:
1134:../Dave/Generated/src/FATFS002/Src/ff.c **** 
1135:../Dave/Generated/src/FATFS002/Src/ff.c **** 	if (clst == 0) {	/* Static table (root-dir in FAT12/16) */
 1685              		.loc 1 1135 0
 1686 0048 FB68     		ldr	r3, [r7, #12]
 1687 004a 002B     		cmp	r3, #0
 1688 004c 16D1     		bne	.L115
1136:../Dave/Generated/src/FATFS002/Src/ff.c **** 		dj->clust = clst;
 1689              		.loc 1 1136 0
 1690 004e 7B68     		ldr	r3, [r7, #4]
 1691 0050 FA68     		ldr	r2, [r7, #12]
 1692 0052 DA60     		str	r2, [r3, #12]
1137:../Dave/Generated/src/FATFS002/Src/ff.c **** 		if (idx >= dj->fs->n_rootdir)		/* Index is out of range */
 1693              		.loc 1 1137 0
 1694 0054 7B68     		ldr	r3, [r7, #4]
 1695 0056 1B68     		ldr	r3, [r3, #0]
 1696 0058 1B89     		ldrh	r3, [r3, #8]
 1697 005a 7A88     		ldrh	r2, [r7, #2]
 1698 005c 9A42     		cmp	r2, r3
 1699 005e 02D3     		bcc	.L116
1138:../Dave/Generated/src/FATFS002/Src/ff.c **** 			return FR_INT_ERR;
 1700              		.loc 1 1138 0
 1701 0060 4FF00203 		mov	r3, #2
 1702 0064 54E0     		b	.L113
 1703              	.L116:
1139:../Dave/Generated/src/FATFS002/Src/ff.c **** 		dj->sect = dj->fs->dirbase + idx / (SS(dj->fs) / SZ_DIR);	/* Sector# */
 1704              		.loc 1 1139 0
 1705 0066 7B68     		ldr	r3, [r7, #4]
 1706 0068 1B68     		ldr	r3, [r3, #0]
 1707 006a 9A6A     		ldr	r2, [r3, #40]
 1708 006c 7B88     		ldrh	r3, [r7, #2]
 1709 006e 4FEA1313 		lsr	r3, r3, #4
 1710 0072 9BB2     		uxth	r3, r3
 1711 0074 D218     		adds	r2, r2, r3
 1712 0076 7B68     		ldr	r3, [r7, #4]
 1713 0078 1A61     		str	r2, [r3, #16]
 1714 007a 39E0     		b	.L117
 1715              	.L115:
1140:../Dave/Generated/src/FATFS002/Src/ff.c **** 	}
1141:../Dave/Generated/src/FATFS002/Src/ff.c **** 	else {				/* Dynamic table (sub-dirs or root-dir in FAT32) */
1142:../Dave/Generated/src/FATFS002/Src/ff.c **** 		ic = SS(dj->fs) / SZ_DIR * dj->fs->csize;	/* Entries per cluster */
 1716              		.loc 1 1142 0
 1717 007c 7B68     		ldr	r3, [r7, #4]
 1718 007e 1B68     		ldr	r3, [r3, #0]
 1719 0080 9B78     		ldrb	r3, [r3, #2]	@ zero_extendqisi2
 1720 0082 4FEA0313 		lsl	r3, r3, #4
 1721 0086 7B81     		strh	r3, [r7, #10]	@ movhi
1143:../Dave/Generated/src/FATFS002/Src/ff.c **** 		while (idx >= ic) {	/* Follow cluster chain */
 1722              		.loc 1 1143 0
 1723 0088 1DE0     		b	.L118
 1724              	.L122:
1144:../Dave/Generated/src/FATFS002/Src/ff.c **** 			clst = get_fat(dj->fs, clst);				/* Get next cluster */
 1725              		.loc 1 1144 0
 1726 008a 7B68     		ldr	r3, [r7, #4]
 1727 008c 1B68     		ldr	r3, [r3, #0]
 1728 008e 1846     		mov	r0, r3
 1729 0090 F968     		ldr	r1, [r7, #12]
 1730 0092 FFF7FEFF 		bl	get_fat
 1731 0096 F860     		str	r0, [r7, #12]
1145:../Dave/Generated/src/FATFS002/Src/ff.c **** 			if (clst == 0xFFFFFFFF) return FR_DISK_ERR;	/* Disk error */
 1732              		.loc 1 1145 0
 1733 0098 FB68     		ldr	r3, [r7, #12]
 1734 009a B3F1FF3F 		cmp	r3, #-1
 1735 009e 02D1     		bne	.L119
 1736              		.loc 1 1145 0 is_stmt 0 discriminator 1
 1737 00a0 4FF00103 		mov	r3, #1
 1738 00a4 34E0     		b	.L113
 1739              	.L119:
1146:../Dave/Generated/src/FATFS002/Src/ff.c **** 			if (clst < 2 || clst >= dj->fs->n_fatent)	/* Reached to end of table or int error */
 1740              		.loc 1 1146 0 is_stmt 1
 1741 00a6 FB68     		ldr	r3, [r7, #12]
 1742 00a8 012B     		cmp	r3, #1
 1743 00aa 05D9     		bls	.L120
 1744              		.loc 1 1146 0 is_stmt 0 discriminator 1
 1745 00ac 7B68     		ldr	r3, [r7, #4]
 1746 00ae 1B68     		ldr	r3, [r3, #0]
 1747 00b0 DA69     		ldr	r2, [r3, #28]
 1748 00b2 FB68     		ldr	r3, [r7, #12]
 1749 00b4 9A42     		cmp	r2, r3
 1750 00b6 02D8     		bhi	.L121
 1751              	.L120:
1147:../Dave/Generated/src/FATFS002/Src/ff.c **** 				return FR_INT_ERR;
 1752              		.loc 1 1147 0 is_stmt 1
 1753 00b8 4FF00203 		mov	r3, #2
 1754 00bc 28E0     		b	.L113
 1755              	.L121:
1148:../Dave/Generated/src/FATFS002/Src/ff.c **** 			idx -= ic;
 1756              		.loc 1 1148 0
 1757 00be 7A88     		ldrh	r2, [r7, #2]	@ movhi
 1758 00c0 7B89     		ldrh	r3, [r7, #10]	@ movhi
 1759 00c2 D31A     		subs	r3, r2, r3
 1760 00c4 7B80     		strh	r3, [r7, #2]	@ movhi
 1761              	.L118:
1143:../Dave/Generated/src/FATFS002/Src/ff.c **** 		while (idx >= ic) {	/* Follow cluster chain */
 1762              		.loc 1 1143 0 discriminator 1
 1763 00c6 7A88     		ldrh	r2, [r7, #2]
 1764 00c8 7B89     		ldrh	r3, [r7, #10]
 1765 00ca 9A42     		cmp	r2, r3
 1766 00cc DDD2     		bcs	.L122
1149:../Dave/Generated/src/FATFS002/Src/ff.c **** 		}
1150:../Dave/Generated/src/FATFS002/Src/ff.c **** 		dj->clust = clst;
 1767              		.loc 1 1150 0
 1768 00ce 7B68     		ldr	r3, [r7, #4]
 1769 00d0 FA68     		ldr	r2, [r7, #12]
 1770 00d2 DA60     		str	r2, [r3, #12]
1151:../Dave/Generated/src/FATFS002/Src/ff.c **** 		dj->sect = clust2sect(dj->fs, clst) + idx / (SS(dj->fs) / SZ_DIR);	/* Sector# */
 1771              		.loc 1 1151 0
 1772 00d4 7B68     		ldr	r3, [r7, #4]
 1773 00d6 1B68     		ldr	r3, [r3, #0]
 1774 00d8 1846     		mov	r0, r3
 1775 00da F968     		ldr	r1, [r7, #12]
 1776 00dc FFF7FEFF 		bl	clust2sect
 1777 00e0 0246     		mov	r2, r0
 1778 00e2 7B88     		ldrh	r3, [r7, #2]
 1779 00e4 4FEA1313 		lsr	r3, r3, #4
 1780 00e8 9BB2     		uxth	r3, r3
 1781 00ea D218     		adds	r2, r2, r3
 1782 00ec 7B68     		ldr	r3, [r7, #4]
 1783 00ee 1A61     		str	r2, [r3, #16]
 1784              	.L117:
1152:../Dave/Generated/src/FATFS002/Src/ff.c **** 	}
1153:../Dave/Generated/src/FATFS002/Src/ff.c **** 
1154:../Dave/Generated/src/FATFS002/Src/ff.c **** 	dj->dir = dj->fs->win + (idx % (SS(dj->fs) / SZ_DIR)) * SZ_DIR;	/* Ptr to the entry in the sector 
 1785              		.loc 1 1154 0
 1786 00f0 7B68     		ldr	r3, [r7, #4]
 1787 00f2 1A68     		ldr	r2, [r3, #0]
 1788 00f4 7B88     		ldrh	r3, [r7, #2]
 1789 00f6 03F00F03 		and	r3, r3, #15
 1790 00fa 4FEA4313 		lsl	r3, r3, #5
 1791 00fe 03F13003 		add	r3, r3, #48
 1792 0102 D318     		adds	r3, r2, r3
 1793 0104 03F10402 		add	r2, r3, #4
 1794 0108 7B68     		ldr	r3, [r7, #4]
 1795 010a 5A61     		str	r2, [r3, #20]
1155:../Dave/Generated/src/FATFS002/Src/ff.c **** 
1156:../Dave/Generated/src/FATFS002/Src/ff.c **** 	return FR_OK;	/* Seek succeeded */
 1796              		.loc 1 1156 0
 1797 010c 4FF00003 		mov	r3, #0
 1798              	.L113:
1157:../Dave/Generated/src/FATFS002/Src/ff.c **** }
 1799              		.loc 1 1157 0
 1800 0110 1846     		mov	r0, r3
 1801 0112 07F11007 		add	r7, r7, #16
 1802 0116 BD46     		mov	sp, r7
 1803 0118 80BD     		pop	{r7, pc}
 1804              		.cfi_endproc
 1805              	.LFE11:
 1807              		.section	.text.dir_next,"ax",%progbits
 1808              		.align	2
 1809              		.thumb
 1810              		.thumb_func
 1812              	dir_next:
 1813              	.LFB12:
1158:../Dave/Generated/src/FATFS002/Src/ff.c **** 
1159:../Dave/Generated/src/FATFS002/Src/ff.c **** 
1160:../Dave/Generated/src/FATFS002/Src/ff.c **** 
1161:../Dave/Generated/src/FATFS002/Src/ff.c **** 
1162:../Dave/Generated/src/FATFS002/Src/ff.c **** /*-----------------------------------------------------------------------*/
1163:../Dave/Generated/src/FATFS002/Src/ff.c **** /* Directory handling - Move directory index next                        */
1164:../Dave/Generated/src/FATFS002/Src/ff.c **** /*-----------------------------------------------------------------------*/
1165:../Dave/Generated/src/FATFS002/Src/ff.c **** 
1166:../Dave/Generated/src/FATFS002/Src/ff.c **** static
1167:../Dave/Generated/src/FATFS002/Src/ff.c **** FRESULT dir_next (	/* FR_OK:Succeeded, FR_NO_FILE:End of table, FR_DENIED:EOT and could not stretch
1168:../Dave/Generated/src/FATFS002/Src/ff.c **** 	DIR *dj,		/* Pointer to directory object */
1169:../Dave/Generated/src/FATFS002/Src/ff.c **** 	int stretch		/* 0: Do not stretch table, 1: Stretch table if needed */
1170:../Dave/Generated/src/FATFS002/Src/ff.c **** )
1171:../Dave/Generated/src/FATFS002/Src/ff.c **** {
 1814              		.loc 1 1171 0
 1815              		.cfi_startproc
 1816              		@ args = 0, pretend = 0, frame = 16
 1817              		@ frame_needed = 1, uses_anonymous_args = 0
 1818 0000 90B5     		push	{r4, r7, lr}
 1819              	.LCFI36:
 1820              		.cfi_def_cfa_offset 12
 1821              		.cfi_offset 4, -12
 1822              		.cfi_offset 7, -8
 1823              		.cfi_offset 14, -4
 1824 0002 85B0     		sub	sp, sp, #20
 1825              	.LCFI37:
 1826              		.cfi_def_cfa_offset 32
 1827 0004 00AF     		add	r7, sp, #0
 1828              	.LCFI38:
 1829              		.cfi_def_cfa_register 7
 1830 0006 7860     		str	r0, [r7, #4]
 1831 0008 3960     		str	r1, [r7, #0]
1172:../Dave/Generated/src/FATFS002/Src/ff.c **** 	DWORD clst;
1173:../Dave/Generated/src/FATFS002/Src/ff.c **** 	WORD i;
1174:../Dave/Generated/src/FATFS002/Src/ff.c **** 
1175:../Dave/Generated/src/FATFS002/Src/ff.c **** 
1176:../Dave/Generated/src/FATFS002/Src/ff.c **** 	stretch = stretch;		/* To suppress warning on read-only cfg. */
1177:../Dave/Generated/src/FATFS002/Src/ff.c **** 	i = dj->index + 1;
 1832              		.loc 1 1177 0
 1833 000a 7B68     		ldr	r3, [r7, #4]
 1834 000c DB88     		ldrh	r3, [r3, #6]
 1835 000e 03F10103 		add	r3, r3, #1
 1836 0012 3B81     		strh	r3, [r7, #8]	@ movhi
1178:../Dave/Generated/src/FATFS002/Src/ff.c **** 	if (!i || !dj->sect)	/* Report EOT when index has reached 65535 */
 1837              		.loc 1 1178 0
 1838 0014 3B89     		ldrh	r3, [r7, #8]
 1839 0016 002B     		cmp	r3, #0
 1840 0018 03D0     		beq	.L124
 1841              		.loc 1 1178 0 is_stmt 0 discriminator 1
 1842 001a 7B68     		ldr	r3, [r7, #4]
 1843 001c 1B69     		ldr	r3, [r3, #16]
 1844 001e 002B     		cmp	r3, #0
 1845 0020 02D1     		bne	.L125
 1846              	.L124:
1179:../Dave/Generated/src/FATFS002/Src/ff.c **** 		return FR_NO_FILE;
 1847              		.loc 1 1179 0 is_stmt 1
 1848 0022 4FF00403 		mov	r3, #4
 1849 0026 D5E0     		b	.L126
 1850              	.L125:
1180:../Dave/Generated/src/FATFS002/Src/ff.c **** 
1181:../Dave/Generated/src/FATFS002/Src/ff.c **** 	if (!(i % (SS(dj->fs) / SZ_DIR))) {	/* Sector changed? */
 1851              		.loc 1 1181 0
 1852 0028 3B89     		ldrh	r3, [r7, #8]	@ movhi
 1853 002a 03F00F03 		and	r3, r3, #15
 1854 002e 9BB2     		uxth	r3, r3
 1855 0030 002B     		cmp	r3, #0
 1856 0032 40F0BC80 		bne	.L127
1182:../Dave/Generated/src/FATFS002/Src/ff.c **** 		dj->sect++;					/* Next sector */
 1857              		.loc 1 1182 0
 1858 0036 7B68     		ldr	r3, [r7, #4]
 1859 0038 1B69     		ldr	r3, [r3, #16]
 1860 003a 03F10102 		add	r2, r3, #1
 1861 003e 7B68     		ldr	r3, [r7, #4]
 1862 0040 1A61     		str	r2, [r3, #16]
1183:../Dave/Generated/src/FATFS002/Src/ff.c **** 
1184:../Dave/Generated/src/FATFS002/Src/ff.c **** 		if (dj->clust == 0) {	/* Static table */
 1863              		.loc 1 1184 0
 1864 0042 7B68     		ldr	r3, [r7, #4]
 1865 0044 DB68     		ldr	r3, [r3, #12]
 1866 0046 002B     		cmp	r3, #0
 1867 0048 09D1     		bne	.L128
1185:../Dave/Generated/src/FATFS002/Src/ff.c **** 			if (i >= dj->fs->n_rootdir)	/* Report EOT when end of table */
 1868              		.loc 1 1185 0
 1869 004a 7B68     		ldr	r3, [r7, #4]
 1870 004c 1B68     		ldr	r3, [r3, #0]
 1871 004e 1B89     		ldrh	r3, [r3, #8]
 1872 0050 3A89     		ldrh	r2, [r7, #8]
 1873 0052 9A42     		cmp	r2, r3
 1874 0054 C0F0AB80 		bcc	.L127
1186:../Dave/Generated/src/FATFS002/Src/ff.c **** 				return FR_NO_FILE;
 1875              		.loc 1 1186 0
 1876 0058 4FF00403 		mov	r3, #4
 1877 005c BAE0     		b	.L126
 1878              	.L128:
1187:../Dave/Generated/src/FATFS002/Src/ff.c **** 		}
1188:../Dave/Generated/src/FATFS002/Src/ff.c **** 		else {					/* Dynamic table */
1189:../Dave/Generated/src/FATFS002/Src/ff.c **** 			if (((i / (SS(dj->fs) / SZ_DIR)) & (dj->fs->csize - 1)) == 0) {	/* Cluster changed? */
 1879              		.loc 1 1189 0
 1880 005e 3B89     		ldrh	r3, [r7, #8]
 1881 0060 4FEA1313 		lsr	r3, r3, #4
 1882 0064 9BB2     		uxth	r3, r3
 1883 0066 1A46     		mov	r2, r3
 1884 0068 7B68     		ldr	r3, [r7, #4]
 1885 006a 1B68     		ldr	r3, [r3, #0]
 1886 006c 9B78     		ldrb	r3, [r3, #2]	@ zero_extendqisi2
 1887 006e 03F1FF33 		add	r3, r3, #-1
 1888 0072 1340     		ands	r3, r3, r2
 1889 0074 002B     		cmp	r3, #0
 1890 0076 40F09A80 		bne	.L127
1190:../Dave/Generated/src/FATFS002/Src/ff.c **** 				clst = get_fat(dj->fs, dj->clust);				/* Get next cluster */
 1891              		.loc 1 1190 0
 1892 007a 7B68     		ldr	r3, [r7, #4]
 1893 007c 1A68     		ldr	r2, [r3, #0]
 1894 007e 7B68     		ldr	r3, [r7, #4]
 1895 0080 DB68     		ldr	r3, [r3, #12]
 1896 0082 1046     		mov	r0, r2
 1897 0084 1946     		mov	r1, r3
 1898 0086 FFF7FEFF 		bl	get_fat
 1899 008a F860     		str	r0, [r7, #12]
1191:../Dave/Generated/src/FATFS002/Src/ff.c **** 				if (clst <= 1) return FR_INT_ERR;
 1900              		.loc 1 1191 0
 1901 008c FB68     		ldr	r3, [r7, #12]
 1902 008e 012B     		cmp	r3, #1
 1903 0090 02D8     		bhi	.L129
 1904              		.loc 1 1191 0 is_stmt 0 discriminator 1
 1905 0092 4FF00203 		mov	r3, #2
 1906 0096 9DE0     		b	.L126
 1907              	.L129:
1192:../Dave/Generated/src/FATFS002/Src/ff.c **** 				if (clst == 0xFFFFFFFF) return FR_DISK_ERR;
 1908              		.loc 1 1192 0 is_stmt 1
 1909 0098 FB68     		ldr	r3, [r7, #12]
 1910 009a B3F1FF3F 		cmp	r3, #-1
 1911 009e 02D1     		bne	.L130
 1912              		.loc 1 1192 0 is_stmt 0 discriminator 1
 1913 00a0 4FF00103 		mov	r3, #1
 1914 00a4 96E0     		b	.L126
 1915              	.L130:
1193:../Dave/Generated/src/FATFS002/Src/ff.c **** 				if (clst >= dj->fs->n_fatent) {					/* When it reached end of dynamic table */
 1916              		.loc 1 1193 0 is_stmt 1
 1917 00a6 7B68     		ldr	r3, [r7, #4]
 1918 00a8 1B68     		ldr	r3, [r3, #0]
 1919 00aa DA69     		ldr	r2, [r3, #28]
 1920 00ac FB68     		ldr	r3, [r7, #12]
 1921 00ae 9A42     		cmp	r2, r3
 1922 00b0 71D8     		bhi	.L131
 1923              	.LBB3:
1194:../Dave/Generated/src/FATFS002/Src/ff.c **** #if !_FS_READONLY
1195:../Dave/Generated/src/FATFS002/Src/ff.c **** 					BYTE c;
1196:../Dave/Generated/src/FATFS002/Src/ff.c **** 					if (!stretch) return FR_NO_FILE;			/* When do not stretch, report EOT */
 1924              		.loc 1 1196 0
 1925 00b2 3B68     		ldr	r3, [r7, #0]
 1926 00b4 002B     		cmp	r3, #0
 1927 00b6 02D1     		bne	.L132
 1928              		.loc 1 1196 0 is_stmt 0 discriminator 1
 1929 00b8 4FF00403 		mov	r3, #4
 1930 00bc 8AE0     		b	.L126
 1931              	.L132:
1197:../Dave/Generated/src/FATFS002/Src/ff.c **** 					clst = create_chain(dj->fs, dj->clust);		/* Stretch cluster chain */
 1932              		.loc 1 1197 0 is_stmt 1
 1933 00be 7B68     		ldr	r3, [r7, #4]
 1934 00c0 1A68     		ldr	r2, [r3, #0]
 1935 00c2 7B68     		ldr	r3, [r7, #4]
 1936 00c4 DB68     		ldr	r3, [r3, #12]
 1937 00c6 1046     		mov	r0, r2
 1938 00c8 1946     		mov	r1, r3
 1939 00ca FFF7FEFF 		bl	create_chain
 1940 00ce F860     		str	r0, [r7, #12]
1198:../Dave/Generated/src/FATFS002/Src/ff.c **** 					if (clst == 0) return FR_DENIED;			/* No free cluster */
 1941              		.loc 1 1198 0
 1942 00d0 FB68     		ldr	r3, [r7, #12]
 1943 00d2 002B     		cmp	r3, #0
 1944 00d4 02D1     		bne	.L133
 1945              		.loc 1 1198 0 is_stmt 0 discriminator 1
 1946 00d6 4FF00703 		mov	r3, #7
 1947 00da 7BE0     		b	.L126
 1948              	.L133:
1199:../Dave/Generated/src/FATFS002/Src/ff.c **** 					if (clst == 1) return FR_INT_ERR;
 1949              		.loc 1 1199 0 is_stmt 1
 1950 00dc FB68     		ldr	r3, [r7, #12]
 1951 00de 012B     		cmp	r3, #1
 1952 00e0 02D1     		bne	.L134
 1953              		.loc 1 1199 0 is_stmt 0 discriminator 1
 1954 00e2 4FF00203 		mov	r3, #2
 1955 00e6 75E0     		b	.L126
 1956              	.L134:
1200:../Dave/Generated/src/FATFS002/Src/ff.c **** 					if (clst == 0xFFFFFFFF) return FR_DISK_ERR;
 1957              		.loc 1 1200 0 is_stmt 1
 1958 00e8 FB68     		ldr	r3, [r7, #12]
 1959 00ea B3F1FF3F 		cmp	r3, #-1
 1960 00ee 02D1     		bne	.L135
 1961              		.loc 1 1200 0 is_stmt 0 discriminator 1
 1962 00f0 4FF00103 		mov	r3, #1
 1963 00f4 6EE0     		b	.L126
 1964              	.L135:
1201:../Dave/Generated/src/FATFS002/Src/ff.c **** 					/* Clean-up stretched table */
1202:../Dave/Generated/src/FATFS002/Src/ff.c **** 					if (move_window(dj->fs, 0)) return FR_DISK_ERR;	/* Flush active window */
 1965              		.loc 1 1202 0 is_stmt 1
 1966 00f6 7B68     		ldr	r3, [r7, #4]
 1967 00f8 1B68     		ldr	r3, [r3, #0]
 1968 00fa 1846     		mov	r0, r3
 1969 00fc 4FF00001 		mov	r1, #0
 1970 0100 FFF7FEFF 		bl	move_window
 1971 0104 0346     		mov	r3, r0
 1972 0106 002B     		cmp	r3, #0
 1973 0108 02D0     		beq	.L136
 1974              		.loc 1 1202 0 is_stmt 0 discriminator 1
 1975 010a 4FF00103 		mov	r3, #1
 1976 010e 61E0     		b	.L126
 1977              	.L136:
1203:../Dave/Generated/src/FATFS002/Src/ff.c **** 					mem_set(dj->fs->win, 0, SS(dj->fs));			/* Clear window buffer */
 1978              		.loc 1 1203 0 is_stmt 1
 1979 0110 7B68     		ldr	r3, [r7, #4]
 1980 0112 1B68     		ldr	r3, [r3, #0]
 1981 0114 03F13403 		add	r3, r3, #52
 1982 0118 1846     		mov	r0, r3
 1983 011a 4FF00001 		mov	r1, #0
 1984 011e 4FF40072 		mov	r2, #512
 1985 0122 FFF7FEFF 		bl	mem_set
1204:../Dave/Generated/src/FATFS002/Src/ff.c **** 					dj->fs->winsect = clust2sect(dj->fs, clst);	/* Cluster start sector */
 1986              		.loc 1 1204 0
 1987 0126 7B68     		ldr	r3, [r7, #4]
 1988 0128 1C68     		ldr	r4, [r3, #0]
 1989 012a 7B68     		ldr	r3, [r7, #4]
 1990 012c 1B68     		ldr	r3, [r3, #0]
 1991 012e 1846     		mov	r0, r3
 1992 0130 F968     		ldr	r1, [r7, #12]
 1993 0132 FFF7FEFF 		bl	clust2sect
 1994 0136 0346     		mov	r3, r0
 1995 0138 2363     		str	r3, [r4, #48]
1205:../Dave/Generated/src/FATFS002/Src/ff.c **** 					for (c = 0; c < dj->fs->csize; c++) {		/* Fill the new cluster with 0 */
 1996              		.loc 1 1205 0
 1997 013a 4FF00003 		mov	r3, #0
 1998 013e FB72     		strb	r3, [r7, #11]
 1999 0140 1BE0     		b	.L137
 2000              	.L139:
1206:../Dave/Generated/src/FATFS002/Src/ff.c **** 						dj->fs->wflag = 1;
 2001              		.loc 1 1206 0
 2002 0142 7B68     		ldr	r3, [r7, #4]
 2003 0144 1B68     		ldr	r3, [r3, #0]
 2004 0146 4FF00102 		mov	r2, #1
 2005 014a 1A71     		strb	r2, [r3, #4]
1207:../Dave/Generated/src/FATFS002/Src/ff.c **** 						if (move_window(dj->fs, 0)) return FR_DISK_ERR;
 2006              		.loc 1 1207 0
 2007 014c 7B68     		ldr	r3, [r7, #4]
 2008 014e 1B68     		ldr	r3, [r3, #0]
 2009 0150 1846     		mov	r0, r3
 2010 0152 4FF00001 		mov	r1, #0
 2011 0156 FFF7FEFF 		bl	move_window
 2012 015a 0346     		mov	r3, r0
 2013 015c 002B     		cmp	r3, #0
 2014 015e 02D0     		beq	.L138
 2015              		.loc 1 1207 0 is_stmt 0 discriminator 1
 2016 0160 4FF00103 		mov	r3, #1
 2017 0164 36E0     		b	.L126
 2018              	.L138:
1208:../Dave/Generated/src/FATFS002/Src/ff.c **** 						dj->fs->winsect++;
 2019              		.loc 1 1208 0 is_stmt 1
 2020 0166 7B68     		ldr	r3, [r7, #4]
 2021 0168 1B68     		ldr	r3, [r3, #0]
 2022 016a 1A6B     		ldr	r2, [r3, #48]
 2023 016c 02F10102 		add	r2, r2, #1
 2024 0170 1A63     		str	r2, [r3, #48]
1205:../Dave/Generated/src/FATFS002/Src/ff.c **** 					for (c = 0; c < dj->fs->csize; c++) {		/* Fill the new cluster with 0 */
 2025              		.loc 1 1205 0
 2026 0172 FB7A     		ldrb	r3, [r7, #11]
 2027 0174 03F10103 		add	r3, r3, #1
 2028 0178 FB72     		strb	r3, [r7, #11]
 2029              	.L137:
1205:../Dave/Generated/src/FATFS002/Src/ff.c **** 					for (c = 0; c < dj->fs->csize; c++) {		/* Fill the new cluster with 0 */
 2030              		.loc 1 1205 0 is_stmt 0 discriminator 1
 2031 017a 7B68     		ldr	r3, [r7, #4]
 2032 017c 1B68     		ldr	r3, [r3, #0]
 2033 017e 9B78     		ldrb	r3, [r3, #2]	@ zero_extendqisi2
 2034 0180 FA7A     		ldrb	r2, [r7, #11]	@ zero_extendqisi2
 2035 0182 9A42     		cmp	r2, r3
 2036 0184 DDD3     		bcc	.L139
1209:../Dave/Generated/src/FATFS002/Src/ff.c **** 					}
1210:../Dave/Generated/src/FATFS002/Src/ff.c **** 					dj->fs->winsect -= c;						/* Rewind window address */
 2037              		.loc 1 1210 0 is_stmt 1
 2038 0186 7B68     		ldr	r3, [r7, #4]
 2039 0188 1B68     		ldr	r3, [r3, #0]
 2040 018a 7A68     		ldr	r2, [r7, #4]
 2041 018c 1268     		ldr	r2, [r2, #0]
 2042 018e 116B     		ldr	r1, [r2, #48]
 2043 0190 FA7A     		ldrb	r2, [r7, #11]	@ zero_extendqisi2
 2044 0192 8A1A     		subs	r2, r1, r2
 2045 0194 1A63     		str	r2, [r3, #48]
 2046              	.L131:
 2047              	.LBE3:
1211:../Dave/Generated/src/FATFS002/Src/ff.c **** #else
1212:../Dave/Generated/src/FATFS002/Src/ff.c **** 					return FR_NO_FILE;			/* Report EOT */
1213:../Dave/Generated/src/FATFS002/Src/ff.c **** #endif
1214:../Dave/Generated/src/FATFS002/Src/ff.c **** 				}
1215:../Dave/Generated/src/FATFS002/Src/ff.c **** 				dj->clust = clst;				/* Initialize data for new cluster */
 2048              		.loc 1 1215 0
 2049 0196 7B68     		ldr	r3, [r7, #4]
 2050 0198 FA68     		ldr	r2, [r7, #12]
 2051 019a DA60     		str	r2, [r3, #12]
1216:../Dave/Generated/src/FATFS002/Src/ff.c **** 				dj->sect = clust2sect(dj->fs, clst);
 2052              		.loc 1 1216 0
 2053 019c 7B68     		ldr	r3, [r7, #4]
 2054 019e 1B68     		ldr	r3, [r3, #0]
 2055 01a0 1846     		mov	r0, r3
 2056 01a2 F968     		ldr	r1, [r7, #12]
 2057 01a4 FFF7FEFF 		bl	clust2sect
 2058 01a8 0246     		mov	r2, r0
 2059 01aa 7B68     		ldr	r3, [r7, #4]
 2060 01ac 1A61     		str	r2, [r3, #16]
 2061              	.L127:
1217:../Dave/Generated/src/FATFS002/Src/ff.c **** 			}
1218:../Dave/Generated/src/FATFS002/Src/ff.c **** 		}
1219:../Dave/Generated/src/FATFS002/Src/ff.c **** 	}
1220:../Dave/Generated/src/FATFS002/Src/ff.c **** 
1221:../Dave/Generated/src/FATFS002/Src/ff.c **** 	dj->index = i;
 2062              		.loc 1 1221 0
 2063 01ae 7B68     		ldr	r3, [r7, #4]
 2064 01b0 3A89     		ldrh	r2, [r7, #8]	@ movhi
 2065 01b2 DA80     		strh	r2, [r3, #6]	@ movhi
1222:../Dave/Generated/src/FATFS002/Src/ff.c **** 	dj->dir = dj->fs->win + (i % (SS(dj->fs) / SZ_DIR)) * SZ_DIR;
 2066              		.loc 1 1222 0
 2067 01b4 7B68     		ldr	r3, [r7, #4]
 2068 01b6 1A68     		ldr	r2, [r3, #0]
 2069 01b8 3B89     		ldrh	r3, [r7, #8]
 2070 01ba 03F00F03 		and	r3, r3, #15
 2071 01be 4FEA4313 		lsl	r3, r3, #5
 2072 01c2 03F13003 		add	r3, r3, #48
 2073 01c6 D318     		adds	r3, r2, r3
 2074 01c8 03F10402 		add	r2, r3, #4
 2075 01cc 7B68     		ldr	r3, [r7, #4]
 2076 01ce 5A61     		str	r2, [r3, #20]
1223:../Dave/Generated/src/FATFS002/Src/ff.c **** 
1224:../Dave/Generated/src/FATFS002/Src/ff.c **** 	return FR_OK;
 2077              		.loc 1 1224 0
 2078 01d0 4FF00003 		mov	r3, #0
 2079              	.L126:
1225:../Dave/Generated/src/FATFS002/Src/ff.c **** }
 2080              		.loc 1 1225 0
 2081 01d4 1846     		mov	r0, r3
 2082 01d6 07F11407 		add	r7, r7, #20
 2083 01da BD46     		mov	sp, r7
 2084 01dc 90BD     		pop	{r4, r7, pc}
 2085              		.cfi_endproc
 2086              	.LFE12:
 2088 01de 00BF     		.section	.text.dir_find,"ax",%progbits
 2089              		.align	2
 2090              		.thumb
 2091              		.thumb_func
 2093              	dir_find:
 2094              	.LFB13:
1226:../Dave/Generated/src/FATFS002/Src/ff.c **** 
1227:../Dave/Generated/src/FATFS002/Src/ff.c **** 
1228:../Dave/Generated/src/FATFS002/Src/ff.c **** 
1229:../Dave/Generated/src/FATFS002/Src/ff.c **** 
1230:../Dave/Generated/src/FATFS002/Src/ff.c **** /*-----------------------------------------------------------------------*/
1231:../Dave/Generated/src/FATFS002/Src/ff.c **** /* LFN handling - Test/Pick/Fit an LFN segment from/to directory entry   */
1232:../Dave/Generated/src/FATFS002/Src/ff.c **** /*-----------------------------------------------------------------------*/
1233:../Dave/Generated/src/FATFS002/Src/ff.c **** #if _USE_LFN
1234:../Dave/Generated/src/FATFS002/Src/ff.c **** static
1235:../Dave/Generated/src/FATFS002/Src/ff.c **** const BYTE LfnOfs[] = {1,3,5,7,9,14,16,18,20,22,24,28,30};	/* Offset of LFN chars in the directory 
1236:../Dave/Generated/src/FATFS002/Src/ff.c **** 
1237:../Dave/Generated/src/FATFS002/Src/ff.c **** 
1238:../Dave/Generated/src/FATFS002/Src/ff.c **** static
1239:../Dave/Generated/src/FATFS002/Src/ff.c **** int cmp_lfn (			/* 1:Matched, 0:Not matched */
1240:../Dave/Generated/src/FATFS002/Src/ff.c **** 	WCHAR *lfnbuf,		/* Pointer to the LFN to be compared */
1241:../Dave/Generated/src/FATFS002/Src/ff.c **** 	BYTE *dir			/* Pointer to the directory entry containing a part of LFN */
1242:../Dave/Generated/src/FATFS002/Src/ff.c **** )
1243:../Dave/Generated/src/FATFS002/Src/ff.c **** {
1244:../Dave/Generated/src/FATFS002/Src/ff.c **** 	UINT i, s;
1245:../Dave/Generated/src/FATFS002/Src/ff.c **** 	WCHAR wc, uc;
1246:../Dave/Generated/src/FATFS002/Src/ff.c **** 
1247:../Dave/Generated/src/FATFS002/Src/ff.c **** 
1248:../Dave/Generated/src/FATFS002/Src/ff.c **** 	i = ((dir[LDIR_Ord] & ~LLE) - 1) * 13;	/* Get offset in the LFN buffer */
1249:../Dave/Generated/src/FATFS002/Src/ff.c **** 	s = 0; wc = 1;
1250:../Dave/Generated/src/FATFS002/Src/ff.c **** 	do {
1251:../Dave/Generated/src/FATFS002/Src/ff.c **** 		uc = LD_WORD(dir+LfnOfs[s]);	/* Pick an LFN character from the entry */
1252:../Dave/Generated/src/FATFS002/Src/ff.c **** 		if (wc) {	/* Last char has not been processed */
1253:../Dave/Generated/src/FATFS002/Src/ff.c **** 			wc = ff_wtoupper(uc);		/* Convert it to upper case */
1254:../Dave/Generated/src/FATFS002/Src/ff.c **** 			if (i >= _MAX_LFN || wc != ff_wtoupper(lfnbuf[i++]))	/* Compare it */
1255:../Dave/Generated/src/FATFS002/Src/ff.c **** 				return 0;				/* Not matched */
1256:../Dave/Generated/src/FATFS002/Src/ff.c **** 		} else {
1257:../Dave/Generated/src/FATFS002/Src/ff.c **** 			if (uc != 0xFFFF) return 0;	/* Check filler */
1258:../Dave/Generated/src/FATFS002/Src/ff.c **** 		}
1259:../Dave/Generated/src/FATFS002/Src/ff.c **** 	} while (++s < 13);				/* Repeat until all chars in the entry are checked */
1260:../Dave/Generated/src/FATFS002/Src/ff.c **** 
1261:../Dave/Generated/src/FATFS002/Src/ff.c **** 	if ((dir[LDIR_Ord] & LLE) && wc && lfnbuf[i])	/* Last segment matched but different length */
1262:../Dave/Generated/src/FATFS002/Src/ff.c **** 		return 0;
1263:../Dave/Generated/src/FATFS002/Src/ff.c **** 
1264:../Dave/Generated/src/FATFS002/Src/ff.c **** 	return 1;						/* The part of LFN matched */
1265:../Dave/Generated/src/FATFS002/Src/ff.c **** }
1266:../Dave/Generated/src/FATFS002/Src/ff.c **** 
1267:../Dave/Generated/src/FATFS002/Src/ff.c **** 
1268:../Dave/Generated/src/FATFS002/Src/ff.c **** 
1269:../Dave/Generated/src/FATFS002/Src/ff.c **** static
1270:../Dave/Generated/src/FATFS002/Src/ff.c **** int pick_lfn (			/* 1:Succeeded, 0:Buffer overflow */
1271:../Dave/Generated/src/FATFS002/Src/ff.c **** 	WCHAR *lfnbuf,		/* Pointer to the Unicode-LFN buffer */
1272:../Dave/Generated/src/FATFS002/Src/ff.c **** 	BYTE *dir			/* Pointer to the directory entry */
1273:../Dave/Generated/src/FATFS002/Src/ff.c **** )
1274:../Dave/Generated/src/FATFS002/Src/ff.c **** {
1275:../Dave/Generated/src/FATFS002/Src/ff.c **** 	UINT i, s;
1276:../Dave/Generated/src/FATFS002/Src/ff.c **** 	WCHAR wc, uc;
1277:../Dave/Generated/src/FATFS002/Src/ff.c **** 
1278:../Dave/Generated/src/FATFS002/Src/ff.c **** 
1279:../Dave/Generated/src/FATFS002/Src/ff.c **** 	i = ((dir[LDIR_Ord] & 0x3F) - 1) * 13;	/* Offset in the LFN buffer */
1280:../Dave/Generated/src/FATFS002/Src/ff.c **** 
1281:../Dave/Generated/src/FATFS002/Src/ff.c **** 	s = 0; wc = 1;
1282:../Dave/Generated/src/FATFS002/Src/ff.c **** 	do {
1283:../Dave/Generated/src/FATFS002/Src/ff.c **** 		uc = LD_WORD(dir+LfnOfs[s]);		/* Pick an LFN character from the entry */
1284:../Dave/Generated/src/FATFS002/Src/ff.c **** 		if (wc) {	/* Last char has not been processed */
1285:../Dave/Generated/src/FATFS002/Src/ff.c **** 			if (i >= _MAX_LFN) return 0;	/* Buffer overflow? */
1286:../Dave/Generated/src/FATFS002/Src/ff.c **** 			lfnbuf[i++] = wc = uc;			/* Store it */
1287:../Dave/Generated/src/FATFS002/Src/ff.c **** 		} else {
1288:../Dave/Generated/src/FATFS002/Src/ff.c **** 			if (uc != 0xFFFF) return 0;		/* Check filler */
1289:../Dave/Generated/src/FATFS002/Src/ff.c **** 		}
1290:../Dave/Generated/src/FATFS002/Src/ff.c **** 	} while (++s < 13);						/* Read all character in the entry */
1291:../Dave/Generated/src/FATFS002/Src/ff.c **** 
1292:../Dave/Generated/src/FATFS002/Src/ff.c **** 	if (dir[LDIR_Ord] & LLE) {				/* Put terminator if it is the last LFN part */
1293:../Dave/Generated/src/FATFS002/Src/ff.c **** 		if (i >= _MAX_LFN) return 0;		/* Buffer overflow? */
1294:../Dave/Generated/src/FATFS002/Src/ff.c **** 		lfnbuf[i] = 0;
1295:../Dave/Generated/src/FATFS002/Src/ff.c **** 	}
1296:../Dave/Generated/src/FATFS002/Src/ff.c **** 
1297:../Dave/Generated/src/FATFS002/Src/ff.c **** 	return 1;
1298:../Dave/Generated/src/FATFS002/Src/ff.c **** }
1299:../Dave/Generated/src/FATFS002/Src/ff.c **** 
1300:../Dave/Generated/src/FATFS002/Src/ff.c **** 
1301:../Dave/Generated/src/FATFS002/Src/ff.c **** #if !_FS_READONLY
1302:../Dave/Generated/src/FATFS002/Src/ff.c **** static
1303:../Dave/Generated/src/FATFS002/Src/ff.c **** void fit_lfn (
1304:../Dave/Generated/src/FATFS002/Src/ff.c **** 	const WCHAR *lfnbuf,	/* Pointer to the LFN buffer */
1305:../Dave/Generated/src/FATFS002/Src/ff.c **** 	BYTE *dir,				/* Pointer to the directory entry */
1306:../Dave/Generated/src/FATFS002/Src/ff.c **** 	BYTE ord,				/* LFN order (1-20) */
1307:../Dave/Generated/src/FATFS002/Src/ff.c **** 	BYTE sum				/* SFN sum */
1308:../Dave/Generated/src/FATFS002/Src/ff.c **** )
1309:../Dave/Generated/src/FATFS002/Src/ff.c **** {
1310:../Dave/Generated/src/FATFS002/Src/ff.c **** 	UINT i, s;
1311:../Dave/Generated/src/FATFS002/Src/ff.c **** 	WCHAR wc;
1312:../Dave/Generated/src/FATFS002/Src/ff.c **** 
1313:../Dave/Generated/src/FATFS002/Src/ff.c **** 
1314:../Dave/Generated/src/FATFS002/Src/ff.c **** 	dir[LDIR_Chksum] = sum;			/* Set check sum */
1315:../Dave/Generated/src/FATFS002/Src/ff.c **** 	dir[LDIR_Attr] = AM_LFN;		/* Set attribute. LFN entry */
1316:../Dave/Generated/src/FATFS002/Src/ff.c **** 	dir[LDIR_Type] = 0;
1317:../Dave/Generated/src/FATFS002/Src/ff.c **** 	ST_WORD(dir+LDIR_FstClusLO, 0);
1318:../Dave/Generated/src/FATFS002/Src/ff.c **** 
1319:../Dave/Generated/src/FATFS002/Src/ff.c **** 	i = (ord - 1) * 13;				/* Get offset in the LFN buffer */
1320:../Dave/Generated/src/FATFS002/Src/ff.c **** 	s = wc = 0;
1321:../Dave/Generated/src/FATFS002/Src/ff.c **** 	do {
1322:../Dave/Generated/src/FATFS002/Src/ff.c **** 		if (wc != 0xFFFF) wc = lfnbuf[i++];	/* Get an effective char */
1323:../Dave/Generated/src/FATFS002/Src/ff.c **** 		ST_WORD(dir+LfnOfs[s], wc);	/* Put it */
1324:../Dave/Generated/src/FATFS002/Src/ff.c **** 		if (!wc) wc = 0xFFFF;		/* Padding chars following last char */
1325:../Dave/Generated/src/FATFS002/Src/ff.c **** 	} while (++s < 13);
1326:../Dave/Generated/src/FATFS002/Src/ff.c **** 	if (wc == 0xFFFF || !lfnbuf[i]) ord |= LLE;	/* Bottom LFN part is the start of LFN sequence */
1327:../Dave/Generated/src/FATFS002/Src/ff.c **** 	dir[LDIR_Ord] = ord;			/* Set the LFN order */
1328:../Dave/Generated/src/FATFS002/Src/ff.c **** }
1329:../Dave/Generated/src/FATFS002/Src/ff.c **** 
1330:../Dave/Generated/src/FATFS002/Src/ff.c **** #endif
1331:../Dave/Generated/src/FATFS002/Src/ff.c **** #endif
1332:../Dave/Generated/src/FATFS002/Src/ff.c **** 
1333:../Dave/Generated/src/FATFS002/Src/ff.c **** 
1334:../Dave/Generated/src/FATFS002/Src/ff.c **** 
1335:../Dave/Generated/src/FATFS002/Src/ff.c **** /*-----------------------------------------------------------------------*/
1336:../Dave/Generated/src/FATFS002/Src/ff.c **** /* Create numbered name                                                  */
1337:../Dave/Generated/src/FATFS002/Src/ff.c **** /*-----------------------------------------------------------------------*/
1338:../Dave/Generated/src/FATFS002/Src/ff.c **** #if _USE_LFN
1339:../Dave/Generated/src/FATFS002/Src/ff.c **** void gen_numname (
1340:../Dave/Generated/src/FATFS002/Src/ff.c **** 	BYTE *dst,			/* Pointer to generated SFN */
1341:../Dave/Generated/src/FATFS002/Src/ff.c **** 	const BYTE *src,	/* Pointer to source SFN to be modified */
1342:../Dave/Generated/src/FATFS002/Src/ff.c **** 	const WCHAR *lfn,	/* Pointer to LFN */
1343:../Dave/Generated/src/FATFS002/Src/ff.c **** 	WORD seq			/* Sequence number */
1344:../Dave/Generated/src/FATFS002/Src/ff.c **** )
1345:../Dave/Generated/src/FATFS002/Src/ff.c **** {
1346:../Dave/Generated/src/FATFS002/Src/ff.c **** 	BYTE ns[8], c;
1347:../Dave/Generated/src/FATFS002/Src/ff.c **** 	UINT i, j;
1348:../Dave/Generated/src/FATFS002/Src/ff.c **** 
1349:../Dave/Generated/src/FATFS002/Src/ff.c **** 
1350:../Dave/Generated/src/FATFS002/Src/ff.c **** 	mem_cpy(dst, src, 11);
1351:../Dave/Generated/src/FATFS002/Src/ff.c **** 
1352:../Dave/Generated/src/FATFS002/Src/ff.c **** 	if (seq > 5) {	/* On many collisions, generate a hash number instead of sequential number */
1353:../Dave/Generated/src/FATFS002/Src/ff.c **** 		do seq = (seq >> 1) + (seq << 15) + (WORD)*lfn++; while (*lfn);
1354:../Dave/Generated/src/FATFS002/Src/ff.c **** 	}
1355:../Dave/Generated/src/FATFS002/Src/ff.c **** 
1356:../Dave/Generated/src/FATFS002/Src/ff.c **** 	/* itoa (hexdecimal) */
1357:../Dave/Generated/src/FATFS002/Src/ff.c **** 	i = 7;
1358:../Dave/Generated/src/FATFS002/Src/ff.c **** 	do {
1359:../Dave/Generated/src/FATFS002/Src/ff.c **** 		c = (seq % 16) + '0';
1360:../Dave/Generated/src/FATFS002/Src/ff.c **** 		if (c > '9') c += 7;
1361:../Dave/Generated/src/FATFS002/Src/ff.c **** 		ns[i--] = c;
1362:../Dave/Generated/src/FATFS002/Src/ff.c **** 		seq /= 16;
1363:../Dave/Generated/src/FATFS002/Src/ff.c **** 	} while (seq);
1364:../Dave/Generated/src/FATFS002/Src/ff.c **** 	ns[i] = '~';
1365:../Dave/Generated/src/FATFS002/Src/ff.c **** 
1366:../Dave/Generated/src/FATFS002/Src/ff.c **** 	/* Append the number */
1367:../Dave/Generated/src/FATFS002/Src/ff.c **** 	for (j = 0; j < i && dst[j] != ' '; j++) {
1368:../Dave/Generated/src/FATFS002/Src/ff.c **** 		if (IsDBCS1(dst[j])) {
1369:../Dave/Generated/src/FATFS002/Src/ff.c **** 			if (j == i - 1) break;
1370:../Dave/Generated/src/FATFS002/Src/ff.c **** 			j++;
1371:../Dave/Generated/src/FATFS002/Src/ff.c **** 		}
1372:../Dave/Generated/src/FATFS002/Src/ff.c **** 	}
1373:../Dave/Generated/src/FATFS002/Src/ff.c **** 	do {
1374:../Dave/Generated/src/FATFS002/Src/ff.c **** 		dst[j++] = (i < 8) ? ns[i++] : ' ';
1375:../Dave/Generated/src/FATFS002/Src/ff.c **** 	} while (j < 8);
1376:../Dave/Generated/src/FATFS002/Src/ff.c **** }
1377:../Dave/Generated/src/FATFS002/Src/ff.c **** #endif
1378:../Dave/Generated/src/FATFS002/Src/ff.c **** 
1379:../Dave/Generated/src/FATFS002/Src/ff.c **** 
1380:../Dave/Generated/src/FATFS002/Src/ff.c **** 
1381:../Dave/Generated/src/FATFS002/Src/ff.c **** 
1382:../Dave/Generated/src/FATFS002/Src/ff.c **** /*-----------------------------------------------------------------------*/
1383:../Dave/Generated/src/FATFS002/Src/ff.c **** /* Calculate sum of an SFN                                               */
1384:../Dave/Generated/src/FATFS002/Src/ff.c **** /*-----------------------------------------------------------------------*/
1385:../Dave/Generated/src/FATFS002/Src/ff.c **** #if _USE_LFN
1386:../Dave/Generated/src/FATFS002/Src/ff.c **** static
1387:../Dave/Generated/src/FATFS002/Src/ff.c **** BYTE sum_sfn (
1388:../Dave/Generated/src/FATFS002/Src/ff.c **** 	const BYTE *dir		/* Ptr to directory entry */
1389:../Dave/Generated/src/FATFS002/Src/ff.c **** )
1390:../Dave/Generated/src/FATFS002/Src/ff.c **** {
1391:../Dave/Generated/src/FATFS002/Src/ff.c **** 	BYTE sum = 0;
1392:../Dave/Generated/src/FATFS002/Src/ff.c **** 	UINT n = 11;
1393:../Dave/Generated/src/FATFS002/Src/ff.c **** 
1394:../Dave/Generated/src/FATFS002/Src/ff.c **** 	do sum = (sum >> 1) + (sum << 7) + *dir++; while (--n);
1395:../Dave/Generated/src/FATFS002/Src/ff.c **** 	return sum;
1396:../Dave/Generated/src/FATFS002/Src/ff.c **** }
1397:../Dave/Generated/src/FATFS002/Src/ff.c **** #endif
1398:../Dave/Generated/src/FATFS002/Src/ff.c **** 
1399:../Dave/Generated/src/FATFS002/Src/ff.c **** 
1400:../Dave/Generated/src/FATFS002/Src/ff.c **** 
1401:../Dave/Generated/src/FATFS002/Src/ff.c **** 
1402:../Dave/Generated/src/FATFS002/Src/ff.c **** /*-----------------------------------------------------------------------*/
1403:../Dave/Generated/src/FATFS002/Src/ff.c **** /* Directory handling - Find an object in the directory                  */
1404:../Dave/Generated/src/FATFS002/Src/ff.c **** /*-----------------------------------------------------------------------*/
1405:../Dave/Generated/src/FATFS002/Src/ff.c **** 
1406:../Dave/Generated/src/FATFS002/Src/ff.c **** static
1407:../Dave/Generated/src/FATFS002/Src/ff.c **** FRESULT dir_find (
1408:../Dave/Generated/src/FATFS002/Src/ff.c **** 	DIR *dj			/* Pointer to the directory object linked to the file name */
1409:../Dave/Generated/src/FATFS002/Src/ff.c **** )
1410:../Dave/Generated/src/FATFS002/Src/ff.c **** {
 2095              		.loc 1 1410 0
 2096              		.cfi_startproc
 2097              		@ args = 0, pretend = 0, frame = 24
 2098              		@ frame_needed = 1, uses_anonymous_args = 0
 2099 0000 80B5     		push	{r7, lr}
 2100              	.LCFI39:
 2101              		.cfi_def_cfa_offset 8
 2102              		.cfi_offset 7, -8
 2103              		.cfi_offset 14, -4
 2104 0002 86B0     		sub	sp, sp, #24
 2105              	.LCFI40:
 2106              		.cfi_def_cfa_offset 32
 2107 0004 00AF     		add	r7, sp, #0
 2108              	.LCFI41:
 2109              		.cfi_def_cfa_register 7
 2110 0006 7860     		str	r0, [r7, #4]
1411:../Dave/Generated/src/FATFS002/Src/ff.c **** 	FRESULT res;
1412:../Dave/Generated/src/FATFS002/Src/ff.c **** 	BYTE c, *dir;
1413:../Dave/Generated/src/FATFS002/Src/ff.c **** #if _USE_LFN
1414:../Dave/Generated/src/FATFS002/Src/ff.c **** 	BYTE a, ord, sum;
1415:../Dave/Generated/src/FATFS002/Src/ff.c **** #endif
1416:../Dave/Generated/src/FATFS002/Src/ff.c **** 
1417:../Dave/Generated/src/FATFS002/Src/ff.c **** 	res = dir_sdi(dj, 0);			/* Rewind directory object */
 2111              		.loc 1 1417 0
 2112 0008 7868     		ldr	r0, [r7, #4]
 2113 000a 4FF00001 		mov	r1, #0
 2114 000e FFF7FEFF 		bl	dir_sdi
 2115 0012 0346     		mov	r3, r0
 2116 0014 FB75     		strb	r3, [r7, #23]
1418:../Dave/Generated/src/FATFS002/Src/ff.c **** 	if (res != FR_OK) return res;
 2117              		.loc 1 1418 0
 2118 0016 FB7D     		ldrb	r3, [r7, #23]	@ zero_extendqisi2
 2119 0018 002B     		cmp	r3, #0
 2120 001a 01D0     		beq	.L141
 2121              		.loc 1 1418 0 is_stmt 0 discriminator 1
 2122 001c FB7D     		ldrb	r3, [r7, #23]	@ zero_extendqisi2
 2123 001e 3BE0     		b	.L142
 2124              	.L141:
1419:../Dave/Generated/src/FATFS002/Src/ff.c **** 
1420:../Dave/Generated/src/FATFS002/Src/ff.c **** #if _USE_LFN
1421:../Dave/Generated/src/FATFS002/Src/ff.c **** 	ord = sum = 0xFF;
1422:../Dave/Generated/src/FATFS002/Src/ff.c **** #endif
1423:../Dave/Generated/src/FATFS002/Src/ff.c **** 	do {
1424:../Dave/Generated/src/FATFS002/Src/ff.c **** 		res = move_window(dj->fs, dj->sect);
 2125              		.loc 1 1424 0 is_stmt 1
 2126 0020 7B68     		ldr	r3, [r7, #4]
 2127 0022 1A68     		ldr	r2, [r3, #0]
 2128 0024 7B68     		ldr	r3, [r7, #4]
 2129 0026 1B69     		ldr	r3, [r3, #16]
 2130 0028 1046     		mov	r0, r2
 2131 002a 1946     		mov	r1, r3
 2132 002c FFF7FEFF 		bl	move_window
 2133 0030 0346     		mov	r3, r0
 2134 0032 FB75     		strb	r3, [r7, #23]
1425:../Dave/Generated/src/FATFS002/Src/ff.c **** 		if (res != FR_OK) break;
 2135              		.loc 1 1425 0
 2136 0034 FB7D     		ldrb	r3, [r7, #23]	@ zero_extendqisi2
 2137 0036 002B     		cmp	r3, #0
 2138 0038 2AD1     		bne	.L147
 2139              	.L143:
1426:../Dave/Generated/src/FATFS002/Src/ff.c **** 		dir = dj->dir;					/* Ptr to the directory entry of current index */
 2140              		.loc 1 1426 0
 2141 003a 7B68     		ldr	r3, [r7, #4]
 2142 003c 5B69     		ldr	r3, [r3, #20]
 2143 003e 3B61     		str	r3, [r7, #16]
1427:../Dave/Generated/src/FATFS002/Src/ff.c **** 		c = dir[DIR_Name];
 2144              		.loc 1 1427 0
 2145 0040 3B69     		ldr	r3, [r7, #16]
 2146 0042 1B78     		ldrb	r3, [r3, #0]
 2147 0044 FB73     		strb	r3, [r7, #15]
1428:../Dave/Generated/src/FATFS002/Src/ff.c **** 		if (c == 0) { res = FR_NO_FILE; break; }	/* Reached to end of table */
 2148              		.loc 1 1428 0
 2149 0046 FB7B     		ldrb	r3, [r7, #15]	@ zero_extendqisi2
 2150 0048 002B     		cmp	r3, #0
 2151 004a 03D1     		bne	.L145
 2152              		.loc 1 1428 0 is_stmt 0 discriminator 1
 2153 004c 4FF00403 		mov	r3, #4
 2154 0050 FB75     		strb	r3, [r7, #23]
 2155 0052 20E0     		b	.L144
 2156              	.L145:
1429:../Dave/Generated/src/FATFS002/Src/ff.c **** #if _USE_LFN	/* LFN configuration */
1430:../Dave/Generated/src/FATFS002/Src/ff.c **** 		a = dir[DIR_Attr] & AM_MASK;
1431:../Dave/Generated/src/FATFS002/Src/ff.c **** 		if (c == DDE || ((a & AM_VOL) && a != AM_LFN)) {	/* An entry without valid data */
1432:../Dave/Generated/src/FATFS002/Src/ff.c **** 			ord = 0xFF;
1433:../Dave/Generated/src/FATFS002/Src/ff.c **** 		} else {
1434:../Dave/Generated/src/FATFS002/Src/ff.c **** 			if (a == AM_LFN) {			/* An LFN entry is found */
1435:../Dave/Generated/src/FATFS002/Src/ff.c **** 				if (dj->lfn) {
1436:../Dave/Generated/src/FATFS002/Src/ff.c **** 					if (c & LLE) {		/* Is it start of LFN sequence? */
1437:../Dave/Generated/src/FATFS002/Src/ff.c **** 						sum = dir[LDIR_Chksum];
1438:../Dave/Generated/src/FATFS002/Src/ff.c **** 						c &= ~LLE; ord = c;	/* LFN start order */
1439:../Dave/Generated/src/FATFS002/Src/ff.c **** 						dj->lfn_idx = dj->index;
1440:../Dave/Generated/src/FATFS002/Src/ff.c **** 					}
1441:../Dave/Generated/src/FATFS002/Src/ff.c **** 					/* Check validity of the LFN entry and compare it with given name */
1442:../Dave/Generated/src/FATFS002/Src/ff.c **** 					ord = (c == ord && sum == dir[LDIR_Chksum] && cmp_lfn(dj->lfn, dir)) ? ord - 1 : 0xFF;
1443:../Dave/Generated/src/FATFS002/Src/ff.c **** 				}
1444:../Dave/Generated/src/FATFS002/Src/ff.c **** 			} else {					/* An SFN entry is found */
1445:../Dave/Generated/src/FATFS002/Src/ff.c **** 				if (!ord && sum == sum_sfn(dir)) break;	/* LFN matched? */
1446:../Dave/Generated/src/FATFS002/Src/ff.c **** 				ord = 0xFF; dj->lfn_idx = 0xFFFF;	/* Reset LFN sequence */
1447:../Dave/Generated/src/FATFS002/Src/ff.c **** 				if (!(dj->fn[NS] & NS_LOSS) && !mem_cmp(dir, dj->fn, 11)) break;	/* SFN matched? */
1448:../Dave/Generated/src/FATFS002/Src/ff.c **** 			}
1449:../Dave/Generated/src/FATFS002/Src/ff.c **** 		}
1450:../Dave/Generated/src/FATFS002/Src/ff.c **** #else		/* Non LFN configuration */
1451:../Dave/Generated/src/FATFS002/Src/ff.c **** 		if (!(dir[DIR_Attr] & AM_VOL) && !mem_cmp(dir, dj->fn, 11)) /* Is it a valid entry? */
 2157              		.loc 1 1451 0 is_stmt 1
 2158 0054 3B69     		ldr	r3, [r7, #16]
 2159 0056 03F10B03 		add	r3, r3, #11
 2160 005a 1B78     		ldrb	r3, [r3, #0]	@ zero_extendqisi2
 2161 005c 03F00803 		and	r3, r3, #8
 2162 0060 002B     		cmp	r3, #0
 2163 0062 0AD1     		bne	.L146
 2164              		.loc 1 1451 0 is_stmt 0 discriminator 1
 2165 0064 7B68     		ldr	r3, [r7, #4]
 2166 0066 9B69     		ldr	r3, [r3, #24]
 2167 0068 3869     		ldr	r0, [r7, #16]
 2168 006a 1946     		mov	r1, r3
 2169 006c 4FF00B02 		mov	r2, #11
 2170 0070 FFF7FEFF 		bl	mem_cmp
 2171 0074 0346     		mov	r3, r0
 2172 0076 002B     		cmp	r3, #0
 2173 0078 0CD0     		beq	.L148
 2174              	.L146:
1452:../Dave/Generated/src/FATFS002/Src/ff.c **** 			break;
1453:../Dave/Generated/src/FATFS002/Src/ff.c **** #endif
1454:../Dave/Generated/src/FATFS002/Src/ff.c **** 		res = dir_next(dj, 0);		/* Next entry */
 2175              		.loc 1 1454 0 is_stmt 1
 2176 007a 7868     		ldr	r0, [r7, #4]
 2177 007c 4FF00001 		mov	r1, #0
 2178 0080 FFF7FEFF 		bl	dir_next
 2179 0084 0346     		mov	r3, r0
 2180 0086 FB75     		strb	r3, [r7, #23]
1455:../Dave/Generated/src/FATFS002/Src/ff.c **** 	} while (res == FR_OK);
 2181              		.loc 1 1455 0
 2182 0088 FB7D     		ldrb	r3, [r7, #23]	@ zero_extendqisi2
 2183 008a 002B     		cmp	r3, #0
 2184 008c C8D0     		beq	.L141
 2185 008e 02E0     		b	.L144
 2186              	.L147:
1425:../Dave/Generated/src/FATFS002/Src/ff.c **** 		if (res != FR_OK) break;
 2187              		.loc 1 1425 0
 2188 0090 00BF     		nop
 2189 0092 00E0     		b	.L144
 2190              	.L148:
1452:../Dave/Generated/src/FATFS002/Src/ff.c **** 			break;
 2191              		.loc 1 1452 0
 2192 0094 00BF     		nop
 2193              	.L144:
1456:../Dave/Generated/src/FATFS002/Src/ff.c **** 
1457:../Dave/Generated/src/FATFS002/Src/ff.c **** 	return res;
 2194              		.loc 1 1457 0
 2195 0096 FB7D     		ldrb	r3, [r7, #23]	@ zero_extendqisi2
 2196              	.L142:
1458:../Dave/Generated/src/FATFS002/Src/ff.c **** }
 2197              		.loc 1 1458 0
 2198 0098 1846     		mov	r0, r3
 2199 009a 07F11807 		add	r7, r7, #24
 2200 009e BD46     		mov	sp, r7
 2201 00a0 80BD     		pop	{r7, pc}
 2202              		.cfi_endproc
 2203              	.LFE13:
 2205 00a2 00BF     		.section	.text.dir_read,"ax",%progbits
 2206              		.align	2
 2207              		.thumb
 2208              		.thumb_func
 2210              	dir_read:
 2211              	.LFB14:
1459:../Dave/Generated/src/FATFS002/Src/ff.c **** 
1460:../Dave/Generated/src/FATFS002/Src/ff.c **** 
1461:../Dave/Generated/src/FATFS002/Src/ff.c **** 
1462:../Dave/Generated/src/FATFS002/Src/ff.c **** 
1463:../Dave/Generated/src/FATFS002/Src/ff.c **** /*-----------------------------------------------------------------------*/
1464:../Dave/Generated/src/FATFS002/Src/ff.c **** /* Read an object from the directory                                     */
1465:../Dave/Generated/src/FATFS002/Src/ff.c **** /*-----------------------------------------------------------------------*/
1466:../Dave/Generated/src/FATFS002/Src/ff.c **** #if _FS_MINIMIZE <= 1
1467:../Dave/Generated/src/FATFS002/Src/ff.c **** static
1468:../Dave/Generated/src/FATFS002/Src/ff.c **** FRESULT dir_read (
1469:../Dave/Generated/src/FATFS002/Src/ff.c **** 	DIR *dj			/* Pointer to the directory object that pointing the entry to be read */
1470:../Dave/Generated/src/FATFS002/Src/ff.c **** )
1471:../Dave/Generated/src/FATFS002/Src/ff.c **** {
 2212              		.loc 1 1471 0
 2213              		.cfi_startproc
 2214              		@ args = 0, pretend = 0, frame = 24
 2215              		@ frame_needed = 1, uses_anonymous_args = 0
 2216 0000 80B5     		push	{r7, lr}
 2217              	.LCFI42:
 2218              		.cfi_def_cfa_offset 8
 2219              		.cfi_offset 7, -8
 2220              		.cfi_offset 14, -4
 2221 0002 86B0     		sub	sp, sp, #24
 2222              	.LCFI43:
 2223              		.cfi_def_cfa_offset 32
 2224 0004 00AF     		add	r7, sp, #0
 2225              	.LCFI44:
 2226              		.cfi_def_cfa_register 7
 2227 0006 7860     		str	r0, [r7, #4]
1472:../Dave/Generated/src/FATFS002/Src/ff.c **** 	FRESULT res;
1473:../Dave/Generated/src/FATFS002/Src/ff.c **** 	BYTE c, *dir;
1474:../Dave/Generated/src/FATFS002/Src/ff.c **** #if _USE_LFN
1475:../Dave/Generated/src/FATFS002/Src/ff.c **** 	BYTE a, ord = 0xFF, sum = 0xFF;
1476:../Dave/Generated/src/FATFS002/Src/ff.c **** #endif
1477:../Dave/Generated/src/FATFS002/Src/ff.c **** 
1478:../Dave/Generated/src/FATFS002/Src/ff.c **** 	res = FR_NO_FILE;
 2228              		.loc 1 1478 0
 2229 0008 4FF00403 		mov	r3, #4
 2230 000c FB75     		strb	r3, [r7, #23]
1479:../Dave/Generated/src/FATFS002/Src/ff.c **** 	while (dj->sect) {
 2231              		.loc 1 1479 0
 2232 000e 2EE0     		b	.L150
 2233              	.L155:
1480:../Dave/Generated/src/FATFS002/Src/ff.c **** 		res = move_window(dj->fs, dj->sect);
 2234              		.loc 1 1480 0
 2235 0010 7B68     		ldr	r3, [r7, #4]
 2236 0012 1A68     		ldr	r2, [r3, #0]
 2237 0014 7B68     		ldr	r3, [r7, #4]
 2238 0016 1B69     		ldr	r3, [r3, #16]
 2239 0018 1046     		mov	r0, r2
 2240 001a 1946     		mov	r1, r3
 2241 001c FFF7FEFF 		bl	move_window
 2242 0020 0346     		mov	r3, r0
 2243 0022 FB75     		strb	r3, [r7, #23]
1481:../Dave/Generated/src/FATFS002/Src/ff.c **** 		if (res != FR_OK) break;
 2244              		.loc 1 1481 0
 2245 0024 FB7D     		ldrb	r3, [r7, #23]	@ zero_extendqisi2
 2246 0026 002B     		cmp	r3, #0
 2247 0028 26D1     		bne	.L158
 2248              	.L151:
1482:../Dave/Generated/src/FATFS002/Src/ff.c **** 		dir = dj->dir;					/* Ptr to the directory entry of current index */
 2249              		.loc 1 1482 0
 2250 002a 7B68     		ldr	r3, [r7, #4]
 2251 002c 5B69     		ldr	r3, [r3, #20]
 2252 002e 3B61     		str	r3, [r7, #16]
1483:../Dave/Generated/src/FATFS002/Src/ff.c **** 		c = dir[DIR_Name];
 2253              		.loc 1 1483 0
 2254 0030 3B69     		ldr	r3, [r7, #16]
 2255 0032 1B78     		ldrb	r3, [r3, #0]
 2256 0034 FB73     		strb	r3, [r7, #15]
1484:../Dave/Generated/src/FATFS002/Src/ff.c **** 		if (c == 0) { res = FR_NO_FILE; break; }	/* Reached to end of table */
 2257              		.loc 1 1484 0
 2258 0036 FB7B     		ldrb	r3, [r7, #15]	@ zero_extendqisi2
 2259 0038 002B     		cmp	r3, #0
 2260 003a 03D1     		bne	.L153
 2261              		.loc 1 1484 0 is_stmt 0 discriminator 1
 2262 003c 4FF00403 		mov	r3, #4
 2263 0040 FB75     		strb	r3, [r7, #23]
 2264 0042 1EE0     		b	.L152
 2265              	.L153:
1485:../Dave/Generated/src/FATFS002/Src/ff.c **** #if _USE_LFN	/* LFN configuration */
1486:../Dave/Generated/src/FATFS002/Src/ff.c **** 		a = dir[DIR_Attr] & AM_MASK;
1487:../Dave/Generated/src/FATFS002/Src/ff.c **** 		if (c == DDE || (!_FS_RPATH && c == '.') || ((a & AM_VOL) && a != AM_LFN)) {	/* An entry without 
1488:../Dave/Generated/src/FATFS002/Src/ff.c **** 			ord = 0xFF;
1489:../Dave/Generated/src/FATFS002/Src/ff.c **** 		} else {
1490:../Dave/Generated/src/FATFS002/Src/ff.c **** 			if (a == AM_LFN) {			/* An LFN entry is found */
1491:../Dave/Generated/src/FATFS002/Src/ff.c **** 				if (c & LLE) {			/* Is it start of LFN sequence? */
1492:../Dave/Generated/src/FATFS002/Src/ff.c **** 					sum = dir[LDIR_Chksum];
1493:../Dave/Generated/src/FATFS002/Src/ff.c **** 					c &= ~LLE; ord = c;
1494:../Dave/Generated/src/FATFS002/Src/ff.c **** 					dj->lfn_idx = dj->index;
1495:../Dave/Generated/src/FATFS002/Src/ff.c **** 				}
1496:../Dave/Generated/src/FATFS002/Src/ff.c **** 				/* Check LFN validity and capture it */
1497:../Dave/Generated/src/FATFS002/Src/ff.c **** 				ord = (c == ord && sum == dir[LDIR_Chksum] && pick_lfn(dj->lfn, dir)) ? ord - 1 : 0xFF;
1498:../Dave/Generated/src/FATFS002/Src/ff.c **** 			} else {					/* An SFN entry is found */
1499:../Dave/Generated/src/FATFS002/Src/ff.c **** 				if (ord || sum != sum_sfn(dir))	/* Is there a valid LFN? */
1500:../Dave/Generated/src/FATFS002/Src/ff.c **** 					dj->lfn_idx = 0xFFFF;		/* It has no LFN. */
1501:../Dave/Generated/src/FATFS002/Src/ff.c **** 				break;
1502:../Dave/Generated/src/FATFS002/Src/ff.c **** 			}
1503:../Dave/Generated/src/FATFS002/Src/ff.c **** 		}
1504:../Dave/Generated/src/FATFS002/Src/ff.c **** #else		/* Non LFN configuration */
1505:../Dave/Generated/src/FATFS002/Src/ff.c **** 		if (c != DDE && (_FS_RPATH || c != '.') && !(dir[DIR_Attr] & AM_VOL))	/* Is it a valid entry? */
 2266              		.loc 1 1505 0 is_stmt 1
 2267 0044 FB7B     		ldrb	r3, [r7, #15]	@ zero_extendqisi2
 2268 0046 E52B     		cmp	r3, #229
 2269 0048 07D0     		beq	.L154
 2270              		.loc 1 1505 0 is_stmt 0 discriminator 1
 2271 004a 3B69     		ldr	r3, [r7, #16]
 2272 004c 03F10B03 		add	r3, r3, #11
 2273 0050 1B78     		ldrb	r3, [r3, #0]	@ zero_extendqisi2
 2274 0052 03F00803 		and	r3, r3, #8
 2275 0056 002B     		cmp	r3, #0
 2276 0058 10D0     		beq	.L159
 2277              	.L154:
1506:../Dave/Generated/src/FATFS002/Src/ff.c **** 			break;
1507:../Dave/Generated/src/FATFS002/Src/ff.c **** #endif
1508:../Dave/Generated/src/FATFS002/Src/ff.c **** 		res = dir_next(dj, 0);				/* Next entry */
 2278              		.loc 1 1508 0 is_stmt 1
 2279 005a 7868     		ldr	r0, [r7, #4]
 2280 005c 4FF00001 		mov	r1, #0
 2281 0060 FFF7FEFF 		bl	dir_next
 2282 0064 0346     		mov	r3, r0
 2283 0066 FB75     		strb	r3, [r7, #23]
1509:../Dave/Generated/src/FATFS002/Src/ff.c **** 		if (res != FR_OK) break;
 2284              		.loc 1 1509 0
 2285 0068 FB7D     		ldrb	r3, [r7, #23]	@ zero_extendqisi2
 2286 006a 002B     		cmp	r3, #0
 2287 006c 08D1     		bne	.L160
 2288              	.L150:
1479:../Dave/Generated/src/FATFS002/Src/ff.c **** 	while (dj->sect) {
 2289              		.loc 1 1479 0 discriminator 1
 2290 006e 7B68     		ldr	r3, [r7, #4]
 2291 0070 1B69     		ldr	r3, [r3, #16]
 2292 0072 002B     		cmp	r3, #0
 2293 0074 CCD1     		bne	.L155
 2294 0076 04E0     		b	.L152
 2295              	.L158:
1481:../Dave/Generated/src/FATFS002/Src/ff.c **** 		if (res != FR_OK) break;
 2296              		.loc 1 1481 0
 2297 0078 00BF     		nop
 2298 007a 02E0     		b	.L152
 2299              	.L159:
1506:../Dave/Generated/src/FATFS002/Src/ff.c **** 			break;
 2300              		.loc 1 1506 0
 2301 007c 00BF     		nop
 2302 007e 00E0     		b	.L152
 2303              	.L160:
 2304              		.loc 1 1509 0
 2305 0080 00BF     		nop
 2306              	.L152:
1510:../Dave/Generated/src/FATFS002/Src/ff.c **** 	}
1511:../Dave/Generated/src/FATFS002/Src/ff.c **** 
1512:../Dave/Generated/src/FATFS002/Src/ff.c **** 	if (res != FR_OK) dj->sect = 0;
 2307              		.loc 1 1512 0
 2308 0082 FB7D     		ldrb	r3, [r7, #23]	@ zero_extendqisi2
 2309 0084 002B     		cmp	r3, #0
 2310 0086 03D0     		beq	.L156
 2311              		.loc 1 1512 0 is_stmt 0 discriminator 1
 2312 0088 7B68     		ldr	r3, [r7, #4]
 2313 008a 4FF00002 		mov	r2, #0
 2314 008e 1A61     		str	r2, [r3, #16]
 2315              	.L156:
1513:../Dave/Generated/src/FATFS002/Src/ff.c **** 
1514:../Dave/Generated/src/FATFS002/Src/ff.c **** 	return res;
 2316              		.loc 1 1514 0 is_stmt 1
 2317 0090 FB7D     		ldrb	r3, [r7, #23]	@ zero_extendqisi2
1515:../Dave/Generated/src/FATFS002/Src/ff.c **** }
 2318              		.loc 1 1515 0
 2319 0092 1846     		mov	r0, r3
 2320 0094 07F11807 		add	r7, r7, #24
 2321 0098 BD46     		mov	sp, r7
 2322 009a 80BD     		pop	{r7, pc}
 2323              		.cfi_endproc
 2324              	.LFE14:
 2326              		.section	.text.dir_register,"ax",%progbits
 2327              		.align	2
 2328              		.thumb
 2329              		.thumb_func
 2331              	dir_register:
 2332              	.LFB15:
1516:../Dave/Generated/src/FATFS002/Src/ff.c **** #endif
1517:../Dave/Generated/src/FATFS002/Src/ff.c **** 
1518:../Dave/Generated/src/FATFS002/Src/ff.c **** 
1519:../Dave/Generated/src/FATFS002/Src/ff.c **** 
1520:../Dave/Generated/src/FATFS002/Src/ff.c **** /*-----------------------------------------------------------------------*/
1521:../Dave/Generated/src/FATFS002/Src/ff.c **** /* Register an object to the directory                                   */
1522:../Dave/Generated/src/FATFS002/Src/ff.c **** /*-----------------------------------------------------------------------*/
1523:../Dave/Generated/src/FATFS002/Src/ff.c **** #if !_FS_READONLY
1524:../Dave/Generated/src/FATFS002/Src/ff.c **** static
1525:../Dave/Generated/src/FATFS002/Src/ff.c **** FRESULT dir_register (	/* FR_OK:Successful, FR_DENIED:No free entry or too many SFN collision, FR_D
1526:../Dave/Generated/src/FATFS002/Src/ff.c **** 	DIR *dj				/* Target directory with object name to be created */
1527:../Dave/Generated/src/FATFS002/Src/ff.c **** )
1528:../Dave/Generated/src/FATFS002/Src/ff.c **** {
 2333              		.loc 1 1528 0
 2334              		.cfi_startproc
 2335              		@ args = 0, pretend = 0, frame = 16
 2336              		@ frame_needed = 1, uses_anonymous_args = 0
 2337 0000 80B5     		push	{r7, lr}
 2338              	.LCFI45:
 2339              		.cfi_def_cfa_offset 8
 2340              		.cfi_offset 7, -8
 2341              		.cfi_offset 14, -4
 2342 0002 84B0     		sub	sp, sp, #16
 2343              	.LCFI46:
 2344              		.cfi_def_cfa_offset 24
 2345 0004 00AF     		add	r7, sp, #0
 2346              	.LCFI47:
 2347              		.cfi_def_cfa_register 7
 2348 0006 7860     		str	r0, [r7, #4]
1529:../Dave/Generated/src/FATFS002/Src/ff.c **** 	FRESULT res;
1530:../Dave/Generated/src/FATFS002/Src/ff.c **** 	BYTE c, *dir;
1531:../Dave/Generated/src/FATFS002/Src/ff.c **** #if _USE_LFN	/* LFN configuration */
1532:../Dave/Generated/src/FATFS002/Src/ff.c **** 	WORD n, ne, is;
1533:../Dave/Generated/src/FATFS002/Src/ff.c **** 	BYTE sn[12], *fn, sum;
1534:../Dave/Generated/src/FATFS002/Src/ff.c **** 	WCHAR *lfn;
1535:../Dave/Generated/src/FATFS002/Src/ff.c **** 
1536:../Dave/Generated/src/FATFS002/Src/ff.c **** 
1537:../Dave/Generated/src/FATFS002/Src/ff.c **** 	fn = dj->fn; lfn = dj->lfn;
1538:../Dave/Generated/src/FATFS002/Src/ff.c **** 	mem_cpy(sn, fn, 12);
1539:../Dave/Generated/src/FATFS002/Src/ff.c **** 
1540:../Dave/Generated/src/FATFS002/Src/ff.c **** 	if (_FS_RPATH && (sn[NS] & NS_DOT))		/* Cannot create dot entry */
1541:../Dave/Generated/src/FATFS002/Src/ff.c **** 		return FR_INVALID_NAME;
1542:../Dave/Generated/src/FATFS002/Src/ff.c **** 
1543:../Dave/Generated/src/FATFS002/Src/ff.c **** 	if (sn[NS] & NS_LOSS) {			/* When LFN is out of 8.3 format, generate a numbered name */
1544:../Dave/Generated/src/FATFS002/Src/ff.c **** 		fn[NS] = 0; dj->lfn = 0;			/* Find only SFN */
1545:../Dave/Generated/src/FATFS002/Src/ff.c **** 		for (n = 1; n < 100; n++) {
1546:../Dave/Generated/src/FATFS002/Src/ff.c **** 			gen_numname(fn, sn, lfn, n);	/* Generate a numbered name */
1547:../Dave/Generated/src/FATFS002/Src/ff.c **** 			res = dir_find(dj);				/* Check if the name collides with existing SFN */
1548:../Dave/Generated/src/FATFS002/Src/ff.c **** 			if (res != FR_OK) break;
1549:../Dave/Generated/src/FATFS002/Src/ff.c **** 		}
1550:../Dave/Generated/src/FATFS002/Src/ff.c **** 		if (n == 100) return FR_DENIED;		/* Abort if too many collisions */
1551:../Dave/Generated/src/FATFS002/Src/ff.c **** 		if (res != FR_NO_FILE) return res;	/* Abort if the result is other than 'not collided' */
1552:../Dave/Generated/src/FATFS002/Src/ff.c **** 		fn[NS] = sn[NS]; dj->lfn = lfn;
1553:../Dave/Generated/src/FATFS002/Src/ff.c **** 	}
1554:../Dave/Generated/src/FATFS002/Src/ff.c **** 
1555:../Dave/Generated/src/FATFS002/Src/ff.c **** 	if (sn[NS] & NS_LFN) {			/* When LFN is to be created, reserve an SFN + LFN entries. */
1556:../Dave/Generated/src/FATFS002/Src/ff.c **** 		for (ne = 0; lfn[ne]; ne++) ;
1557:../Dave/Generated/src/FATFS002/Src/ff.c **** 		ne = (ne + 25) / 13;
1558:../Dave/Generated/src/FATFS002/Src/ff.c **** 	} else {						/* Otherwise reserve only an SFN entry. */
1559:../Dave/Generated/src/FATFS002/Src/ff.c **** 		ne = 1;
1560:../Dave/Generated/src/FATFS002/Src/ff.c **** 	}
1561:../Dave/Generated/src/FATFS002/Src/ff.c **** 
1562:../Dave/Generated/src/FATFS002/Src/ff.c **** 	/* Reserve contiguous entries */
1563:../Dave/Generated/src/FATFS002/Src/ff.c **** 	res = dir_sdi(dj, 0);
1564:../Dave/Generated/src/FATFS002/Src/ff.c **** 	if (res != FR_OK) return res;
1565:../Dave/Generated/src/FATFS002/Src/ff.c **** 	n = is = 0;
1566:../Dave/Generated/src/FATFS002/Src/ff.c **** 	do {
1567:../Dave/Generated/src/FATFS002/Src/ff.c **** 		res = move_window(dj->fs, dj->sect);
1568:../Dave/Generated/src/FATFS002/Src/ff.c **** 		if (res != FR_OK) break;
1569:../Dave/Generated/src/FATFS002/Src/ff.c **** 		c = *dj->dir;				/* Check the entry status */
1570:../Dave/Generated/src/FATFS002/Src/ff.c **** 		if (c == DDE || c == 0) {	/* Is it a blank entry? */
1571:../Dave/Generated/src/FATFS002/Src/ff.c **** 			if (n == 0) is = dj->index;	/* First index of the contiguous entry */
1572:../Dave/Generated/src/FATFS002/Src/ff.c **** 			if (++n == ne) break;	/* A contiguous entry that required count is found */
1573:../Dave/Generated/src/FATFS002/Src/ff.c **** 		} else {
1574:../Dave/Generated/src/FATFS002/Src/ff.c **** 			n = 0;					/* Not a blank entry. Restart to search */
1575:../Dave/Generated/src/FATFS002/Src/ff.c **** 		}
1576:../Dave/Generated/src/FATFS002/Src/ff.c **** 		res = dir_next(dj, 1);		/* Next entry with table stretch */
1577:../Dave/Generated/src/FATFS002/Src/ff.c **** 	} while (res == FR_OK);
1578:../Dave/Generated/src/FATFS002/Src/ff.c **** 
1579:../Dave/Generated/src/FATFS002/Src/ff.c **** 	if (res == FR_OK && ne > 1) {	/* Initialize LFN entry if needed */
1580:../Dave/Generated/src/FATFS002/Src/ff.c **** 		res = dir_sdi(dj, is);
1581:../Dave/Generated/src/FATFS002/Src/ff.c **** 		if (res == FR_OK) {
1582:../Dave/Generated/src/FATFS002/Src/ff.c **** 			sum = sum_sfn(dj->fn);	/* Sum of the SFN tied to the LFN */
1583:../Dave/Generated/src/FATFS002/Src/ff.c **** 			ne--;
1584:../Dave/Generated/src/FATFS002/Src/ff.c **** 			do {					/* Store LFN entries in bottom first */
1585:../Dave/Generated/src/FATFS002/Src/ff.c **** 				res = move_window(dj->fs, dj->sect);
1586:../Dave/Generated/src/FATFS002/Src/ff.c **** 				if (res != FR_OK) break;
1587:../Dave/Generated/src/FATFS002/Src/ff.c **** 				fit_lfn(dj->lfn, dj->dir, (BYTE)ne, sum);
1588:../Dave/Generated/src/FATFS002/Src/ff.c **** 				dj->fs->wflag = 1;
1589:../Dave/Generated/src/FATFS002/Src/ff.c **** 				res = dir_next(dj, 0);	/* Next entry */
1590:../Dave/Generated/src/FATFS002/Src/ff.c **** 			} while (res == FR_OK && --ne);
1591:../Dave/Generated/src/FATFS002/Src/ff.c **** 		}
1592:../Dave/Generated/src/FATFS002/Src/ff.c **** 	}
1593:../Dave/Generated/src/FATFS002/Src/ff.c **** 
1594:../Dave/Generated/src/FATFS002/Src/ff.c **** #else	/* Non LFN configuration */
1595:../Dave/Generated/src/FATFS002/Src/ff.c **** 	res = dir_sdi(dj, 0);
 2349              		.loc 1 1595 0
 2350 0008 7868     		ldr	r0, [r7, #4]
 2351 000a 4FF00001 		mov	r1, #0
 2352 000e FFF7FEFF 		bl	dir_sdi
 2353 0012 0346     		mov	r3, r0
 2354 0014 FB73     		strb	r3, [r7, #15]
1596:../Dave/Generated/src/FATFS002/Src/ff.c **** 	if (res == FR_OK) {
 2355              		.loc 1 1596 0
 2356 0016 FB7B     		ldrb	r3, [r7, #15]	@ zero_extendqisi2
 2357 0018 002B     		cmp	r3, #0
 2358 001a 22D1     		bne	.L162
 2359              	.L164:
1597:../Dave/Generated/src/FATFS002/Src/ff.c **** 		do {	/* Find a blank entry for the SFN */
1598:../Dave/Generated/src/FATFS002/Src/ff.c **** 			res = move_window(dj->fs, dj->sect);
 2360              		.loc 1 1598 0
 2361 001c 7B68     		ldr	r3, [r7, #4]
 2362 001e 1A68     		ldr	r2, [r3, #0]
 2363 0020 7B68     		ldr	r3, [r7, #4]
 2364 0022 1B69     		ldr	r3, [r3, #16]
 2365 0024 1046     		mov	r0, r2
 2366 0026 1946     		mov	r1, r3
 2367 0028 FFF7FEFF 		bl	move_window
 2368 002c 0346     		mov	r3, r0
 2369 002e FB73     		strb	r3, [r7, #15]
1599:../Dave/Generated/src/FATFS002/Src/ff.c **** 			if (res != FR_OK) break;
 2370              		.loc 1 1599 0
 2371 0030 FB7B     		ldrb	r3, [r7, #15]	@ zero_extendqisi2
 2372 0032 002B     		cmp	r3, #0
 2373 0034 14D1     		bne	.L167
 2374              	.L163:
1600:../Dave/Generated/src/FATFS002/Src/ff.c **** 			c = *dj->dir;
 2375              		.loc 1 1600 0
 2376 0036 7B68     		ldr	r3, [r7, #4]
 2377 0038 5B69     		ldr	r3, [r3, #20]
 2378 003a 1B78     		ldrb	r3, [r3, #0]
 2379 003c BB73     		strb	r3, [r7, #14]
1601:../Dave/Generated/src/FATFS002/Src/ff.c **** 			if (c == DDE || c == 0) break;	/* Is it a blank entry? */
 2380              		.loc 1 1601 0
 2381 003e BB7B     		ldrb	r3, [r7, #14]	@ zero_extendqisi2
 2382 0040 E52B     		cmp	r3, #229
 2383 0042 0ED0     		beq	.L162
 2384              		.loc 1 1601 0 is_stmt 0 discriminator 1
 2385 0044 BB7B     		ldrb	r3, [r7, #14]	@ zero_extendqisi2
 2386 0046 002B     		cmp	r3, #0
 2387 0048 0BD0     		beq	.L162
1602:../Dave/Generated/src/FATFS002/Src/ff.c **** 			res = dir_next(dj, 1);			/* Next entry with table stretch */
 2388              		.loc 1 1602 0 is_stmt 1
 2389 004a 7868     		ldr	r0, [r7, #4]
 2390 004c 4FF00101 		mov	r1, #1
 2391 0050 FFF7FEFF 		bl	dir_next
 2392 0054 0346     		mov	r3, r0
 2393 0056 FB73     		strb	r3, [r7, #15]
1603:../Dave/Generated/src/FATFS002/Src/ff.c **** 		} while (res == FR_OK);
 2394              		.loc 1 1603 0
 2395 0058 FB7B     		ldrb	r3, [r7, #15]	@ zero_extendqisi2
 2396 005a 002B     		cmp	r3, #0
 2397 005c DED0     		beq	.L164
 2398 005e 00E0     		b	.L162
 2399              	.L167:
1599:../Dave/Generated/src/FATFS002/Src/ff.c **** 			if (res != FR_OK) break;
 2400              		.loc 1 1599 0
 2401 0060 00BF     		nop
 2402              	.L162:
1604:../Dave/Generated/src/FATFS002/Src/ff.c **** 	}
1605:../Dave/Generated/src/FATFS002/Src/ff.c **** #endif
1606:../Dave/Generated/src/FATFS002/Src/ff.c **** 
1607:../Dave/Generated/src/FATFS002/Src/ff.c **** 	if (res == FR_OK) {		/* Initialize the SFN entry */
 2403              		.loc 1 1607 0
 2404 0062 FB7B     		ldrb	r3, [r7, #15]	@ zero_extendqisi2
 2405 0064 002B     		cmp	r3, #0
 2406 0066 23D1     		bne	.L165
1608:../Dave/Generated/src/FATFS002/Src/ff.c **** 		res = move_window(dj->fs, dj->sect);
 2407              		.loc 1 1608 0
 2408 0068 7B68     		ldr	r3, [r7, #4]
 2409 006a 1A68     		ldr	r2, [r3, #0]
 2410 006c 7B68     		ldr	r3, [r7, #4]
 2411 006e 1B69     		ldr	r3, [r3, #16]
 2412 0070 1046     		mov	r0, r2
 2413 0072 1946     		mov	r1, r3
 2414 0074 FFF7FEFF 		bl	move_window
 2415 0078 0346     		mov	r3, r0
 2416 007a FB73     		strb	r3, [r7, #15]
1609:../Dave/Generated/src/FATFS002/Src/ff.c **** 		if (res == FR_OK) {
 2417              		.loc 1 1609 0
 2418 007c FB7B     		ldrb	r3, [r7, #15]	@ zero_extendqisi2
 2419 007e 002B     		cmp	r3, #0
 2420 0080 16D1     		bne	.L165
1610:../Dave/Generated/src/FATFS002/Src/ff.c **** 			dir = dj->dir;
 2421              		.loc 1 1610 0
 2422 0082 7B68     		ldr	r3, [r7, #4]
 2423 0084 5B69     		ldr	r3, [r3, #20]
 2424 0086 BB60     		str	r3, [r7, #8]
1611:../Dave/Generated/src/FATFS002/Src/ff.c **** 			mem_set(dir, 0, SZ_DIR);	/* Clean the entry */
 2425              		.loc 1 1611 0
 2426 0088 B868     		ldr	r0, [r7, #8]
 2427 008a 4FF00001 		mov	r1, #0
 2428 008e 4FF02002 		mov	r2, #32
 2429 0092 FFF7FEFF 		bl	mem_set
1612:../Dave/Generated/src/FATFS002/Src/ff.c **** 			mem_cpy(dir, dj->fn, 11);	/* Put SFN */
 2430              		.loc 1 1612 0
 2431 0096 7B68     		ldr	r3, [r7, #4]
 2432 0098 9B69     		ldr	r3, [r3, #24]
 2433 009a B868     		ldr	r0, [r7, #8]
 2434 009c 1946     		mov	r1, r3
 2435 009e 4FF00B02 		mov	r2, #11
 2436 00a2 FFF7FEFF 		bl	mem_cpy
1613:../Dave/Generated/src/FATFS002/Src/ff.c **** #if _USE_LFN
1614:../Dave/Generated/src/FATFS002/Src/ff.c **** 			dir[DIR_NTres] = *(dj->fn+NS) & (NS_BODY | NS_EXT);	/* Put NT flag */
1615:../Dave/Generated/src/FATFS002/Src/ff.c **** #endif
1616:../Dave/Generated/src/FATFS002/Src/ff.c **** 			dj->fs->wflag = 1;
 2437              		.loc 1 1616 0
 2438 00a6 7B68     		ldr	r3, [r7, #4]
 2439 00a8 1B68     		ldr	r3, [r3, #0]
 2440 00aa 4FF00102 		mov	r2, #1
 2441 00ae 1A71     		strb	r2, [r3, #4]
 2442              	.L165:
1617:../Dave/Generated/src/FATFS002/Src/ff.c **** 		}
1618:../Dave/Generated/src/FATFS002/Src/ff.c **** 	}
1619:../Dave/Generated/src/FATFS002/Src/ff.c **** 
1620:../Dave/Generated/src/FATFS002/Src/ff.c **** 	return res;
 2443              		.loc 1 1620 0
 2444 00b0 FB7B     		ldrb	r3, [r7, #15]	@ zero_extendqisi2
1621:../Dave/Generated/src/FATFS002/Src/ff.c **** }
 2445              		.loc 1 1621 0
 2446 00b2 1846     		mov	r0, r3
 2447 00b4 07F11007 		add	r7, r7, #16
 2448 00b8 BD46     		mov	sp, r7
 2449 00ba 80BD     		pop	{r7, pc}
 2450              		.cfi_endproc
 2451              	.LFE15:
 2453              		.section	.text.dir_remove,"ax",%progbits
 2454              		.align	2
 2455              		.thumb
 2456              		.thumb_func
 2458              	dir_remove:
 2459              	.LFB16:
1622:../Dave/Generated/src/FATFS002/Src/ff.c **** #endif /* !_FS_READONLY */
1623:../Dave/Generated/src/FATFS002/Src/ff.c **** 
1624:../Dave/Generated/src/FATFS002/Src/ff.c **** 
1625:../Dave/Generated/src/FATFS002/Src/ff.c **** 
1626:../Dave/Generated/src/FATFS002/Src/ff.c **** 
1627:../Dave/Generated/src/FATFS002/Src/ff.c **** /*-----------------------------------------------------------------------*/
1628:../Dave/Generated/src/FATFS002/Src/ff.c **** /* Remove an object from the directory                                   */
1629:../Dave/Generated/src/FATFS002/Src/ff.c **** /*-----------------------------------------------------------------------*/
1630:../Dave/Generated/src/FATFS002/Src/ff.c **** #if !_FS_READONLY && !_FS_MINIMIZE
1631:../Dave/Generated/src/FATFS002/Src/ff.c **** static
1632:../Dave/Generated/src/FATFS002/Src/ff.c **** FRESULT dir_remove (	/* FR_OK: Successful, FR_DISK_ERR: A disk error */
1633:../Dave/Generated/src/FATFS002/Src/ff.c **** 	DIR *dj				/* Directory object pointing the entry to be removed */
1634:../Dave/Generated/src/FATFS002/Src/ff.c **** )
1635:../Dave/Generated/src/FATFS002/Src/ff.c **** {
 2460              		.loc 1 1635 0
 2461              		.cfi_startproc
 2462              		@ args = 0, pretend = 0, frame = 16
 2463              		@ frame_needed = 1, uses_anonymous_args = 0
 2464 0000 80B5     		push	{r7, lr}
 2465              	.LCFI48:
 2466              		.cfi_def_cfa_offset 8
 2467              		.cfi_offset 7, -8
 2468              		.cfi_offset 14, -4
 2469 0002 84B0     		sub	sp, sp, #16
 2470              	.LCFI49:
 2471              		.cfi_def_cfa_offset 24
 2472 0004 00AF     		add	r7, sp, #0
 2473              	.LCFI50:
 2474              		.cfi_def_cfa_register 7
 2475 0006 7860     		str	r0, [r7, #4]
1636:../Dave/Generated/src/FATFS002/Src/ff.c **** 	FRESULT res;
1637:../Dave/Generated/src/FATFS002/Src/ff.c **** #if _USE_LFN	/* LFN configuration */
1638:../Dave/Generated/src/FATFS002/Src/ff.c **** 	WORD i;
1639:../Dave/Generated/src/FATFS002/Src/ff.c **** 
1640:../Dave/Generated/src/FATFS002/Src/ff.c **** 	i = dj->index;	/* SFN index */
1641:../Dave/Generated/src/FATFS002/Src/ff.c **** 	res = dir_sdi(dj, (WORD)((dj->lfn_idx == 0xFFFF) ? i : dj->lfn_idx));	/* Goto the SFN or top of th
1642:../Dave/Generated/src/FATFS002/Src/ff.c **** 	if (res == FR_OK) {
1643:../Dave/Generated/src/FATFS002/Src/ff.c **** 		do {
1644:../Dave/Generated/src/FATFS002/Src/ff.c **** 			res = move_window(dj->fs, dj->sect);
1645:../Dave/Generated/src/FATFS002/Src/ff.c **** 			if (res != FR_OK) break;
1646:../Dave/Generated/src/FATFS002/Src/ff.c **** 			*dj->dir = DDE;			/* Mark the entry "deleted" */
1647:../Dave/Generated/src/FATFS002/Src/ff.c **** 			dj->fs->wflag = 1;
1648:../Dave/Generated/src/FATFS002/Src/ff.c **** 			if (dj->index >= i) break;	/* When reached SFN, all entries of the object has been deleted. */
1649:../Dave/Generated/src/FATFS002/Src/ff.c **** 			res = dir_next(dj, 0);		/* Next entry */
1650:../Dave/Generated/src/FATFS002/Src/ff.c **** 		} while (res == FR_OK);
1651:../Dave/Generated/src/FATFS002/Src/ff.c **** 		if (res == FR_NO_FILE) res = FR_INT_ERR;
1652:../Dave/Generated/src/FATFS002/Src/ff.c **** 	}
1653:../Dave/Generated/src/FATFS002/Src/ff.c **** 
1654:../Dave/Generated/src/FATFS002/Src/ff.c **** #else			/* Non LFN configuration */
1655:../Dave/Generated/src/FATFS002/Src/ff.c **** 	res = dir_sdi(dj, dj->index);
 2476              		.loc 1 1655 0
 2477 0008 7B68     		ldr	r3, [r7, #4]
 2478 000a DB88     		ldrh	r3, [r3, #6]
 2479 000c 7868     		ldr	r0, [r7, #4]
 2480 000e 1946     		mov	r1, r3
 2481 0010 FFF7FEFF 		bl	dir_sdi
 2482 0014 0346     		mov	r3, r0
 2483 0016 FB73     		strb	r3, [r7, #15]
1656:../Dave/Generated/src/FATFS002/Src/ff.c **** 	if (res == FR_OK) {
 2484              		.loc 1 1656 0
 2485 0018 FB7B     		ldrb	r3, [r7, #15]	@ zero_extendqisi2
 2486 001a 002B     		cmp	r3, #0
 2487 001c 16D1     		bne	.L169
1657:../Dave/Generated/src/FATFS002/Src/ff.c **** 		res = move_window(dj->fs, dj->sect);
 2488              		.loc 1 1657 0
 2489 001e 7B68     		ldr	r3, [r7, #4]
 2490 0020 1A68     		ldr	r2, [r3, #0]
 2491 0022 7B68     		ldr	r3, [r7, #4]
 2492 0024 1B69     		ldr	r3, [r3, #16]
 2493 0026 1046     		mov	r0, r2
 2494 0028 1946     		mov	r1, r3
 2495 002a FFF7FEFF 		bl	move_window
 2496 002e 0346     		mov	r3, r0
 2497 0030 FB73     		strb	r3, [r7, #15]
1658:../Dave/Generated/src/FATFS002/Src/ff.c **** 		if (res == FR_OK) {
 2498              		.loc 1 1658 0
 2499 0032 FB7B     		ldrb	r3, [r7, #15]	@ zero_extendqisi2
 2500 0034 002B     		cmp	r3, #0
 2501 0036 09D1     		bne	.L169
1659:../Dave/Generated/src/FATFS002/Src/ff.c **** 			*dj->dir = DDE;			/* Mark the entry "deleted" */
 2502              		.loc 1 1659 0
 2503 0038 7B68     		ldr	r3, [r7, #4]
 2504 003a 5B69     		ldr	r3, [r3, #20]
 2505 003c 4FF0E502 		mov	r2, #229
 2506 0040 1A70     		strb	r2, [r3, #0]
1660:../Dave/Generated/src/FATFS002/Src/ff.c **** 			dj->fs->wflag = 1;
 2507              		.loc 1 1660 0
 2508 0042 7B68     		ldr	r3, [r7, #4]
 2509 0044 1B68     		ldr	r3, [r3, #0]
 2510 0046 4FF00102 		mov	r2, #1
 2511 004a 1A71     		strb	r2, [r3, #4]
 2512              	.L169:
1661:../Dave/Generated/src/FATFS002/Src/ff.c **** 		}
1662:../Dave/Generated/src/FATFS002/Src/ff.c **** 	}
1663:../Dave/Generated/src/FATFS002/Src/ff.c **** #endif
1664:../Dave/Generated/src/FATFS002/Src/ff.c **** 
1665:../Dave/Generated/src/FATFS002/Src/ff.c **** 	return res;
 2513              		.loc 1 1665 0
 2514 004c FB7B     		ldrb	r3, [r7, #15]	@ zero_extendqisi2
1666:../Dave/Generated/src/FATFS002/Src/ff.c **** }
 2515              		.loc 1 1666 0
 2516 004e 1846     		mov	r0, r3
 2517 0050 07F11007 		add	r7, r7, #16
 2518 0054 BD46     		mov	sp, r7
 2519 0056 80BD     		pop	{r7, pc}
 2520              		.cfi_endproc
 2521              	.LFE16:
 2523              		.section	.rodata
 2524              		.align	2
 2525              	.LC0:
 2526 0000 222A2B2C 		.ascii	"\"*+,:;<=>?[]|\177\000"
 2526      3A3B3C3D 
 2526      3E3F5B5D 
 2526      7C7F00
 2527              		.section	.text.create_name,"ax",%progbits
 2528              		.align	2
 2529              		.thumb
 2530              		.thumb_func
 2532              	create_name:
 2533              	.LFB17:
1667:../Dave/Generated/src/FATFS002/Src/ff.c **** #endif /* !_FS_READONLY */
1668:../Dave/Generated/src/FATFS002/Src/ff.c **** 
1669:../Dave/Generated/src/FATFS002/Src/ff.c **** 
1670:../Dave/Generated/src/FATFS002/Src/ff.c **** 
1671:../Dave/Generated/src/FATFS002/Src/ff.c **** 
1672:../Dave/Generated/src/FATFS002/Src/ff.c **** /*-----------------------------------------------------------------------*/
1673:../Dave/Generated/src/FATFS002/Src/ff.c **** /* Pick a segment and create the object name in directory form           */
1674:../Dave/Generated/src/FATFS002/Src/ff.c **** /*-----------------------------------------------------------------------*/
1675:../Dave/Generated/src/FATFS002/Src/ff.c **** 
1676:../Dave/Generated/src/FATFS002/Src/ff.c **** static
1677:../Dave/Generated/src/FATFS002/Src/ff.c **** FRESULT create_name (
1678:../Dave/Generated/src/FATFS002/Src/ff.c **** 	DIR *dj,			/* Pointer to the directory object */
1679:../Dave/Generated/src/FATFS002/Src/ff.c **** 	const TCHAR **path	/* Pointer to pointer to the segment in the path string */
1680:../Dave/Generated/src/FATFS002/Src/ff.c **** )
1681:../Dave/Generated/src/FATFS002/Src/ff.c **** {
 2534              		.loc 1 1681 0
 2535              		.cfi_startproc
 2536              		@ args = 0, pretend = 0, frame = 32
 2537              		@ frame_needed = 1, uses_anonymous_args = 0
 2538 0000 80B5     		push	{r7, lr}
 2539              	.LCFI51:
 2540              		.cfi_def_cfa_offset 8
 2541              		.cfi_offset 7, -8
 2542              		.cfi_offset 14, -4
 2543 0002 88B0     		sub	sp, sp, #32
 2544              	.LCFI52:
 2545              		.cfi_def_cfa_offset 40
 2546 0004 00AF     		add	r7, sp, #0
 2547              	.LCFI53:
 2548              		.cfi_def_cfa_register 7
 2549 0006 7860     		str	r0, [r7, #4]
 2550 0008 3960     		str	r1, [r7, #0]
1682:../Dave/Generated/src/FATFS002/Src/ff.c **** #ifdef _EXCVT
1683:../Dave/Generated/src/FATFS002/Src/ff.c **** 	static const BYTE excvt[] = _EXCVT;	/* Upper conversion table for extended chars */
1684:../Dave/Generated/src/FATFS002/Src/ff.c **** #endif
1685:../Dave/Generated/src/FATFS002/Src/ff.c **** 
1686:../Dave/Generated/src/FATFS002/Src/ff.c **** #if _USE_LFN	/* LFN configuration */
1687:../Dave/Generated/src/FATFS002/Src/ff.c **** 	BYTE b, cf;
1688:../Dave/Generated/src/FATFS002/Src/ff.c **** 	WCHAR w, *lfn;
1689:../Dave/Generated/src/FATFS002/Src/ff.c **** 	UINT i, ni, si, di;
1690:../Dave/Generated/src/FATFS002/Src/ff.c **** 	const TCHAR *p;
1691:../Dave/Generated/src/FATFS002/Src/ff.c **** 
1692:../Dave/Generated/src/FATFS002/Src/ff.c **** 	/* Create LFN in Unicode */
1693:../Dave/Generated/src/FATFS002/Src/ff.c **** 	for (p = *path; *p == '/' || *p == '\\'; p++) ;	/* Strip duplicated separator */
1694:../Dave/Generated/src/FATFS002/Src/ff.c **** 	lfn = dj->lfn;
1695:../Dave/Generated/src/FATFS002/Src/ff.c **** 	si = di = 0;
1696:../Dave/Generated/src/FATFS002/Src/ff.c **** 	for (;;) {
1697:../Dave/Generated/src/FATFS002/Src/ff.c **** 		w = p[si++];					/* Get a character */
1698:../Dave/Generated/src/FATFS002/Src/ff.c **** 		if (w < ' ' || w == '/' || w == '\\') break;	/* Break on end of segment */
1699:../Dave/Generated/src/FATFS002/Src/ff.c **** 		if (di >= _MAX_LFN)				/* Reject too long name */
1700:../Dave/Generated/src/FATFS002/Src/ff.c **** 			return FR_INVALID_NAME;
1701:../Dave/Generated/src/FATFS002/Src/ff.c **** #if !_LFN_UNICODE
1702:../Dave/Generated/src/FATFS002/Src/ff.c **** 		w &= 0xFF;
1703:../Dave/Generated/src/FATFS002/Src/ff.c **** 		if (IsDBCS1(w)) {				/* Check if it is a DBC 1st byte (always false on SBCS cfg) */
1704:../Dave/Generated/src/FATFS002/Src/ff.c **** 			b = (BYTE)p[si++];			/* Get 2nd byte */
1705:../Dave/Generated/src/FATFS002/Src/ff.c **** 			if (!IsDBCS2(b))
1706:../Dave/Generated/src/FATFS002/Src/ff.c **** 				return FR_INVALID_NAME;	/* Reject invalid sequence */
1707:../Dave/Generated/src/FATFS002/Src/ff.c **** 			w = (w << 8) + b;			/* Create a DBC */
1708:../Dave/Generated/src/FATFS002/Src/ff.c **** 		}
1709:../Dave/Generated/src/FATFS002/Src/ff.c **** 		w = ff_convert(w, 1);			/* Convert ANSI/OEM to Unicode */
1710:../Dave/Generated/src/FATFS002/Src/ff.c **** 		if (!w) return FR_INVALID_NAME;	/* Reject invalid code */
1711:../Dave/Generated/src/FATFS002/Src/ff.c **** #endif
1712:../Dave/Generated/src/FATFS002/Src/ff.c **** 		if (w < 0x80 && chk_chr("\"*:<>\?|\x7F", w)) /* Reject illegal chars for LFN */
1713:../Dave/Generated/src/FATFS002/Src/ff.c **** 			return FR_INVALID_NAME;
1714:../Dave/Generated/src/FATFS002/Src/ff.c **** 		lfn[di++] = w;					/* Store the Unicode char */
1715:../Dave/Generated/src/FATFS002/Src/ff.c **** 	}
1716:../Dave/Generated/src/FATFS002/Src/ff.c **** 	*path = &p[si];						/* Return pointer to the next segment */
1717:../Dave/Generated/src/FATFS002/Src/ff.c **** 	cf = (w < ' ') ? NS_LAST : 0;		/* Set last segment flag if end of path */
1718:../Dave/Generated/src/FATFS002/Src/ff.c **** #if _FS_RPATH
1719:../Dave/Generated/src/FATFS002/Src/ff.c **** 	if ((di == 1 && lfn[di-1] == '.') || /* Is this a dot entry? */
1720:../Dave/Generated/src/FATFS002/Src/ff.c **** 		(di == 2 && lfn[di-1] == '.' && lfn[di-2] == '.')) {
1721:../Dave/Generated/src/FATFS002/Src/ff.c **** 		lfn[di] = 0;
1722:../Dave/Generated/src/FATFS002/Src/ff.c **** 		for (i = 0; i < 11; i++)
1723:../Dave/Generated/src/FATFS002/Src/ff.c **** 			dj->fn[i] = (i < di) ? '.' : ' ';
1724:../Dave/Generated/src/FATFS002/Src/ff.c **** 		dj->fn[i] = cf | NS_DOT;		/* This is a dot entry */
1725:../Dave/Generated/src/FATFS002/Src/ff.c **** 		return FR_OK;
1726:../Dave/Generated/src/FATFS002/Src/ff.c **** 	}
1727:../Dave/Generated/src/FATFS002/Src/ff.c **** #endif
1728:../Dave/Generated/src/FATFS002/Src/ff.c **** 	while (di) {						/* Strip trailing spaces and dots */
1729:../Dave/Generated/src/FATFS002/Src/ff.c **** 		w = lfn[di-1];
1730:../Dave/Generated/src/FATFS002/Src/ff.c **** 		if (w != ' ' && w != '.') break;
1731:../Dave/Generated/src/FATFS002/Src/ff.c **** 		di--;
1732:../Dave/Generated/src/FATFS002/Src/ff.c **** 	}
1733:../Dave/Generated/src/FATFS002/Src/ff.c **** 	if (!di) return FR_INVALID_NAME;	/* Reject nul string */
1734:../Dave/Generated/src/FATFS002/Src/ff.c **** 
1735:../Dave/Generated/src/FATFS002/Src/ff.c **** 	lfn[di] = 0;						/* LFN is created */
1736:../Dave/Generated/src/FATFS002/Src/ff.c **** 
1737:../Dave/Generated/src/FATFS002/Src/ff.c **** 	/* Create SFN in directory form */
1738:../Dave/Generated/src/FATFS002/Src/ff.c **** 	mem_set(dj->fn, ' ', 11);
1739:../Dave/Generated/src/FATFS002/Src/ff.c **** 	for (si = 0; lfn[si] == ' ' || lfn[si] == '.'; si++) ;	/* Strip leading spaces and dots */
1740:../Dave/Generated/src/FATFS002/Src/ff.c **** 	if (si) cf |= NS_LOSS | NS_LFN;
1741:../Dave/Generated/src/FATFS002/Src/ff.c **** 	while (di && lfn[di - 1] != '.') di--;	/* Find extension (di<=si: no extension) */
1742:../Dave/Generated/src/FATFS002/Src/ff.c **** 
1743:../Dave/Generated/src/FATFS002/Src/ff.c **** 	b = i = 0; ni = 8;
1744:../Dave/Generated/src/FATFS002/Src/ff.c **** 	for (;;) {
1745:../Dave/Generated/src/FATFS002/Src/ff.c **** 		w = lfn[si++];					/* Get an LFN char */
1746:../Dave/Generated/src/FATFS002/Src/ff.c **** 		if (!w) break;					/* Break on end of the LFN */
1747:../Dave/Generated/src/FATFS002/Src/ff.c **** 		if (w == ' ' || (w == '.' && si != di)) {	/* Remove spaces and dots */
1748:../Dave/Generated/src/FATFS002/Src/ff.c **** 			cf |= NS_LOSS | NS_LFN; continue;
1749:../Dave/Generated/src/FATFS002/Src/ff.c **** 		}
1750:../Dave/Generated/src/FATFS002/Src/ff.c **** 
1751:../Dave/Generated/src/FATFS002/Src/ff.c **** 		if (i >= ni || si == di) {		/* Extension or end of SFN */
1752:../Dave/Generated/src/FATFS002/Src/ff.c **** 			if (ni == 11) {				/* Long extension */
1753:../Dave/Generated/src/FATFS002/Src/ff.c **** 				cf |= NS_LOSS | NS_LFN; break;
1754:../Dave/Generated/src/FATFS002/Src/ff.c **** 			}
1755:../Dave/Generated/src/FATFS002/Src/ff.c **** 			if (si != di) cf |= NS_LOSS | NS_LFN;	/* Out of 8.3 format */
1756:../Dave/Generated/src/FATFS002/Src/ff.c **** 			if (si > di) break;			/* No extension */
1757:../Dave/Generated/src/FATFS002/Src/ff.c **** 			si = di; i = 8; ni = 11;	/* Enter extension section */
1758:../Dave/Generated/src/FATFS002/Src/ff.c **** 			b <<= 2; continue;
1759:../Dave/Generated/src/FATFS002/Src/ff.c **** 		}
1760:../Dave/Generated/src/FATFS002/Src/ff.c **** 
1761:../Dave/Generated/src/FATFS002/Src/ff.c **** 		if (w >= 0x80) {				/* Non ASCII char */
1762:../Dave/Generated/src/FATFS002/Src/ff.c **** #ifdef _EXCVT
1763:../Dave/Generated/src/FATFS002/Src/ff.c **** 			w = ff_convert(w, 0);		/* Unicode -> OEM code */
1764:../Dave/Generated/src/FATFS002/Src/ff.c **** 			if (w) w = excvt[w - 0x80];	/* Convert extended char to upper (SBCS) */
1765:../Dave/Generated/src/FATFS002/Src/ff.c **** #else
1766:../Dave/Generated/src/FATFS002/Src/ff.c **** 			w = ff_convert(ff_wtoupper(w), 0);	/* Upper converted Unicode -> OEM code */
1767:../Dave/Generated/src/FATFS002/Src/ff.c **** #endif
1768:../Dave/Generated/src/FATFS002/Src/ff.c **** 			cf |= NS_LFN;				/* Force create LFN entry */
1769:../Dave/Generated/src/FATFS002/Src/ff.c **** 		}
1770:../Dave/Generated/src/FATFS002/Src/ff.c **** 
1771:../Dave/Generated/src/FATFS002/Src/ff.c **** 		if (_DF1S && w >= 0x100) {		/* Double byte char (always false on SBCS cfg) */
1772:../Dave/Generated/src/FATFS002/Src/ff.c **** 			if (i >= ni - 1) {
1773:../Dave/Generated/src/FATFS002/Src/ff.c **** 				cf |= NS_LOSS | NS_LFN; i = ni; continue;
1774:../Dave/Generated/src/FATFS002/Src/ff.c **** 			}
1775:../Dave/Generated/src/FATFS002/Src/ff.c **** 			dj->fn[i++] = (BYTE)(w >> 8);
1776:../Dave/Generated/src/FATFS002/Src/ff.c **** 		} else {						/* Single byte char */
1777:../Dave/Generated/src/FATFS002/Src/ff.c **** 			if (!w || chk_chr("+,;=[]", w)) {	/* Replace illegal chars for SFN */
1778:../Dave/Generated/src/FATFS002/Src/ff.c **** 				w = '_'; cf |= NS_LOSS | NS_LFN;/* Lossy conversion */
1779:../Dave/Generated/src/FATFS002/Src/ff.c **** 			} else {
1780:../Dave/Generated/src/FATFS002/Src/ff.c **** 				if (IsUpper(w)) {		/* ASCII large capital */
1781:../Dave/Generated/src/FATFS002/Src/ff.c **** 					b |= 2;
1782:../Dave/Generated/src/FATFS002/Src/ff.c **** 				} else {
1783:../Dave/Generated/src/FATFS002/Src/ff.c **** 					if (IsLower(w)) {	/* ASCII small capital */
1784:../Dave/Generated/src/FATFS002/Src/ff.c **** 						b |= 1; w -= 0x20;
1785:../Dave/Generated/src/FATFS002/Src/ff.c **** 					}
1786:../Dave/Generated/src/FATFS002/Src/ff.c **** 				}
1787:../Dave/Generated/src/FATFS002/Src/ff.c **** 			}
1788:../Dave/Generated/src/FATFS002/Src/ff.c **** 		}
1789:../Dave/Generated/src/FATFS002/Src/ff.c **** 		dj->fn[i++] = (BYTE)w;
1790:../Dave/Generated/src/FATFS002/Src/ff.c **** 	}
1791:../Dave/Generated/src/FATFS002/Src/ff.c **** 
1792:../Dave/Generated/src/FATFS002/Src/ff.c **** 	if (dj->fn[0] == DDE) dj->fn[0] = NDDE;	/* If the first char collides with deleted mark, replace i
1793:../Dave/Generated/src/FATFS002/Src/ff.c **** 
1794:../Dave/Generated/src/FATFS002/Src/ff.c **** 	if (ni == 8) b <<= 2;
1795:../Dave/Generated/src/FATFS002/Src/ff.c **** 	if ((b & 0x0C) == 0x0C || (b & 0x03) == 0x03)	/* Create LFN entry when there are composite capital
1796:../Dave/Generated/src/FATFS002/Src/ff.c **** 		cf |= NS_LFN;
1797:../Dave/Generated/src/FATFS002/Src/ff.c **** 	if (!(cf & NS_LFN)) {						/* When LFN is in 8.3 format without extended char, NT flags are create
