   1              		.syntax unified
   2              		.cpu cortex-m4
   3              		.eabi_attribute 27, 3
   4              		.fpu fpv4-sp-d16
   5              		.eabi_attribute 20, 1
   6              		.eabi_attribute 21, 1
   7              		.eabi_attribute 23, 3
   8              		.eabi_attribute 24, 1
   9              		.eabi_attribute 25, 1
  10              		.eabi_attribute 26, 1
  11              		.eabi_attribute 30, 4
  12              		.eabi_attribute 34, 1
  13              		.eabi_attribute 18, 4
  14              		.thumb
  15              		.file	"SDMMC003.c"
  16              		.section	.text.SDMMC003_HostControllerInit,"ax",%progbits
  17              		.align	1
  18              		.global	SDMMC003_HostControllerInit
  19              		.thumb
  20              		.thumb_func
  22              	SDMMC003_HostControllerInit:
  23              		@ args = 0, pretend = 0, frame = 0
  24              		@ frame_needed = 0, uses_anonymous_args = 0
  25 0000 10B5     		push	{r4, lr}
  26 0002 174C     		ldr	r4, .L5
  27 0004 2388     		ldrh	r3, [r4, #0]
  28 0006 03F02000 		and	r0, r3, #32
  29 000a 81B2     		uxth	r1, r0
  30 000c 29BB     		cbnz	r1, .L3
  31 000e 0120     		movs	r0, #1
  32 0010 FFF7FEFF 		bl	SDMMC003_lReset
  33 0014 10BB     		cbnz	r0, .L2
  34 0016 134B     		ldr	r3, .L5+4
  35 0018 9A8D     		ldrh	r2, [r3, #44]
  36 001a 91B2     		uxth	r1, r2
  37 001c 41F48072 		orr	r2, r1, #256
  38 0020 42F00101 		orr	r1, r2, #1
  39 0024 F322     		movs	r2, #243
  40 0026 9985     		strh	r1, [r3, #44]	@ movhi
  41 0028 9A86     		strh	r2, [r3, #52]	@ movhi
  42 002a 3321     		movs	r1, #51
  43 002c 4EF2FF02 		movw	r2, #57599
  44 0030 DA86     		strh	r2, [r3, #54]	@ movhi
  45 0032 1987     		strh	r1, [r3, #56]	@ movhi
  46 0034 5A87     		strh	r2, [r3, #58]	@ movhi
  47 0036 93F82E20 		ldrb	r2, [r3, #46]	@ zero_extendqisi2
  48 003a 42F00E01 		orr	r1, r2, #14
  49 003e 83F82E10 		strb	r1, [r3, #46]
  50 0042 93F82920 		ldrb	r2, [r3, #41]	@ zero_extendqisi2
  51 0046 42F00E01 		orr	r1, r2, #14
  52 004a 83F82910 		strb	r1, [r3, #41]
  53 004e 2388     		ldrh	r3, [r4, #0]
  54 0050 9AB2     		uxth	r2, r3
  55 0052 42F02201 		orr	r1, r2, #34
  56 0056 2180     		strh	r1, [r4, #0]	@ movhi
  57 0058 10BD     		pop	{r4, pc}
  58              	.L3:
  59 005a 2C20     		movs	r0, #44
  60              	.L2:
  61 005c 10BD     		pop	{r4, pc}
  62              	.L6:
  63 005e 00BF     		.align	2
  64              	.L5:
  65 0060 00000000 		.word	.LANCHOR0
  66 0064 00C00148 		.word	1208074240
  68              		.section	.text.SDMMC003_HostControllerDeInit,"ax",%progbits
  69              		.align	1
  70              		.global	SDMMC003_HostControllerDeInit
  71              		.thumb
  72              		.thumb_func
  74              	SDMMC003_HostControllerDeInit:
  75              		@ args = 0, pretend = 0, frame = 0
  76              		@ frame_needed = 0, uses_anonymous_args = 0
  77 0000 08B5     		push	{r3, lr}
  78 0002 074B     		ldr	r3, .L9
  79 0004 1888     		ldrh	r0, [r3, #0]
  80 0006 00F02001 		and	r1, r0, #32
  81 000a 8AB2     		uxth	r2, r1
  82 000c 32B1     		cbz	r2, .L8
  83 000e FFF7FEFF 		bl	SDMMC003_lCardCleanUp
  84 0012 0120     		movs	r0, #1
  85 0014 BDE80840 		pop	{r3, lr}
  86 0018 FFF7FEBF 		b	SDMMC003_lReset
  87              	.L8:
  88 001c 0120     		movs	r0, #1
  89 001e 08BD     		pop	{r3, pc}
  90              	.L10:
  91              		.align	2
  92              	.L9:
  93 0020 00000000 		.word	.LANCHOR0
  95              		.section	.text.SDMMC003_CardReadMultipleBlocks,"ax",%progbits
  96              		.align	1
  97              		.global	SDMMC003_CardReadMultipleBlocks
  98              		.thumb
  99              		.thumb_func
 101              	SDMMC003_CardReadMultipleBlocks:
 102              		@ args = 0, pretend = 0, frame = 8
 103              		@ frame_needed = 0, uses_anonymous_args = 0
 104 0000 F0B5     		push	{r4, r5, r6, r7, lr}
 105 0002 124C     		ldr	r4, .L14
 106 0004 0125     		movs	r5, #1
 107 0006 2571     		strb	r5, [r4, #4]
 108 0008 E570     		strb	r5, [r4, #3]
 109 000a 6571     		strb	r5, [r4, #5]
 110 000c 247A     		ldrb	r4, [r4, #8]	@ zero_extendqisi2
 111 000e 85B0     		sub	sp, sp, #20
 112 0010 0746     		mov	r7, r0
 113 0012 2A20     		movs	r0, #42
 114 0014 AC42     		cmp	r4, r5
 115 0016 0391     		str	r1, [sp, #12]
 116 0018 1646     		mov	r6, r2
 117 001a 15D1     		bne	.L12
 118 001c 0846     		mov	r0, r1
 119 001e 1146     		mov	r1, r2
 120 0020 FFF7FEFF 		bl	SDMMC003_lCheckSectorBound
 121 0024 80B9     		cbnz	r0, .L12
 122 0026 0A4A     		ldr	r2, .L14+4
 123 0028 9389     		ldrh	r3, [r2, #12]
 124 002a 98B2     		uxth	r0, r3
 125 002c 40F01001 		orr	r1, r0, #16
 126 0030 9181     		strh	r1, [r2, #12]	@ movhi
 127 0032 084A     		ldr	r2, .L14+8
 128 0034 084B     		ldr	r3, .L14+12
 129 0036 927C     		ldrb	r2, [r2, #18]	@ zero_extendqisi2
 130 0038 0094     		str	r4, [sp, #0]
 131 003a 03EB4202 		add	r2, r3, r2, lsl #1
 132 003e 03A8     		add	r0, sp, #12
 133 0040 3146     		mov	r1, r6
 134 0042 3B46     		mov	r3, r7
 135 0044 FFF7FEFF 		bl	SDMMC003_lMultiBlockTransfer
 136              	.L12:
 137 0048 05B0     		add	sp, sp, #20
 138 004a F0BD     		pop	{r4, r5, r6, r7, pc}
 139              	.L15:
 140              		.align	2
 141              	.L14:
 142 004c 00000000 		.word	.LANCHOR0
 143 0050 00C00148 		.word	1208074240
 144 0054 00000000 		.word	SDMMC003_SDHashTable
 145 0058 00000000 		.word	SDMMC003_Command
 147              		.section	.text.SDMMC003_CardReadSingleBlock,"ax",%progbits
 148              		.align	1
 149              		.global	SDMMC003_CardReadSingleBlock
 150              		.thumb
 151              		.thumb_func
 153              	SDMMC003_CardReadSingleBlock:
 154              		@ args = 0, pretend = 0, frame = 0
 155              		@ frame_needed = 0, uses_anonymous_args = 0
 156 0000 73B5     		push	{r0, r1, r4, r5, r6, lr}
 157 0002 124D     		ldr	r5, .L20
 158 0004 0C46     		mov	r4, r1
 159 0006 297A     		ldrb	r1, [r5, #8]	@ zero_extendqisi2
 160 0008 0646     		mov	r6, r0
 161 000a 2A20     		movs	r0, #42
 162 000c 0129     		cmp	r1, #1
 163 000e 1CD1     		bne	.L17
 164 0010 2046     		mov	r0, r4
 165 0012 FFF7FEFF 		bl	SDMMC003_lCheckSectorBound
 166 0016 C0B9     		cbnz	r0, .L17
 167 0018 AB78     		ldrb	r3, [r5, #2]	@ zero_extendqisi2
 168 001a 03F00800 		and	r0, r3, #8
 169 001e C1B2     		uxtb	r1, r0
 170 0020 01B9     		cbnz	r1, .L18
 171 0022 6402     		lsls	r4, r4, #9
 172              	.L18:
 173 0024 0A4A     		ldr	r2, .L20+4
 174 0026 9389     		ldrh	r3, [r2, #12]
 175 0028 98B2     		uxth	r0, r3
 176 002a 40F01001 		orr	r1, r0, #16
 177 002e 0948     		ldr	r0, .L20+8
 178 0030 9181     		strh	r1, [r2, #12]	@ movhi
 179 0032 094B     		ldr	r3, .L20+12
 180 0034 417C     		ldrb	r1, [r0, #17]	@ zero_extendqisi2
 181 0036 0122     		movs	r2, #1
 182 0038 03EB4100 		add	r0, r3, r1, lsl #1
 183 003c 0092     		str	r2, [sp, #0]
 184 003e 2146     		mov	r1, r4
 185 0040 4FF40072 		mov	r2, #512
 186 0044 3346     		mov	r3, r6
 187 0046 FFF7FEFF 		bl	SDMMC003_lSingleBlockTransfer
 188              	.L17:
 189 004a 7CBD     		pop	{r2, r3, r4, r5, r6, pc}
 190              	.L21:
 191              		.align	2
 192              	.L20:
 193 004c 00000000 		.word	.LANCHOR0
 194 0050 00C00148 		.word	1208074240
 195 0054 00000000 		.word	SDMMC003_SDHashTable
 196 0058 00000000 		.word	SDMMC003_Command
 198              		.section	.text.SDMMC003_CardWriteMultipleBlocks,"ax",%progbits
 199              		.align	1
 200              		.global	SDMMC003_CardWriteMultipleBlocks
 201              		.thumb
 202              		.thumb_func
 204              	SDMMC003_CardWriteMultipleBlocks:
 205              		@ args = 0, pretend = 0, frame = 8
 206              		@ frame_needed = 0, uses_anonymous_args = 0
 207 0000 F0B5     		push	{r4, r5, r6, r7, lr}
 208 0002 134C     		ldr	r4, .L25
 209 0004 0125     		movs	r5, #1
 210 0006 2571     		strb	r5, [r4, #4]
 211 0008 E570     		strb	r5, [r4, #3]
 212 000a 6571     		strb	r5, [r4, #5]
 213 000c 237A     		ldrb	r3, [r4, #8]	@ zero_extendqisi2
 214 000e 85B0     		sub	sp, sp, #20
 215 0010 0746     		mov	r7, r0
 216 0012 2A20     		movs	r0, #42
 217 0014 AB42     		cmp	r3, r5
 218 0016 0391     		str	r1, [sp, #12]
 219 0018 1646     		mov	r6, r2
 220 001a 17D1     		bne	.L23
 221 001c 0846     		mov	r0, r1
 222 001e 1146     		mov	r1, r2
 223 0020 FFF7FEFF 		bl	SDMMC003_lCheckSectorBound
 224 0024 90B9     		cbnz	r0, .L23
 225 0026 0B4A     		ldr	r2, .L25+4
 226 0028 9489     		ldrh	r4, [r2, #12]
 227 002a 24F01000 		bic	r0, r4, #16
 228 002e 0104     		lsls	r1, r0, #16
 229 0030 0C0C     		lsrs	r4, r1, #16
 230 0032 9481     		strh	r4, [r2, #12]	@ movhi
 231 0034 084A     		ldr	r2, .L25+8
 232 0036 0223     		movs	r3, #2
 233 0038 0093     		str	r3, [sp, #0]
 234 003a 527E     		ldrb	r2, [r2, #25]	@ zero_extendqisi2
 235 003c 074B     		ldr	r3, .L25+12
 236 003e 03A8     		add	r0, sp, #12
 237 0040 03EB4202 		add	r2, r3, r2, lsl #1
 238 0044 3146     		mov	r1, r6
 239 0046 3B46     		mov	r3, r7
 240 0048 FFF7FEFF 		bl	SDMMC003_lMultiBlockTransfer
 241              	.L23:
 242 004c 05B0     		add	sp, sp, #20
 243 004e F0BD     		pop	{r4, r5, r6, r7, pc}
 244              	.L26:
 245              		.align	2
 246              	.L25:
 247 0050 00000000 		.word	.LANCHOR0
 248 0054 00C00148 		.word	1208074240
 249 0058 00000000 		.word	SDMMC003_SDHashTable
 250 005c 00000000 		.word	SDMMC003_Command
 252              		.section	.text.SDMMC003_CardWriteSingleBlock,"ax",%progbits
 253              		.align	1
 254              		.global	SDMMC003_CardWriteSingleBlock
 255              		.thumb
 256              		.thumb_func
 258              	SDMMC003_CardWriteSingleBlock:
 259              		@ args = 0, pretend = 0, frame = 0
 260              		@ frame_needed = 0, uses_anonymous_args = 0
 261 0000 73B5     		push	{r0, r1, r4, r5, r6, lr}
 262 0002 134D     		ldr	r5, .L31
 263 0004 0C46     		mov	r4, r1
 264 0006 297A     		ldrb	r1, [r5, #8]	@ zero_extendqisi2
 265 0008 0646     		mov	r6, r0
 266 000a 2A20     		movs	r0, #42
 267 000c 0129     		cmp	r1, #1
 268 000e 1DD1     		bne	.L28
 269 0010 2046     		mov	r0, r4
 270 0012 FFF7FEFF 		bl	SDMMC003_lCheckSectorBound
 271 0016 C8B9     		cbnz	r0, .L28
 272 0018 AB78     		ldrb	r3, [r5, #2]	@ zero_extendqisi2
 273 001a 03F00800 		and	r0, r3, #8
 274 001e C1B2     		uxtb	r1, r0
 275 0020 01B9     		cbnz	r1, .L29
 276 0022 6402     		lsls	r4, r4, #9
 277              	.L29:
 278 0024 0B4B     		ldr	r3, .L31+4
 279 0026 9A89     		ldrh	r2, [r3, #12]
 280 0028 22F01000 		bic	r0, r2, #16
 281 002c 0104     		lsls	r1, r0, #16
 282 002e 0A48     		ldr	r0, .L31+8
 283 0030 0A0C     		lsrs	r2, r1, #16
 284 0032 9A81     		strh	r2, [r3, #12]	@ movhi
 285 0034 0949     		ldr	r1, .L31+12
 286 0036 027E     		ldrb	r2, [r0, #24]	@ zero_extendqisi2
 287 0038 0223     		movs	r3, #2
 288 003a 01EB4200 		add	r0, r1, r2, lsl #1
 289 003e 0093     		str	r3, [sp, #0]
 290 0040 2146     		mov	r1, r4
 291 0042 4FF40072 		mov	r2, #512
 292 0046 3346     		mov	r3, r6
 293 0048 FFF7FEFF 		bl	SDMMC003_lSingleBlockTransfer
 294              	.L28:
 295 004c 7CBD     		pop	{r2, r3, r4, r5, r6, pc}
 296              	.L32:
 297 004e 00BF     		.align	2
 298              	.L31:
 299 0050 00000000 		.word	.LANCHOR0
 300 0054 00C00148 		.word	1208074240
 301 0058 00000000 		.word	SDMMC003_SDHashTable
 302 005c 00000000 		.word	SDMMC003_Command
 304              		.section	.text.SDMMC003_LockUnlockCard,"ax",%progbits
 305              		.align	1
 306              		.global	SDMMC003_LockUnlockCard
 307              		.thumb
 308              		.thumb_func
 310              	SDMMC003_LockUnlockCard:
 311              		@ args = 0, pretend = 0, frame = 0
 312              		@ frame_needed = 0, uses_anonymous_args = 0
 313 0000 F7B5     		push	{r0, r1, r2, r4, r5, r6, r7, lr}
 314 0002 0746     		mov	r7, r0
 315 0004 0E46     		mov	r6, r1
 316 0006 FFF7FEFF 		bl	SDMMC003_lSwitchToTransferState
 317 000a 0246     		mov	r2, r0
 318 000c E0B9     		cbnz	r0, .L34
 319 000e 104D     		ldr	r5, .L35
 320 0010 AC89     		ldrh	r4, [r5, #12]
 321 0012 24F01000 		bic	r0, r4, #16
 322 0016 0104     		lsls	r1, r0, #16
 323 0018 0E48     		ldr	r0, .L35+4
 324 001a 0C0C     		lsrs	r4, r1, #16
 325 001c 0223     		movs	r3, #2
 326 001e 90F82A10 		ldrb	r1, [r0, #42]	@ zero_extendqisi2
 327 0022 AC81     		strh	r4, [r5, #12]	@ movhi
 328 0024 0093     		str	r3, [sp, #0]
 329 0026 0C4B     		ldr	r3, .L35+8
 330 0028 03EB4100 		add	r0, r3, r1, lsl #1
 331 002c 1146     		mov	r1, r2
 332 002e 3B46     		mov	r3, r7
 333 0030 4FF40072 		mov	r2, #512
 334 0034 FFF7FEFF 		bl	SDMMC003_lSingleBlockTransfer
 335 0038 0246     		mov	r2, r0
 336 003a 28B9     		cbnz	r0, .L34
 337 003c 3046     		mov	r0, r6
 338 003e 03B0     		add	sp, sp, #12
 339 0040 BDE8F040 		pop	{r4, r5, r6, r7, lr}
 340 0044 FFF7FEBF 		b	SDMMC003_lCheckLockStatus
 341              	.L34:
 342 0048 1046     		mov	r0, r2
 343 004a 03B0     		add	sp, sp, #12
 344 004c F0BD     		pop	{r4, r5, r6, r7, pc}
 345              	.L36:
 346 004e 00BF     		.align	2
 347              	.L35:
 348 0050 00C00148 		.word	1208074240
 349 0054 00000000 		.word	SDMMC003_SDHashTable
 350 0058 00000000 		.word	SDMMC003_Command
 352              		.section	.text.SDMMC003_GetLockStatus,"ax",%progbits
 353              		.align	1
 354              		.global	SDMMC003_GetLockStatus
 355              		.thumb
 356              		.thumb_func
 358              	SDMMC003_GetLockStatus:
 359              		@ args = 0, pretend = 0, frame = 8
 360              		@ frame_needed = 0, uses_anonymous_args = 0
 361 0000 13B5     		push	{r0, r1, r4, lr}
 362 0002 0446     		mov	r4, r0
 363 0004 0B48     		ldr	r0, .L41
 364 0006 02AB     		add	r3, sp, #8
 365 0008 818D     		ldrh	r1, [r0, #44]
 366 000a 0B48     		ldr	r0, .L41+4
 367 000c 0022     		movs	r2, #0
 368 000e 43F8042D 		str	r2, [r3, #-4]!
 369 0012 407B     		ldrb	r0, [r0, #13]	@ zero_extendqisi2
 370 0014 094A     		ldr	r2, .L41+8
 371 0016 0904     		lsls	r1, r1, #16
 372 0018 02EB4000 		add	r0, r2, r0, lsl #1
 373 001c 0122     		movs	r2, #1
 374 001e FFF7FEFF 		bl	SDMMC003_lSendCommand
 375 0022 30B9     		cbnz	r0, .L38
 376 0024 019B     		ldr	r3, [sp, #4]
 377 0026 9B01     		lsls	r3, r3, #6
 378 0028 01D5     		bpl	.L39
 379 002a 2021     		movs	r1, #32
 380 002c 00E0     		b	.L40
 381              	.L39:
 382 002e 2121     		movs	r1, #33
 383              	.L40:
 384 0030 2160     		str	r1, [r4, #0]
 385              	.L38:
 386 0032 1CBD     		pop	{r2, r3, r4, pc}
 387              	.L42:
 388              		.align	2
 389              	.L41:
 390 0034 00000000 		.word	SDMMC003_CardInfo
 391 0038 00000000 		.word	SDMMC003_SDHashTable
 392 003c 00000000 		.word	SDMMC003_Command
 394              		.section	.text.SDMMC003_GetCurrentState,"ax",%progbits
 395              		.align	1
 396              		.global	SDMMC003_GetCurrentState
 397              		.thumb
 398              		.thumb_func
 400              	SDMMC003_GetCurrentState:
 401              		@ args = 0, pretend = 0, frame = 0
 402              		@ frame_needed = 0, uses_anonymous_args = 0
 403              		@ link register save eliminated.
 404 0000 0E4B     		ldr	r3, .L58
 405 0002 1A88     		ldrh	r2, [r3, #0]
 406 0004 1988     		ldrh	r1, [r3, #0]
 407 0006 01F01003 		and	r3, r1, #16
 408 000a 12F0010F 		tst	r2, #1
 409 000e 9AB2     		uxth	r2, r3
 410 0010 14BF     		ite	ne
 411 0012 0120     		movne	r0, #1
 412 0014 0220     		moveq	r0, #2
 413 0016 0AB1     		cbz	r2, .L45
 414 0018 40F01000 		orr	r0, r0, #16
 415              	.L45:
 416 001c 0749     		ldr	r1, .L58
 417 001e 0B88     		ldrh	r3, [r1, #0]
 418 0020 03F04002 		and	r2, r3, #64
 419 0024 93B2     		uxth	r3, r2
 420 0026 0BB1     		cbz	r3, .L46
 421 0028 40F04000 		orr	r0, r0, #64
 422              	.L46:
 423 002c 0988     		ldrh	r1, [r1, #0]
 424 002e 01F02002 		and	r2, r1, #32
 425 0032 93B2     		uxth	r3, r2
 426 0034 0BB1     		cbz	r3, .L47
 427 0036 40F02000 		orr	r0, r0, #32
 428              	.L47:
 429 003a 7047     		bx	lr
 430              	.L59:
 431              		.align	2
 432              	.L58:
 433 003c 00000000 		.word	.LANCHOR0
 435              		.section	.text.SDMMC003_GetCardType,"ax",%progbits
 436              		.align	1
 437              		.global	SDMMC003_GetCardType
 438              		.thumb
 439              		.thumb_func
 441              	SDMMC003_GetCardType:
 442              		@ args = 0, pretend = 0, frame = 0
 443              		@ frame_needed = 0, uses_anonymous_args = 0
 444              		@ link register save eliminated.
 445 0000 044B     		ldr	r3, .L63
 446 0002 1A7A     		ldrb	r2, [r3, #8]	@ zero_extendqisi2
 447 0004 012A     		cmp	r2, #1
 448 0006 03D1     		bne	.L62
 449 0008 9978     		ldrb	r1, [r3, #2]	@ zero_extendqisi2
 450 000a 0160     		str	r1, [r0, #0]
 451 000c 0020     		movs	r0, #0
 452 000e 7047     		bx	lr
 453              	.L62:
 454 0010 2A20     		movs	r0, #42
 455 0012 7047     		bx	lr
 456              	.L64:
 457              		.align	2
 458              	.L63:
 459 0014 00000000 		.word	.LANCHOR0
 461              		.section	.text.SDMMC003_GetCid,"ax",%progbits
 462              		.align	1
 463              		.global	SDMMC003_GetCid
 464              		.thumb
 465              		.thumb_func
 467              	SDMMC003_GetCid:
 468              		@ args = 0, pretend = 0, frame = 0
 469              		@ frame_needed = 0, uses_anonymous_args = 0
 470 0000 10B5     		push	{r4, lr}
 471 0002 124B     		ldr	r3, .L68
 472 0004 197A     		ldrb	r1, [r3, #8]	@ zero_extendqisi2
 473 0006 0129     		cmp	r1, #1
 474 0008 1DD1     		bne	.L67
 475 000a 114B     		ldr	r3, .L68+4
 476 000c 5A68     		ldr	r2, [r3, #4]
 477 000e 9968     		ldr	r1, [r3, #8]
 478 0010 22F47044 		bic	r4, r2, #61440
 479 0014 0480     		strh	r4, [r0, #0]	@ movhi
 480 0016 0C04     		lsls	r4, r1, #16
 481 0018 44EA1242 		orr	r2, r4, r2, lsr #16
 482 001c 0C0C     		lsrs	r4, r1, #16
 483 001e 0472     		strb	r4, [r0, #8]
 484 0020 4260     		str	r2, [r0, #4]
 485 0022 DA68     		ldr	r2, [r3, #12]
 486 0024 140E     		lsrs	r4, r2, #24
 487 0026 4472     		strb	r4, [r0, #9]
 488 0028 140C     		lsrs	r4, r2, #16
 489 002a 8472     		strb	r4, [r0, #10]
 490 002c 090E     		lsrs	r1, r1, #24
 491 002e 140A     		lsrs	r4, r2, #8
 492 0030 0273     		strb	r2, [r0, #12]
 493 0032 4173     		strb	r1, [r0, #13]
 494 0034 C472     		strb	r4, [r0, #11]
 495 0036 1B69     		ldr	r3, [r3, #16]
 496 0038 1A0A     		lsrs	r2, r3, #8
 497 003a 190C     		lsrs	r1, r3, #16
 498 003c 8273     		strb	r2, [r0, #14]
 499 003e C373     		strb	r3, [r0, #15]
 500 0040 0174     		strb	r1, [r0, #16]
 501 0042 0020     		movs	r0, #0
 502 0044 10BD     		pop	{r4, pc}
 503              	.L67:
 504 0046 2A20     		movs	r0, #42
 505 0048 10BD     		pop	{r4, pc}
 506              	.L69:
 507 004a 00BF     		.align	2
 508              	.L68:
 509 004c 00000000 		.word	.LANCHOR0
 510 0050 00000000 		.word	SDMMC003_CardInfo
 512              		.section	.text.SDMMC003_GetOcr,"ax",%progbits
 513              		.align	1
 514              		.global	SDMMC003_GetOcr
 515              		.thumb
 516              		.thumb_func
 518              	SDMMC003_GetOcr:
 519              		@ args = 0, pretend = 0, frame = 0
 520              		@ frame_needed = 0, uses_anonymous_args = 0
 521              		@ link register save eliminated.
 522 0000 054B     		ldr	r3, .L73
 523 0002 197A     		ldrb	r1, [r3, #8]	@ zero_extendqisi2
 524 0004 0129     		cmp	r1, #1
 525 0006 04D1     		bne	.L72
 526 0008 044A     		ldr	r2, .L73+4
 527 000a 1368     		ldr	r3, [r2, #0]
 528 000c 0360     		str	r3, [r0, #0]
 529 000e 0020     		movs	r0, #0
 530 0010 7047     		bx	lr
 531              	.L72:
 532 0012 2A20     		movs	r0, #42
 533 0014 7047     		bx	lr
 534              	.L74:
 535 0016 00BF     		.align	2
 536              	.L73:
 537 0018 00000000 		.word	.LANCHOR0
 538 001c 00000000 		.word	SDMMC003_CardInfo
 540              		.section	.text.SDMMC003_GetCsd,"ax",%progbits
 541              		.align	1
 542              		.global	SDMMC003_GetCsd
 543              		.thumb
 544              		.thumb_func
 546              	SDMMC003_GetCsd:
 547              		@ args = 0, pretend = 0, frame = 0
 548              		@ frame_needed = 0, uses_anonymous_args = 0
 549 0000 30B5     		push	{r4, r5, lr}
 550 0002 0D4B     		ldr	r3, .L80
 551 0004 197A     		ldrb	r1, [r3, #8]	@ zero_extendqisi2
 552 0006 0129     		cmp	r1, #1
 553 0008 13D1     		bne	.L78
 554 000a 0C4A     		ldr	r2, .L80+4
 555 000c 431C     		adds	r3, r0, #1
 556 000e 02F10805 		add	r5, r2, #8
 557              	.L77:
 558 0012 1446     		mov	r4, r2
 559 0014 03CC     		ldmia	r4!, {r0, r1}
 560 0016 1860     		str	r0, [r3, #0]	@ unaligned
 561 0018 5960     		str	r1, [r3, #4]	@ unaligned
 562 001a 0833     		adds	r3, r3, #8
 563 001c AC42     		cmp	r4, r5
 564 001e 2246     		mov	r2, r4
 565 0020 F7D1     		bne	.L77
 566 0022 2068     		ldr	r0, [r4, #0]	@ unaligned
 567 0024 1860     		str	r0, [r3, #0]	@ unaligned
 568 0026 A188     		ldrh	r1, [r4, #4]	@ unaligned
 569 0028 A279     		ldrb	r2, [r4, #6]	@ zero_extendqisi2
 570 002a 9980     		strh	r1, [r3, #4]	@ unaligned
 571 002c 9A71     		strb	r2, [r3, #6]
 572 002e 0020     		movs	r0, #0
 573 0030 30BD     		pop	{r4, r5, pc}
 574              	.L78:
 575 0032 2A20     		movs	r0, #42
 576 0034 30BD     		pop	{r4, r5, pc}
 577              	.L81:
 578 0036 00BF     		.align	2
 579              	.L80:
 580 0038 00000000 		.word	.LANCHOR0
 581 003c 14000000 		.word	SDMMC003_CardInfo+20
 583              		.section	.text.SDMMC003_GetSectorCount,"ax",%progbits
 584              		.align	1
 585              		.global	SDMMC003_GetSectorCount
 586              		.thumb
 587              		.thumb_func
 589              	SDMMC003_GetSectorCount:
 590              		@ args = 0, pretend = 0, frame = 32
 591              		@ frame_needed = 0, uses_anonymous_args = 0
 592 0000 10B5     		push	{r4, lr}
 593 0002 214B     		ldr	r3, .L89
 594 0004 1A7A     		ldrb	r2, [r3, #8]	@ zero_extendqisi2
 595 0006 012A     		cmp	r2, #1
 596 0008 88B0     		sub	sp, sp, #32
 597 000a 0446     		mov	r4, r0
 598 000c 38D1     		bne	.L87
 599 000e 9978     		ldrb	r1, [r3, #2]	@ zero_extendqisi2
 600 0010 01F00400 		and	r0, r1, #4
 601 0014 C1B2     		uxtb	r1, r0
 602 0016 99B1     		cbz	r1, .L84
 603 0018 6846     		mov	r0, sp
 604 001a 0021     		movs	r1, #0
 605 001c 1022     		movs	r2, #16
 606 001e FFF7FEFF 		bl	memset
 607 0022 6846     		mov	r0, sp
 608 0024 FFF7FEFF 		bl	SDMMC003_GetCsd
 609 0028 58BB     		cbnz	r0, .L83
 610 002a 9DF80830 		ldrb	r3, [sp, #8]	@ zero_extendqisi2
 611 002e BDF80620 		ldrh	r2, [sp, #6]
 612 0032 03F03F01 		and	r1, r3, #63
 613 0036 42EA0143 		orr	r3, r2, r1, lsl #16
 614 003a 591C     		adds	r1, r3, #1
 615 003c 8A02     		lsls	r2, r1, #10
 616 003e 1DE0     		b	.L88
 617              	.L84:
 618 0040 04A8     		add	r0, sp, #16
 619 0042 1022     		movs	r2, #16
 620 0044 FFF7FEFF 		bl	memset
 621 0048 04A8     		add	r0, sp, #16
 622 004a FFF7FEFF 		bl	SDMMC003_GetCsd
 623 004e C0B9     		cbnz	r0, .L83
 624 0050 BDF81830 		ldrh	r3, [sp, #24]
 625 0054 C3F30902 		ubfx	r2, r3, #0, #10
 626 0058 9DF81730 		ldrb	r3, [sp, #23]	@ zero_extendqisi2
 627 005c 91B2     		uxth	r1, r2
 628 005e 9A09     		lsrs	r2, r3, #6
 629 0060 42EA8101 		orr	r1, r2, r1, lsl #2
 630 0064 4A1C     		adds	r2, r1, #1
 631 0066 059B     		ldr	r3, [sp, #20]
 632 0068 9DF81A10 		ldrb	r1, [sp, #26]	@ zero_extendqisi2
 633 006c C3F3C233 		ubfx	r3, r3, #15, #3
 634 0070 01F00F01 		and	r1, r1, #15
 635 0074 5B18     		adds	r3, r3, r1
 636 0076 D91F     		subs	r1, r3, #7
 637 0078 02FA01F2 		lsl	r2, r2, r1
 638              	.L88:
 639 007c 2260     		str	r2, [r4, #0]
 640 007e 00E0     		b	.L83
 641              	.L87:
 642 0080 2A20     		movs	r0, #42
 643              	.L83:
 644 0082 08B0     		add	sp, sp, #32
 645 0084 10BD     		pop	{r4, pc}
 646              	.L90:
 647 0086 00BF     		.align	2
 648              	.L89:
 649 0088 00000000 		.word	.LANCHOR0
 651              		.section	.text.SDMMC003_GetSectorSize,"ax",%progbits
 652              		.align	1
 653              		.global	SDMMC003_GetSectorSize
 654              		.thumb
 655              		.thumb_func
 657              	SDMMC003_GetSectorSize:
 658              		@ args = 0, pretend = 0, frame = 0
 659              		@ frame_needed = 0, uses_anonymous_args = 0
 660              		@ link register save eliminated.
 661 0000 054B     		ldr	r3, .L94
 662 0002 197A     		ldrb	r1, [r3, #8]	@ zero_extendqisi2
 663 0004 0129     		cmp	r1, #1
 664 0006 04D1     		bne	.L93
 665 0008 4FF40072 		mov	r2, #512
 666 000c 0280     		strh	r2, [r0, #0]	@ movhi
 667 000e 0020     		movs	r0, #0
 668 0010 7047     		bx	lr
 669              	.L93:
 670 0012 2A20     		movs	r0, #42
 671 0014 7047     		bx	lr
 672              	.L95:
 673 0016 00BF     		.align	2
 674              	.L94:
 675 0018 00000000 		.word	.LANCHOR0
 677              		.section	.text.SDMMC003_GetBlockSize,"ax",%progbits
 678              		.align	1
 679              		.global	SDMMC003_GetBlockSize
 680              		.thumb
 681              		.thumb_func
 683              	SDMMC003_GetBlockSize:
 684              		@ args = 0, pretend = 0, frame = 32
 685              		@ frame_needed = 0, uses_anonymous_args = 0
 686 0000 10B5     		push	{r4, lr}
 687 0002 134B     		ldr	r3, .L101
 688 0004 1A7A     		ldrb	r2, [r3, #8]	@ zero_extendqisi2
 689 0006 012A     		cmp	r2, #1
 690 0008 88B0     		sub	sp, sp, #32
 691 000a 0446     		mov	r4, r0
 692 000c 1DD1     		bne	.L99
 693 000e 9978     		ldrb	r1, [r3, #2]	@ zero_extendqisi2
 694 0010 01F00400 		and	r0, r1, #4
 695 0014 C1B2     		uxtb	r1, r0
 696 0016 51B1     		cbz	r1, .L98
 697 0018 0021     		movs	r1, #0
 698 001a 1022     		movs	r2, #16
 699 001c 6846     		mov	r0, sp
 700 001e FFF7FEFF 		bl	memset
 701 0022 6846     		mov	r0, sp
 702 0024 FFF7FEFF 		bl	SDMMC003_GetCsd
 703 0028 BDF80430 		ldrh	r3, [sp, #4]
 704 002c 08E0     		b	.L100
 705              	.L98:
 706 002e 1022     		movs	r2, #16
 707 0030 04A8     		add	r0, sp, #16
 708 0032 FFF7FEFF 		bl	memset
 709 0036 04A8     		add	r0, sp, #16
 710 0038 FFF7FEFF 		bl	SDMMC003_GetCsd
 711 003c BDF81430 		ldrh	r3, [sp, #20]
 712              	.L100:
 713 0040 C3F3C612 		ubfx	r2, r3, #7, #7
 714 0044 511C     		adds	r1, r2, #1
 715 0046 2160     		str	r1, [r4, #0]
 716 0048 00E0     		b	.L97
 717              	.L99:
 718 004a 2A20     		movs	r0, #42
 719              	.L97:
 720 004c 08B0     		add	sp, sp, #32
 721 004e 10BD     		pop	{r4, pc}
 722              	.L102:
 723              		.align	2
 724              	.L101:
 725 0050 00000000 		.word	.LANCHOR0
 727              		.section	.text.SDMMC003_FlushDiskWriteCache,"ax",%progbits
 728              		.align	1
 729              		.global	SDMMC003_FlushDiskWriteCache
 730              		.thumb
 731              		.thumb_func
 733              	SDMMC003_FlushDiskWriteCache:
 734              		@ args = 0, pretend = 0, frame = 0
 735              		@ frame_needed = 0, uses_anonymous_args = 0
 736              		@ link register save eliminated.
 737 0000 034B     		ldr	r3, .L106
 738 0002 187A     		ldrb	r0, [r3, #8]	@ zero_extendqisi2
 739 0004 0128     		cmp	r0, #1
 740 0006 14BF     		ite	ne
 741 0008 2A20     		movne	r0, #42
 742 000a 0020     		moveq	r0, #0
 743 000c 7047     		bx	lr
 744              	.L107:
 745 000e 00BF     		.align	2
 746              	.L106:
 747 0010 00000000 		.word	.LANCHOR0
 749              		.section	.text.SDMMC003_GetSdStatus,"ax",%progbits
 750              		.align	1
 751              		.global	SDMMC003_GetSdStatus
 752              		.thumb
 753              		.thumb_func
 755              	SDMMC003_GetSdStatus:
 756              		@ args = 0, pretend = 0, frame = 8
 757              		@ frame_needed = 0, uses_anonymous_args = 0
 758 0000 7FB5     		push	{r0, r1, r2, r3, r4, r5, r6, lr}
 759 0002 0023     		movs	r3, #0
 760 0004 0646     		mov	r6, r0
 761 0006 0393     		str	r3, [sp, #12]
 762 0008 FFF7FEFF 		bl	SDMMC003_lSwitchToTransferState
 763 000c 0146     		mov	r1, r0
 764 000e F8B9     		cbnz	r0, .L109
 765 0010 1149     		ldr	r1, .L110
 766 0012 124D     		ldr	r5, .L110+4
 767 0014 8A8D     		ldrh	r2, [r1, #44]
 768 0016 95F83700 		ldrb	r0, [r5, #55]	@ zero_extendqisi2
 769 001a 114C     		ldr	r4, .L110+8
 770 001c 1104     		lsls	r1, r2, #16
 771 001e 04EB4000 		add	r0, r4, r0, lsl #1
 772 0022 0122     		movs	r2, #1
 773 0024 03AB     		add	r3, sp, #12
 774 0026 FFF7FEFF 		bl	SDMMC003_lSendCommand
 775 002a 0146     		mov	r1, r0
 776 002c 80B9     		cbnz	r0, .L109
 777 002e 0D48     		ldr	r0, .L110+12
 778 0030 8389     		ldrh	r3, [r0, #12]
 779 0032 9AB2     		uxth	r2, r3
 780 0034 42F01003 		orr	r3, r2, #16
 781 0038 8381     		strh	r3, [r0, #12]	@ movhi
 782 003a 95F83B00 		ldrb	r0, [r5, #59]	@ zero_extendqisi2
 783 003e 0122     		movs	r2, #1
 784 0040 0092     		str	r2, [sp, #0]
 785 0042 04EB4000 		add	r0, r4, r0, lsl #1
 786 0046 4022     		movs	r2, #64
 787 0048 3346     		mov	r3, r6
 788 004a FFF7FEFF 		bl	SDMMC003_lSingleBlockTransfer
 789 004e 0146     		mov	r1, r0
 790              	.L109:
 791 0050 0846     		mov	r0, r1
 792 0052 04B0     		add	sp, sp, #16
 793 0054 70BD     		pop	{r4, r5, r6, pc}
 794              	.L111:
 795 0056 00BF     		.align	2
 796              	.L110:
 797 0058 00000000 		.word	SDMMC003_CardInfo
 798 005c 00000000 		.word	SDMMC003_SDHashTable
 799 0060 00000000 		.word	SDMMC003_Command
 800 0064 00C00148 		.word	1208074240
 802              		.section	.text.SDMMC003_EraseBlock,"ax",%progbits
 803              		.align	1
 804              		.global	SDMMC003_EraseBlock
 805              		.thumb
 806              		.thumb_func
 808              	SDMMC003_EraseBlock:
 809              		@ args = 0, pretend = 0, frame = 104
 810              		@ frame_needed = 0, uses_anonymous_args = 0
 811 0000 2DE9F047 		push	{r4, r5, r6, r7, r8, r9, sl, lr}
 812 0004 2C4D     		ldr	r5, .L120
 813 0006 0646     		mov	r6, r0
 814 0008 8846     		mov	r8, r1
 815 000a 0FCD     		ldmia	r5!, {r0, r1, r2, r3}
 816 000c 9AB0     		sub	sp, sp, #104
 817 000e 6C46     		mov	r4, sp
 818 0010 0FC4     		stmia	r4!, {r0, r1, r2, r3}
 819 0012 0FCD     		ldmia	r5!, {r0, r1, r2, r3}
 820 0014 0FC4     		stmia	r4!, {r0, r1, r2, r3}
 821 0016 95E80300 		ldmia	r5, {r0, r1}
 822 001a 4022     		movs	r2, #64
 823 001c 84E80300 		stmia	r4, {r0, r1}
 824 0020 0021     		movs	r1, #0
 825 0022 0AA8     		add	r0, sp, #40
 826 0024 FFF7FEFF 		bl	memset
 827 0028 244B     		ldr	r3, .L120+4
 828 002a 0122     		movs	r2, #1
 829 002c 1A71     		strb	r2, [r3, #4]
 830 002e DA70     		strb	r2, [r3, #3]
 831 0030 5A71     		strb	r2, [r3, #5]
 832 0032 187A     		ldrb	r0, [r3, #8]	@ zero_extendqisi2
 833 0034 2A24     		movs	r4, #42
 834 0036 9042     		cmp	r0, r2
 835 0038 39D1     		bne	.L113
 836 003a C6EB0805 		rsb	r5, r6, r8
 837 003e 3046     		mov	r0, r6
 838 0040 2946     		mov	r1, r5
 839 0042 FFF7FEFF 		bl	SDMMC003_lCheckSectorBound
 840 0046 0446     		mov	r4, r0
 841 0048 0028     		cmp	r0, #0
 842 004a 30D1     		bne	.L113
 843 004c 0AA8     		add	r0, sp, #40
 844 004e FFF7FEFF 		bl	SDMMC003_GetSdStatus
 845 0052 0446     		mov	r4, r0
 846 0054 58BB     		cbnz	r0, .L113
 847 0056 0D9B     		ldr	r3, [sp, #52]
 848 0058 0C9A     		ldr	r2, [sp, #48]
 849 005a D9B2     		uxtb	r1, r3
 850 005c 170E     		lsrs	r7, r2, #24
 851 005e 41EA0727 		orr	r7, r1, r7, lsl #8
 852 0062 C3F38529 		ubfx	r9, r3, #10, #6
 853 0066 99FBF7F0 		sdiv	r0, r9, r7
 854 006a C3F30123 		ubfx	r3, r3, #8, #2
 855 006e C2F30352 		ubfx	r2, r2, #20, #4
 856 0072 1AA9     		add	r1, sp, #104
 857 0074 00EB0309 		add	r9, r0, r3
 858 0078 01EB8200 		add	r0, r1, r2, lsl #2
 859 007c 50F8683C 		ldr	r3, [r0, #-104]
 860 0080 5F43     		muls	r7, r3, r7
 861              	.L114:
 862 0082 BD42     		cmp	r5, r7
 863 0084 11D9     		bls	.L119
 864              	.L116:
 865 0086 06EB070A 		add	sl, r6, r7
 866 008a 3046     		mov	r0, r6
 867 008c 5146     		mov	r1, sl
 868 008e 4A46     		mov	r2, r9
 869 0090 FFF7FEFF 		bl	SDMMC003_lLocalErase
 870 0094 30B1     		cbz	r0, .L115
 871              	.L117:
 872 0096 3046     		mov	r0, r6
 873 0098 4146     		mov	r1, r8
 874 009a 4A46     		mov	r2, r9
 875 009c FFF7FEFF 		bl	SDMMC003_lLocalErase
 876 00a0 0446     		mov	r4, r0
 877 00a2 04E0     		b	.L113
 878              	.L115:
 879 00a4 ED1B     		subs	r5, r5, r7
 880 00a6 5646     		mov	r6, sl
 881 00a8 EBE7     		b	.L114
 882              	.L119:
 883 00aa 002D     		cmp	r5, #0
 884 00ac F3D1     		bne	.L117
 885              	.L113:
 886 00ae 2046     		mov	r0, r4
 887 00b0 1AB0     		add	sp, sp, #104
 888 00b2 BDE8F087 		pop	{r4, r5, r6, r7, r8, r9, sl, pc}
 889              	.L121:
 890 00b6 00BF     		.align	2
 891              	.L120:
 892 00b8 00000000 		.word	.LANCHOR1
 893 00bc 00000000 		.word	.LANCHOR0
 895              		.section	.text.SDMMC003_EjectCard,"ax",%progbits
 896              		.align	1
 897              		.global	SDMMC003_EjectCard
 898              		.thumb
 899              		.thumb_func
 901              	SDMMC003_EjectCard:
 902              		@ args = 0, pretend = 0, frame = 0
 903              		@ frame_needed = 0, uses_anonymous_args = 0
 904 0000 38B5     		push	{r3, r4, r5, lr}
 905 0002 0D4D     		ldr	r5, .L125
 906 0004 2A88     		ldrh	r2, [r5, #0]
 907 0006 02F00200 		and	r0, r2, #2
 908 000a 82B2     		uxth	r2, r0
 909 000c 82B9     		cbnz	r2, .L124
 910 000e 0B4B     		ldr	r3, .L125+4
 911 0010 0B48     		ldr	r0, .L125+8
 912 0012 998D     		ldrh	r1, [r3, #44]
 913 0014 0B4C     		ldr	r4, .L125+12
 914 0016 C37B     		ldrb	r3, [r0, #15]	@ zero_extendqisi2
 915 0018 0904     		lsls	r1, r1, #16
 916 001a 04EB4300 		add	r0, r4, r3, lsl #1
 917 001e 1346     		mov	r3, r2
 918 0020 FFF7FEFF 		bl	SDMMC003_lSendCommand
 919 0024 0446     		mov	r4, r0
 920 0026 20B9     		cbnz	r0, .L123
 921 0028 FFF7FEFF 		bl	SDMMC003_lCardCleanUp
 922 002c 2C72     		strb	r4, [r5, #8]
 923 002e 00E0     		b	.L123
 924              	.L124:
 925 0030 0124     		movs	r4, #1
 926              	.L123:
 927 0032 2046     		mov	r0, r4
 928 0034 38BD     		pop	{r3, r4, r5, pc}
 929              	.L126:
 930 0036 00BF     		.align	2
 931              	.L125:
 932 0038 00000000 		.word	.LANCHOR0
 933 003c 00000000 		.word	SDMMC003_CardInfo
 934 0040 00000000 		.word	SDMMC003_SDHashTable
 935 0044 00000000 		.word	SDMMC003_Command
 937              		.section	.text.SDMMC003_Init,"ax",%progbits
 938              		.align	1
 939              		.global	SDMMC003_Init
 940              		.thumb
 941              		.thumb_func
 943              	SDMMC003_Init:
 944              		@ args = 0, pretend = 0, frame = 0
 945              		@ frame_needed = 0, uses_anonymous_args = 0
 946              		@ link register save eliminated.
 947 0000 0148     		ldr	r0, .L128
 948 0002 FFF7FEBF 		b	RESET001_DeassertReset
 949              	.L129:
 950 0006 00BF     		.align	2
 951              	.L128:
 952 0008 40000010 		.word	268435520
 954              		.section	.text.SDMMC003_Start,"ax",%progbits
 955              		.align	1
 956              		.global	SDMMC003_Start
 957              		.thumb
 958              		.thumb_func
 960              	SDMMC003_Start:
 961              		@ args = 0, pretend = 0, frame = 0
 962              		@ frame_needed = 0, uses_anonymous_args = 0
 963              		@ link register save eliminated.
 964 0000 134B     		ldr	r3, .L134
 965 0002 1888     		ldrh	r0, [r3, #0]
 966 0004 00F02001 		and	r1, r0, #32
 967 0008 8AB2     		uxth	r2, r1
 968 000a F2B9     		cbnz	r2, .L131
 969 000c 114B     		ldr	r3, .L134+4
 970 000e D868     		ldr	r0, [r3, #12]
 971 0010 C0F30223 		ubfx	r3, r0, #8, #3
 972 0014 C3F10702 		rsb	r2, r3, #7
 973 0018 062A     		cmp	r2, #6
 974 001a 28BF     		it	cs
 975 001c 0622     		movcs	r2, #6
 976 001e 03B1     		cbz	r3, .L132
 977 0020 013B     		subs	r3, r3, #1
 978              	.L132:
 979 0022 0121     		movs	r1, #1
 980 0024 01FA02F0 		lsl	r0, r1, r2
 981 0028 421E     		subs	r2, r0, #1
 982 002a 02F02801 		and	r1, r2, #40
 983 002e 01FA03F3 		lsl	r3, r1, r3
 984 0032 094A     		ldr	r2, .L134+8
 985 0034 9800     		lsls	r0, r3, #2
 986 0036 C1B2     		uxtb	r1, r0
 987 0038 4FF48063 		mov	r3, #1024
 988 003c 82F86A13 		strb	r1, [r2, #874]
 989 0040 C2F88C31 		str	r3, [r2, #396]
 990 0044 D360     		str	r3, [r2, #12]
 991 0046 FFF7FEBF 		b	SDMMC003_HostControllerInit
 992              	.L131:
 993 004a 2C20     		movs	r0, #44
 994 004c 7047     		bx	lr
 995              	.L135:
 996 004e 00BF     		.align	2
 997              	.L134:
 998 0050 00000000 		.word	.LANCHOR0
 999 0054 00ED00E0 		.word	-536810240
 1000 0058 00E100E0 		.word	-536813312
 1002              		.section	.text.SDMMC003_CardDetectionSupport,"ax",%progbits
 1003              		.align	1
 1004              		.global	SDMMC003_CardDetectionSupport
 1005              		.thumb
 1006              		.thumb_func
 1008              	SDMMC003_CardDetectionSupport:
 1009              		@ args = 0, pretend = 0, frame = 0
 1010              		@ frame_needed = 0, uses_anonymous_args = 0
 1011 0000 08B5     		push	{r3, lr}
 1012 0002 FFF7FEFF 		bl	SDMMC003_lCardIdentificationProcess
 1013 0006 10B9     		cbnz	r0, .L137
 1014 0008 014B     		ldr	r3, .L138
 1015 000a 0122     		movs	r2, #1
 1016 000c 1A72     		strb	r2, [r3, #8]
 1017              	.L137:
 1018 000e 08BD     		pop	{r3, pc}
 1019              	.L139:
 1020              		.align	2
 1021              	.L138:
 1022 0010 00000000 		.word	.LANCHOR0
 1024              		.global	SDMMC003_Handle
 1025              		.section	.rodata
 1026              		.align	2
 1027              		.set	.LANCHOR1,. + 0
 1028              	.LC0:
 1029 0000 00000000 		.word	0
 1030 0004 20000000 		.word	32
 1031 0008 40000000 		.word	64
 1032 000c 80000000 		.word	128
 1033 0010 00010000 		.word	256
 1034 0014 00020000 		.word	512
 1035 0018 00040000 		.word	1024
 1036 001c 00080000 		.word	2048
 1037 0020 00100000 		.word	4096
 1038 0024 00200000 		.word	8192
 1039              		.bss
 1040              		.align	1
 1041              		.set	.LANCHOR0,. + 0
 1044              	SDMMC003_Handle:
 1045 0000 00000000 		.space	12
 1045      00000000 
 1045      00000000 
 1046              		.ident	"GCC: (GNU Tools for ARM Embedded Processors) 4.7.4 20130913 (release) [ARM/embedded-4_7-br