   1              		.syntax unified
   2              		.cpu cortex-m4
   3              		.eabi_attribute 27, 3
   4              		.fpu fpv4-sp-d16
   5              		.eabi_attribute 20, 1
   6              		.eabi_attribute 21, 1
   7              		.eabi_attribute 23, 3
   8              		.eabi_attribute 24, 1
   9              		.eabi_attribute 25, 1
  10              		.eabi_attribute 26, 1
  11              		.eabi_attribute 30, 4
  12              		.eabi_attribute 34, 1
  13              		.eabi_attribute 18, 4
  14              		.thumb
  15              		.file	"RTC001.c"
  16              		.section	.text.RTC001_ldatevalid,"ax",%progbits
  17              		.align	1
  18              		.thumb
  19              		.thumb_func
  21              	RTC001_ldatevalid:
  22              		@ args = 0, pretend = 0, frame = 0
  23              		@ frame_needed = 0, uses_anonymous_args = 0
  24              		@ link register save eliminated.
  25 0000 431E     		subs	r3, r0, #1
  26 0002 0B2B     		cmp	r3, #11
  27 0004 21D8     		bhi	.L7
  28 0006 0228     		cmp	r0, #2
  29 0008 01D1     		bne	.L3
  30 000a 1C29     		cmp	r1, #28
  31 000c 07D8     		bhi	.L4
  32              	.L3:
  33 000e 104B     		ldr	r3, .L14
  34 0010 53F82000 		ldr	r0, [r3, r0, lsl #2]
  35 0014 8142     		cmp	r1, r0
  36 0016 8CBF     		ite	hi
  37 0018 0020     		movhi	r0, #0
  38 001a 0120     		movls	r0, #1
  39 001c 7047     		bx	lr
  40              	.L4:
  41 001e 4FF4C873 		mov	r3, #400
  42 0022 B2FBF3F0 		udiv	r0, r2, r3
  43 0026 03FB1023 		mls	r3, r3, r0, r2
  44 002a 98B2     		uxth	r0, r3
  45 002c 40B1     		cbz	r0, .L5
  46 002e 6423     		movs	r3, #100
  47 0030 B2FBF3F0 		udiv	r0, r2, r3
  48 0034 03FB1023 		mls	r3, r3, r0, r2
  49 0038 98B2     		uxth	r0, r3
  50 003a 38B1     		cbz	r0, .L2
  51 003c 9207     		lsls	r2, r2, #30
  52 003e 04D1     		bne	.L7
  53              	.L5:
  54 0040 1D39     		subs	r1, r1, #29
  55 0042 4A42     		rsbs	r2, r1, #0
  56 0044 52EB0100 		adcs	r0, r2, r1
  57 0048 7047     		bx	lr
  58              	.L7:
  59 004a 0020     		movs	r0, #0
  60              	.L2:
  61 004c 7047     		bx	lr
  62              	.L15:
  63 004e 00BF     		.align	2
  64              	.L14:
  65 0050 00000000 		.word	.LANCHOR0
  67              		.section	.text.RTC001_DeInit,"ax",%progbits
  68              		.align	1
  69              		.global	RTC001_DeInit
  70              		.thumb
  71              		.thumb_func
  73              	RTC001_DeInit:
  74              		@ args = 0, pretend = 0, frame = 0
  75              		@ frame_needed = 0, uses_anonymous_args = 0
  76              		@ link register save eliminated.
  77 0000 7047     		bx	lr
  79              		.section	.text.RTC001_Enable,"ax",%progbits
  80              		.align	1
  81              		.global	RTC001_Enable
  82              		.thumb
  83              		.thumb_func
  85              	RTC001_Enable:
  86              		@ args = 0, pretend = 0, frame = 0
  87              		@ frame_needed = 0, uses_anonymous_args = 0
  88              		@ link register save eliminated.
  89 0000 094B     		ldr	r3, .L23
  90 0002 DA68     		ldr	r2, [r3, #12]
  91 0004 42F0F850 		orr	r0, r2, #520093696
  92 0008 084A     		ldr	r2, .L23+4
  93 000a D860     		str	r0, [r3, #12]
  94 000c 5168     		ldr	r1, [r2, #4]
  95 000e 41F00100 		orr	r0, r1, #1
  96 0012 5060     		str	r0, [r2, #4]
  97              	.L18:
  98 0014 5A68     		ldr	r2, [r3, #4]
  99 0016 D101     		lsls	r1, r2, #7
 100 0018 FCD5     		bpl	.L18
 101 001a 034B     		ldr	r3, .L23
 102 001c 4FF08071 		mov	r1, #16777216
 103 0020 D960     		str	r1, [r3, #12]
 104 0022 0020     		movs	r0, #0
 105 0024 7047     		bx	lr
 106              	.L24:
 107 0026 00BF     		.align	2
 108              	.L23:
 109 0028 74400050 		.word	1342193780
 110 002c 004A0050 		.word	1342196224
 112              		.section	.text.RTC001_Disable,"ax",%progbits
 113              		.align	1
 114              		.global	RTC001_Disable
 115              		.thumb
 116              		.thumb_func
 118              	RTC001_Disable:
 119              		@ args = 0, pretend = 0, frame = 0
 120              		@ frame_needed = 0, uses_anonymous_args = 0
 121              		@ link register save eliminated.
 122 0000 194B     		ldr	r3, .L39
 123 0002 5A68     		ldr	r2, [r3, #4]
 124 0004 22F00100 		bic	r0, r2, #1
 125 0008 5860     		str	r0, [r3, #4]
 126              	.L26:
 127 000a 1849     		ldr	r1, .L39+4
 128 000c 4B68     		ldr	r3, [r1, #4]
 129 000e D801     		lsls	r0, r3, #7
 130 0010 FBD5     		bpl	.L26
 131 0012 4FF08072 		mov	r2, #16777216
 132 0016 CA60     		str	r2, [r1, #12]
 133              	.L27:
 134 0018 1549     		ldr	r1, .L39+8
 135 001a D1F8C400 		ldr	r0, [r1, #196]
 136 001e 10F40063 		ands	r3, r0, #2048
 137 0022 0846     		mov	r0, r1
 138 0024 F8D1     		bne	.L27
 139 0026 C1F8203A 		str	r3, [r1, #2592]
 140 002a 01F52062 		add	r2, r1, #2560
 141              	.L28:
 142 002e D0F8C410 		ldr	r1, [r0, #196]
 143 0032 11F48053 		ands	r3, r1, #4096
 144 0036 FAD1     		bne	.L28
 145 0038 5362     		str	r3, [r2, #36]
 146              	.L29:
 147 003a 0D48     		ldr	r0, .L39+8
 148 003c D0F8C420 		ldr	r2, [r0, #196]
 149 0040 12F40072 		ands	r2, r2, #512
 150 0044 0146     		mov	r1, r0
 151 0046 F8D1     		bne	.L29
 152 0048 00F52063 		add	r3, r0, #2560
 153 004c 9A61     		str	r2, [r3, #24]
 154              	.L30:
 155 004e D1F8C400 		ldr	r0, [r1, #196]
 156 0052 10F48060 		ands	r0, r0, #1024
 157 0056 FAD1     		bne	.L30
 158 0058 0449     		ldr	r1, .L39+4
 159 005a D861     		str	r0, [r3, #28]
 160 005c CA68     		ldr	r2, [r1, #12]
 161 005e 42F0F853 		orr	r3, r2, #520093696
 162 0062 CB60     		str	r3, [r1, #12]
 163 0064 7047     		bx	lr
 164              	.L40:
 165 0066 00BF     		.align	2
 166              	.L39:
 167 0068 004A0050 		.word	1342196224
 168 006c 74400050 		.word	1342193780
 169 0070 00400050 		.word	1342193664
 171              		.section	.text.RTC001_GetFlagStatus,"ax",%progbits
 172              		.align	1
 173              		.global	RTC001_GetFlagStatus
 174              		.thumb
 175              		.thumb_func
 177              	RTC001_GetFlagStatus:
 178              		@ args = 0, pretend = 0, frame = 0
 179              		@ frame_needed = 0, uses_anonymous_args = 0
 180              		@ link register save eliminated.
 181 0000 034B     		ldr	r3, .L44
 182 0002 D968     		ldr	r1, [r3, #12]
 183 0004 0842     		tst	r0, r1
 184 0006 14BF     		ite	ne
 185 0008 0320     		movne	r0, #3
 186 000a 0420     		moveq	r0, #4
 187 000c 7047     		bx	lr
 188              	.L45:
 189 000e 00BF     		.align	2
 190              	.L44:
 191 0010 004A0050 		.word	1342196224
 193              		.section	.text.RTC001_ClearFlagStatus,"ax",%progbits
 194              		.align	1
 195              		.global	RTC001_ClearFlagStatus
 196              		.thumb
 197              		.thumb_func
 199              	RTC001_ClearFlagStatus:
 200              		@ args = 0, pretend = 0, frame = 0
 201              		@ frame_needed = 0, uses_anonymous_args = 0
 202              		@ link register save eliminated.
 203 0000 024B     		ldr	r3, .L47
 204 0002 5A69     		ldr	r2, [r3, #20]
 205 0004 1043     		orrs	r0, r0, r2
 206 0006 5861     		str	r0, [r3, #20]
 207 0008 7047     		bx	lr
 208              	.L48:
 209 000a 00BF     		.align	2
 210              	.L47:
 211 000c 004A0050 		.word	1342196224
 213              		.section	.text.RTC001_ConfigAlarm,"ax",%progbits
 214              		.align	1
 215              		.global	RTC001_ConfigAlarm
 216              		.thumb
 217              		.thumb_func
 219              	RTC001_ConfigAlarm:
 220              		@ args = 0, pretend = 0, frame = 0
 221              		@ frame_needed = 0, uses_anonymous_args = 0
 222 0000 70B5     		push	{r4, r5, r6, lr}
 223 0002 0C46     		mov	r4, r1
 224 0004 1E49     		ldr	r1, .L61
 225 0006 4FF0F850 		mov	r0, #520093696
 226 000a C860     		str	r0, [r1, #12]
 227 000c 1146     		mov	r1, r2
 228 000e 1AB1     		cbz	r2, .L50
 229 0010 0220     		movs	r0, #2
 230 0012 1A46     		mov	r2, r3
 231 0014 FFF7FEFF 		bl	NVIC_SCU001_RegisterCallback
 232              	.L50:
 233 0018 E588     		ldrh	r5, [r4, #6]
 234 001a E678     		ldrb	r6, [r4, #3]	@ zero_extendqisi2
 235 001c 6079     		ldrb	r0, [r4, #5]	@ zero_extendqisi2
 236 001e 3146     		mov	r1, r6
 237 0020 2A46     		mov	r2, r5
 238 0022 FFF7FEFF 		bl	RTC001_ldatevalid
 239 0026 48B3     		cbz	r0, .L54
 240              	.L57:
 241 0028 164B     		ldr	r3, .L61+4
 242 002a D3F8C420 		ldr	r2, [r3, #196]
 243 002e 9305     		lsls	r3, r2, #22
 244 0030 FAD4     		bmi	.L57
 245 0032 6078     		ldrb	r0, [r4, #1]	@ zero_extendqisi2
 246 0034 A378     		ldrb	r3, [r4, #2]	@ zero_extendqisi2
 247 0036 0102     		lsls	r1, r0, #8
 248 0038 1804     		lsls	r0, r3, #16
 249 003a 2378     		ldrb	r3, [r4, #0]	@ zero_extendqisi2
 250 003c 01F47C52 		and	r2, r1, #16128
 251 0040 013E     		subs	r6, r6, #1
 252 0042 00F4F811 		and	r1, r0, #2031616
 253 0046 0A43     		orrs	r2, r2, r1
 254 0048 03F03F00 		and	r0, r3, #63
 255 004c 3106     		lsls	r1, r6, #24
 256 004e 0243     		orrs	r2, r2, r0
 257 0050 01F0F853 		and	r3, r1, #520093696
 258 0054 42EA0306 		orr	r6, r2, r3
 259 0058 0B4A     		ldr	r2, .L61+8
 260 005a 9661     		str	r6, [r2, #24]
 261              	.L53:
 262 005c 0948     		ldr	r0, .L61+4
 263 005e D0F8C410 		ldr	r1, [r0, #196]
 264 0062 11F48060 		ands	r0, r1, #1024
 265 0066 F9D1     		bne	.L53
 266 0068 6379     		ldrb	r3, [r4, #5]	@ zero_extendqisi2
 267 006a 5A1E     		subs	r2, r3, #1
 268 006c 1102     		lsls	r1, r2, #8
 269 006e 01F47063 		and	r3, r1, #3840
 270 0072 054A     		ldr	r2, .L61+8
 271 0074 43EA0545 		orr	r5, r3, r5, lsl #16
 272 0078 D561     		str	r5, [r2, #28]
 273 007a 70BD     		pop	{r4, r5, r6, pc}
 274              	.L54:
 275 007c 0120     		movs	r0, #1
 276 007e 70BD     		pop	{r4, r5, r6, pc}
 277              	.L62:
 278              		.align	2
 279              	.L61:
 280 0080 74400050 		.word	1342193780
 281 0084 00400050 		.word	1342193664
 282 0088 004A0050 		.word	1342196224
 284              		.section	.text.RTC001_Clock_GetTime,"ax",%progbits
 285              		.align	1
 286              		.global	RTC001_Clock_GetTime
 287              		.thumb
 288              		.thumb_func
 290              	RTC001_Clock_GetTime:
 291              		@ args = 0, pretend = 0, frame = 0
 292              		@ frame_needed = 0, uses_anonymous_args = 0
 293              		@ link register save eliminated.
 294 0000 0D4A     		ldr	r2, .L64
 295 0002 136A     		ldr	r3, [r2, #32]
 296 0004 526A     		ldr	r2, [r2, #36]
 297 0006 02F00701 		and	r1, r2, #7
 298 000a 0171     		strb	r1, [r0, #4]
 299 000c C2F30321 		ubfx	r1, r2, #8, #4
 300 0010 0131     		adds	r1, r1, #1
 301 0012 4171     		strb	r1, [r0, #5]
 302 0014 120C     		lsrs	r2, r2, #16
 303 0016 03F03F01 		and	r1, r3, #63
 304 001a C280     		strh	r2, [r0, #6]	@ movhi
 305 001c 0170     		strb	r1, [r0, #0]
 306 001e C3F30522 		ubfx	r2, r3, #8, #6
 307 0022 C3F30441 		ubfx	r1, r3, #16, #5
 308 0026 C3F30463 		ubfx	r3, r3, #24, #5
 309 002a 4270     		strb	r2, [r0, #1]
 310 002c 5A1C     		adds	r2, r3, #1
 311 002e 8170     		strb	r1, [r0, #2]
 312 0030 C270     		strb	r2, [r0, #3]
 313 0032 0020     		movs	r0, #0
 314 0034 7047     		bx	lr
 315              	.L65:
 316 0036 00BF     		.align	2
 317              	.L64:
 318 0038 004A0050 		.word	1342196224
 320              		.section	.text.RTC001_Clock_SetTime,"ax",%progbits
 321              		.align	1
 322              		.global	RTC001_Clock_SetTime
 323              		.thumb
 324              		.thumb_func
 326              	RTC001_Clock_SetTime:
 327              		@ args = 0, pretend = 0, frame = 16
 328              		@ frame_needed = 0, uses_anonymous_args = 0
 329 0000 F0B5     		push	{r4, r5, r6, r7, lr}
 330 0002 394B     		ldr	r3, .L80
 331 0004 C588     		ldrh	r5, [r0, #6]
 332 0006 4FF0F852 		mov	r2, #520093696
 333 000a DA60     		str	r2, [r3, #12]
 334 000c C678     		ldrb	r6, [r0, #3]	@ zero_extendqisi2
 335 000e 4779     		ldrb	r7, [r0, #5]	@ zero_extendqisi2
 336 0010 85B0     		sub	sp, sp, #20
 337 0012 0446     		mov	r4, r0
 338 0014 3146     		mov	r1, r6
 339 0016 3846     		mov	r0, r7
 340 0018 2A46     		mov	r2, r5
 341 001a FFF7FEFF 		bl	RTC001_ldatevalid
 342 001e 0028     		cmp	r0, #0
 343 0020 5FD0     		beq	.L73
 344 0022 324A     		ldr	r2, .L80+4
 345 0024 5168     		ldr	r1, [r2, #4]	@ unaligned
 346 0026 1068     		ldr	r0, [r2, #0]	@ unaligned
 347 0028 6B46     		mov	r3, sp
 348 002a 03C3     		stmia	r3!, {r0, r1}
 349 002c 52F8080F 		ldr	r0, [r2, #8]!	@ unaligned
 350 0030 1179     		ldrb	r1, [r2, #4]	@ zero_extendqisi2
 351 0032 1860     		str	r0, [r3, #0]	@ unaligned
 352 0034 04AA     		add	r2, sp, #16
 353 0036 1971     		strb	r1, [r3, #4]
 354 0038 D319     		adds	r3, r2, r7
 355 003a 40F26C72 		movw	r2, #1900
 356 003e 9542     		cmp	r5, r2
 357 0040 86BF     		itte	hi
 358 0042 A5F26C72 		subwhi	r2, r5, #1900
 359 0046 92B2     		uxthhi	r2, r2
 360 0048 2A46     		movls	r2, r5
 361 004a 153A     		subs	r2, r2, #21
 362 004c 13F8100C 		ldrb	r0, [r3, #-16]	@ zero_extendqisi2
 363 0050 1C23     		movs	r3, #28
 364 0052 B2FBF3F1 		udiv	r1, r2, r3
 365 0056 022F     		cmp	r7, #2
 366 0058 94BF     		ite	ls
 367 005a 0746     		movls	r7, r0
 368 005c 471C     		addhi	r7, r0, #1
 369 005e 03FB1120 		mls	r0, r3, r1, r2
 370 0062 3A18     		adds	r2, r7, r0
 371 0064 97B2     		uxth	r7, r2
 372 0066 0723     		movs	r3, #7
 373 0068 07EB9707 		add	r7, r7, r7, lsr #2
 374 006c B7FBF3F1 		udiv	r1, r7, r3
 375 0070 03FB1170 		mls	r0, r3, r1, r7
 376 0074 3218     		adds	r2, r6, r0
 377 0076 90B2     		uxth	r0, r2
 378 0078 B0FBF3F1 		udiv	r1, r0, r3
 379 007c 03FB1103 		mls	r3, r3, r1, r0
 380 0080 9AB2     		uxth	r2, r3
 381 0082 062A     		cmp	r2, #6
 382 0084 01D0     		beq	.L75
 383 0086 531C     		adds	r3, r2, #1
 384 0088 00E0     		b	.L76
 385              	.L75:
 386 008a 0023     		movs	r3, #0
 387              	.L76:
 388 008c 1848     		ldr	r0, .L80+8
 389 008e D0F8C410 		ldr	r1, [r0, #196]
 390 0092 0A05     		lsls	r2, r1, #20
 391 0094 FAD4     		bmi	.L76
 392 0096 6278     		ldrb	r2, [r4, #1]	@ zero_extendqisi2
 393 0098 1002     		lsls	r0, r2, #8
 394 009a A278     		ldrb	r2, [r4, #2]	@ zero_extendqisi2
 395 009c 00F47C51 		and	r1, r0, #16128
 396 00a0 1004     		lsls	r0, r2, #16
 397 00a2 00F4F812 		and	r2, r0, #2031616
 398 00a6 2078     		ldrb	r0, [r4, #0]	@ zero_extendqisi2
 399 00a8 013E     		subs	r6, r6, #1
 400 00aa 1143     		orrs	r1, r1, r2
 401 00ac 00F03F02 		and	r2, r0, #63
 402 00b0 3006     		lsls	r0, r6, #24
 403 00b2 1143     		orrs	r1, r1, r2
 404 00b4 00F0F852 		and	r2, r0, #520093696
 405 00b8 41EA0206 		orr	r6, r1, r2
 406 00bc 0D49     		ldr	r1, .L80+12
 407 00be 0E62     		str	r6, [r1, #32]
 408              	.L72:
 409 00c0 0B48     		ldr	r0, .L80+8
 410 00c2 D0F8C420 		ldr	r2, [r0, #196]
 411 00c6 12F48050 		ands	r0, r2, #4096
 412 00ca F9D1     		bne	.L72
 413 00cc 6179     		ldrb	r1, [r4, #5]	@ zero_extendqisi2
 414 00ce 4A1E     		subs	r2, r1, #1
 415 00d0 1102     		lsls	r1, r2, #8
 416 00d2 01F47062 		and	r2, r1, #3840
 417 00d6 42EA0545 		orr	r5, r2, r5, lsl #16
 418 00da 0649     		ldr	r1, .L80+12
 419 00dc 2B43     		orrs	r3, r3, r5
 420 00de 4B62     		str	r3, [r1, #36]
 421 00e0 00E0     		b	.L67
 422              	.L73:
 423 00e2 0120     		movs	r0, #1
 424              	.L67:
 425 00e4 05B0     		add	sp, sp, #20
 426 00e6 F0BD     		pop	{r4, r5, r6, r7, pc}
 427              	.L81:
 428              		.align	2
 429              	.L80:
 430 00e8 74400050 		.word	1342193780
 431 00ec 34000000 		.word	.LANCHOR0+52
 432 00f0 00400050 		.word	1342193664
 433 00f4 004A0050 		.word	1342196224
 435              		.section	.text.RTC001_Init,"ax",%progbits
 436              		.align	1
 437              		.global	RTC001_Init
 438              		.thumb
 439              		.thumb_func
 441              	RTC001_Init:
 442              		@ args = 0, pretend = 0, frame = 0
 443              		@ frame_needed = 0, uses_anonymous_args = 0
 444 0000 1A4B     		ldr	r3, .L101
 445 0002 10B5     		push	{r4, lr}
 446 0004 4FF0F852 		mov	r2, #520093696
 447 0008 194C     		ldr	r4, .L101+4
 448 000a DA60     		str	r2, [r3, #12]
 449 000c 6068     		ldr	r0, [r4, #4]
 450 000e C307     		lsls	r3, r0, #31
 451 0010 03D5     		bpl	.L83
 452 0012 1849     		ldr	r1, .L101+8
 453 0014 0A78     		ldrb	r2, [r1, #0]	@ zero_extendqisi2
 454 0016 012A     		cmp	r2, #1
 455 0018 04D0     		beq	.L84
 456              	.L83:
 457 001a FFF7FEFF 		bl	RTC001_Disable
 458 001e 1648     		ldr	r0, .L101+12
 459 0020 FFF7FEFF 		bl	RTC001_Clock_SetTime
 460              	.L84:
 461 0024 6368     		ldr	r3, [r4, #4]
 462 0026 43F00100 		orr	r0, r3, #1
 463 002a 6060     		str	r0, [r4, #4]
 464              	.L85:
 465 002c 0F49     		ldr	r1, .L101
 466 002e 4A68     		ldr	r2, [r1, #4]
 467 0030 D001     		lsls	r0, r2, #7
 468 0032 FBD5     		bpl	.L85
 469 0034 4FF08073 		mov	r3, #16777216
 470 0038 CB60     		str	r3, [r1, #12]
 471 003a 8868     		ldr	r0, [r1, #8]
 472 003c 0C4B     		ldr	r3, .L101+4
 473 003e 40F00402 		orr	r2, r0, #4
 474 0042 8A60     		str	r2, [r1, #8]
 475 0044 5968     		ldr	r1, [r3, #4]
 476 0046 0B4A     		ldr	r2, .L101+8
 477 0048 88B2     		uxth	r0, r1
 478 004a 5188     		ldrh	r1, [r2, #2]
 479 004c 40EA0140 		orr	r0, r0, r1, lsl #16
 480 0050 5860     		str	r0, [r3, #4]
 481              	.L86:
 482 0052 064B     		ldr	r3, .L101
 483 0054 5A68     		ldr	r2, [r3, #4]
 484 0056 D101     		lsls	r1, r2, #7
 485 0058 FBD5     		bpl	.L86
 486 005a D968     		ldr	r1, [r3, #12]
 487 005c 41F08070 		orr	r0, r1, #16777216
 488 0060 D860     		str	r0, [r3, #12]
 489 0062 9A68     		ldr	r2, [r3, #8]
 490 0064 42F00201 		orr	r1, r2, #2
 491 0068 9960     		str	r1, [r3, #8]
 492 006a 10BD     		pop	{r4, pc}
 493              	.L102:
 494              		.align	2
 495              	.L101:
 496 006c 74400050 		.word	1342193780
 497 0070 004A0050 		.word	1342196224
 498 0074 00000000 		.word	RTC001_Handle
 499 0078 00000000 		.word	timeptr1
 501              		.section	.text.RTC001_Time,"ax",%progbits
 502              		.align	1
 503              		.global	RTC001_Time
 504              		.thumb
 505              		.thumb_func
 507              	RTC001_Time:
 508              		@ args = 0, pretend = 0, frame = 0
 509              		@ frame_needed = 0, uses_anonymous_args = 0
 510 0000 304A     		ldr	r2, .L130
 511 0002 5368     		ldr	r3, [r2, #4]
 512 0004 DB07     		lsls	r3, r3, #31
 513 0006 2DE9F043 		push	{r4, r5, r6, r7, r8, r9, lr}
 514 000a 58D5     		bpl	.L114
 515 000c 0028     		cmp	r0, #0
 516 000e 56D0     		beq	.L114
 517 0010 516A     		ldr	r1, [r2, #36]
 518 0012 546A     		ldr	r4, [r2, #36]
 519 0014 156A     		ldr	r5, [r2, #32]
 520 0016 176A     		ldr	r7, [r2, #32]
 521 0018 166A     		ldr	r6, [r2, #32]
 522 001a 126A     		ldr	r2, [r2, #32]
 523 001c 090C     		lsrs	r1, r1, #16
 524 001e 40F26D13 		movw	r3, #365
 525 0022 4B43     		muls	r3, r1, r3
 526 0024 C5F30468 		ubfx	r8, r5, #24, #5
 527 0028 A3F52F25 		sub	r5, r3, #716800
 528 002c C6F3052C 		ubfx	ip, r6, #8, #6
 529 0030 C4F30324 		ubfx	r4, r4, #8, #4
 530 0034 02F03F06 		and	r6, r2, #63
 531 0038 C7F30447 		ubfx	r7, r7, #16, #5
 532 003c A5F6CA03 		subw	r3, r5, #2250
 533 0040 4A1E     		subs	r2, r1, #1
 534              	.L105:
 535 0042 40F2B175 		movw	r5, #1969
 536 0046 AA42     		cmp	r2, r5
 537 0048 4FF4C875 		mov	r5, #400
 538 004c 0FD9     		bls	.L128
 539              	.L108:
 540 004e B2FBF5F9 		udiv	r9, r2, r5
 541 0052 05FB1925 		mls	r5, r5, r9, r2
 542 0056 3DB1     		cbz	r5, .L106
 543 0058 6425     		movs	r5, #100
 544 005a B2FBF5F9 		udiv	r9, r2, r5
 545 005e 05FB1925 		mls	r5, r5, r9, r2
 546 0062 15B1     		cbz	r5, .L107
 547 0064 9507     		lsls	r5, r2, #30
 548 0066 00D1     		bne	.L107
 549              	.L106:
 550 0068 0133     		adds	r3, r3, #1
 551              	.L107:
 552 006a 013A     		subs	r2, r2, #1
 553 006c E9E7     		b	.L105
 554              	.L128:
 555 006e B1FBF5F2 		udiv	r2, r1, r5
 556 0072 05FB1215 		mls	r5, r5, r2, r1
 557 0076 3DB1     		cbz	r5, .L109
 558 0078 6422     		movs	r2, #100
 559 007a B1FBF2F5 		udiv	r5, r1, r2
 560 007e 02FB1512 		mls	r2, r2, r5, r1
 561 0082 2AB1     		cbz	r2, .L123
 562 0084 8A07     		lsls	r2, r1, #30
 563 0086 03D1     		bne	.L123
 564              	.L109:
 565 0088 611C     		adds	r1, r4, #1
 566 008a 0229     		cmp	r1, #2
 567 008c 00D9     		bls	.L123
 568 008e 0133     		adds	r3, r3, #1
 569              	.L123:
 570 0090 2CB1     		cbz	r4, .L129
 571              	.L112:
 572 0092 0D4A     		ldr	r2, .L130+4
 573 0094 52F82410 		ldr	r1, [r2, r4, lsl #2]
 574 0098 013C     		subs	r4, r4, #1
 575 009a 5B18     		adds	r3, r3, r1
 576 009c F8E7     		b	.L123
 577              	.L129:
 578 009e 3C22     		movs	r2, #60
 579 00a0 02FB0CF1 		mul	r1, r2, ip
 580 00a4 4FF46162 		mov	r2, #3600
 581 00a8 02FB0711 		mla	r1, r2, r7, r1
 582 00ac 8A19     		adds	r2, r1, r6
 583 00ae 0749     		ldr	r1, .L130+8
 584 00b0 4344     		add	r3, r3, r8
 585 00b2 01FB0323 		mla	r3, r1, r3, r2
 586 00b6 0360     		str	r3, [r0, #0]
 587 00b8 2046     		mov	r0, r4
 588 00ba BDE8F083 		pop	{r4, r5, r6, r7, r8, r9, pc}
 589              	.L114:
 590 00be 0220     		movs	r0, #2
 591 00c0 BDE8F083 		pop	{r4, r5, r6, r7, r8, r9, pc}
 592              	.L131:
 593              		.align	2
 594              	.L130:
 595 00c4 004A0050 		.word	1342196224
 596 00c8 00000000 		.word	.LANCHOR0
 597 00cc 80510100 		.word	86400
 599              		.global	RTC001_DAYS_IN_MONTH
 600              		.section	.rodata
 601              		.align	2
 602              		.set	.LANCHOR0,. + 0
 605              	RTC001_DAYS_IN_MONTH:
 606 0000 00000000 		.word	0
 607 0004 1F000000 		.word	31
 608 0008 1C000000 		.word	28
 609 000c 1F000000 		.word	31
 610 0010 1E000000 		.word	30
 611 0014 1F000000 		.word	31
 612 0018 1E000000 		.word	30
 613 001c 1F000000 		.word	31
 614 0020 1F000000 		.word	31
 615 0024 1E000000 		.word	30
 616 0028 1F000000 		.word	31
 617 002c 1E000000 		.word	30
 618 0030 1F000000 		.word	31
 619              	.LC0:
 620 0034 00       		.byte	0
 621 0035 14       		.byte	20
 622 0036 00       		.byte	0
 623 0037 10       		.byte	16
 624 0038 18       		.byte	24
 625 0039 14       		.byte	20
 626 003a 00       		.byte	0
 627 003b 18       		.byte	24
 628 003c 04       		.byte	4
 629 003d 0C       		.byte	12
 630 003e 08       		.byte	8
 631 003f 10       		.byte	16
 632 0040 0C       		.byte	12
 633 0041 000000   		.ident	"GCC: (GNU Tools for ARM Embedded Processors) 4.7.4 20130913 (release) [ARM/embedded-4_7-br