   1              		.syntax unified
   2              		.cpu cortex-m4
   3              		.eabi_attribute 27, 3
   4              		.fpu fpv4-sp-d16
   5              		.eabi_attribute 20, 1
   6              		.eabi_attribute 21, 1
   7              		.eabi_attribute 23, 3
   8              		.eabi_attribute 24, 1
   9              		.eabi_attribute 25, 1
  10              		.eabi_attribute 26, 1
  11              		.eabi_attribute 30, 6
  12              		.eabi_attribute 34, 1
  13              		.eabi_attribute 18, 4
  14              		.thumb
  15              		.file	"IO001.c"
  16              		.text
  17              	.Ltext0:
  18              		.cfi_sections	.debug_frame
  19              		.section	.text.IO001_Init,"ax",%progbits
  20              		.align	2
  21              		.global	IO001_Init
  22              		.thumb
  23              		.thumb_func
  25              	IO001_Init:
  26              	.LFB117:
  27              		.file 1 "../Dave/Generated/src/IO001/IO001.c"
   1:../Dave/Generated/src/IO001/IO001.c **** /*******************************************************************************
   2:../Dave/Generated/src/IO001/IO001.c **** **  DAVE App Name : IO001       App Version: 1.0.16               
   3:../Dave/Generated/src/IO001/IO001.c **** **  This file is generated by DAVE, User modification to this file will be    **
   4:../Dave/Generated/src/IO001/IO001.c **** **  overwritten at the next code generation.                                  **
   5:../Dave/Generated/src/IO001/IO001.c **** *******************************************************************************/
   6:../Dave/Generated/src/IO001/IO001.c **** 
   7:../Dave/Generated/src/IO001/IO001.c **** /*CODE_BLOCK_BEGIN[IO001.c]*/
   8:../Dave/Generated/src/IO001/IO001.c **** /*******************************************************************************
   9:../Dave/Generated/src/IO001/IO001.c ****  Copyright (c) 2012, Infineon Technologies AG                                 **
  10:../Dave/Generated/src/IO001/IO001.c ****  All rights reserved.                                                         **
  11:../Dave/Generated/src/IO001/IO001.c ****                                                                               **
  12:../Dave/Generated/src/IO001/IO001.c ****  Redistribution and use in source and binary forms, with or without           **
  13:../Dave/Generated/src/IO001/IO001.c ****  modification,are permitted provided that the following conditions are met:   **
  14:../Dave/Generated/src/IO001/IO001.c ****                                                                               **
  15:../Dave/Generated/src/IO001/IO001.c ****  *Redistributions of source code must retain the above copyright notice,      **
  16:../Dave/Generated/src/IO001/IO001.c ****  this list of conditions and the following disclaimer.                        **
  17:../Dave/Generated/src/IO001/IO001.c ****  *Redistributions in binary form must reproduce the above copyright notice,   **
  18:../Dave/Generated/src/IO001/IO001.c ****  this list of conditions and the following disclaimer in the documentation    **
  19:../Dave/Generated/src/IO001/IO001.c ****  and/or other materials provided with the distribution.                       **
  20:../Dave/Generated/src/IO001/IO001.c ****  *Neither the name of the copyright holders nor the names of its contributors **
  21:../Dave/Generated/src/IO001/IO001.c ****  may be used to endorse or promote products derived from this software without**
  22:../Dave/Generated/src/IO001/IO001.c ****  specific prior written permission.                                           **
  23:../Dave/Generated/src/IO001/IO001.c ****                                                                               **
  24:../Dave/Generated/src/IO001/IO001.c ****  THIS SOFTWARE IS PROVIDED BY THE COPYRIGHT HOLDERS AND CONTRIBUTORS "AS IS"  **
  25:../Dave/Generated/src/IO001/IO001.c ****  AND ANY EXPRESS OR IMPLIED WARRANTIES, INCLUDING, BUT NOT LIMITED TO, THE    **
  26:../Dave/Generated/src/IO001/IO001.c ****  IMPLIED WARRANTIES OF MERCHANTABILITY AND FITNESS FOR A PARTICULAR PURPOSE   **
  27:../Dave/Generated/src/IO001/IO001.c ****  ARE  DISCLAIMED. IN NO EVENT SHALL THE COPYRIGHT HOLDER OR CONTRIBUTORS BE   **
  28:../Dave/Generated/src/IO001/IO001.c ****  LIABLE  FOR ANY DIRECT, INDIRECT, INCIDENTAL, SPECIAL, EXEMPLARY, OR         **
  29:../Dave/Generated/src/IO001/IO001.c ****  CONSEQUENTIAL DAMAGES (INCLUDING, BUT NOT LIMITED TO, PROCUREMENT OF         **
  30:../Dave/Generated/src/IO001/IO001.c ****  SUBSTITUTE GOODS OR  SERVICES; LOSS OF USE, DATA, OR PROFITS; OR BUSINESS    **
  31:../Dave/Generated/src/IO001/IO001.c ****  INTERRUPTION) HOWEVER CAUSED AND ON ANY THEORY OF LIABILITY, WHETHER IN      **
  32:../Dave/Generated/src/IO001/IO001.c ****  CONTRACT, STRICT LIABILITY,OR TORT (INCLUDING NEGLIGENCE OR OTHERWISE)       **
  33:../Dave/Generated/src/IO001/IO001.c ****  ARISING IN ANY WAY OUT OF THE USE OF THIS SOFTWARE, EVEN IF ADVISED OF THE   **
  34:../Dave/Generated/src/IO001/IO001.c ****  POSSIBILITY OF SUCH DAMAGE.                                                  **
  35:../Dave/Generated/src/IO001/IO001.c ****                                                                               **
  36:../Dave/Generated/src/IO001/IO001.c ****  To improve the quality of the software, users are encouraged to share        **
  37:../Dave/Generated/src/IO001/IO001.c ****  modifications, enhancements or bug fixes with Infineon Technologies AG       **
  38:../Dave/Generated/src/IO001/IO001.c ****  dave@infineon.com).                                                          **
  39:../Dave/Generated/src/IO001/IO001.c ****                                                                               **
  40:../Dave/Generated/src/IO001/IO001.c **** ********************************************************************************
  41:../Dave/Generated/src/IO001/IO001.c **** **                                                                            **
  42:../Dave/Generated/src/IO001/IO001.c **** **                                                                            **
  43:../Dave/Generated/src/IO001/IO001.c **** ** PLATFORM : Infineon XMC4000/XMC1000 Series                                 **
  44:../Dave/Generated/src/IO001/IO001.c **** **                                                                            **
  45:../Dave/Generated/src/IO001/IO001.c **** ** COMPILER : Compiler Independent                                            **
  46:../Dave/Generated/src/IO001/IO001.c **** **                                                                            **
  47:../Dave/Generated/src/IO001/IO001.c **** ** AUTHOR   : App Developer                                                   **
  48:../Dave/Generated/src/IO001/IO001.c **** **                                                                            **
  49:../Dave/Generated/src/IO001/IO001.c **** ** MAY BE CHANGED BY USER [yes/no]: Yes                                       **
  50:../Dave/Generated/src/IO001/IO001.c **** **                                                                            **
  51:../Dave/Generated/src/IO001/IO001.c **** ** MODIFICATION DATE : Feb 07, 2013                                           **
  52:../Dave/Generated/src/IO001/IO001.c **** **                                                                            **
  53:../Dave/Generated/src/IO001/IO001.c **** *******************************************************************************/
  54:../Dave/Generated/src/IO001/IO001.c **** /*******************************************************************************
  55:../Dave/Generated/src/IO001/IO001.c **** **                      Author(s) Identity                                    **
  56:../Dave/Generated/src/IO001/IO001.c **** ********************************************************************************
  57:../Dave/Generated/src/IO001/IO001.c **** **                                                                            **
  58:../Dave/Generated/src/IO001/IO001.c **** ** Initials     Name                                                          **
  59:../Dave/Generated/src/IO001/IO001.c **** ** ---------------------------------------------------------------------------**
  60:../Dave/Generated/src/IO001/IO001.c **** ** PAE        App Developer                                                   **
  61:../Dave/Generated/src/IO001/IO001.c **** *******************************************************************************/
  62:../Dave/Generated/src/IO001/IO001.c **** /**
  63:../Dave/Generated/src/IO001/IO001.c ****  * @file   IO001.c
  64:../Dave/Generated/src/IO001/IO001.c ****  *
  65:../Dave/Generated/src/IO001/IO001.c ****  * @brief  IO_Analog_IO001 App
  66:../Dave/Generated/src/IO001/IO001.c ****  */
  67:../Dave/Generated/src/IO001/IO001.c **** /* Revision History - 
  68:../Dave/Generated/src/IO001/IO001.c ****  * 7 Feb 2013 v1.0.6  Replaced "/pin/iocr_pcr" resource with 
  69:../Dave/Generated/src/IO001/IO001.c ****  *                    "/IO001_inputchardummy" resource to get the IOCR_PCR value.
  70:../Dave/Generated/src/IO001/IO001.c ****  *
  71:../Dave/Generated/src/IO001/IO001.c ****  */
  72:../Dave/Generated/src/IO001/IO001.c **** /*******************************************************************************
  73:../Dave/Generated/src/IO001/IO001.c ****  ** INCLUDE FILES                                                             **
  74:../Dave/Generated/src/IO001/IO001.c ****  ******************************************************************************/
  75:../Dave/Generated/src/IO001/IO001.c **** 
  76:../Dave/Generated/src/IO001/IO001.c **** /** Inclusion of header file */
  77:../Dave/Generated/src/IO001/IO001.c **** #include <DAVE3.h>
  78:../Dave/Generated/src/IO001/IO001.c **** 
  79:../Dave/Generated/src/IO001/IO001.c **** /*******************************************************************************
  80:../Dave/Generated/src/IO001/IO001.c **** **                      Private Macro Definitions                             **
  81:../Dave/Generated/src/IO001/IO001.c **** *******************************************************************************/
  82:../Dave/Generated/src/IO001/IO001.c **** 
  83:../Dave/Generated/src/IO001/IO001.c **** /*******************************************************************************
  84:../Dave/Generated/src/IO001/IO001.c **** **                      Private Type Definitions                              **
  85:../Dave/Generated/src/IO001/IO001.c **** *******************************************************************************/
  86:../Dave/Generated/src/IO001/IO001.c **** 
  87:../Dave/Generated/src/IO001/IO001.c **** /*******************************************************************************
  88:../Dave/Generated/src/IO001/IO001.c **** **                 Private Function Declarations:
  89:../Dave/Generated/src/IO001/IO001.c **** *******************************************************************************/
  90:../Dave/Generated/src/IO001/IO001.c **** 
  91:../Dave/Generated/src/IO001/IO001.c **** /*******************************************************************************
  92:../Dave/Generated/src/IO001/IO001.c **** **                      Global Constant Definitions                           **
  93:../Dave/Generated/src/IO001/IO001.c **** *******************************************************************************/
  94:../Dave/Generated/src/IO001/IO001.c **** 
  95:../Dave/Generated/src/IO001/IO001.c **** /*******************************************************************************
  96:../Dave/Generated/src/IO001/IO001.c **** **                      Global Variable Definitions                           **
  97:../Dave/Generated/src/IO001/IO001.c **** *******************************************************************************/
  98:../Dave/Generated/src/IO001/IO001.c **** 
  99:../Dave/Generated/src/IO001/IO001.c **** /*******************************************************************************
 100:../Dave/Generated/src/IO001/IO001.c **** **                      Private Constant Definitions                          **
 101:../Dave/Generated/src/IO001/IO001.c **** *******************************************************************************/
 102:../Dave/Generated/src/IO001/IO001.c **** 
 103:../Dave/Generated/src/IO001/IO001.c **** /*******************************************************************************
 104:../Dave/Generated/src/IO001/IO001.c **** **                 Function like macro definitions                            **
 105:../Dave/Generated/src/IO001/IO001.c **** *******************************************************************************/
 106:../Dave/Generated/src/IO001/IO001.c **** /*******************************************************************************
 107:../Dave/Generated/src/IO001/IO001.c **** **                      Private Function Definitions                          **
 108:../Dave/Generated/src/IO001/IO001.c **** *******************************************************************************/
 109:../Dave/Generated/src/IO001/IO001.c **** 
 110:../Dave/Generated/src/IO001/IO001.c **** /*******************************************************************************
 111:../Dave/Generated/src/IO001/IO001.c **** **                      Public Function Definitions                           **
 112:../Dave/Generated/src/IO001/IO001.c **** *******************************************************************************/
 113:../Dave/Generated/src/IO001/IO001.c **** 
 114:../Dave/Generated/src/IO001/IO001.c **** 
 115:../Dave/Generated/src/IO001/IO001.c **** /** @ingroup IO001_Func
 116:../Dave/Generated/src/IO001/IO001.c ****  * @{
 117:../Dave/Generated/src/IO001/IO001.c ****  */
 118:../Dave/Generated/src/IO001/IO001.c **** 
 119:../Dave/Generated/src/IO001/IO001.c **** void IO001_Init(void)
 120:../Dave/Generated/src/IO001/IO001.c **** {
  28              		.loc 1 120 0
  29              		.cfi_startproc
  30              		@ args = 0, pretend = 0, frame = 0
  31              		@ frame_needed = 1, uses_anonymous_args = 0
  32              		@ link register save eliminated.
  33 0000 80B4     		push	{r7}
  34              	.LCFI0:
  35              		.cfi_def_cfa_offset 4
  36              		.cfi_offset 7, -4
  37 0002 00AF     		add	r7, sp, #0
  38              	.LCFI1:
  39              		.cfi_def_cfa_register 7
 121:../Dave/Generated/src/IO001/IO001.c ****    /* <<<DD_IO001_API_1>>> */
 122:../Dave/Generated/src/IO001/IO001.c **** 
 123:../Dave/Generated/src/IO001/IO001.c ****   /* Configuration of Port 14 Pin 1 based on User configuration */
 124:../Dave/Generated/src/IO001/IO001.c ****   /*Disable Digital Pad Input*/
 125:../Dave/Generated/src/IO001/IO001.c ****   IO001_Handle0.PortRegs->PDISC  |= (0x1U << 1);
  40              		.loc 1 125 0
  41 0004 40F20003 		movw	r3, #:lower16:IO001_Handle0
  42 0008 C0F20003 		movt	r3, #:upper16:IO001_Handle0
  43 000c 5A68     		ldr	r2, [r3, #4]
  44 000e 40F20003 		movw	r3, #:lower16:IO001_Handle0
  45 0012 C0F20003 		movt	r3, #:upper16:IO001_Handle0
  46 0016 5B68     		ldr	r3, [r3, #4]
  47 0018 1B6E     		ldr	r3, [r3, #96]
  48 001a 43F00203 		orr	r3, r3, #2
  49 001e 1366     		str	r3, [r2, #96]
 126:../Dave/Generated/src/IO001/IO001.c ****   /* Configuration of Port 14 Pin 2 based on User configuration */
 127:../Dave/Generated/src/IO001/IO001.c ****   /*Disable Digital Pad Input*/
 128:../Dave/Generated/src/IO001/IO001.c ****   IO001_Handle1.PortRegs->PDISC  |= (0x1U << 2);
  50              		.loc 1 128 0
  51 0020 40F20003 		movw	r3, #:lower16:IO001_Handle1
  52 0024 C0F20003 		movt	r3, #:upper16:IO001_Handle1
  53 0028 5A68     		ldr	r2, [r3, #4]
  54 002a 40F20003 		movw	r3, #:lower16:IO001_Handle1
  55 002e C0F20003 		movt	r3, #:upper16:IO001_Handle1
  56 0032 5B68     		ldr	r3, [r3, #4]
  57 0034 1B6E     		ldr	r3, [r3, #96]
  58 0036 43F00403 		orr	r3, r3, #4
  59 003a 1366     		str	r3, [r2, #96]
 129:../Dave/Generated/src/IO001/IO001.c **** }
  60              		.loc 1 129 0
  61 003c BD46     		mov	sp, r7
  62 003e 80BC     		pop	{r7}
  63 0040 7047     		bx	lr
  64              		.cfi_endproc
  65              	.LFE117:
  67 0042 00BF     		.section	.text.IO001_EnableDigitalInput,"ax",%progbits
  68              		.align	2
  69              		.global	IO001_EnableDigitalInput
  70              		.thumb
  71              		.thumb_func
  73              	IO001_EnableDigitalInput:
  74              	.LFB118:
 130:../Dave/Generated/src/IO001/IO001.c **** 
 131:../Dave/Generated/src/IO001/IO001.c **** void IO001_EnableDigitalInput(const IO001_HandleType* Handle,IO001_InputModeType Mode)
 132:../Dave/Generated/src/IO001/IO001.c **** {
  75              		.loc 1 132 0
  76              		.cfi_startproc
  77              		@ args = 0, pretend = 0, frame = 16
  78              		@ frame_needed = 1, uses_anonymous_args = 0
  79              		@ link register save eliminated.
  80 0000 80B4     		push	{r7}
  81              	.LCFI2:
  82              		.cfi_def_cfa_offset 4
  83              		.cfi_offset 7, -4
  84 0002 85B0     		sub	sp, sp, #20
  85              	.LCFI3:
  86              		.cfi_def_cfa_offset 24
  87 0004 00AF     		add	r7, sp, #0
  88              	.LCFI4:
  89              		.cfi_def_cfa_register 7
  90 0006 7860     		str	r0, [r7, #4]
  91 0008 0B46     		mov	r3, r1
  92 000a FB70     		strb	r3, [r7, #3]
 133:../Dave/Generated/src/IO001/IO001.c ****   uint8_t Pin = Handle->PortPin;
  93              		.loc 1 133 0
  94 000c 7B68     		ldr	r3, [r7, #4]
  95 000e 5B78     		ldrb	r3, [r3, #1]
  96 0010 FB73     		strb	r3, [r7, #15]
 134:../Dave/Generated/src/IO001/IO001.c ****   /* <<<DD_IO001_API_2>>> */
 135:../Dave/Generated/src/IO001/IO001.c ****      
 136:../Dave/Generated/src/IO001/IO001.c ****   /* Enable Digital Mode */
 137:../Dave/Generated/src/IO001/IO001.c ****   Handle->PortRegs->PDISC  =  (uint32_t)(Handle->PortRegs->PDISC & ~(1UL << (Pin)));
  97              		.loc 1 137 0
  98 0012 7B68     		ldr	r3, [r7, #4]
  99 0014 5B68     		ldr	r3, [r3, #4]
 100 0016 7A68     		ldr	r2, [r7, #4]
 101 0018 5268     		ldr	r2, [r2, #4]
 102 001a 116E     		ldr	r1, [r2, #96]
 103 001c FA7B     		ldrb	r2, [r7, #15]	@ zero_extendqisi2
 104 001e 4FF00100 		mov	r0, #1
 105 0022 00FA02F2 		lsl	r2, r0, r2
 106 0026 6FEA0202 		mvn	r2, r2
 107 002a 0A40     		ands	r2, r2, r1
 108 002c 1A66     		str	r2, [r3, #96]
 138:../Dave/Generated/src/IO001/IO001.c ****   if(Pin < 4U)
 109              		.loc 1 138 0
 110 002e FB7B     		ldrb	r3, [r7, #15]	@ zero_extendqisi2
 111 0030 032B     		cmp	r3, #3
 112 0032 23D8     		bhi	.L3
 139:../Dave/Generated/src/IO001/IO001.c ****   {
 140:../Dave/Generated/src/IO001/IO001.c ****     Handle->PortRegs->IOCR0  =  (uint32_t)(Handle->PortRegs->IOCR0 & ~(0x0000001FUL << (3U+(Pin*8U)
 113              		.loc 1 140 0
 114 0034 7B68     		ldr	r3, [r7, #4]
 115 0036 5B68     		ldr	r3, [r3, #4]
 116 0038 7A68     		ldr	r2, [r7, #4]
 117 003a 5268     		ldr	r2, [r2, #4]
 118 003c 1169     		ldr	r1, [r2, #16]
 119 003e FA7B     		ldrb	r2, [r7, #15]	@ zero_extendqisi2
 120 0040 4FEAC202 		lsl	r2, r2, #3
 121 0044 02F10302 		add	r2, r2, #3
 122 0048 4FF01F00 		mov	r0, #31
 123 004c 00FA02F2 		lsl	r2, r0, r2
 124 0050 6FEA0202 		mvn	r2, r2
 125 0054 0A40     		ands	r2, r2, r1
 126 0056 1A61     		str	r2, [r3, #16]
 141:../Dave/Generated/src/IO001/IO001.c ****     Handle->PortRegs->IOCR0 |= (uint32_t)(((uint32_t)Mode & 0x1FUL) << (3U+(Pin*8U)));
 127              		.loc 1 141 0
 128 0058 7B68     		ldr	r3, [r7, #4]
 129 005a 5B68     		ldr	r3, [r3, #4]
 130 005c 7A68     		ldr	r2, [r7, #4]
 131 005e 5268     		ldr	r2, [r2, #4]
 132 0060 1169     		ldr	r1, [r2, #16]
 133 0062 FA78     		ldrb	r2, [r7, #3]	@ zero_extendqisi2
 134 0064 02F01F00 		and	r0, r2, #31
 135 0068 FA7B     		ldrb	r2, [r7, #15]	@ zero_extendqisi2
 136 006a 4FEAC202 		lsl	r2, r2, #3
 137 006e 02F10302 		add	r2, r2, #3
 138 0072 00FA02F2 		lsl	r2, r0, r2
 139 0076 0A43     		orrs	r2, r2, r1
 140 0078 1A61     		str	r2, [r3, #16]
 141 007a 88E0     		b	.L2
 142              	.L3:
 142:../Dave/Generated/src/IO001/IO001.c ****   } else if ((Pin >= 4U) && (Pin <= 7U))
 143              		.loc 1 142 0
 144 007c FB7B     		ldrb	r3, [r7, #15]	@ zero_extendqisi2
 145 007e 032B     		cmp	r3, #3
 146 0080 2AD9     		bls	.L5
 147              		.loc 1 142 0 is_stmt 0 discriminator 1
 148 0082 FB7B     		ldrb	r3, [r7, #15]	@ zero_extendqisi2
 149 0084 072B     		cmp	r3, #7
 150 0086 27D8     		bhi	.L5
 143:../Dave/Generated/src/IO001/IO001.c ****   {
 144:../Dave/Generated/src/IO001/IO001.c ****     Pin = Pin - 4U;
 151              		.loc 1 144 0 is_stmt 1
 152 0088 FB7B     		ldrb	r3, [r7, #15]
 153 008a A3F10403 		sub	r3, r3, #4
 154 008e FB73     		strb	r3, [r7, #15]
 145:../Dave/Generated/src/IO001/IO001.c ****     Handle->PortRegs->IOCR4  =  (uint32_t)(Handle->PortRegs->IOCR4 & ~(0x0000001FUL << (3U+(Pin*8U)
 155              		.loc 1 145 0
 156 0090 7B68     		ldr	r3, [r7, #4]
 157 0092 5B68     		ldr	r3, [r3, #4]
 158 0094 7A68     		ldr	r2, [r7, #4]
 159 0096 5268     		ldr	r2, [r2, #4]
 160 0098 5169     		ldr	r1, [r2, #20]
 161 009a FA7B     		ldrb	r2, [r7, #15]	@ zero_extendqisi2
 162 009c 4FEAC202 		lsl	r2, r2, #3
 163 00a0 02F10302 		add	r2, r2, #3
 164 00a4 4FF01F00 		mov	r0, #31
 165 00a8 00FA02F2 		lsl	r2, r0, r2
 166 00ac 6FEA0202 		mvn	r2, r2
 167 00b0 0A40     		ands	r2, r2, r1
 168 00b2 5A61     		str	r2, [r3, #20]
 146:../Dave/Generated/src/IO001/IO001.c ****     Handle->PortRegs->IOCR4 |=  (uint32_t)(((uint32_t)Mode & 0x1FUL) << (3U+(Pin*8U)));
 169              		.loc 1 146 0
 170 00b4 7B68     		ldr	r3, [r7, #4]
 171 00b6 5B68     		ldr	r3, [r3, #4]
 172 00b8 7A68     		ldr	r2, [r7, #4]
 173 00ba 5268     		ldr	r2, [r2, #4]
 174 00bc 5169     		ldr	r1, [r2, #20]
 175 00be FA78     		ldrb	r2, [r7, #3]	@ zero_extendqisi2
 176 00c0 02F01F00 		and	r0, r2, #31
 177 00c4 FA7B     		ldrb	r2, [r7, #15]	@ zero_extendqisi2
 178 00c6 4FEAC202 		lsl	r2, r2, #3
 179 00ca 02F10302 		add	r2, r2, #3
 180 00ce 00FA02F2 		lsl	r2, r0, r2
 181 00d2 0A43     		orrs	r2, r2, r1
 182 00d4 5A61     		str	r2, [r3, #20]
 183 00d6 5AE0     		b	.L2
 184              	.L5:
 147:../Dave/Generated/src/IO001/IO001.c ****   } else if ((Pin >= 8U) && (Pin <= 11U))
 185              		.loc 1 147 0
 186 00d8 FB7B     		ldrb	r3, [r7, #15]	@ zero_extendqisi2
 187 00da 072B     		cmp	r3, #7
 188 00dc 2AD9     		bls	.L6
 189              		.loc 1 147 0 is_stmt 0 discriminator 1
 190 00de FB7B     		ldrb	r3, [r7, #15]	@ zero_extendqisi2
 191 00e0 0B2B     		cmp	r3, #11
 192 00e2 27D8     		bhi	.L6
 148:../Dave/Generated/src/IO001/IO001.c ****   {
 149:../Dave/Generated/src/IO001/IO001.c ****     Pin = Pin - 8U;
 193              		.loc 1 149 0 is_stmt 1
 194 00e4 FB7B     		ldrb	r3, [r7, #15]
 195 00e6 A3F10803 		sub	r3, r3, #8
 196 00ea FB73     		strb	r3, [r7, #15]
 150:../Dave/Generated/src/IO001/IO001.c ****     Handle->PortRegs->IOCR8  =  (uint32_t)(Handle->PortRegs->IOCR8 & ~(0x0000001FUL << (3U+(Pin*8U)
 197              		.loc 1 150 0
 198 00ec 7B68     		ldr	r3, [r7, #4]
 199 00ee 5B68     		ldr	r3, [r3, #4]
 200 00f0 7A68     		ldr	r2, [r7, #4]
 201 00f2 5268     		ldr	r2, [r2, #4]
 202 00f4 9169     		ldr	r1, [r2, #24]
 203 00f6 FA7B     		ldrb	r2, [r7, #15]	@ zero_extendqisi2
 204 00f8 4FEAC202 		lsl	r2, r2, #3
 205 00fc 02F10302 		add	r2, r2, #3
 206 0100 4FF01F00 		mov	r0, #31
 207 0104 00FA02F2 		lsl	r2, r0, r2
 208 0108 6FEA0202 		mvn	r2, r2
 209 010c 0A40     		ands	r2, r2, r1
 210 010e 9A61     		str	r2, [r3, #24]
 151:../Dave/Generated/src/IO001/IO001.c ****     Handle->PortRegs->IOCR8 |=  (uint32_t)(((uint32_t)Mode & 0x1FUL) << (3U+(Pin*8U)));
 211              		.loc 1 151 0
 212 0110 7B68     		ldr	r3, [r7, #4]
 213 0112 5B68     		ldr	r3, [r3, #4]
 214 0114 7A68     		ldr	r2, [r7, #4]
 215 0116 5268     		ldr	r2, [r2, #4]
 216 0118 9169     		ldr	r1, [r2, #24]
 217 011a FA78     		ldrb	r2, [r7, #3]	@ zero_extendqisi2
 218 011c 02F01F00 		and	r0, r2, #31
 219 0120 FA7B     		ldrb	r2, [r7, #15]	@ zero_extendqisi2
 220 0122 4FEAC202 		lsl	r2, r2, #3
 221 0126 02F10302 		add	r2, r2, #3
 222 012a 00FA02F2 		lsl	r2, r0, r2
 223 012e 0A43     		orrs	r2, r2, r1
 224 0130 9A61     		str	r2, [r3, #24]
 225 0132 2CE0     		b	.L2
 226              	.L6:
 152:../Dave/Generated/src/IO001/IO001.c ****   } else if ((Pin >= 12U) && (Pin <= 15U))
 227              		.loc 1 152 0
 228 0134 FB7B     		ldrb	r3, [r7, #15]	@ zero_extendqisi2
 229 0136 0B2B     		cmp	r3, #11
 230 0138 29D9     		bls	.L2
 231              		.loc 1 152 0 is_stmt 0 discriminator 1
 232 013a FB7B     		ldrb	r3, [r7, #15]	@ zero_extendqisi2
 233 013c 0F2B     		cmp	r3, #15
 234 013e 26D8     		bhi	.L2
 153:../Dave/Generated/src/IO001/IO001.c ****   {
 154:../Dave/Generated/src/IO001/IO001.c ****     Pin = Pin - 12U;
 235              		.loc 1 154 0 is_stmt 1
 236 0140 FB7B     		ldrb	r3, [r7, #15]
 237 0142 A3F10C03 		sub	r3, r3, #12
 238 0146 FB73     		strb	r3, [r7, #15]
 155:../Dave/Generated/src/IO001/IO001.c ****     Handle->PortRegs->IOCR12  =  (uint32_t)(Handle->PortRegs->IOCR12 & ~(0x0000001FUL << (3U+(Pin*8
 239              		.loc 1 155 0
 240 0148 7B68     		ldr	r3, [r7, #4]
 241 014a 5B68     		ldr	r3, [r3, #4]
 242 014c 7A68     		ldr	r2, [r7, #4]
 243 014e 5268     		ldr	r2, [r2, #4]
 244 0150 D169     		ldr	r1, [r2, #28]
 245 0152 FA7B     		ldrb	r2, [r7, #15]	@ zero_extendqisi2
 246 0154 4FEAC202 		lsl	r2, r2, #3
 247 0158 02F10302 		add	r2, r2, #3
 248 015c 4FF01F00 		mov	r0, #31
 249 0160 00FA02F2 		lsl	r2, r0, r2
 250 0164 6FEA0202 		mvn	r2, r2
 251 0168 0A40     		ands	r2, r2, r1
 252 016a DA61     		str	r2, [r3, #28]
 156:../Dave/Generated/src/IO001/IO001.c ****     Handle->PortRegs->IOCR12 |=  (uint32_t)(((uint32_t)Mode & 0x1FUL) << (3U+(Pin*8U)));
 253              		.loc 1 156 0
 254 016c 7B68     		ldr	r3, [r7, #4]
 255 016e 5B68     		ldr	r3, [r3, #4]
 256 0170 7A68     		ldr	r2, [r7, #4]
 257 0172 5268     		ldr	r2, [r2, #4]
 258 0174 D169     		ldr	r1, [r2, #28]
 259 0176 FA78     		ldrb	r2, [r7, #3]	@ zero_extendqisi2
 260 0178 02F01F00 		and	r0, r2, #31
 261 017c FA7B     		ldrb	r2, [r7, #15]	@ zero_extendqisi2
 262 017e 4FEAC202 		lsl	r2, r2, #3
 263 0182 02F10302 		add	r2, r2, #3
 264 0186 00FA02F2 		lsl	r2, r0, r2
 265 018a 0A43     		orrs	r2, r2, r1
 266 018c DA61     		str	r2, [r3, #28]
 267              	.L2:
 157:../Dave/Generated/src/IO001/IO001.c ****   }
 158:../Dave/Generated/src/IO001/IO001.c ****   else
 159:../Dave/Generated/src/IO001/IO001.c ****   {
 160:../Dave/Generated/src/IO001/IO001.c ****    /*Not supposed to be here */
 161:../Dave/Generated/src/IO001/IO001.c ****   }
 162:../Dave/Generated/src/IO001/IO001.c **** }
 268              		.loc 1 162 0
 269 018e 07F11407 		add	r7, r7, #20
 270 0192 BD46     		mov	sp, r7
 271 0194 80BC     		pop	{r7}
 272 0196 7047     		bx	lr
 273              		.cfi_endproc
 274              	.LFE118:
 276              		.section	.text.IO001_DisableDigitalInput,"ax",%progbits
 277              		.align	2
 278              		.global	IO001_DisableDigitalInput
 279              		.thumb
 280              		.thumb_func
 282              	IO001_DisableDigitalInput:
 283              	.LFB119:
 163:../Dave/Generated/src/IO001/IO001.c **** 
 164:../Dave/Generated/src/IO001/IO001.c **** void IO001_DisableDigitalInput(const IO001_HandleType* Handle)
 165:../Dave/Generated/src/IO001/IO001.c **** {
 284              		.loc 1 165 0
 285              		.cfi_startproc
 286              		@ args = 0, pretend = 0, frame = 8
 287              		@ frame_needed = 1, uses_anonymous_args = 0
 288              		@ link register save eliminated.
 289 0000 80B4     		push	{r7}
 290              	.LCFI5:
 291              		.cfi_def_cfa_offset 4
 292              		.cfi_offset 7, -4
 293 0002 83B0     		sub	sp, sp, #12
 294              	.LCFI6:
 295              		.cfi_def_cfa_offset 16
 296 0004 00AF     		add	r7, sp, #0
 297              	.LCFI7:
 298              		.cfi_def_cfa_register 7
 299 0006 7860     		str	r0, [r7, #4]
 166:../Dave/Generated/src/IO001/IO001.c ****   /* <<<DD_IO001_API_3>>> */
 167:../Dave/Generated/src/IO001/IO001.c ****   /* Disable Digital Mode */
 168:../Dave/Generated/src/IO001/IO001.c ****   Handle->PortRegs->PDISC  |=  (uint32_t)(1UL << Handle->PortPin);
 300              		.loc 1 168 0
 301 0008 7B68     		ldr	r3, [r7, #4]
 302 000a 5B68     		ldr	r3, [r3, #4]
 303 000c 7A68     		ldr	r2, [r7, #4]
 304 000e 5268     		ldr	r2, [r2, #4]
 305 0010 116E     		ldr	r1, [r2, #96]
 306 0012 7A68     		ldr	r2, [r7, #4]
 307 0014 5278     		ldrb	r2, [r2, #1]	@ zero_extendqisi2
 308 0016 4FF00100 		mov	r0, #1
 309 001a 00FA02F2 		lsl	r2, r0, r2
 310 001e 0A43     		orrs	r2, r2, r1
 311 0020 1A66     		str	r2, [r3, #96]
 169:../Dave/Generated/src/IO001/IO001.c **** }
 312              		.loc 1 169 0
 313 0022 07F10C07 		add	r7, r7, #12
 314 0026 BD46     		mov	sp, r7
 315 0028 80BC     		pop	{r7}
 316 002a 7047     		bx	lr
 317              		.cfi_endproc
 318              	.LFE119:
 320              		.text
 321              	.Letext0:
 322              		.file 2 "c:\\dave-3.1.10\\arm-gcc\\bin\\../lib/gcc/arm-none-eabi/4.7.4/../../../../arm-none-eabi/i
 323              		.file 3 "F:\\WORK\\SmartHome_checkout1\\XMC4500_RK_HTTPserver\\Dave\\Generated\\inc\\DAVESupport/.
 324              		.file 4 "C:\\DAVE-3.1.10\\eclipse\\/../CMSIS/Include/core_cm4.h"
 325              		.file 5 "F:\\WORK\\SmartHome_checkout1\\XMC4500_RK_HTTPserver\\Dave\\Generated\\inc\\DAVESupport/.