   1              		.syntax unified
   2              		.cpu cortex-m4
   3              		.eabi_attribute 27, 3
   4              		.fpu fpv4-sp-d16
   5              		.eabi_attribute 20, 1
   6              		.eabi_attribute 21, 1
   7              		.eabi_attribute 23, 3
   8              		.eabi_attribute 24, 1
   9              		.eabi_attribute 25, 1
  10              		.eabi_attribute 26, 1
  11              		.eabi_attribute 30, 6
  12              		.eabi_attribute 34, 1
  13              		.eabi_attribute 18, 4
  14              		.thumb
  15              		.file	"IO001.c"
  16              		.text
  17              	.Ltext0:
  18              		.cfi_sections	.debug_frame
  19              		.section	.text.IO001_Init,"ax",%progbits
  20              		.align	2
  21              		.global	IO001_Init
  22              		.thumb
  23              		.thumb_func
  25              	IO001_Init:
  26              	.LFB117:
  27              		.file 1 "../Dave/Generated/src/IO001/IO001.c"
   1:../Dave/Generated/src/IO001/IO001.c **** /*******************************************************************************
   2:../Dave/Generated/src/IO001/IO001.c **** **  DAVE App Name : IO001       App Version: 1.0.16               
   3:../Dave/Generated/src/IO001/IO001.c **** **  This file is generated by DAVE, User modification to this file will be    **
   4:../Dave/Generated/src/IO001/IO001.c **** **  overwritten at the next code generation.                                  **
   5:../Dave/Generated/src/IO001/IO001.c **** *******************************************************************************/
   6:../Dave/Generated/src/IO001/IO001.c **** 
   7:../Dave/Generated/src/IO001/IO001.c **** /*CODE_BLOCK_BEGIN[IO001.c]*/
   8:../Dave/Generated/src/IO001/IO001.c **** /*******************************************************************************
   9:../Dave/Generated/src/IO001/IO001.c ****  Copyright (c) 2012, Infineon Technologies AG                                 **
  10:../Dave/Generated/src/IO001/IO001.c ****  All rights reserved.                                                         **
  11:../Dave/Generated/src/IO001/IO001.c ****                                                                               **
  12:../Dave/Generated/src/IO001/IO001.c ****  Redistribution and use in source and binary forms, with or without           **
  13:../Dave/Generated/src/IO001/IO001.c ****  modification,are permitted provided that the following conditions are met:   **
  14:../Dave/Generated/src/IO001/IO001.c ****                                                                               **
  15:../Dave/Generated/src/IO001/IO001.c ****  *Redistributions of source code must retain the above copyright notice,      **
  16:../Dave/Generated/src/IO001/IO001.c ****  this list of conditions and the following disclaimer.                        **
  17:../Dave/Generated/src/IO001/IO001.c ****  *Redistributions in binary form must reproduce the above copyright notice,   **
  18:../Dave/Generated/src/IO001/IO001.c ****  this list of conditions and the following disclaimer in the documentation    **
  19:../Dave/Generated/src/IO001/IO001.c ****  and/or other materials provided with the distribution.                       **
  20:../Dave/Generated/src/IO001/IO001.c ****  *Neither the name of the copyright holders nor the names of its contributors **
  21:../Dave/Generated/src/IO001/IO001.c ****  may be used to endorse or promote products derived from this software without**
  22:../Dave/Generated/src/IO001/IO001.c ****  specific prior written permission.                                           **
  23:../Dave/Generated/src/IO001/IO001.c ****                                                                               **
  24:../Dave/Generated/src/IO001/IO001.c ****  THIS SOFTWARE IS PROVIDED BY THE COPYRIGHT HOLDERS AND CONTRIBUTORS "AS IS"  **
  25:../Dave/Generated/src/IO001/IO001.c ****  AND ANY EXPRESS OR IMPLIED WARRANTIES, INCLUDING, BUT NOT LIMITED TO, THE    **
  26:../Dave/Generated/src/IO001/IO001.c ****  IMPLIED WARRANTIES OF MERCHANTABILITY AND FITNESS FOR A PARTICULAR PURPOSE   **
  27:../Dave/Generated/src/IO001/IO001.c ****  ARE  DISCLAIMED. IN NO EVENT SHALL THE COPYRIGHT HOLDER OR CONTRIBUTORS BE   **
  28:../Dave/Generated/src/IO001/IO001.c ****  LIABLE  FOR ANY DIRECT, INDIRECT, INCIDENTAL, SPECIAL, EXEMPLARY, OR         **
  29:../Dave/Generated/src/IO001/IO001.c ****  CONSEQUENTIAL DAMAGES (INCLUDING, BUT NOT LIMITED TO, PROCUREMENT OF         **
  30:../Dave/Generated/src/IO001/IO001.c ****  SUBSTITUTE GOODS OR  SERVICES; LOSS OF USE, DATA, OR PROFITS; OR BUSINESS    **
  31:../Dave/Generated/src/IO001/IO001.c ****  INTERRUPTION) HOWEVER CAUSED AND ON ANY THEORY OF LIABILITY, WHETHER IN      **
  32:../Dave/Generated/src/IO001/IO001.c ****  CONTRACT, STRICT LIABILITY,OR TORT (INCLUDING NEGLIGENCE OR OTHERWISE)       **
  33:../Dave/Generated/src/IO001/IO001.c ****  ARISING IN ANY WAY OUT OF THE USE OF THIS SOFTWARE, EVEN IF ADVISED OF THE   **
  34:../Dave/Generated/src/IO001/IO001.c ****  POSSIBILITY OF SUCH DAMAGE.                                                  **
  35:../Dave/Generated/src/IO001/IO001.c ****                                                                               **
  36:../Dave/Generated/src/IO001/IO001.c ****  To improve the quality of the software, users are encouraged to share        **
  37:../Dave/Generated/src/IO001/IO001.c ****  modifications, enhancements or bug fixes with Infineon Technologies AG       **
  38:../Dave/Generated/src/IO001/IO001.c ****  dave@infineon.com).                                                          **
  39:../Dave/Generated/src/IO001/IO001.c ****                                                                               **
  40:../Dave/Generated/src/IO001/IO001.c **** ********************************************************************************
  41:../Dave/Generated/src/IO001/IO001.c **** **                                                                            **
  42:../Dave/Generated/src/IO001/IO001.c **** **                                                                            **
  43:../Dave/Generated/src/IO001/IO001.c **** ** PLATFORM : Infineon XMC4000/XMC1000 Series                                 **
  44:../Dave/Generated/src/IO001/IO001.c **** **                                                                            **
  45:../Dave/Generated/src/IO001/IO001.c **** ** COMPILER : Compiler Independent                                            **
  46:../Dave/Generated/src/IO001/IO001.c **** **                                                                            **
  47:../Dave/Generated/src/IO001/IO001.c **** ** AUTHOR   : App Developer                                                   **
  48:../Dave/Generated/src/IO001/IO001.c **** **                                                                            **
  49:../Dave/Generated/src/IO001/IO001.c **** ** MAY BE CHANGED BY USER [yes/no]: Yes                                       **
  50:../Dave/Generated/src/IO001/IO001.c **** **                                                                            **
  51:../Dave/Generated/src/IO001/IO001.c **** ** MODIFICATION DATE : Feb 07, 2013                                           **
  52:../Dave/Generated/src/IO001/IO001.c **** **                                                                            **
  53:../Dave/Generated/src/IO001/IO001.c **** *******************************************************************************/
  54:../Dave/Generated/src/IO001/IO001.c **** /*******************************************************************************
  55:../Dave/Generated/src/IO001/IO001.c **** **                      Author(s) Identity                                    **
  56:../Dave/Generated/src/IO001/IO001.c **** ********************************************************************************
  57:../Dave/Generated/src/IO001/IO001.c **** **                                                                            **
  58:../Dave/Generated/src/IO001/IO001.c **** ** Initials     Name                                                          **
  59:../Dave/Generated/src/IO001/IO001.c **** ** ---------------------------------------------------------------------------**
  60:../Dave/Generated/src/IO001/IO001.c **** ** PAE        App Developer                                                   **
  61:../Dave/Generated/src/IO001/IO001.c **** *******************************************************************************/
  62:../Dave/Generated/src/IO001/IO001.c **** /**
  63:../Dave/Generated/src/IO001/IO001.c ****  * @file   IO001.c
  64:../Dave/Generated/src/IO001/IO001.c ****  *
  65:../Dave/Generated/src/IO001/IO001.c ****  * @brief  IO_Analog_IO001 App
  66:../Dave/Generated/src/IO001/IO001.c ****  */
  67:../Dave/Generated/src/IO001/IO001.c **** /* Revision History - 
  68:../Dave/Generated/src/IO001/IO001.c ****  * 7 Feb 2013 v1.0.6  Replaced "/pin/iocr_pcr" resource with 
  69:../Dave/Generated/src/IO001/IO001.c ****  *                    "/IO001_inputchardummy" resource to get the IOCR_PCR value.
  70:../Dave/Generated/src/IO001/IO001.c ****  *
  71:../Dave/Generated/src/IO001/IO001.c ****  */
  72:../Dave/Generated/src/IO001/IO001.c **** /*******************************************************************************
  73:../Dave/Generated/src/IO001/IO001.c ****  ** INCLUDE FILES                                                             **
  74:../Dave/Generated/src/IO001/IO001.c ****  ******************************************************************************/
  75:../Dave/Generated/src/IO001/IO001.c **** 
  76:../Dave/Generated/src/IO001/IO001.c **** /** Inclusion of header file */
  77:../Dave/Generated/src/IO001/IO001.c **** #include <DAVE3.h>
  78:../Dave/Generated/src/IO001/IO001.c **** 
  79:../Dave/Generated/src/IO001/IO001.c **** /*******************************************************************************
  80:../Dave/Generated/src/IO001/IO001.c **** **                      Private Macro Definitions                             **
  81:../Dave/Generated/src/IO001/IO001.c **** *******************************************************************************/
  82:../Dave/Generated/src/IO001/IO001.c **** 
  83:../Dave/Generated/src/IO001/IO001.c **** /*******************************************************************************
  84:../Dave/Generated/src/IO001/IO001.c **** **                      Private Type Definitions                              **
  85:../Dave/Generated/src/IO001/IO001.c **** *******************************************************************************/
  86:../Dave/Generated/src/IO001/IO001.c **** 
  87:../Dave/Generated/src/IO001/IO001.c **** /*******************************************************************************
  88:../Dave/Generated/src/IO001/IO001.c **** **                 Private Function Declarations:
  89:../Dave/Generated/src/IO001/IO001.c **** *******************************************************************************/
  90:../Dave/Generated/src/IO001/IO001.c **** 
  91:../Dave/Generated/src/IO001/IO001.c **** /*******************************************************************************
  92:../Dave/Generated/src/IO001/IO001.c **** **                      Global Constant Definitions                           **
  93:../Dave/Generated/src/IO001/IO001.c **** *******************************************************************************/
  94:../Dave/Generated/src/IO001/IO001.c **** 
  95:../Dave/Generated/src/IO001/IO001.c **** /*******************************************************************************
  96:../Dave/Generated/src/IO001/IO001.c **** **                      Global Variable Definitions                           **
  97:../Dave/Generated/src/IO001/IO001.c **** *******************************************************************************/
  98:../Dave/Generated/src/IO001/IO001.c **** 
  99:../Dave/Generated/src/IO001/IO001.c **** /*******************************************************************************
 100:../Dave/Generated/src/IO001/IO001.c **** **                      Private Constant Definitions                          **
 101:../Dave/Generated/src/IO001/IO001.c **** *******************************************************************************/
 102:../Dave/Generated/src/IO001/IO001.c **** 
 103:../Dave/Generated/src/IO001/IO001.c **** /*******************************************************************************
 104:../Dave/Generated/src/IO001/IO001.c **** **                 Function like macro definitions                            **
 105:../Dave/Generated/src/IO001/IO001.c **** *******************************************************************************/
 106:../Dave/Generated/src/IO001/IO001.c **** /*******************************************************************************
 107:../Dave/Generated/src/IO001/IO001.c **** **                      Private Function Definitions                          **
 108:../Dave/Generated/src/IO001/IO001.c **** *******************************************************************************/
 109:../Dave/Generated/src/IO001/IO001.c **** 
 110:../Dave/Generated/src/IO001/IO001.c **** /*******************************************************************************
 111:../Dave/Generated/src/IO001/IO001.c **** **                      Public Function Definitions                           **
 112:../Dave/Generated/src/IO001/IO001.c **** *******************************************************************************/
 113:../Dave/Generated/src/IO001/IO001.c **** 
 114:../Dave/Generated/src/IO001/IO001.c **** 
 115:../Dave/Generated/src/IO001/IO001.c **** /** @ingroup IO001_Func
 116:../Dave/Generated/src/IO001/IO001.c ****  * @{
 117:../Dave/Generated/src/IO001/IO001.c ****  */
 118:../Dave/Generated/src/IO001/IO001.c **** 
 119:../Dave/Generated/src/IO001/IO001.c **** void IO001_Init(void)
 120:../Dave/Generated/src/IO001/IO001.c **** {
  28              		.loc 1 120 0
  29              		.cfi_startproc
  30              		@ args = 0, pretend = 0, frame = 0
  31              		@ frame_needed = 1, uses_anonymous_args = 0
  32              		@ link register save eliminated.
  33 0000 80B4     		push	{r7}
  34              	.LCFI0:
  35              		.cfi_def_cfa_offset 4
  36              		.cfi_offset 7, -4
  37 0002 00AF     		add	r7, sp, #0
  38              	.LCFI1:
  39              		.cfi_def_cfa_register 7
 121:../Dave/Generated/src/IO001/IO001.c ****    /* <<<DD_IO001_API_1>>> */
 122:../Dave/Generated/src/IO001/IO001.c **** 
 123:../Dave/Generated/src/IO001/IO001.c ****   /* Configuration of Port 14 Pin 1 based on User configuration */
 124:../Dave/Generated/src/IO001/IO001.c ****   /*Disable Digital Pad Input*/
 125:../Dave/Generated/src/IO001/IO001.c ****   IO001_Handle0.PortRegs->PDISC  |= (0x1U << 1);
  40              		.loc 1 125 0
  41 0004 40F20003 		movw	r3, #:lower16:IO001_Handle0
  42 0008 C0F20003 		movt	r3, #:upper16:IO001_Handle0
  43 000c 5A68     		ldr	r2, [r3, #4]
  44 000e 40F20003 		movw	r3, #:lower16:IO001_Handle0
  45 0012 C0F20003 		movt	r3, #:upper16:IO001_Handle0
  46 0016 5B68     		ldr	r3, [r3, #4]
  47 0018 1B6E     		ldr	r3, [r3, #96]
  48 001a 43F00203 		orr	r3, r3, #2
  49 001e 1366     		str	r3, [r2, #96]
 126:../Dave/Generated/src/IO001/IO001.c ****   /* Configuration of Port 14 Pin 2 based on User configuration */
 127:../Dave/Generated/src/IO001/IO001.c ****   /*Disable Digital Pad Input*/
 128:../Dave/Generated/src/IO001/IO001.c ****   IO001_Handle1.PortRegs->PDISC  |= (0x1U << 2);
  50              		.loc 1 128 0
  51 0020 40F20003 		movw	r3, #:lower16:IO001_Handle1
  52 0024 C0F20003 		movt	r3, #:upper16:IO001_Handle1
  53 0028 5A68     		ldr	r2, [r3, #4]
  54 002a 40F20003 		movw	r3, #:lower16:IO001_Handle1
  55 002e C0F20003 		movt	r3, #:upper16:IO001_Handle1
  56 0032 5B68     		ldr	r3, [r3, #4]
  57 0034 1B6E     		ldr	r3, [r3, #96]
  58 0036 43F00403 		orr	r3, r3, #4
  59 003a 1366     		str	r3, [r2, #96]
 129:../Dave/Generated/src/IO001/IO001.c ****   /* Configuration of Port 14 Pin 3 based on User configuration */
 130:../Dave/Generated/src/IO001/IO001.c ****   /*Disable Digital Pad Input*/
 131:../Dave/Generated/src/IO001/IO001.c ****   IO001_Handle2.PortRegs->PDISC  |= (0x1U << 3);
  60              		.loc 1 131 0
  61 003c 40F20003 		movw	r3, #:lower16:IO001_Handle2
  62 0040 C0F20003 		movt	r3, #:upper16:IO001_Handle2
  63 0044 5A68     		ldr	r2, [r3, #4]
  64 0046 40F20003 		movw	r3, #:lower16:IO001_Handle2
  65 004a C0F20003 		movt	r3, #:upper16:IO001_Handle2
  66 004e 5B68     		ldr	r3, [r3, #4]
  67 0050 1B6E     		ldr	r3, [r3, #96]
  68 0052 43F00803 		orr	r3, r3, #8
  69 0056 1366     		str	r3, [r2, #96]
 132:../Dave/Generated/src/IO001/IO001.c **** }
  70              		.loc 1 132 0
  71 0058 BD46     		mov	sp, r7
  72 005a 80BC     		pop	{r7}
  73 005c 7047     		bx	lr
  74              		.cfi_endproc
  75              	.LFE117:
  77 005e 00BF     		.section	.text.IO001_EnableDigitalInput,"ax",%progbits
  78              		.align	2
  79              		.global	IO001_EnableDigitalInput
  80              		.thumb
  81              		.thumb_func
  83              	IO001_EnableDigitalInput:
  84              	.LFB118:
 133:../Dave/Generated/src/IO001/IO001.c **** 
 134:../Dave/Generated/src/IO001/IO001.c **** void IO001_EnableDigitalInput(const IO001_HandleType* Handle,IO001_InputModeType Mode)
 135:../Dave/Generated/src/IO001/IO001.c **** {
  85              		.loc 1 135 0
  86              		.cfi_startproc
  87              		@ args = 0, pretend = 0, frame = 16
  88              		@ frame_needed = 1, uses_anonymous_args = 0
  89              		@ link register save eliminated.
  90 0000 80B4     		push	{r7}
  91              	.LCFI2:
  92              		.cfi_def_cfa_offset 4
  93              		.cfi_offset 7, -4
  94 0002 85B0     		sub	sp, sp, #20
  95              	.LCFI3:
  96              		.cfi_def_cfa_offset 24
  97 0004 00AF     		add	r7, sp, #0
  98              	.LCFI4:
  99              		.cfi_def_cfa_register 7
 100 0006 7860     		str	r0, [r7, #4]
 101 0008 0B46     		mov	r3, r1
 102 000a FB70     		strb	r3, [r7, #3]
 136:../Dave/Generated/src/IO001/IO001.c ****   uint8_t Pin = Handle->PortPin;
 103              		.loc 1 136 0
 104 000c 7B68     		ldr	r3, [r7, #4]
 105 000e 5B78     		ldrb	r3, [r3, #1]
 106 0010 FB73     		strb	r3, [r7, #15]
 137:../Dave/Generated/src/IO001/IO001.c ****   /* <<<DD_IO001_API_2>>> */
 138:../Dave/Generated/src/IO001/IO001.c ****      
 139:../Dave/Generated/src/IO001/IO001.c ****   /* Enable Digital Mode */
 140:../Dave/Generated/src/IO001/IO001.c ****   Handle->PortRegs->PDISC  =  (uint32_t)(Handle->PortRegs->PDISC & ~(1UL << (Pin)));
 107              		.loc 1 140 0
 108 0012 7B68     		ldr	r3, [r7, #4]
 109 0014 5B68     		ldr	r3, [r3, #4]
 110 0016 7A68     		ldr	r2, [r7, #4]
 111 0018 5268     		ldr	r2, [r2, #4]
 112 001a 116E     		ldr	r1, [r2, #96]
 113 001c FA7B     		ldrb	r2, [r7, #15]	@ zero_extendqisi2
 114 001e 4FF00100 		mov	r0, #1
 115 0022 00FA02F2 		lsl	r2, r0, r2
 116 0026 6FEA0202 		mvn	r2, r2
 117 002a 0A40     		ands	r2, r2, r1
 118 002c 1A66     		str	r2, [r3, #96]
 141:../Dave/Generated/src/IO001/IO001.c ****   if(Pin < 4U)
 119              		.loc 1 141 0
 120 002e FB7B     		ldrb	r3, [r7, #15]	@ zero_extendqisi2
 121 0030 032B     		cmp	r3, #3
 122 0032 23D8     		bhi	.L3
 142:../Dave/Generated/src/IO001/IO001.c ****   {
 143:../Dave/Generated/src/IO001/IO001.c ****     Handle->PortRegs->IOCR0  =  (uint32_t)(Handle->PortRegs->IOCR0 & ~(0x0000001FUL << (3U+(Pin*8U)
 123              		.loc 1 143 0
 124 0034 7B68     		ldr	r3, [r7, #4]
 125 0036 5B68     		ldr	r3, [r3, #4]
 126 0038 7A68     		ldr	r2, [r7, #4]
 127 003a 5268     		ldr	r2, [r2, #4]
 128 003c 1169     		ldr	r1, [r2, #16]
 129 003e FA7B     		ldrb	r2, [r7, #15]	@ zero_extendqisi2
 130 0040 4FEAC202 		lsl	r2, r2, #3
 131 0044 02F10302 		add	r2, r2, #3
 132 0048 4FF01F00 		mov	r0, #31
 133 004c 00FA02F2 		lsl	r2, r0, r2
 134 0050 6FEA0202 		mvn	r2, r2
 135 0054 0A40     		ands	r2, r2, r1
 136 0056 1A61     		str	r2, [r3, #16]
 144:../Dave/Generated/src/IO001/IO001.c ****     Handle->PortRegs->IOCR0 |= (uint32_t)(((uint32_t)Mode & 0x1FUL) << (3U+(Pin*8U)));
 137              		.loc 1 144 0
 138 0058 7B68     		ldr	r3, [r7, #4]
 139 005a 5B68     		ldr	r3, [r3, #4]
 140 005c 7A68     		ldr	r2, [r7, #4]
 141 005e 5268     		ldr	r2, [r2, #4]
 142 0060 1169     		ldr	r1, [r2, #16]
 143 0062 FA78     		ldrb	r2, [r7, #3]	@ zero_extendqisi2
 144 0064 02F01F00 		and	r0, r2, #31
 145 0068 FA7B     		ldrb	r2, [r7, #15]	@ zero_extendqisi2
 146 006a 4FEAC202 		lsl	r2, r2, #3
 147 006e 02F10302 		add	r2, r2, #3
 148 0072 00FA02F2 		lsl	r2, r0, r2
 149 0076 0A43     		orrs	r2, r2, r1
 150 0078 1A61     		str	r2, [r3, #16]
 151 007a 88E0     		b	.L2
 152              	.L3:
 145:../Dave/Generated/src/IO001/IO001.c ****   } else if ((Pin >= 4U) && (Pin <= 7U))
 153              		.loc 1 145 0
 154 007c FB7B     		ldrb	r3, [r7, #15]	@ zero_extendqisi2
 155 007e 032B     		cmp	r3, #3
 156 0080 2AD9     		bls	.L5
 157              		.loc 1 145 0 is_stmt 0 discriminator 1
 158 0082 FB7B     		ldrb	r3, [r7, #15]	@ zero_extendqisi2
 159 0084 072B     		cmp	r3, #7
 160 0086 27D8     		bhi	.L5
 146:../Dave/Generated/src/IO001/IO001.c ****   {
 147:../Dave/Generated/src/IO001/IO001.c ****     Pin = Pin - 4U;
 161              		.loc 1 147 0 is_stmt 1
 162 0088 FB7B     		ldrb	r3, [r7, #15]
 163 008a A3F10403 		sub	r3, r3, #4
 164 008e FB73     		strb	r3, [r7, #15]
 148:../Dave/Generated/src/IO001/IO001.c ****     Handle->PortRegs->IOCR4  =  (uint32_t)(Handle->PortRegs->IOCR4 & ~(0x0000001FUL << (3U+(Pin*8U)
 165              		.loc 1 148 0
 166 0090 7B68     		ldr	r3, [r7, #4]
 167 0092 5B68     		ldr	r3, [r3, #4]
 168 0094 7A68     		ldr	r2, [r7, #4]
 169 0096 5268     		ldr	r2, [r2, #4]
 170 0098 5169     		ldr	r1, [r2, #20]
 171 009a FA7B     		ldrb	r2, [r7, #15]	@ zero_extendqisi2
 172 009c 4FEAC202 		lsl	r2, r2, #3
 173 00a0 02F10302 		add	r2, r2, #3
 174 00a4 4FF01F00 		mov	r0, #31
 175 00a8 00FA02F2 		lsl	r2, r0, r2
 176 00ac 6FEA0202 		mvn	r2, r2
 177 00b0 0A40     		ands	r2, r2, r1
 178 00b2 5A61     		str	r2, [r3, #20]
 149:../Dave/Generated/src/IO001/IO001.c ****     Handle->PortRegs->IOCR4 |=  (uint32_t)(((uint32_t)Mode & 0x1FUL) << (3U+(Pin*8U)));
 179              		.loc 1 149 0
 180 00b4 7B68     		ldr	r3, [r7, #4]
 181 00b6 5B68     		ldr	r3, [r3, #4]
 182 00b8 7A68     		ldr	r2, [r7, #4]
 183 00ba 5268     		ldr	r2, [r2, #4]
 184 00bc 5169     		ldr	r1, [r2, #20]
 185 00be FA78     		ldrb	r2, [r7, #3]	@ zero_extendqisi2
 186 00c0 02F01F00 		and	r0, r2, #31
 187 00c4 FA7B     		ldrb	r2, [r7, #15]	@ zero_extendqisi2
 188 00c6 4FEAC202 		lsl	r2, r2, #3
 189 00ca 02F10302 		add	r2, r2, #3
 190 00ce 00FA02F2 		lsl	r2, r0, r2
 191 00d2 0A43     		orrs	r2, r2, r1
 192 00d4 5A61     		str	r2, [r3, #20]
 193 00d6 5AE0     		b	.L2
 194              	.L5:
 150:../Dave/Generated/src/IO001/IO001.c ****   } else if ((Pin >= 8U) && (Pin <= 11U))
 195              		.loc 1 150 0
 196 00d8 FB7B     		ldrb	r3, [r7, #15]	@ zero_extendqisi2
 197 00da 072B     		cmp	r3, #7
 198 00dc 2AD9     		bls	.L6
 199              		.loc 1 150 0 is_stmt 0 discriminator 1
 200 00de FB7B     		ldrb	r3, [r7, #15]	@ zero_extendqisi2
 201 00e0 0B2B     		cmp	r3, #11
 202 00e2 27D8     		bhi	.L6
 151:../Dave/Generated/src/IO001/IO001.c ****   {
 152:../Dave/Generated/src/IO001/IO001.c ****     Pin = Pin - 8U;
 203              		.loc 1 152 0 is_stmt 1
 204 00e4 FB7B     		ldrb	r3, [r7, #15]
 205 00e6 A3F10803 		sub	r3, r3, #8
 206 00ea FB73     		strb	r3, [r7, #15]
 153:../Dave/Generated/src/IO001/IO001.c ****     Handle->PortRegs->IOCR8  =  (uint32_t)(Handle->PortRegs->IOCR8 & ~(0x0000001FUL << (3U+(Pin*8U)
 207              		.loc 1 153 0
 208 00ec 7B68     		ldr	r3, [r7, #4]
 209 00ee 5B68     		ldr	r3, [r3, #4]
 210 00f0 7A68     		ldr	r2, [r7, #4]
 211 00f2 5268     		ldr	r2, [r2, #4]
 212 00f4 9169     		ldr	r1, [r2, #24]
 213 00f6 FA7B     		ldrb	r2, [r7, #15]	@ zero_extendqisi2
 214 00f8 4FEAC202 		lsl	r2, r2, #3
 215 00fc 02F10302 		add	r2, r2, #3
 216 0100 4FF01F00 		mov	r0, #31
 217 0104 00FA02F2 		lsl	r2, r0, r2
 218 0108 6FEA0202 		mvn	r2, r2
 219 010c 0A40     		ands	r2, r2, r1
 220 010e 9A61     		str	r2, [r3, #24]
 154:../Dave/Generated/src/IO001/IO001.c ****     Handle->PortRegs->IOCR8 |=  (uint32_t)(((uint32_t)Mode & 0x1FUL) << (3U+(Pin*8U)));
 221              		.loc 1 154 0
 222 0110 7B68     		ldr	r3, [r7, #4]
 223 0112 5B68     		ldr	r3, [r3, #4]
 224 0114 7A68     		ldr	r2, [r7, #4]
 225 0116 5268     		ldr	r2, [r2, #4]
 226 0118 9169     		ldr	r1, [r2, #24]
 227 011a FA78     		ldrb	r2, [r7, #3]	@ zero_extendqisi2
 228 011c 02F01F00 		and	r0, r2, #31
 229 0120 FA7B     		ldrb	r2, [r7, #15]	@ zero_extendqisi2
 230 0122 4FEAC202 		lsl	r2, r2, #3
 231 0126 02F10302 		add	r2, r2, #3
 232 012a 00FA02F2 		lsl	r2, r0, r2
 233 012e 0A43     		orrs	r2, r2, r1
 234 0130 9A61     		str	r2, [r3, #24]
 235 0132 2CE0     		b	.L2
 236              	.L6:
 155:../Dave/Generated/src/IO001/IO001.c ****   } else if ((Pin >= 12U) && (Pin <= 15U))
 237              		.loc 1 155 0
 238 0134 FB7B     		ldrb	r3, [r7, #15]	@ zero_extendqisi2
 239 0136 0B2B     		cmp	r3, #11
 240 0138 29D9     		bls	.L2
 241              		.loc 1 155 0 is_stmt 0 discriminator 1
 242 013a FB7B     		ldrb	r3, [r7, #15]	@ zero_extendqisi2
 243 013c 0F2B     		cmp	r3, #15
 244 013e 26D8     		bhi	.L2
 156:../Dave/Generated/src/IO001/IO001.c ****   {
 157:../Dave/Generated/src/IO001/IO001.c ****     Pin = Pin - 12U;
 245              		.loc 1 157 0 is_stmt 1
 246 0140 FB7B     		ldrb	r3, [r7, #15]
 247 0142 A3F10C03 		sub	r3, r3, #12
 248 0146 FB73     		strb	r3, [r7, #15]
 158:../Dave/Generated/src/IO001/IO001.c ****     Handle->PortRegs->IOCR12  =  (uint32_t)(Handle->PortRegs->IOCR12 & ~(0x0000001FUL << (3U+(Pin*8
 249              		.loc 1 158 0
 250 0148 7B68     		ldr	r3, [r7, #4]
 251 014a 5B68     		ldr	r3, [r3, #4]
 252 014c 7A68     		ldr	r2, [r7, #4]
 253 014e 5268     		ldr	r2, [r2, #4]
 254 0150 D169     		ldr	r1, [r2, #28]
 255 0152 FA7B     		ldrb	r2, [r7, #15]	@ zero_extendqisi2
 256 0154 4FEAC202 		lsl	r2, r2, #3
 257 0158 02F10302 		add	r2, r2, #3
 258 015c 4FF01F00 		mov	r0, #31
 259 0160 00FA02F2 		lsl	r2, r0, r2
 260 0164 6FEA0202 		mvn	r2, r2
 261 0168 0A40     		ands	r2, r2, r1
 262 016a DA61     		str	r2, [r3, #28]
 159:../Dave/Generated/src/IO001/IO001.c ****     Handle->PortRegs->IOCR12 |=  (uint32_t)(((uint32_t)Mode & 0x1FUL) << (3U+(Pin*8U)));
 263              		.loc 1 159 0
 264 016c 7B68     		ldr	r3, [r7, #4]
 265 016e 5B68     		ldr	r3, [r3, #4]
 266 0170 7A68     		ldr	r2, [r7, #4]
 267 0172 5268     		ldr	r2, [r2, #4]
 268 0174 D169     		ldr	r1, [r2, #28]
 269 0176 FA78     		ldrb	r2, [r7, #3]	@ zero_extendqisi2
 270 0178 02F01F00 		and	r0, r2, #31
 271 017c FA7B     		ldrb	r2, [r7, #15]	@ zero_extendqisi2
 272 017e 4FEAC202 		lsl	r2, r2, #3
 273 0182 02F10302 		add	r2, r2, #3
 274 0186 00FA02F2 		lsl	r2, r0, r2
 275 018a 0A43     		orrs	r2, r2, r1
 276 018c DA61     		str	r2, [r3, #28]
 277              	.L2:
 160:../Dave/Generated/src/IO001/IO001.c ****   }
 161:../Dave/Generated/src/IO001/IO001.c ****   else
 162:../Dave/Generated/src/IO001/IO001.c ****   {
 163:../Dave/Generated/src/IO001/IO001.c ****    /*Not supposed to be here */
 164:../Dave/Generated/src/IO001/IO001.c ****   }
 165:../Dave/Generated/src/IO001/IO001.c **** }
 278              		.loc 1 165 0
 279 018e 07F11407 		add	r7, r7, #20
 280 0192 BD46     		mov	sp, r7
 281 0194 80BC     		pop	{r7}
 282 0196 7047     		bx	lr
 283              		.cfi_endproc
 284              	.LFE118:
 286              		.section	.text.IO001_DisableDigitalInput,"ax",%progbits
 287              		.align	2
 288              		.global	IO001_DisableDigitalInput
 289              		.thumb
 290              		.thumb_func
 292              	IO001_DisableDigitalInput:
 293              	.LFB119:
 166:../Dave/Generated/src/IO001/IO001.c **** 
 167:../Dave/Generated/src/IO001/IO001.c **** void IO001_DisableDigitalInput(const IO001_HandleType* Handle)
 168:../Dave/Generated/src/IO001/IO001.c **** {
 294              		.loc 1 168 0
 295              		.cfi_startproc
 296              		@ args = 0, pretend = 0, frame = 8
 297              		@ frame_needed = 1, uses_anonymous_args = 0
 298              		@ link register save eliminated.
 299 0000 80B4     		push	{r7}
 300              	.LCFI5:
 301              		.cfi_def_cfa_offset 4
 302              		.cfi_offset 7, -4
 303 0002 83B0     		sub	sp, sp, #12
 304              	.LCFI6:
 305              		.cfi_def_cfa_offset 16
 306 0004 00AF     		add	r7, sp, #0
 307              	.LCFI7:
 308              		.cfi_def_cfa_register 7
 309 0006 7860     		str	r0, [r7, #4]
 169:../Dave/Generated/src/IO001/IO001.c ****   /* <<<DD_IO001_API_3>>> */
 170:../Dave/Generated/src/IO001/IO001.c ****   /* Disable Digital Mode */
 171:../Dave/Generated/src/IO001/IO001.c ****   Handle->PortRegs->PDISC  |=  (uint32_t)(1UL << Handle->PortPin);
 310              		.loc 1 171 0
 311 0008 7B68     		ldr	r3, [r7, #4]
 312 000a 5B68     		ldr	r3, [r3, #4]
 313 000c 7A68     		ldr	r2, [r7, #4]
 314 000e 5268     		ldr	r2, [r2, #4]
 315 0010 116E     		ldr	r1, [r2, #96]
 316 0012 7A68     		ldr	r2, [r7, #4]
 317 0014 5278     		ldrb	r2, [r2, #1]	@ zero_extendqisi2
 318 0016 4FF00100 		mov	r0, #1
 319 001a 00FA02F2 		lsl	r2, r0, r2
 320 001e 0A43     		orrs	r2, r2, r1
 321 0020 1A66     		str	r2, [r3, #96]
 172:../Dave/Generated/src/IO001/IO001.c **** }
 322              		.loc 1 172 0
 323 0022 07F10C07 		add	r7, r7, #12
 324 0026 BD46     		mov	sp, r7
 325 0028 80BC     		pop	{r7}
 326 002a 7047     		bx	lr
 327              		.cfi_endproc
 328              	.LFE119:
 330              		.text
 331              	.Letext0:
 332              		.file 2 "c:\\dave-3.1.10\\arm-gcc\\bin\\../lib/gcc/arm-none-eabi/4.7.4/../../../../arm-none-eabi/i
 333              		.file 3 "F:\\WORK\\SmartHome_checkout1\\XMC4500_RK_HTTPserver\\Dave\\Generated\\inc\\DAVESupport/.
 334              		.file 4 "C:\\DAVE-3.1.10\\eclipse\\/../CMSIS/Include/core_cm4.h"
 335              		.file 5 "F:\\WORK\\SmartHome_checkout1\\XMC4500_RK_HTTPserver\\Dave\\Generated\\inc\\DAVESupport/.
DEFINED SYMBOLS
                            *ABS*:00000000 IO001.c
C:\Users\Mihai\AppData\Local\Temp\ccCmP95K.s:20     .text.IO001_Init:00000000 $t
C:\Users\Mihai\AppData\Local\Temp\ccCmP95K.s:25     .text.IO001_Init:00000000 IO001_Init
C:\Users\Mihai\AppData\Local\Temp\ccCmP95K.s:78     .text.IO001_EnableDigitalInput:00000000 $t
C:\Users\Mihai\AppData\Local\Temp\ccCmP95K.s:83     .text.IO001_EnableDigitalInput:00000000 IO001_EnableDigitalInput
C:\Users\Mihai\AppData\Local\Temp\ccCmP95K.s:287    .text.IO001_DisableDigitalInput:00000000 $t
C:\Users\Mihai\AppData\Local\Temp\ccCmP95K.s:292    .text.IO001_DisableDigitalInput:00000000 IO001_DisableDigitalInput
                     .debug_frame:00000010 $d
                           .group:00000000 wm4.1.1791a5ae2e936ca1033c1c44be394cc7
                           .group:00000000 wm4.XMC4500.h.45.215f4b8c79f46c7645c15373868d08c0
                           .group:00000000 wm4.core_cm4.h.47.41af406cb4cda82c972f112a9cd0a024
                           .group:00000000 wm4.newlib.h.8.a9901dc52d1357e3e94003403d43f8b5
                           .group:00000000 wm4.features.h.22.b72b3baab2bb2eab3661375590100b6b
                           .group:00000000 wm4.config.h.193.5fb8ef056cdff92dec3dee9552839d8c
                           .group:00000000 wm4._ansi.h.23.7aefdac4826acebbfc9f3822a0aeb14c
                           .group:00000000 wm4.stdint.h.20.54ad762faa59e3c05491630641c8d8bf
                           .group:00000000 wm4.core_cmInstr.h.39.3d3d1b4a79aef37532666dc6ee87c6ac
                           .group:00000000 wm4.core_cm4_simd.h.43.b5d1d38735af6366227b4256d330cf13
                           .group:00000000 wm4.core_cm4.h.178.e5ef5ce66d198d7f00f9d0076e267c41
                           .group:00000000 wm4.system_XMC4500.h.29.827f68baa362c84f2abae4ab67dde7c9
                           .group:00000000 wm4.XMC4500.h.198.8e022f279ff353ed081df898dc7b9cf3
                           .group:00000000 wm4.stddef.h.40.50cf36416e06376af8a9dca28536f2e4
                           .group:00000000 wm4.types.h.55.0006b5fda1d606516f2dcaf4aca92b11
                           .group:00000000 wm4.MULTIPLEXER.h.43.4aa654be3ec80895f631b5281bbb9105
                           .group:00000000 wm4.CCU8PWMLIB.h.70.a5d6a5267902b8b4aea2a0224518259a
                           .group:00000000 wm4.DBG001.h.116.d6d9e7459a0faa3905c97c1d2edb339d
                           .group:00000000 wm4.SYSTM001.h.63.668098b2213d40a5bd0db5fbe813cf05
                           .group:00000000 wm4.ETH002_Conf.h.56.5bd2b085b66f43d51abd69396be7f35f
                           .group:00000000 wm4.EthernetPHY.h.54.7af1709186b21e62a5f1d4049da3988b
                           .group:00000000 wm4.ETH001_Conf.h.71.1e151af1ba54dd023e1f942bdf922819
                           .group:00000000 wm4.synopGMAC_plat.h.78.7a90e072b497857344aea4ba1e994097
                           .group:00000000 wm4.synopGMAC_stack_interface.h.73.6be6aaee0ac6637432f4d0589044479b
                           .group:00000000 wm4.SynopGMAC_Dev.h.72.7c89c07cf666d37f5c9b615720d5e111
                           .group:00000000 wm4.synopGMAC_network_interface.h.73.4dd08316a11bc43c8c4a9da15277fb0f
                           .group:00000000 wm4.stdlib.h.13.603ed7eb09a1561ab06840b7c0fcff58
                           .group:00000000 wm4.stddef.h.161.e50ff8a9d5d1abbc15641da28ac571bf
                           .group:00000000 wm4._default_types.h.6.5e12cd604db8ce00b62bb2f02708eaf3
                           .group:00000000 wm4.lock.h.2.9bc98482741e5e2a9450b12934a684ea
                           .group:00000000 wm4.stddef.h.161.c6104a0666cf681b6269ddc9b4f516d4
                           .group:00000000 wm4.reent.h.16.9e42f0e588b85e70b2bf6572af57ce64
                           .group:00000000 wm4.alloca.h.8.dfc0c703c47ec3e69746825b17d9e66d
                           .group:00000000 wm4.stdlib.h.53.c69c7609933ff56d59c757cec2d13230
                           .group:00000000 wm4.string.h.8.ef946ad0bc9ad5c970c365dcd1fc4b0a
                           .group:00000000 wm4.string.h.86.d5c872ff52e2712c985b588a0ef39f3c
                           .group:00000000 wm4.ETH004_Conf.h.56.564c3f309c32b3c742fc91049cf66940
                           .group:00000000 wm4.lwipopts.h.73.a7a63bda1e8216abd1d90275eaaa0027
                           .group:00000000 wm4.arch.h.33.6fa4aa86d33d1490ae882caef7316405
                           .group:00000000 wm4.cpu.h.33.b213c7fd77614ebc3691cef18ad2ff22
                           .group:00000000 wm4.cc.h.66.ec134211c658dcc89de4610e4e7bab46
                           .group:00000000 wm4.arch.h.47.5153c52bfb94ee3b37299920afab6afd
                           .group:00000000 wm4.debug.h.43.557ecd6c90cc70b375bb8a29118be47b
                           .group:00000000 wm4.opt.h.94.d36882acafebb8726bce646fc8b2397b
                           .group:00000000 wm4.err.h.52.37c5d17538f8e8347a9c84196701e92d
                           .group:00000000 wm4.pbuf.h.43.e9a1ad12b97478787a109e22d5306820
                           .group:00000000 wm4.inet.h.46.b516065779826845d16d49f513869a2b
                           .group:00000000 wm4.ip_addr.h.79.9a0ce887ca8c88c22ad7686bcb5105df
                           .group:00000000 wm4.sys.h.65.4a0cd87b9e0d8bb4cd6b30e939b2ca7e
                           .group:00000000 wm4.mem.h.96.20770766e6c9e6c42af6bfa95ef5c63f
                           .group:00000000 wm4.def.h.33.049f911dab26023a266ed46ced0ce4bc
                           .group:00000000 wm4.netif.h.53.c13431a64f0e73a26710e71455725e84
                           .group:00000000 wm4.ip.h.48.ad46847692d4d729760949b27e48a442
                           .group:00000000 wm4.icmp.h.44.450dbf91f594cc26ad19d086cdc83713
                           .group:00000000 wm4.tcp.h.55.5c30b9432fa60afaa85cbdd225b0c683
                           .group:00000000 wm4.udp.h.48.1a8dde095cd0a13580afaba1443e5a3f
                           .group:00000000 wm4.SDMMC003_Conf.h.50.e707c07613fb4e6f2eaec982a892429d
                           .group:00000000 wm4.SDMMC003.h.85.b66055f6032a052f5173e3d123f9c61e
                           .group:00000000 wm4.SDMMC001.h.50.3e2fedc7e5ace33db4121d5cc027e8a4
                           .group:00000000 wm4.types.h.23.0d949686bbcadd1621462d4fa1f884f9
                           .group:00000000 wm4.types.h.2.e9cec8c90ab35f77d9f499e06ae02400
                           .group:00000000 wm4.types.h.80.1f2c84c0d57dd52dd9936095d9ac218e
                           .group:00000000 wm4.time.h.16.a4579e68956d2601c6113814b546764b
                           .group:00000000 wm4.diskio.h.7.93a3c8131d08770c060b04d2180fd09a
                           .group:00000000 wm4.diskio.h.42.a863614abe78d56d18ed7cb292d0028d
                           .group:00000000 wm4.ffconf.h.57.4ab321a2116d35ff7f28236ac31fad7c
                           .group:00000000 wm4.ff.h.82.8f05a37d35a49dba2681a7f047fee4ee
                           .group:00000000 wm4.lmm001_debuglog.h.40.8031299705ecf04ad726bd19baff976d
                           .group:00000000 wm4.LMM001.h.42.c21fe9cbedc336738c3dc89405cad216
                           .group:00000000 wm4.stdio.h.27.f2ac352bab34f31f9f478442827b2ba6
                           .group:00000000 wm4.stdarg.h.34.3a23a216c0c293b3d2ea2e89281481e6
                           .group:00000000 wm4.stdio.h.2.4aa87247282eca6c8f36f9de33d8df1a
                           .group:00000000 wm4.stdio.h.63.dfdea6580b080784d08faace69b6ed76
                           .group:00000000 wm4.time.h.2.9857e62ad6ac99431e29d58067232314
                           .group:00000000 wm4.time.h.24.c499d4c1915694df17abb795fd34b719
                           .group:00000000 wm4.time.h.124.10ced469f846269cafc58b59c853e1bb
                           .group:00000000 wm4.errno.h.2.ba016d646105af6cad23be83630b6a3f
                           .group:00000000 wm4.errno.h.9.65044c2b5d8494e43f5986ab0a1d770f
                           .group:00000000 wm4.unistd.h.2.6ce1b91c4223f6078c1b210c7538c1d2
                           .group:00000000 wm4.unistd.h.251.605bc560cdc6c3b07b599bb71ac4e425
                           .group:00000000 wm4.malloc.h.4.62bd13b8107d5245f60bd92bb5994838
                           .group:00000000 wm4.malloc.h.148.73b7de3bd065dafbd594b04197a9466e
                           .group:00000000 wm4.reent.h.91.faac4d0ac97c0fcf23d10d0786197642
                           .group:00000000 wm4.SLTHA003.h.100.69cb08672bc6ab3f052aa9d5bd6dc5ca
                           .group:00000000 wm4._default_fcntl.h.6.d036cf640d0f9a06bcff1be55acd66be
                           .group:00000000 wm4.stat.h.2.a761b02482a54847ff0d09dfcff24a5c
                           .group:00000000 wm4.fcntl.h.9.9336f33d7f5028f694c75e6e224e0cf7
                           .group:00000000 wm4.SLTHA001.h.97.d7e87c19a31e3244bdd5839e7cc42a61
                           .group:00000000 wm4.WEBSERVER001_Conf.h.54.cd6d29aaa96a848cbc5321bab5d6cd90
                           .group:00000000 wm4.IO004.h.51.dbf9dd216c57d6a7f14a22b2cb7e5626
                           .group:00000000 wm4.MOTORLIBS.h.59.b2e97de0df555dedfa51e24447b57ab8
                           .group:00000000 wm4.uc_id.h.35.a6c4837fad81477ba31967683332b8cc
                           .group:00000000 wm4.Usic.h.90.22743468abc46f16747d12430b219aaf
                           .group:00000000 wm4.UART001_Conf.h.53.c5c972f6f634bc5116c171852aaab668
                           .group:00000000 wm4.UART001.h.109.3e835815a7a59791d8bd39655f4d4cc9
                           .group:00000000 wm4.NVIC002_Conf.h.63.4809ded45954a78aa476d1e9f44d110e
                           .group:00000000 wm4.ADCGROUP001.h.66.3ee81aba16709c201614af7d67499bdb
                           .group:00000000 wm4.IO001.h.49.4efcabb368feaef60c65bd7504b48505
                           .group:00000000 wm4.ADC001.h.72.a0f6b9479a18584b91fa95e6f862978d

UNDEFINED SYMBOLS
IO001_Handle0
IO001_Handle1
IO001_Handle2
