   1              		.syntax unified
   2              		.cpu cortex-m4
   3              		.eabi_attribute 27, 3
   4              		.fpu fpv4-sp-d16
   5              		.eabi_attribute 20, 1
   6              		.eabi_attribute 21, 1
   7              		.eabi_attribute 23, 3
   8              		.eabi_attribute 24, 1
   9              		.eabi_attribute 25, 1
  10              		.eabi_attribute 26, 1
  11              		.eabi_attribute 30, 4
  12              		.eabi_attribute 34, 1
  13              		.eabi_attribute 18, 4
  14              		.thumb
  15              		.file	"ADCGroup001.c"
  16              		.section	.text.ADCGROUP001_lInit,"ax",%progbits
  17              		.align	1
  18              		.global	ADCGROUP001_lInit
  19              		.thumb
  20              		.thumb_func
  22              	ADCGROUP001_lInit:
  23              		@ args = 0, pretend = 0, frame = 0
  24              		@ frame_needed = 0, uses_anonymous_args = 0
  25 0000 00F10C01 		add	r1, r0, #12
  26 0004 38B5     		push	{r3, r4, r5, lr}
  27 0006 0EC9     		ldmia	r1, {r1, r2, r3}
  28 0008 0446     		mov	r4, r0
  29 000a 0878     		ldrb	r0, [r1, #0]	@ zero_extendqisi2
  30 000c 0028     		cmp	r0, #0
  31 000e 40F08580 		bne	.L1
  32 0012 2178     		ldrb	r1, [r4, #0]	@ zero_extendqisi2
  33 0014 6578     		ldrb	r5, [r4, #1]	@ zero_extendqisi2
  34 0016 D2F88000 		ldr	r0, [r2, #128]
  35 001a 1031     		adds	r1, r1, #16
  36 001c 05FA01F1 		lsl	r1, r5, r1
  37 0020 20F48030 		bic	r0, r0, #65536
  38 0024 01F48031 		and	r1, r1, #65536
  39 0028 0143     		orrs	r1, r1, r0
  40 002a C2F88010 		str	r1, [r2, #128]
  41 002e D3F88020 		ldr	r2, [r3, #128]
  42 0032 E17A     		ldrb	r1, [r4, #11]	@ zero_extendqisi2
  43 0034 22F00302 		bic	r2, r2, #3
  44 0038 01F00300 		and	r0, r1, #3
  45 003c 40EA0201 		orr	r1, r0, r2
  46 0040 C3F88010 		str	r1, [r3, #128]
  47 0044 A278     		ldrb	r2, [r4, #2]	@ zero_extendqisi2
  48 0046 D3F88000 		ldr	r0, [r3, #128]
  49 004a D101     		lsls	r1, r2, #7
  50 004c CAB2     		uxtb	r2, r1
  51 004e 20F08000 		bic	r0, r0, #128
  52 0052 0243     		orrs	r2, r2, r0
  53 0054 C3F88020 		str	r2, [r3, #128]
  54 0058 D3F8B820 		ldr	r2, [r3, #184]
  55 005c A188     		ldrh	r1, [r4, #4]
  56 005e 22F47F62 		bic	r2, r2, #4080
  57 0062 0805     		lsls	r0, r1, #20
  58 0064 22F00F01 		bic	r1, r2, #15
  59 0068 41EA1050 		orr	r0, r1, r0, lsr #20
  60 006c C3F8B800 		str	r0, [r3, #184]
  61 0070 E288     		ldrh	r2, [r4, #6]
  62 0072 D3F8B810 		ldr	r1, [r3, #184]
  63 0076 1004     		lsls	r0, r2, #16
  64 0078 294A     		ldr	r2, .L6
  65 007a 21F07F61 		bic	r1, r1, #267386880
  66 007e 0240     		ands	r2, r2, r0
  67 0080 21F47020 		bic	r0, r1, #983040
  68 0084 0243     		orrs	r2, r2, r0
  69 0086 C3F8B820 		str	r2, [r3, #184]
  70 008a D3F8F021 		ldr	r2, [r3, #496]
  71 008e 607A     		ldrb	r0, [r4, #9]	@ zero_extendqisi2
  72 0090 42F00041 		orr	r1, r2, #-2147483648
  73 0094 00F00702 		and	r2, r0, #7
  74 0098 41EA0200 		orr	r0, r1, r2
  75 009c 217A     		ldrb	r1, [r4, #8]	@ zero_extendqisi2
  76 009e 0A07     		lsls	r2, r1, #28
  77 00a0 02F08051 		and	r1, r2, #268435456
  78 00a4 A27A     		ldrb	r2, [r4, #10]	@ zero_extendqisi2
  79 00a6 0843     		orrs	r0, r0, r1
  80 00a8 9106     		lsls	r1, r2, #26
  81 00aa 01F04062 		and	r2, r1, #201326592
  82 00ae 1043     		orrs	r0, r0, r2
  83 00b0 C3F8F001 		str	r0, [r3, #496]
  84 00b4 A17E     		ldrb	r1, [r4, #26]	@ zero_extendqisi2
  85 00b6 D3F8A000 		ldr	r0, [r3, #160]
  86 00ba 01F01F02 		and	r2, r1, #31
  87 00be 0243     		orrs	r2, r2, r0
  88 00c0 207E     		ldrb	r0, [r4, #24]	@ zero_extendqisi2
  89 00c2 0102     		lsls	r1, r0, #8
  90 00c4 01F4E060 		and	r0, r1, #1792
  91 00c8 217F     		ldrb	r1, [r4, #28]	@ zero_extendqisi2
  92 00ca 0243     		orrs	r2, r2, r0
  93 00cc 0806     		lsls	r0, r1, #24
  94 00ce 00F0E061 		and	r1, r0, #117440512
  95 00d2 A07F     		ldrb	r0, [r4, #30]	@ zero_extendqisi2
  96 00d4 0A43     		orrs	r2, r2, r1
  97 00d6 0104     		lsls	r1, r0, #16
  98 00d8 01F4F810 		and	r0, r1, #2031616
  99 00dc 0243     		orrs	r2, r2, r0
 100 00de C3F8A020 		str	r2, [r3, #160]
 101 00e2 E27E     		ldrb	r2, [r4, #27]	@ zero_extendqisi2
 102 00e4 D3F8A410 		ldr	r1, [r3, #164]
 103 00e8 02F01F00 		and	r0, r2, #31
 104 00ec 0843     		orrs	r0, r0, r1
 105 00ee 617E     		ldrb	r1, [r4, #25]	@ zero_extendqisi2
 106 00f0 0A02     		lsls	r2, r1, #8
 107 00f2 02F4E061 		and	r1, r2, #1792
 108 00f6 627F     		ldrb	r2, [r4, #29]	@ zero_extendqisi2
 109 00f8 0843     		orrs	r0, r0, r1
 110 00fa 1106     		lsls	r1, r2, #24
 111 00fc 01F0E062 		and	r2, r1, #117440512
 112 0100 E17F     		ldrb	r1, [r4, #31]	@ zero_extendqisi2
 113 0102 1043     		orrs	r0, r0, r2
 114 0104 0A04     		lsls	r2, r1, #16
 115 0106 02F4F811 		and	r1, r2, #2031616
 116 010a 0843     		orrs	r0, r0, r1
 117 010c C3F8A400 		str	r0, [r3, #164]
 118 0110 FFF7FEFF 		bl	ADCGLOB001_StartUpCalibrationInit
 119 0114 10B9     		cbnz	r0, .L1
 120 0116 E368     		ldr	r3, [r4, #12]
 121 0118 0120     		movs	r0, #1
 122 011a 1870     		strb	r0, [r3, #0]
 123              	.L1:
 124 011c 38BD     		pop	{r3, r4, r5, pc}
 125              	.L7:
 126 011e 00BF     		.align	2
 127              	.L6:
 128 0120 0000FF0F 		.word	268369920
 130              		.section	.text.ADCGROUP001_Init,"ax",%progbits
 131              		.align	1
 132              		.global	ADCGROUP001_Init
 133              		.thumb
 134              		.thumb_func
 136              	ADCGROUP001_Init:
 137              		@ args = 0, pretend = 0, frame = 0
 138              		@ frame_needed = 0, uses_anonymous_args = 0
 139 0000 08B5     		push	{r3, lr}
 140 0002 FFF7FEFF 		bl	ADCGLOB001_Init
 141 0006 0248     		ldr	r0, .L9
 142 0008 BDE80840 		pop	{r3, lr}
 143 000c FFF7FEBF 		b	ADCGROUP001_lInit
 144              	.L10:
 145              		.align	2
 146              	.L9:
 147 0010 00000000 		.word	ADCGROUP001_Handle0
 149              		.section	.text.ADCGROUP001_Deinit,"ax",%progbits
 150              		.align	1
 151              		.global	ADCGROUP001_Deinit
 152              		.thumb
 153              		.thumb_func
 155              	ADCGROUP001_Deinit:
 156              		@ args = 0, pretend = 0, frame = 0
 157              		@ frame_needed = 0, uses_anonymous_args = 0
 158              		@ link register save eliminated.
 159 0000 C268     		ldr	r2, [r0, #12]
 160 0002 0169     		ldr	r1, [r0, #16]
 161 0004 4369     		ldr	r3, [r0, #20]
 162 0006 1078     		ldrb	r0, [r2, #0]	@ zero_extendqisi2
 163 0008 0128     		cmp	r0, #1
 164 000a 14D1     		bne	.L13
 165 000c D1F88000 		ldr	r0, [r1, #128]
 166 0010 20F48030 		bic	r0, r0, #65536
 167 0014 C1F88000 		str	r0, [r1, #128]
 168 0018 0020     		movs	r0, #0
 169 001a 4FF00041 		mov	r1, #-2147483648
 170 001e C3F88000 		str	r0, [r3, #128]
 171 0022 C3F8B800 		str	r0, [r3, #184]
 172 0026 C3F8F011 		str	r1, [r3, #496]
 173 002a C3F8A000 		str	r0, [r3, #160]
 174 002e C3F8A400 		str	r0, [r3, #164]
 175 0032 1070     		strb	r0, [r2, #0]
 176 0034 7047     		bx	lr
 177              	.L13:
 178 0036 0120     		movs	r0, #1
 179 0038 7047     		bx	lr
 181              		.section	.text.ADCGROUP001_SetGroupBound0,"ax",%progbits
 182              		.align	1
 183              		.global	ADCGROUP001_SetGroupBound0
 184              		.thumb
 185              		.thumb_func
 187              	ADCGROUP001_SetGroupBound0:
 188              		@ args = 0, pretend = 0, frame = 0
 189              		@ frame_needed = 0, uses_anonymous_args = 0
 190              		@ link register save eliminated.
 191 0000 C368     		ldr	r3, [r0, #12]
 192 0002 4269     		ldr	r2, [r0, #20]
 193 0004 1878     		ldrb	r0, [r3, #0]	@ zero_extendqisi2
 194 0006 0128     		cmp	r0, #1
 195 0008 0FD1     		bne	.L16
 196 000a B1F5805F 		cmp	r1, #4096
 197 000e 0ED8     		bhi	.L17
 198 0010 D2F8B830 		ldr	r3, [r2, #184]
 199 0014 23F47F60 		bic	r0, r3, #4080
 200 0018 20F00F03 		bic	r3, r0, #15
 201 001c 0905     		lsls	r1, r1, #20
 202 001e 43EA1151 		orr	r1, r3, r1, lsr #20
 203 0022 C2F8B810 		str	r1, [r2, #184]
 204 0026 0020     		movs	r0, #0
 205 0028 7047     		bx	lr
 206              	.L16:
 207 002a 0120     		movs	r0, #1
 208 002c 7047     		bx	lr
 209              	.L17:
 210 002e 0220     		movs	r0, #2
 211 0030 7047     		bx	lr
 213              		.section	.text.ADCGROUP001_SetGroupBound1,"ax",%progbits
 214              		.align	1
 215              		.global	ADCGROUP001_SetGroupBound1
 216              		.thumb
 217              		.thumb_func
 219              	ADCGROUP001_SetGroupBound1:
 220              		@ args = 0, pretend = 0, frame = 0
 221              		@ frame_needed = 0, uses_anonymous_args = 0
 222              		@ link register save eliminated.
 223 0000 C368     		ldr	r3, [r0, #12]
 224 0002 4269     		ldr	r2, [r0, #20]
 225 0004 1878     		ldrb	r0, [r3, #0]	@ zero_extendqisi2
 226 0006 0128     		cmp	r0, #1
 227 0008 10D1     		bne	.L20
 228 000a B1F5805F 		cmp	r1, #4096
 229 000e 0FD8     		bhi	.L21
 230 0010 D2F8B800 		ldr	r0, [r2, #184]
 231 0014 074B     		ldr	r3, .L22
 232 0016 0904     		lsls	r1, r1, #16
 233 0018 20F07F60 		bic	r0, r0, #267386880
 234 001c 0B40     		ands	r3, r3, r1
 235 001e 20F47021 		bic	r1, r0, #983040
 236 0022 0B43     		orrs	r3, r3, r1
 237 0024 C2F8B830 		str	r3, [r2, #184]
 238 0028 0020     		movs	r0, #0
 239 002a 7047     		bx	lr
 240              	.L20:
 241 002c 0120     		movs	r0, #1
 242 002e 7047     		bx	lr
 243              	.L21:
 244 0030 0220     		movs	r0, #2
 245 0032 7047     		bx	lr
 246              	.L23:
 247              		.align	2
 248              	.L22:
 249 0034 0000FF0F 		.word	268369920
 251              		.section	.text.ADCGROUP001_ActiveGroupServiceRequestNode,"ax",%progbits
 252              		.align	1
 253              		.global	ADCGROUP001_ActiveGroupServiceRequestNode
 254              		.thumb
 255              		.thumb_func
 257              	ADCGROUP001_ActiveGroupServiceRequestNode:
 258              		@ args = 0, pretend = 0, frame = 0
 259              		@ frame_needed = 0, uses_anonymous_args = 0
 260              		@ link register save eliminated.
 261 0000 C268     		ldr	r2, [r0, #12]
 262 0002 4369     		ldr	r3, [r0, #20]
 263 0004 1278     		ldrb	r2, [r2, #0]	@ zero_extendqisi2
 264 0006 012A     		cmp	r2, #1
 265 0008 10D1     		bne	.L26
 266 000a 0329     		cmp	r1, #3
 267 000c 10D8     		bhi	.L27
 268 000e D3F8C801 		ldr	r0, [r3, #456]
 269 0012 02FA01F1 		lsl	r1, r2, r1
 270 0016 20EA0102 		bic	r2, r0, r1
 271 001a C3F8C821 		str	r2, [r3, #456]
 272 001e D3F8C801 		ldr	r0, [r3, #456]
 273 0022 0143     		orrs	r1, r1, r0
 274 0024 C3F8C811 		str	r1, [r3, #456]
 275 0028 0020     		movs	r0, #0
 276 002a 7047     		bx	lr
 277              	.L26:
 278 002c 0120     		movs	r0, #1
 279 002e 7047     		bx	lr
 280              	.L27:
 281 0030 0220     		movs	r0, #2
 282 0032 7047     		bx	lr
 284              		.section	.text.ADCGROUP001_DeActiveGroupServiceRequestNode,"ax",%progbits
 285              		.align	1
 286              		.global	ADCGROUP001_DeActiveGroupServiceRequestNode
 287              		.thumb
 288              		.thumb_func
 290              	ADCGROUP001_DeActiveGroupServiceRequestNode:
 291              		@ args = 0, pretend = 0, frame = 0
 292              		@ frame_needed = 0, uses_anonymous_args = 0
 293              		@ link register save eliminated.
 294 0000 C268     		ldr	r2, [r0, #12]
 295 0002 4369     		ldr	r3, [r0, #20]
 296 0004 1278     		ldrb	r2, [r2, #0]	@ zero_extendqisi2
 297 0006 012A     		cmp	r2, #1
 298 0008 0BD1     		bne	.L30
 299 000a 0329     		cmp	r1, #3
 300 000c 0BD8     		bhi	.L31
 301 000e D3F8C801 		ldr	r0, [r3, #456]
 302 0012 02FA01F2 		lsl	r2, r2, r1
 303 0016 20EA0201 		bic	r1, r0, r2
 304 001a C3F8C811 		str	r1, [r3, #456]
 305 001e 0020     		movs	r0, #0
 306 0020 7047     		bx	lr
 307              	.L30:
 308 0022 0120     		movs	r0, #1
 309 0024 7047     		bx	lr
 310              	.L31:
 311 0026 0220     		movs	r0, #2
 312 0028 7047     		bx	lr
 314              		.section	.text.ADCGROUP001_ActiveSharedServiceRequestNode,"ax",%progbits
 315              		.align	1
 316              		.global	ADCGROUP001_ActiveSharedServiceRequestNode
 317              		.thumb
 318              		.thumb_func
 320              	ADCGROUP001_ActiveSharedServiceRequestNode:
 321              		@ args = 0, pretend = 0, frame = 0
 322              		@ frame_needed = 0, uses_anonymous_args = 0
 323              		@ link register save eliminated.
 324 0000 C268     		ldr	r2, [r0, #12]
 325 0002 4369     		ldr	r3, [r0, #20]
 326 0004 1278     		ldrb	r2, [r2, #0]	@ zero_extendqisi2
 327 0006 012A     		cmp	r2, #1
 328 0008 11D1     		bne	.L34
 329 000a 0329     		cmp	r1, #3
 330 000c 11D8     		bhi	.L35
 331 000e D3F8C801 		ldr	r0, [r3, #456]
 332 0012 0831     		adds	r1, r1, #8
 333 0014 02FA01F1 		lsl	r1, r2, r1
 334 0018 20EA0102 		bic	r2, r0, r1
 335 001c C3F8C821 		str	r2, [r3, #456]
 336 0020 D3F8C801 		ldr	r0, [r3, #456]
 337 0024 0143     		orrs	r1, r1, r0
 338 0026 C3F8C811 		str	r1, [r3, #456]
 339 002a 0020     		movs	r0, #0
 340 002c 7047     		bx	lr
 341              	.L34:
 342 002e 0120     		movs	r0, #1
 343 0030 7047     		bx	lr
 344              	.L35:
 345 0032 0220     		movs	r0, #2
 346 0034 7047     		bx	lr
 348              		.section	.text.ADCGROUP001_DeActiveSharedServiceRequestNode,"ax",%progbits
 349              		.align	1
 350              		.global	ADCGROUP001_DeActiveSharedServiceRequestNode
 351              		.thumb
 352              		.thumb_func
 354              	ADCGROUP001_DeActiveSharedServiceRequestNode:
 355              		@ args = 0, pretend = 0, frame = 0
 356              		@ frame_needed = 0, uses_anonymous_args = 0
 357              		@ link register save eliminated.
 358 0000 C268     		ldr	r2, [r0, #12]
 359 0002 4369     		ldr	r3, [r0, #20]
 360 0004 1278     		ldrb	r2, [r2, #0]	@ zero_extendqisi2
 361 0006 012A     		cmp	r2, #1
 362 0008 0CD1     		bne	.L38
 363 000a 0329     		cmp	r1, #3
 364 000c 0CD8     		bhi	.L39
 365 000e D3F8C801 		ldr	r0, [r3, #456]
 366 0012 0831     		adds	r1, r1, #8
 367 0014 02FA01F2 		lsl	r2, r2, r1
 368 0018 20EA0201 		bic	r1, r0, r2
 369 001c C3F8C811 		str	r1, [r3, #456]
 370 0020 0020     		movs	r0, #0
 371 0022 7047     		bx	lr
 372              	.L38:
 373 0024 0120     		movs	r0, #1
 374 0026 7047     		bx	lr
 375              	.L39:
 376 0028 0220     		movs	r0, #2
 377 002a 7047     		bx	lr
 379              		.section	.text.ADCGROUP001_EMUXStartSelection,"ax",%progbits
 380              		.align	1
 381              		.global	ADCGROUP001_EMUXStartSelection
 382              		.thumb
 383              		.thumb_func
 385              	ADCGROUP001_EMUXStartSelection:
 386              		@ args = 0, pretend = 0, frame = 0
 387              		@ frame_needed = 0, uses_anonymous_args = 0
 388              		@ link register save eliminated.
 389 0000 C268     		ldr	r2, [r0, #12]
 390 0002 4369     		ldr	r3, [r0, #20]
 391 0004 1078     		ldrb	r0, [r2, #0]	@ zero_extendqisi2
 392 0006 0128     		cmp	r0, #1
 393 0008 0CD1     		bne	.L42
 394 000a 0829     		cmp	r1, #8
 395 000c 0CD8     		bhi	.L43
 396 000e D3F8F021 		ldr	r2, [r3, #496]
 397 0012 01F00701 		and	r1, r1, #7
 398 0016 22F00700 		bic	r0, r2, #7
 399 001a 0143     		orrs	r1, r1, r0
 400 001c C3F8F011 		str	r1, [r3, #496]
 401 0020 0020     		movs	r0, #0
 402 0022 7047     		bx	lr
 403              	.L42:
 404 0024 0120     		movs	r0, #1
 405 0026 7047     		bx	lr
 406              	.L43:
 407 0028 0220     		movs	r0, #2
 408 002a 7047     		bx	lr
 410              		.section	.text.ADCGROUP001_GetEMUXStartSelection,"ax",%progbits
 411              		.align	1
 412              		.global	ADCGROUP001_GetEMUXStartSelection
 413              		.thumb
 414              		.thumb_func
 416              	ADCGROUP001_GetEMUXStartSelection:
 417              		@ args = 0, pretend = 0, frame = 0
 418              		@ frame_needed = 0, uses_anonymous_args = 0
 419              		@ link register save eliminated.
 420 0000 C268     		ldr	r2, [r0, #12]
 421 0002 4369     		ldr	r3, [r0, #20]
 422 0004 1078     		ldrb	r0, [r2, #0]	@ zero_extendqisi2
 423 0006 0128     		cmp	r0, #1
 424 0008 07D1     		bne	.L46
 425 000a 41B1     		cbz	r1, .L47
 426 000c D3F8F031 		ldr	r3, [r3, #496]
 427 0010 03F00702 		and	r2, r3, #7
 428 0014 0A70     		strb	r2, [r1, #0]
 429 0016 0020     		movs	r0, #0
 430 0018 7047     		bx	lr
 431              	.L46:
 432 001a 0120     		movs	r0, #1
 433 001c 7047     		bx	lr
 434              	.L47:
 435 001e 0220     		movs	r0, #2
 436 0020 7047     		bx	lr
 438              		.section	.text.ADCGROUP001_SetEMUXChannelSelect,"ax",%progbits
 439              		.align	1
 440              		.global	ADCGROUP001_SetEMUXChannelSelect
 441              		.thumb
 442              		.thumb_func
 444              	ADCGROUP001_SetEMUXChannelSelect:
 445              		@ args = 0, pretend = 0, frame = 0
 446              		@ frame_needed = 0, uses_anonymous_args = 0
 447              		@ link register save eliminated.
 448 0000 C268     		ldr	r2, [r0, #12]
 449 0002 4369     		ldr	r3, [r0, #20]
 450 0004 1078     		ldrb	r0, [r2, #0]	@ zero_extendqisi2
 451 0006 0128     		cmp	r0, #1
 452 0008 0DD1     		bne	.L50
 453 000a 2029     		cmp	r1, #32
 454 000c 0DD8     		bhi	.L51
 455 000e D3F8F021 		ldr	r2, [r3, #496]
 456 0012 0904     		lsls	r1, r1, #16
 457 0014 01F4F810 		and	r0, r1, #2031616
 458 0018 22F4F812 		bic	r2, r2, #2031616
 459 001c 1043     		orrs	r0, r0, r2
 460 001e C3F8F001 		str	r0, [r3, #496]
 461 0022 0020     		movs	r0, #0
 462 0024 7047     		bx	lr
 463              	.L50:
 464 0026 0120     		movs	r0, #1
 465 0028 7047     		bx	lr
 466              	.L51:
 467 002a 0220     		movs	r0, #2
 468 002c 7047     		bx	lr
 470              		.section	.text.ADCGROUP001_SetEMUXMode,"ax",%progbits
 471              		.align	1
 472              		.global	ADCGROUP001_SetEMUXMode
 473              		.thumb
 474              		.thumb_func
 476              	ADCGROUP001_SetEMUXMode:
 477              		@ args = 0, pretend = 0, frame = 0
 478              		@ frame_needed = 0, uses_anonymous_args = 0
 479              		@ link register save eliminated.
 480 0000 C268     		ldr	r2, [r0, #12]
 481 0002 4369     		ldr	r3, [r0, #20]
 482 0004 1078     		ldrb	r0, [r2, #0]	@ zero_extendqisi2
 483 0006 0128     		cmp	r0, #1
 484 0008 0FD1     		bne	.L54
 485 000a 0329     		cmp	r1, #3
 486 000c 0FD8     		bhi	.L55
 487 000e D3F8F021 		ldr	r2, [r3, #496]
 488 0012 8906     		lsls	r1, r1, #26
 489 0014 22F04060 		bic	r0, r2, #201326592
 490 0018 40F00042 		orr	r2, r0, #-2147483648
 491 001c 01F04060 		and	r0, r1, #201326592
 492 0020 0243     		orrs	r2, r2, r0
 493 0022 C3F8F021 		str	r2, [r3, #496]
 494 0026 0020     		movs	r0, #0
 495 0028 7047     		bx	lr
 496              	.L54:
 497 002a 0120     		movs	r0, #1
 498 002c 7047     		bx	lr
 499              	.L55:
 500 002e 0220     		movs	r0, #2
 501 0030 7047     		bx	lr
 503              		.section	.text.ADCGROUP001_SetEMUXCodeScheme,"ax",%progbits
 504              		.align	1
 505              		.global	ADCGROUP001_SetEMUXCodeScheme
 506              		.thumb
 507              		.thumb_func
 509              	ADCGROUP001_SetEMUXCodeScheme:
 510              		@ args = 0, pretend = 0, frame = 0
 511              		@ frame_needed = 0, uses_anonymous_args = 0
 512              		@ link register save eliminated.
 513 0000 C268     		ldr	r2, [r0, #12]
 514 0002 4369     		ldr	r3, [r0, #20]
 515 0004 1078     		ldrb	r0, [r2, #0]	@ zero_extendqisi2
 516 0006 0128     		cmp	r0, #1
 517 0008 0FD1     		bne	.L58
 518 000a 0129     		cmp	r1, #1
 519 000c 0FD8     		bhi	.L59
 520 000e D3F8F021 		ldr	r2, [r3, #496]
 521 0012 0907     		lsls	r1, r1, #28
 522 0014 22F08050 		bic	r0, r2, #268435456
 523 0018 40F00042 		orr	r2, r0, #-2147483648
 524 001c 01F08050 		and	r0, r1, #268435456
 525 0020 0243     		orrs	r2, r2, r0
 526 0022 C3F8F021 		str	r2, [r3, #496]
 527 0026 0020     		movs	r0, #0
 528 0028 7047     		bx	lr
 529              	.L58:
 530 002a 0120     		movs	r0, #1
 531 002c 7047     		bx	lr
 532              	.L59:
 533 002e 0220     		movs	r0, #2
 534 0030 7047     		bx	lr
 536              		.section	.text.ADCGROUP001_SetGroupClass0SampleTime,"ax",%progbits
 537              		.align	1
 538              		.global	ADCGROUP001_SetGroupClass0SampleTime
 539              		.thumb
 540              		.thumb_func
 542              	ADCGROUP001_SetGroupClass0SampleTime:
 543              		@ args = 0, pretend = 0, frame = 0
 544              		@ frame_needed = 0, uses_anonymous_args = 0
 545              		@ link register save eliminated.
 546 0000 C268     		ldr	r2, [r0, #12]
 547 0002 4369     		ldr	r3, [r0, #20]
 548 0004 1078     		ldrb	r0, [r2, #0]	@ zero_extendqisi2
 549 0006 0128     		cmp	r0, #1
 550 0008 0AD1     		bne	.L62
 551 000a 1F29     		cmp	r1, #31
 552 000c 0AD8     		bhi	.L63
 553 000e D3F8A020 		ldr	r2, [r3, #160]
 554 0012 22F01F00 		bic	r0, r2, #31
 555 0016 0143     		orrs	r1, r1, r0
 556 0018 C3F8A010 		str	r1, [r3, #160]
 557 001c 0020     		movs	r0, #0
 558 001e 7047     		bx	lr
 559              	.L62:
 560 0020 0120     		movs	r0, #1
 561 0022 7047     		bx	lr
 562              	.L63:
 563 0024 0220     		movs	r0, #2
 564 0026 7047     		bx	lr
 566              		.section	.text.ADCGROUP001_SetGroupClass1SampleTime,"ax",%progbits
 567              		.align	1
 568              		.global	ADCGROUP001_SetGroupClass1SampleTime
 569              		.thumb
 570              		.thumb_func
 572              	ADCGROUP001_SetGroupClass1SampleTime:
 573              		@ args = 0, pretend = 0, frame = 0
 574              		@ frame_needed = 0, uses_anonymous_args = 0
 575              		@ link register save eliminated.
 576 0000 C268     		ldr	r2, [r0, #12]
 577 0002 4369     		ldr	r3, [r0, #20]
 578 0004 1078     		ldrb	r0, [r2, #0]	@ zero_extendqisi2
 579 0006 0128     		cmp	r0, #1
 580 0008 0AD1     		bne	.L66
 581 000a 1F29     		cmp	r1, #31
 582 000c 0AD8     		bhi	.L67
 583 000e D3F8A420 		ldr	r2, [r3, #164]
 584 0012 22F01F00 		bic	r0, r2, #31
 585 0016 0143     		orrs	r1, r1, r0
 586 0018 C3F8A410 		str	r1, [r3, #164]
 587 001c 0020     		movs	r0, #0
 588 001e 7047     		bx	lr
 589              	.L66:
 590 0020 0120     		movs	r0, #1
 591 0022 7047     		bx	lr
 592              	.L67:
 593 0024 0220     		movs	r0, #2
 594 0026 7047     		bx	lr
 596              		.section	.text.ADCGROUP001_SetGroupClass0EmuxSampleTime,"ax",%progbits
 597              		.align	1
 598              		.global	ADCGROUP001_SetGroupClass0EmuxSampleTime
 599              		.thumb
 600              		.thumb_func
 602              	ADCGROUP001_SetGroupClass0EmuxSampleTime:
 603              		@ args = 0, pretend = 0, frame = 0
 604              		@ frame_needed = 0, uses_anonymous_args = 0
 605              		@ link register save eliminated.
 606 0000 C268     		ldr	r2, [r0, #12]
 607 0002 4369     		ldr	r3, [r0, #20]
 608 0004 1078     		ldrb	r0, [r2, #0]	@ zero_extendqisi2
 609 0006 0128     		cmp	r0, #1
 610 0008 0DD1     		bne	.L70
 611 000a 1F29     		cmp	r1, #31
 612 000c 0DD8     		bhi	.L71
 613 000e D3F8A020 		ldr	r2, [r3, #160]
 614 0012 0904     		lsls	r1, r1, #16
 615 0014 01F4F810 		and	r0, r1, #2031616
 616 0018 22F4F812 		bic	r2, r2, #2031616
 617 001c 1043     		orrs	r0, r0, r2
 618 001e C3F8A000 		str	r0, [r3, #160]
 619 0022 0020     		movs	r0, #0
 620 0024 7047     		bx	lr
 621              	.L70:
 622 0026 0120     		movs	r0, #1
 623 0028 7047     		bx	lr
 624              	.L71:
 625 002a 0220     		movs	r0, #2
 626 002c 7047     		bx	lr
 628              		.section	.text.ADCGROUP001_SetGroupClass1EmuxSampleTime,"ax",%progbits
 629              		.align	1
 630              		.global	ADCGROUP001_SetGroupClass1EmuxSampleTime
 631              		.thumb
 632              		.thumb_func
 634              	ADCGROUP001_SetGroupClass1EmuxSampleTime:
 635              		@ args = 0, pretend = 0, frame = 0
 636              		@ frame_needed = 0, uses_anonymous_args = 0
 637              		@ link register save eliminated.
 638 0000 C268     		ldr	r2, [r0, #12]
 639 0002 4369     		ldr	r3, [r0, #20]
 640 0004 1078     		ldrb	r0, [r2, #0]	@ zero_extendqisi2
 641 0006 0128     		cmp	r0, #1
 642 0008 0DD1     		bne	.L74
 643 000a 1F29     		cmp	r1, #31
 644 000c 0DD8     		bhi	.L75
 645 000e D3F8A420 		ldr	r2, [r3, #164]
 646 0012 0904     		lsls	r1, r1, #16
 647 0014 01F4F810 		and	r0, r1, #2031616
 648 0018 22F4F812 		bic	r2, r2, #2031616
 649 001c 1043     		orrs	r0, r0, r2
 650 001e C3F8A400 		str	r0, [r3, #164]
 651 0022 0020     		movs	r0, #0
 652 0024 7047     		bx	lr
 653              	.L74:
 654 0026 0120     		movs	r0, #1
 655 0028 7047     		bx	lr
 656              	.L75:
 657 002a 0220     		movs	r0, #2
 658 002c 7047     		bx	lr
 660              		.section	.text.ADCGROUP001_SetGroupClass0ConvMode,"ax",%progbits
 661              		.align	1
 662              		.global	ADCGROUP001_SetGroupClass0ConvMode
 663              		.thumb
 664              		.thumb_func
 666              	ADCGROUP001_SetGroupClass0ConvMode:
 667              		@ args = 0, pretend = 0, frame = 0
 668              		@ frame_needed = 0, uses_anonymous_args = 0
 669              		@ link register save eliminated.
 670 0000 C268     		ldr	r2, [r0, #12]
 671 0002 4369     		ldr	r3, [r0, #20]
 672 0004 1078     		ldrb	r0, [r2, #0]	@ zero_extendqisi2
 673 0006 0128     		cmp	r0, #1
 674 0008 0FD1     		bne	.L79
 675 000a 0229     		cmp	r1, #2
 676 000c 01D9     		bls	.L78
 677 000e 0529     		cmp	r1, #5
 678 0010 0DD1     		bne	.L80
 679              	.L78:
 680 0012 D3F8A020 		ldr	r2, [r3, #160]
 681 0016 0902     		lsls	r1, r1, #8
 682 0018 01F4E060 		and	r0, r1, #1792
 683 001c 22F4E062 		bic	r2, r2, #1792
 684 0020 1043     		orrs	r0, r0, r2
 685 0022 C3F8A000 		str	r0, [r3, #160]
 686 0026 0020     		movs	r0, #0
 687 0028 7047     		bx	lr
 688              	.L79:
 689 002a 0120     		movs	r0, #1
 690 002c 7047     		bx	lr
 691              	.L80:
 692 002e 0220     		movs	r0, #2
 693 0030 7047     		bx	lr
 695              		.section	.text.ADCGROUP001_SetGroupClass1ConvMode,"ax",%progbits
 696              		.align	1
 697              		.global	ADCGROUP001_SetGroupClass1ConvMode
 698              		.thumb
 699              		.thumb_func
 701              	ADCGROUP001_SetGroupClass1ConvMode:
 702              		@ args = 0, pretend = 0, frame = 0
 703              		@ frame_needed = 0, uses_anonymous_args = 0
 704              		@ link register save eliminated.
 705 0000 C268     		ldr	r2, [r0, #12]
 706 0002 4369     		ldr	r3, [r0, #20]
 707 0004 1078     		ldrb	r0, [r2, #0]	@ zero_extendqisi2
 708 0006 0128     		cmp	r0, #1
 709 0008 0FD1     		bne	.L84
 710 000a 0229     		cmp	r1, #2
 711 000c 01D9     		bls	.L83
 712 000e 0529     		cmp	r1, #5
 713 0010 0DD1     		bne	.L85
 714              	.L83:
 715 0012 D3F8A420 		ldr	r2, [r3, #164]
 716 0016 0902     		lsls	r1, r1, #8
 717 0018 01F4E060 		and	r0, r1, #1792
 718 001c 22F4E062 		bic	r2, r2, #1792
 719 0020 1043     		orrs	r0, r0, r2
 720 0022 C3F8A400 		str	r0, [r3, #164]
 721 0026 0020     		movs	r0, #0
 722 0028 7047     		bx	lr
 723              	.L84:
 724 002a 0120     		movs	r0, #1
 725 002c 7047     		bx	lr
 726              	.L85:
 727 002e 0220     		movs	r0, #2
 728 0030 7047     		bx	lr
 730              		.section	.text.ADCGROUP001_SetGroupClass0EmuxConvMode,"ax",%progbits
 731              		.align	1
 732              		.global	ADCGROUP001_SetGroupClass0EmuxConvMode
 733              		.thumb
 734              		.thumb_func
 736              	ADCGROUP001_SetGroupClass0EmuxConvMode:
 737              		@ args = 0, pretend = 0, frame = 0
 738              		@ frame_needed = 0, uses_anonymous_args = 0
 739              		@ link register save eliminated.
 740 0000 C268     		ldr	r2, [r0, #12]
 741 0002 4369     		ldr	r3, [r0, #20]
 742 0004 1078     		ldrb	r0, [r2, #0]	@ zero_extendqisi2
 743 0006 0128     		cmp	r0, #1
 744 0008 0FD1     		bne	.L89
 745 000a 0229     		cmp	r1, #2
 746 000c 01D9     		bls	.L88
 747 000e 0529     		cmp	r1, #5
 748 0010 0DD1     		bne	.L90
 749              	.L88:
 750 0012 D3F8A020 		ldr	r2, [r3, #160]
 751 0016 0906     		lsls	r1, r1, #24
 752 0018 01F0E060 		and	r0, r1, #117440512
 753 001c 22F0E062 		bic	r2, r2, #117440512
 754 0020 1043     		orrs	r0, r0, r2
 755 0022 C3F8A000 		str	r0, [r3, #160]
 756 0026 0020     		movs	r0, #0
 757 0028 7047     		bx	lr
 758              	.L89:
 759 002a 0120     		movs	r0, #1
 760 002c 7047     		bx	lr
 761              	.L90:
 762 002e 0220     		movs	r0, #2
 763 0030 7047     		bx	lr
 765              		.section	.text.ADCGROUP001_SetGroupClass1EmuxConvMode,"ax",%progbits
 766              		.align	1
 767              		.global	ADCGROUP001_SetGroupClass1EmuxConvMode
 768              		.thumb
 769              		.thumb_func
 771              	ADCGROUP001_SetGroupClass1EmuxConvMode:
 772              		@ args = 0, pretend = 0, frame = 0
 773              		@ frame_needed = 0, uses_anonymous_args = 0
 774              		@ link register save eliminated.
 775 0000 C268     		ldr	r2, [r0, #12]
 776 0002 4369     		ldr	r3, [r0, #20]
 777 0004 1078     		ldrb	r0, [r2, #0]	@ zero_extendqisi2
 778 0006 0128     		cmp	r0, #1
 779 0008 0FD1     		bne	.L94
 780 000a 0229     		cmp	r1, #2
 781 000c 01D9     		bls	.L93
 782 000e 0529     		cmp	r1, #5
 783 0010 0DD1     		bne	.L95
 784              	.L93:
 785 0012 D3F8A420 		ldr	r2, [r3, #164]
 786 0016 0906     		lsls	r1, r1, #24
 787 0018 01F0E060 		and	r0, r1, #117440512
 788 001c 22F0E062 		bic	r2, r2, #117440512
 789 0020 1043     		orrs	r0, r0, r2
 790 0022 C3F8A400 		str	r0, [r3, #164]
 791 0026 0020     		movs	r0, #0
 792 0028 7047     		bx	lr
 793              	.L94:
 794 002a 0120     		movs	r0, #1
 795 002c 7047     		bx	lr
 796              	.L95:
 797 002e 0220     		movs	r0, #2
 798 0030 7047     		bx	lr
 800              		.section	.text.ADCGROUP001_SetEMUXSampleTimeControl,"ax",%progbits
 801              		.align	1
 802              		.global	ADCGROUP001_SetEMUXSampleTimeControl
 803              		.thumb
 804              		.thumb_func
 806              	ADCGROUP001_SetEMUXSampleTimeControl:
 807              		@ args = 0, pretend = 0, frame = 0
 808              		@ frame_needed = 0, uses_anonymous_args = 0
 809              		@ link register save eliminated.
 810 0000 C268     		ldr	r2, [r0, #12]
 811 0002 4369     		ldr	r3, [r0, #20]
 812 0004 1078     		ldrb	r0, [r2, #0]	@ zero_extendqisi2
 813 0006 0128     		cmp	r0, #1
 814 0008 0FD1     		bne	.L98
 815 000a 0129     		cmp	r1, #1
 816 000c 0FD8     		bhi	.L99
 817 000e D3F8F021 		ldr	r2, [r3, #496]
 818 0012 4907     		lsls	r1, r1, #29
 819 0014 22F00050 		bic	r0, r2, #536870912
 820 0018 40F00042 		orr	r2, r0, #-2147483648
 821 001c 01F00050 		and	r0, r1, #536870912
 822 0020 0243     		orrs	r2, r2, r0
 823 0022 C3F8F021 		str	r2, [r3, #496]
 824 0026 0020     		movs	r0, #0
 825 0028 7047     		bx	lr
 826              	.L98:
 827 002a 0120     		movs	r0, #1
 828 002c 7047     		bx	lr
 829              	.L99:
 830 002e 0220     		movs	r0, #2
 831 0030 7047     		bx	lr
 833              		.ident	"GCC: (GNU Tools for ARM Embedded Processors) 4.7.4 20130913 (release) [ARM/embedded-4_7-br