   1              		.syntax unified
   2              		.cpu cortex-m4
   3              		.eabi_attribute 27, 3
   4              		.fpu fpv4-sp-d16
   5              		.eabi_attribute 20, 1
   6              		.eabi_attribute 21, 1
   7              		.eabi_attribute 23, 3
   8              		.eabi_attribute 24, 1
   9              		.eabi_attribute 25, 1
  10              		.eabi_attribute 26, 1
  11              		.eabi_attribute 30, 6
  12              		.eabi_attribute 34, 1
  13              		.eabi_attribute 18, 4
  14              		.thumb
  15              		.file	"Main.c"
  16              		.text
  17              	.Ltext0:
  18              		.cfi_sections	.debug_frame
  19              		.section	.rodata
  20              		.align	2
  21              	.LC0:
  22 0000 2F4C4544 		.ascii	"/LED.htm\000"
  22      2E68746D 
  22      00
  23              		.section	.text.CGI_led_handler,"ax",%progbits
  24              		.align	2
  25              		.global	CGI_led_handler
  26              		.thumb
  27              		.thumb_func
  29              	CGI_led_handler:
  30              	.LFB112:
  31              		.file 1 "../Main.c"
   1:../Main.c     **** /*
   2:../Main.c     ****  * Main.c
   3:../Main.c     ****  *
   4:../Main.c     ****  *  Created on: Mar 18, 2013
   5:../Main.c     ****  *      Author: toochang
   6:../Main.c     ****  */
   7:../Main.c     **** 
   8:../Main.c     **** 
   9:../Main.c     **** 
  10:../Main.c     **** 
  11:../Main.c     **** 
  12:../Main.c     **** /** Inclusion of header file */
  13:../Main.c     **** #include <DAVE3.h>
  14:../Main.c     **** #include "netconf.h"
  15:../Main.c     **** #include "lwip/err.h"
  16:../Main.c     **** #include "lwip/pbuf.h"
  17:../Main.c     **** #include "lwip/ip_addr.h"
  18:../Main.c     **** #include "lwip/tcp.h"
  19:../Main.c     **** #include "lwip/netif.h"
  20:../Main.c     **** #include "./Dave/Generated/src/WEBSERVER001/HTTPServer/httpd.h"
  21:../Main.c     **** 
  22:../Main.c     **** 
  23:../Main.c     **** 
  24:../Main.c     **** /* Initialisation of functions to be used with CGi*/
  25:../Main.c     **** //  CGI handler to switch LED status
  26:../Main.c     **** const char *CGI_led_handler(int iIndex, int iNumParams, char *pcParam[], char *pcValue[])
  27:../Main.c     **** {
  32              		.loc 1 27 0
  33              		.cfi_startproc
  34              		@ args = 0, pretend = 0, frame = 24
  35              		@ frame_needed = 1, uses_anonymous_args = 0
  36              		@ link register save eliminated.
  37 0000 80B4     		push	{r7}
  38              	.LCFI0:
  39              		.cfi_def_cfa_offset 4
  40              		.cfi_offset 7, -4
  41 0002 87B0     		sub	sp, sp, #28
  42              	.LCFI1:
  43              		.cfi_def_cfa_offset 32
  44 0004 00AF     		add	r7, sp, #0
  45              	.LCFI2:
  46              		.cfi_def_cfa_register 7
  47 0006 F860     		str	r0, [r7, #12]
  48 0008 B960     		str	r1, [r7, #8]
  49 000a 7A60     		str	r2, [r7, #4]
  50 000c 3B60     		str	r3, [r7, #0]
  28:../Main.c     **** 
  29:../Main.c     **** 	uint32_t i=0;
  51              		.loc 1 29 0
  52 000e 4FF00003 		mov	r3, #0
  53 0012 7B61     		str	r3, [r7, #20]
  30:../Main.c     **** 	
  31:../Main.c     **** 	return "/LED.htm";
  54              		.loc 1 31 0
  55 0014 40F20003 		movw	r3, #:lower16:.LC0
  56 0018 C0F20003 		movt	r3, #:upper16:.LC0
  32:../Main.c     **** }
  57              		.loc 1 32 0
  58 001c 1846     		mov	r0, r3
  59 001e 07F11C07 		add	r7, r7, #28
  60 0022 BD46     		mov	sp, r7
  61 0024 80BC     		pop	{r7}
  62 0026 7047     		bx	lr
  63              		.cfi_endproc
  64              	.LFE112:
  66              		.global	LED_CGI
  67              		.section	.rodata
  68 0009 000000   		.align	2
  69              	.LC1:
  70 000c 2F6C6564 		.ascii	"/leds.cgi\000"
  70      732E6367 
  70      6900
  71 0016 0000     		.align	2
  74              	LED_CGI:
  75 0018 0C000000 		.word	.LC1
  76 001c 00000000 		.word	CGI_led_handler
  77              		.comm	CGI_TAB,8,4
  78              		.section	.text.http_CGI_init,"ax",%progbits
  79              		.align	2
  80              		.global	http_CGI_init
  81              		.thumb
  82              		.thumb_func
  84              	http_CGI_init:
  85              	.LFB113:
  33:../Main.c     **** 
  34:../Main.c     **** 
  35:../Main.c     **** 
  36:../Main.c     **** /* Htm request for "/leds.cgi" will start led_handler */
  37:../Main.c     **** /*<form method="get" action="/leds.cgi">*/
  38:../Main.c     **** const tCGI LED_CGI={"/leds.cgi", CGI_led_handler};
  39:../Main.c     **** 
  40:../Main.c     **** /* Cgi call table, only one CGI used */
  41:../Main.c     **** tCGI CGI_TAB[1];
  42:../Main.c     **** 
  43:../Main.c     **** 
  44:../Main.c     **** 
  45:../Main.c     **** //Initialise cgi environment
  46:../Main.c     **** void http_CGI_init( void)
  47:../Main.c     **** {
  86              		.loc 1 47 0
  87              		.cfi_startproc
  88              		@ args = 0, pretend = 0, frame = 0
  89              		@ frame_needed = 1, uses_anonymous_args = 0
  90 0000 80B5     		push	{r7, lr}
  91              	.LCFI3:
  92              		.cfi_def_cfa_offset 8
  93              		.cfi_offset 7, -8
  94              		.cfi_offset 14, -4
  95 0002 00AF     		add	r7, sp, #0
  96              	.LCFI4:
  97              		.cfi_def_cfa_register 7
  48:../Main.c     **** 	//Initialised CGI structure for LED
  49:../Main.c     **** 	CGI_TAB[0] = LED_CGI;
  98              		.loc 1 49 0
  99 0004 40F20002 		movw	r2, #:lower16:CGI_TAB
 100 0008 C0F20002 		movt	r2, #:upper16:CGI_TAB
 101 000c 40F20003 		movw	r3, #:lower16:LED_CGI
 102 0010 C0F20003 		movt	r3, #:upper16:LED_CGI
 103 0014 93E80300 		ldmia	r3, {r0, r1}
 104 0018 82E80300 		stmia	r2, {r0, r1}
  50:../Main.c     **** 
  51:../Main.c     **** 	// Set CGI
  52:../Main.c     **** 	http_set_cgi_handlers(&CGI_TAB[0], 1);
 105              		.loc 1 52 0
 106 001c 40F20000 		movw	r0, #:lower16:CGI_TAB
 107 0020 C0F20000 		movt	r0, #:upper16:CGI_TAB
 108 0024 4FF00101 		mov	r1, #1
 109 0028 FFF7FEFF 		bl	http_set_cgi_handlers
  53:../Main.c     **** }
 110              		.loc 1 53 0
 111 002c 80BD     		pop	{r7, pc}
 112              		.cfi_endproc
 113              	.LFE113:
 115              		.global	__aeabi_i2d
 116              		.global	__aeabi_dmul
 117              		.global	__aeabi_d2uiz
 118 002e 00BF     		.section	.text.SSI_Temp_Handler,"ax",%progbits
 119              		.align	2
 120              		.global	SSI_Temp_Handler
 121              		.thumb
 122              		.thumb_func
 124              	SSI_Temp_Handler:
 125              	.LFB114:
  54:../Main.c     **** 
  55:../Main.c     **** u16_t SSI_Temp_Handler (int iIndex, char *pcInsert, int iInsertLen)
  56:../Main.c     **** {
 126              		.loc 1 56 0
 127              		.cfi_startproc
 128              		@ args = 0, pretend = 0, frame = 32
 129              		@ frame_needed = 1, uses_anonymous_args = 0
 130 0000 90B5     		push	{r4, r7, lr}
 131              	.LCFI5:
 132              		.cfi_def_cfa_offset 12
 133              		.cfi_offset 4, -12
 134              		.cfi_offset 7, -8
 135              		.cfi_offset 14, -4
 136 0002 89B0     		sub	sp, sp, #36
 137              	.LCFI6:
 138              		.cfi_def_cfa_offset 48
 139 0004 00AF     		add	r7, sp, #0
 140              	.LCFI7:
 141              		.cfi_def_cfa_register 7
 142 0006 F860     		str	r0, [r7, #12]
 143 0008 B960     		str	r1, [r7, #8]
 144 000a 7A60     		str	r2, [r7, #4]
  57:../Main.c     **** 
  58:../Main.c     ****     char Digit1=0, Digit2=0, Digit3=0, Digit4=0; 
 145              		.loc 1 58 0
 146 000c 4FF00003 		mov	r3, #0
 147 0010 FB77     		strb	r3, [r7, #31]
 148 0012 4FF00003 		mov	r3, #0
 149 0016 BB77     		strb	r3, [r7, #30]
 150 0018 4FF00003 		mov	r3, #0
 151 001c 7B77     		strb	r3, [r7, #29]
 152 001e 4FF00003 		mov	r3, #0
 153 0022 3B77     		strb	r3, [r7, #28]
  59:../Main.c     ****     uint16_t ADCVal = 0;        
 154              		.loc 1 59 0
 155 0024 4FF00003 		mov	r3, #0
 156 0028 FB82     		strh	r3, [r7, #22]	@ movhi
  60:../Main.c     **** 	status_t status;
  61:../Main.c     **** 
  62:../Main.c     **** 
  63:../Main.c     **** 	/* We have only one SSI handler iIndex = 0 */
  64:../Main.c     **** 
  65:../Main.c     **** 	if (iIndex ==0)
 157              		.loc 1 65 0
 158 002a FB68     		ldr	r3, [r7, #12]
 159 002c 002B     		cmp	r3, #0
 160 002e 40F0A480 		bne	.L5
  66:../Main.c     **** 	{  
  67:../Main.c     **** 
  68:../Main.c     **** 
  69:../Main.c     **** 	/* get ADC conversion value */
  70:../Main.c     **** 
  71:../Main.c     **** 	status = ADCCH001_GetResult(&ADCCH001_Handle0, &ADCVal);
 161              		.loc 1 71 0
 162 0032 07F11603 		add	r3, r7, #22
 163 0036 40F20000 		movw	r0, #:lower16:ADCCH001_Handle0
 164 003a C0F20000 		movt	r0, #:upper16:ADCCH001_Handle0
 165 003e 1946     		mov	r1, r3
 166 0040 FFF7FEFF 		bl	ADCCH001_GetResult
 167 0044 B861     		str	r0, [r7, #24]
  72:../Main.c     **** 		//ADCVal = AD_result;//ADC_GetConversionValue(ADC3);
  73:../Main.c     **** 		
  74:../Main.c     **** 		/* convert to Voltage,	step = 0.8 mV */
  75:../Main.c     **** 		ADCVal = (uint16_t)(ADCVal * 0.8);	
 168              		.loc 1 75 0
 169 0046 FB8A     		ldrh	r3, [r7, #22]
 170 0048 1846     		mov	r0, r3
 171 004a FFF7FEFF 		bl	__aeabi_i2d
 172 004e 0246     		mov	r2, r0
 173 0050 0B46     		mov	r3, r1
 174 0052 1046     		mov	r0, r2
 175 0054 1946     		mov	r1, r3
 176 0056 5AA3     		adr	r3, .L9
 177 0058 D3E90023 		ldrd	r2, [r3]
 178 005c FFF7FEFF 		bl	__aeabi_dmul
 179 0060 0246     		mov	r2, r0
 180 0062 0B46     		mov	r3, r1
 181 0064 1046     		mov	r0, r2
 182 0066 1946     		mov	r1, r3
 183 0068 FFF7FEFF 		bl	__aeabi_d2uiz
 184 006c 0346     		mov	r3, r0
 185 006e 9BB2     		uxth	r3, r3
 186 0070 FB82     		strh	r3, [r7, #22]	@ movhi
  76:../Main.c     **** 		
  77:../Main.c     **** 		/* get digits to display */
  78:../Main.c     **** 		
  79:../Main.c     **** 		Digit1= ADCVal/1000;
 187              		.loc 1 79 0
 188 0072 FA8A     		ldrh	r2, [r7, #22]
 189 0074 44F6D353 		movw	r3, #19923
 190 0078 C1F26203 		movt	r3, 4194
 191 007c A3FB0213 		umull	r1, r3, r3, r2
 192 0080 4FEA9313 		lsr	r3, r3, #6
 193 0084 9BB2     		uxth	r3, r3
 194 0086 FB77     		strb	r3, [r7, #31]
  80:../Main.c     **** 		Digit2= (ADCVal-(Digit1*1000))/100 ;
 195              		.loc 1 80 0
 196 0088 FB8A     		ldrh	r3, [r7, #22]
 197 008a 1A46     		mov	r2, r3
 198 008c F97F     		ldrb	r1, [r7, #31]	@ zero_extendqisi2
 199 008e 4FF61843 		movw	r3, #64536
 200 0092 CFF6FF73 		movt	r3, 65535
 201 0096 03FB01F3 		mul	r3, r3, r1
 202 009a D218     		adds	r2, r2, r3
 203 009c 48F21F53 		movw	r3, #34079
 204 00a0 C5F2EB13 		movt	r3, 20971
 205 00a4 83FB0213 		smull	r1, r3, r3, r2
 206 00a8 4FEA6311 		asr	r1, r3, #5
 207 00ac 4FEAE273 		asr	r3, r2, #31
 208 00b0 CB1A     		subs	r3, r1, r3
 209 00b2 BB77     		strb	r3, [r7, #30]
  81:../Main.c     **** 		Digit3= (ADCVal-((Digit1*1000)+(Digit2*100)))/10;
 210              		.loc 1 81 0
 211 00b4 FB8A     		ldrh	r3, [r7, #22]
 212 00b6 1A46     		mov	r2, r3
 213 00b8 BB7F     		ldrb	r3, [r7, #30]	@ zero_extendqisi2
 214 00ba 6FF06301 		mvn	r1, #99
 215 00be 01FB03F1 		mul	r1, r1, r3
 216 00c2 F87F     		ldrb	r0, [r7, #31]	@ zero_extendqisi2
 217 00c4 4FF61843 		movw	r3, #64536
 218 00c8 CFF6FF73 		movt	r3, 65535
 219 00cc 03FB00F3 		mul	r3, r3, r0
 220 00d0 CB18     		adds	r3, r1, r3
 221 00d2 D218     		adds	r2, r2, r3
 222 00d4 46F26763 		movw	r3, #26215
 223 00d8 C6F26663 		movt	r3, 26214
 224 00dc 83FB0213 		smull	r1, r3, r3, r2
 225 00e0 4FEAA301 		asr	r1, r3, #2
 226 00e4 4FEAE273 		asr	r3, r2, #31
 227 00e8 CB1A     		subs	r3, r1, r3
 228 00ea 7B77     		strb	r3, [r7, #29]
  82:../Main.c     **** 		Digit4= ADCVal -((Digit1*1000)+(Digit2*100)+ (Digit3*10));
 229              		.loc 1 82 0
 230 00ec FB8A     		ldrh	r3, [r7, #22]
 231 00ee DAB2     		uxtb	r2, r3
 232 00f0 7B7F     		ldrb	r3, [r7, #29]
 233 00f2 1946     		mov	r1, r3
 234 00f4 4FEA4111 		lsl	r1, r1, #5
 235 00f8 C91A     		subs	r1, r1, r3
 236 00fa 4FEA8101 		lsl	r1, r1, #2
 237 00fe CB1A     		subs	r3, r1, r3
 238 0100 4FEA4303 		lsl	r3, r3, #1
 239 0104 D9B2     		uxtb	r1, r3
 240 0106 BB7F     		ldrb	r3, [r7, #30]
 241 0108 1846     		mov	r0, r3
 242 010a 4FEA8000 		lsl	r0, r0, #2
 243 010e C018     		adds	r0, r0, r3
 244 0110 4FEAC000 		lsl	r0, r0, #3
 245 0114 C31A     		subs	r3, r0, r3
 246 0116 4FEA8303 		lsl	r3, r3, #2
 247 011a D8B2     		uxtb	r0, r3
 248 011c FB7F     		ldrb	r3, [r7, #31]
 249 011e 1C46     		mov	r4, r3
 250 0120 4FEA4404 		lsl	r4, r4, #1
 251 0124 E318     		adds	r3, r4, r3
 252 0126 4FEAC303 		lsl	r3, r3, #3
 253 012a DBB2     		uxtb	r3, r3
 254 012c C318     		adds	r3, r0, r3
 255 012e DBB2     		uxtb	r3, r3
 256 0130 CB18     		adds	r3, r1, r3
 257 0132 DBB2     		uxtb	r3, r3
 258 0134 D318     		adds	r3, r2, r3
 259 0136 3B77     		strb	r3, [r7, #28]
  83:../Main.c     **** 		   
  84:../Main.c     **** 		/* prepare data to be inserted in html */
  85:../Main.c     **** 		*pcInsert		= (char)(Digit1+0x30);
 260              		.loc 1 85 0
 261 0138 FB7F     		ldrb	r3, [r7, #31]
 262 013a 03F13003 		add	r3, r3, #48
 263 013e DAB2     		uxtb	r2, r3
 264 0140 BB68     		ldr	r3, [r7, #8]
 265 0142 1A70     		strb	r2, [r3, #0]
  86:../Main.c     **** 		*(pcInsert + 1) = (char)(Digit2+0x30);
 266              		.loc 1 86 0
 267 0144 BB68     		ldr	r3, [r7, #8]
 268 0146 03F10103 		add	r3, r3, #1
 269 014a BA7F     		ldrb	r2, [r7, #30]
 270 014c 02F13002 		add	r2, r2, #48
 271 0150 D2B2     		uxtb	r2, r2
 272 0152 1A70     		strb	r2, [r3, #0]
  87:../Main.c     **** 		*(pcInsert + 2) = (char)(Digit3+0x30);
 273              		.loc 1 87 0
 274 0154 BB68     		ldr	r3, [r7, #8]
 275 0156 03F10203 		add	r3, r3, #2
 276 015a 7A7F     		ldrb	r2, [r7, #29]
 277 015c 02F13002 		add	r2, r2, #48
 278 0160 D2B2     		uxtb	r2, r2
 279 0162 1A70     		strb	r2, [r3, #0]
  88:../Main.c     **** 		*(pcInsert + 3) = (char)(Digit4+0x30);
 280              		.loc 1 88 0
 281 0164 BB68     		ldr	r3, [r7, #8]
 282 0166 03F10303 		add	r3, r3, #3
 283 016a 3A7F     		ldrb	r2, [r7, #28]
 284 016c 02F13002 		add	r2, r2, #48
 285 0170 D2B2     		uxtb	r2, r2
 286 0172 1A70     		strb	r2, [r3, #0]
  89:../Main.c     **** 	   
  90:../Main.c     **** 	   /* 4 characters need to be inserted in html*/
  91:../Main.c     **** 	   return 4;
 287              		.loc 1 91 0
 288 0174 4FF00403 		mov	r3, #4
 289 0178 1DE0     		b	.L8
 290              	.L5:
  92:../Main.c     **** 
  93:../Main.c     **** 	}
  94:../Main.c     **** 
  95:../Main.c     **** 	if (iIndex == 1)
 291              		.loc 1 95 0
 292 017a FB68     		ldr	r3, [r7, #12]
 293 017c 012B     		cmp	r3, #1
 294 017e 18D1     		bne	.L7
  96:../Main.c     **** 	{
  97:../Main.c     **** 		*pcInsert		= (char)'c';
 295              		.loc 1 97 0
 296 0180 BB68     		ldr	r3, [r7, #8]
 297 0182 4FF06302 		mov	r2, #99
 298 0186 1A70     		strb	r2, [r3, #0]
  98:../Main.c     **** 		*(pcInsert + 1) = (char)'a';
 299              		.loc 1 98 0
 300 0188 BB68     		ldr	r3, [r7, #8]
 301 018a 03F10103 		add	r3, r3, #1
 302 018e 4FF06102 		mov	r2, #97
 303 0192 1A70     		strb	r2, [r3, #0]
  99:../Main.c     **** 		*(pcInsert + 2) = (char)'l';
 304              		.loc 1 99 0
 305 0194 BB68     		ldr	r3, [r7, #8]
 306 0196 03F10203 		add	r3, r3, #2
 307 019a 4FF06C02 		mov	r2, #108
 308 019e 1A70     		strb	r2, [r3, #0]
 100:../Main.c     **** 		*(pcInsert + 3) = (char)'d';
 309              		.loc 1 100 0
 310 01a0 BB68     		ldr	r3, [r7, #8]
 311 01a2 03F10303 		add	r3, r3, #3
 312 01a6 4FF06402 		mov	r2, #100
 313 01aa 1A70     		strb	r2, [r3, #0]
 101:../Main.c     **** 
 102:../Main.c     **** 	   /* 4 characters need to be inserted in html*/
 103:../Main.c     **** 	   return 4;
 314              		.loc 1 103 0
 315 01ac 4FF00403 		mov	r3, #4
 316 01b0 01E0     		b	.L8
 317              	.L7:
 104:../Main.c     **** 	}
 105:../Main.c     **** 
 106:../Main.c     **** 		return 0;
 318              		.loc 1 106 0
 319 01b2 4FF00003 		mov	r3, #0
 320              	.L8:
 107:../Main.c     **** }
 321              		.loc 1 107 0
 322 01b6 1846     		mov	r0, r3
 323 01b8 07F12407 		add	r7, r7, #36
 324 01bc BD46     		mov	sp, r7
 325 01be 90BD     		pop	{r4, r7, pc}
 326              	.L10:
 327              		.align	3
 328              	.L9:
 329 01c0 9A999999 		.word	-1717986918
 330 01c4 9999E93F 		.word	1072273817
 331              		.cfi_endproc
 332              	.LFE114:
 334              		.global	TAGCHAR
 335              		.section	.rodata
 336              		.align	2
 337              	.LC2:
 338 0020 7400     		.ascii	"t\000"
 339              		.data
 340              		.align	2
 343              	TAGCHAR:
 344 0000 20000000 		.word	.LC2
 345              		.global	TAGCHAR2
 346              		.section	.rodata
 347 0022 0000     		.align	2
 348              	.LC3:
 349 0024 7500     		.ascii	"u\000"
 350 0026 0000     		.data
 351              		.align	2
 354              	TAGCHAR2:
 355 0004 24000000 		.word	.LC3
 356              		.global	TAGS
 357              		.align	2
 360              	TAGS:
 361 0008 00000000 		.word	TAGCHAR
 362              		.section	.text.http_SSI_init,"ax",%progbits
 363              		.align	2
 364              		.global	http_SSI_init
 365              		.thumb
 366              		.thumb_func
 368              	http_SSI_init:
 369              	.LFB115:
 108:../Main.c     **** 
 109:../Main.c     **** char const* TAGCHAR="t";
 110:../Main.c     **** char const* TAGCHAR2="u";
 111:../Main.c     **** char const** TAGS= {&TAGCHAR, &TAGCHAR2};
 112:../Main.c     **** 
 113:../Main.c     **** void http_SSI_init (void)
 114:../Main.c     **** {
 370              		.loc 1 114 0
 371              		.cfi_startproc
 372              		@ args = 0, pretend = 0, frame = 0
 373              		@ frame_needed = 1, uses_anonymous_args = 0
 374 0000 80B5     		push	{r7, lr}
 375              	.LCFI8:
 376              		.cfi_def_cfa_offset 8
 377              		.cfi_offset 7, -8
 378              		.cfi_offset 14, -4
 379 0002 00AF     		add	r7, sp, #0
 380              	.LCFI9:
 381              		.cfi_def_cfa_register 7
 115:../Main.c     **** 
 116:../Main.c     **** 
 117:../Main.c     **** /*
 118:../Main.c     **** SSI is a method used to dynamically include dynamic data in HTML code.
 119:../Main.c     **** This done by placing a specific tag inside the HTML code of the web page. The tag should
 120:../Main.c     **** have the following format: <!--#tag-->
 121:../Main.c     **** For the ADC conversion page, the following tag "t" is used inside the HTML code: <!--#t-->
 122:../Main.c     **** */
 123:../Main.c     **** http_set_ssi_handler(SSI_Temp_Handler, (char const **)TAGS, 2);
 382              		.loc 1 123 0
 383 0004 40F20003 		movw	r3, #:lower16:TAGS
 384 0008 C0F20003 		movt	r3, #:upper16:TAGS
 385 000c 1B68     		ldr	r3, [r3, #0]
 386 000e 40F20000 		movw	r0, #:lower16:SSI_Temp_Handler
 387 0012 C0F20000 		movt	r0, #:upper16:SSI_Temp_Handler
 388 0016 1946     		mov	r1, r3
 389 0018 4FF00202 		mov	r2, #2
 390 001c FFF7FEFF 		bl	http_set_ssi_handler
 124:../Main.c     **** 
 125:../Main.c     **** }
 391              		.loc 1 125 0
 392 0020 80BD     		pop	{r7, pc}
 393              		.cfi_endproc
 394              	.LFE115:
 396 0022 00BF     		.section	.text.main,"ax",%progbits
 397              		.align	2
 398              		.global	main
 399              		.thumb
 400              		.thumb_func
 402              	main:
 403              	.LFB116:
 126:../Main.c     **** 
 127:../Main.c     **** 
 128:../Main.c     **** 
 129:../Main.c     **** int main(void)
 130:../Main.c     **** {
 404              		.loc 1 130 0
 405              		.cfi_startproc
 406              		@ args = 0, pretend = 0, frame = 0
 407              		@ frame_needed = 1, uses_anonymous_args = 0
 408 0000 80B5     		push	{r7, lr}
 409              	.LCFI10:
 410              		.cfi_def_cfa_offset 8
 411              		.cfi_offset 7, -8
 412              		.cfi_offset 14, -4
 413 0002 00AF     		add	r7, sp, #0
 414              	.LCFI11:
 415              		.cfi_def_cfa_register 7
 131:../Main.c     **** //	status_t status;		// Declaration of return variable for DAVE3 APIs (toggle comment if required)
 132:../Main.c     **** 
 133:../Main.c     **** 
 134:../Main.c     **** 	DAVE_Init();			// Initialization of DAVE Apps
 416              		.loc 1 134 0
 417 0004 FFF7FEFF 		bl	DAVE_Init
 135:../Main.c     **** 
 136:../Main.c     **** 	ADC002_InitializeQueue((ADC002_HandleType*)&ADC002_Handle0);
 418              		.loc 1 136 0
 419 0008 40F20000 		movw	r0, #:lower16:ADC002_Handle0
 420 000c C0F20000 		movt	r0, #:upper16:ADC002_Handle0
 421 0010 FFF7FEFF 		bl	ADC002_InitializeQueue
 137:../Main.c     ****     lwIPStack_init();
 422              		.loc 1 137 0
 423 0014 FFF7FEFF 		bl	lwIPStack_init
 138:../Main.c     ****     http_CGI_init();
 424              		.loc 1 138 0
 425 0018 FFF7FEFF 		bl	http_CGI_init
 139:../Main.c     ****     http_SSI_init();
 426              		.loc 1 139 0
 427 001c FFF7FEFF 		bl	http_SSI_init
 428              	.L13:
 140:../Main.c     ****     // ... infinite loop ...
 141:../Main.c     **** 	while(1)
 142:../Main.c     **** 	{
 143:../Main.c     **** 
 144:../Main.c     **** 	}
 429              		.loc 1 144 0 discriminator 1
 430 0020 FEE7     		b	.L13
 431              		.cfi_endproc
 432              	.LFE116:
 434 0022 00BF     		.text
 435              	.Letext0:
 436              		.file 2 "c:\\dave-3.1.10\\arm-gcc\\bin\\../lib/gcc/arm-none-eabi/4.7.4/../../../../arm-none-eabi/i
 437              		.file 3 "C:\\DAVE-3.1.10\\eclipse\\/../CMSIS/Infineon/XMC4500_series/Include/XMC4500.h"
 438              		.file 4 "F:\\WORK\\SmartHome_checkout1\\XMC4500_RK_HTTPserver\\Dave\\Generated\\inc\\DAVESupport/.
 439              		.file 5 "F:\\WORK\\SmartHome_checkout1\\XMC4500_RK_HTTPserver\\Dave\\Generated\\inc\\DAVESupport/.
 440              		.file 6 "F:\\WORK\\SmartHome_checkout1\\XMC4500_RK_HTTPserver\\Dave\\Generated\\src\\ETH004\\01_lw
 441              		.file 7 "F:\\WORK\\SmartHome_checkout1\\XMC4500_RK_HTTPserver\\Dave\\Generated\\inc\\DAVESupport/.
 442              		.file 8 "F:\\WORK\\SmartHome_checkout1\\XMC4500_RK_HTTPserver\\Dave\\Generated\\inc\\DAVESupport/.
 443              		.file 9 "F:\\WORK\\SmartHome_checkout1\\XMC4500_RK_HTTPserver\\Dave\\Generated\\inc\\DAVESupport/.
 444              		.file 10 "F:\\WORK\\SmartHome_checkout1\\XMC4500_RK_HTTPserver\\Dave\\Generated\\inc\\DAVESupport/
 445              		.file 11 ".././Dave/Generated/src/WEBSERVER001/HTTPServer/httpd.h"
 446              		.file 12 "C:\\DAVE-3.1.10\\eclipse\\/../CMSIS/Include/core_cm4.h"
 447              		.file 13 "F:\\WORK\\SmartHome_checkout1\\XMC4500_RK_HTTPserver\\Dave\\Generated\\inc\\DAVESupport/
 448              		.file 14 "F:\\WORK\\SmartHome_checkout1\\XMC4500_RK_HTTPserver\\Dave\\Generated\\inc\\DAVESupport/