   1              		.syntax unified
   2              		.cpu cortex-m4
   3              		.eabi_attribute 27, 3
   4              		.fpu fpv4-sp-d16
   5              		.eabi_attribute 20, 1
   6              		.eabi_attribute 21, 1
   7              		.eabi_attribute 23, 3
   8              		.eabi_attribute 24, 1
   9              		.eabi_attribute 25, 1
  10              		.eabi_attribute 26, 1
  11              		.eabi_attribute 30, 6
  12              		.eabi_attribute 34, 1
  13              		.eabi_attribute 18, 4
  14              		.thumb
  15              		.file	"FATFS004.c"
  16              		.text
  17              	.Ltext0:
  18              		.cfi_sections	.debug_frame
  19              		.global	FATFS004_ErrorCodes
  20              		.data
  21              		.align	2
  24              	FATFS004_ErrorCodes:
  25 0000 00       		.byte	0
  26 0001 01       		.byte	1
  27 0002 02       		.byte	2
  28 0003 03       		.byte	3
  29 0004 04       		.byte	4
  30              		.global	FATFS004_StatusCodes
  31 0005 000000   		.align	2
  34              	FATFS004_StatusCodes:
  35 0008 00       		.byte	0
  36 0009 01       		.byte	1
  37 000a 02       		.byte	2
  38 000b 03       		.byte	3
  39 000c 04       		.byte	4
  40              		.comm	FATFS004_UnusedStatus,4,4
  41 000d 000000   		.section	.text.disk_initialize,"ax",%progbits
  42              		.align	2
  43              		.global	disk_initialize
  44              		.thumb
  45              		.thumb_func
  47              	disk_initialize:
  48              	.LFB112:
  49              		.file 1 "../Dave/Generated/src/FATFS004/FATFS004.c"
   1:../Dave/Generated/src/FATFS004/FATFS004.c **** /*******************************************************************************
   2:../Dave/Generated/src/FATFS004/FATFS004.c **** **  DAVE App Name : FATFS004       App Version: 1.0.18               
   3:../Dave/Generated/src/FATFS004/FATFS004.c **** **  This file is generated by DAVE, User modification to this file will be    **
   4:../Dave/Generated/src/FATFS004/FATFS004.c **** **  overwritten at the next code generation.                                  **
   5:../Dave/Generated/src/FATFS004/FATFS004.c **** *******************************************************************************/
   6:../Dave/Generated/src/FATFS004/FATFS004.c **** 
   7:../Dave/Generated/src/FATFS004/FATFS004.c **** 
   8:../Dave/Generated/src/FATFS004/FATFS004.c **** /*CODE_BLOCK_BEGIN[FATFS004.c]*/
   9:../Dave/Generated/src/FATFS004/FATFS004.c **** /*******************************************************************************
  10:../Dave/Generated/src/FATFS004/FATFS004.c ****  Copyright (c) 2011, Infineon Technologies AG                                 **
  11:../Dave/Generated/src/FATFS004/FATFS004.c ****  All rights reserved.                                                         **
  12:../Dave/Generated/src/FATFS004/FATFS004.c ****                                                                               **
  13:../Dave/Generated/src/FATFS004/FATFS004.c ****  Redistribution and use in source and binary forms, with or without           **
  14:../Dave/Generated/src/FATFS004/FATFS004.c ****  modification,are permitted provided that the following conditions are met:   **
  15:../Dave/Generated/src/FATFS004/FATFS004.c ****                                                                               **
  16:../Dave/Generated/src/FATFS004/FATFS004.c ****  *Redistributions of source code must retain the above copyright notice,      **
  17:../Dave/Generated/src/FATFS004/FATFS004.c ****  this list of conditions and the following disclaimer.                        **
  18:../Dave/Generated/src/FATFS004/FATFS004.c ****  *Redistributions in binary form must reproduce the above copyright notice,   **
  19:../Dave/Generated/src/FATFS004/FATFS004.c ****  this list of conditions and the following disclaimer in the documentation    **
  20:../Dave/Generated/src/FATFS004/FATFS004.c ****  and/or other materials provided with the distribution.                       **
  21:../Dave/Generated/src/FATFS004/FATFS004.c ****  *Neither the name of the copyright holders nor the names of its contributors **
  22:../Dave/Generated/src/FATFS004/FATFS004.c ****  may be used to endorse or promote products derived from this software without** 
  23:../Dave/Generated/src/FATFS004/FATFS004.c ****  specific prior written permission.                                           **
  24:../Dave/Generated/src/FATFS004/FATFS004.c ****                                                                               **
  25:../Dave/Generated/src/FATFS004/FATFS004.c ****  THIS SOFTWARE IS PROVIDED BY THE COPYRIGHT HOLDERS AND CONTRIBUTORS "AS IS"  **
  26:../Dave/Generated/src/FATFS004/FATFS004.c ****  AND ANY EXPRESS OR IMPLIED WARRANTIES, INCLUDING, BUT NOT LIMITED TO, THE    **
  27:../Dave/Generated/src/FATFS004/FATFS004.c ****  IMPLIED WARRANTIES OF MERCHANTABILITY AND FITNESS FOR A PARTICULAR PURPOSE   **
  28:../Dave/Generated/src/FATFS004/FATFS004.c ****  ARE  DISCLAIMED. IN NO EVENT SHALL THE COPYRIGHT HOLDER OR CONTRIBUTORS BE   **
  29:../Dave/Generated/src/FATFS004/FATFS004.c ****  LIABLE  FOR ANY DIRECT, INDIRECT, INCIDENTAL, SPECIAL, EXEMPLARY, OR         **
  30:../Dave/Generated/src/FATFS004/FATFS004.c ****  CONSEQUENTIAL DAMAGES (INCLUDING, BUT NOT LIMITED TO, PROCUREMENT OF         **
  31:../Dave/Generated/src/FATFS004/FATFS004.c ****  SUBSTITUTE GOODS OR  SERVICES; LOSS OF USE, DATA, OR PROFITS; OR BUSINESS    **
  32:../Dave/Generated/src/FATFS004/FATFS004.c ****  INTERRUPTION) HOWEVER CAUSED AND ON ANY THEORY OF LIABILITY, WHETHER IN      **
  33:../Dave/Generated/src/FATFS004/FATFS004.c ****  CONTRACT, STRICT LIABILITY,OR TORT (INCLUDING NEGLIGENCE OR OTHERWISE)       **
  34:../Dave/Generated/src/FATFS004/FATFS004.c ****  ARISING IN ANY WAY OUT OF THE USE OF THIS SOFTWARE, EVEN IF ADVISED OF THE   **
  35:../Dave/Generated/src/FATFS004/FATFS004.c ****  POSSIBILITY OF SUCH DAMAGE.                                                  **
  36:../Dave/Generated/src/FATFS004/FATFS004.c ****                                                                               **
  37:../Dave/Generated/src/FATFS004/FATFS004.c ****  To improve the quality of the software, users are encouraged to share        **
  38:../Dave/Generated/src/FATFS004/FATFS004.c ****  modifications, enhancements or bug fixes with Infineon Technologies AG       **
  39:../Dave/Generated/src/FATFS004/FATFS004.c ****  dave@infineon.com).                                                          **
  40:../Dave/Generated/src/FATFS004/FATFS004.c ****                                                                               **
  41:../Dave/Generated/src/FATFS004/FATFS004.c **** ********************************************************************************
  42:../Dave/Generated/src/FATFS004/FATFS004.c **** **                                                                            **
  43:../Dave/Generated/src/FATFS004/FATFS004.c **** **                                                                            **
  44:../Dave/Generated/src/FATFS004/FATFS004.c **** ** PLATFORM : Infineon XMC4000 Series                                         **
  45:../Dave/Generated/src/FATFS004/FATFS004.c **** **                                                                            **
  46:../Dave/Generated/src/FATFS004/FATFS004.c **** ** COMPILER : Compiler Independent                                            **
  47:../Dave/Generated/src/FATFS004/FATFS004.c **** **                                                                            **
  48:../Dave/Generated/src/FATFS004/FATFS004.c **** ** AUTHOR : App Developer                                                     **
  49:../Dave/Generated/src/FATFS004/FATFS004.c **** **                                                                            **
  50:../Dave/Generated/src/FATFS004/FATFS004.c **** ** MAY BE CHANGED BY USER [yes/no]: Yes                                       **
  51:../Dave/Generated/src/FATFS004/FATFS004.c **** **                                                                            **
  52:../Dave/Generated/src/FATFS004/FATFS004.c **** ** MODIFICATION DATE : July 31, 2012                                           **
  53:../Dave/Generated/src/FATFS004/FATFS004.c **** **                                                                            **
  54:../Dave/Generated/src/FATFS004/FATFS004.c **** *******************************************************************************/
  55:../Dave/Generated/src/FATFS004/FATFS004.c **** 
  56:../Dave/Generated/src/FATFS004/FATFS004.c **** /*******************************************************************************
  57:../Dave/Generated/src/FATFS004/FATFS004.c **** **                       Author(s) Identity                                   **
  58:../Dave/Generated/src/FATFS004/FATFS004.c **** ********************************************************************************
  59:../Dave/Generated/src/FATFS004/FATFS004.c **** **                                                                            **
  60:../Dave/Generated/src/FATFS004/FATFS004.c **** ** Initials    Name                                                           **
  61:../Dave/Generated/src/FATFS004/FATFS004.c **** ** ---------------------------------------------------------------------------**
  62:../Dave/Generated/src/FATFS004/FATFS004.c **** ** SK          App Developer                                                  **
  63:../Dave/Generated/src/FATFS004/FATFS004.c **** *******************************************************************************/
  64:../Dave/Generated/src/FATFS004/FATFS004.c **** /*******************************************************************************
  65:../Dave/Generated/src/FATFS004/FATFS004.c **** **                      INCLUDE FILES                                         **
  66:../Dave/Generated/src/FATFS004/FATFS004.c **** *******************************************************************************/
  67:../Dave/Generated/src/FATFS004/FATFS004.c **** 
  68:../Dave/Generated/src/FATFS004/FATFS004.c **** 
  69:../Dave/Generated/src/FATFS004/FATFS004.c **** 
  70:../Dave/Generated/src/FATFS004/FATFS004.c **** 
  71:../Dave/Generated/src/FATFS004/FATFS004.c **** /**
  72:../Dave/Generated/src/FATFS004/FATFS004.c ****  * @file   FATFS004.c
  73:../Dave/Generated/src/FATFS004/FATFS004.c ****  *
  74:../Dave/Generated/src/FATFS004/FATFS004.c ****  * @brief This file contains definitions of all public functions
  75:../Dave/Generated/src/FATFS004/FATFS004.c ****  *        of Device Abstraction Layer App.
  76:../Dave/Generated/src/FATFS004/FATFS004.c ****  */
  77:../Dave/Generated/src/FATFS004/FATFS004.c **** #include <DAVE3.h>
  78:../Dave/Generated/src/FATFS004/FATFS004.c **** 
  79:../Dave/Generated/src/FATFS004/FATFS004.c **** /**
  80:../Dave/Generated/src/FATFS004/FATFS004.c ****  * Number of Devices attached
  81:../Dave/Generated/src/FATFS004/FATFS004.c ****  */
  82:../Dave/Generated/src/FATFS004/FATFS004.c ****    #define FATFS004_MAX_DRIVES                        1
  83:../Dave/Generated/src/FATFS004/FATFS004.c ****    
  84:../Dave/Generated/src/FATFS004/FATFS004.c **** 
  85:../Dave/Generated/src/FATFS004/FATFS004.c **** 
  86:../Dave/Generated/src/FATFS004/FATFS004.c **** /**
  87:../Dave/Generated/src/FATFS004/FATFS004.c ****  * @cond INTERNAL_DOCS
  88:../Dave/Generated/src/FATFS004/FATFS004.c ****  */
  89:../Dave/Generated/src/FATFS004/FATFS004.c **** 
  90:../Dave/Generated/src/FATFS004/FATFS004.c **** /*******************************************************************************
  91:../Dave/Generated/src/FATFS004/FATFS004.c **** **                      Global Variable Definitions                           **
  92:../Dave/Generated/src/FATFS004/FATFS004.c **** *******************************************************************************/
  93:../Dave/Generated/src/FATFS004/FATFS004.c **** 
  94:../Dave/Generated/src/FATFS004/FATFS004.c **** DRESULT FATFS004_ErrorCodes[5] = {
  95:../Dave/Generated/src/FATFS004/FATFS004.c ****                                             RES_OK ,   RES_ERROR,
  96:../Dave/Generated/src/FATFS004/FATFS004.c ****                                             RES_WRPRT, RES_NOTRDY,
  97:../Dave/Generated/src/FATFS004/FATFS004.c ****                                             RES_PARERR
  98:../Dave/Generated/src/FATFS004/FATFS004.c ****                                           };
  99:../Dave/Generated/src/FATFS004/FATFS004.c **** 
 100:../Dave/Generated/src/FATFS004/FATFS004.c **** DSTATUS FATFS004_StatusCodes[5] = 
 101:../Dave/Generated/src/FATFS004/FATFS004.c ****                                      {
 102:../Dave/Generated/src/FATFS004/FATFS004.c ****                                        0, STA_NOINIT,
 103:../Dave/Generated/src/FATFS004/FATFS004.c ****                                        STA_NODISK, FATFS004_NODISK_NOINIT,
 104:../Dave/Generated/src/FATFS004/FATFS004.c ****                                        STA_PROTECT
 105:../Dave/Generated/src/FATFS004/FATFS004.c ****                                      };
 106:../Dave/Generated/src/FATFS004/FATFS004.c **** 
 107:../Dave/Generated/src/FATFS004/FATFS004.c **** /**
 108:../Dave/Generated/src/FATFS004/FATFS004.c ****  * Extern the DeviceFunction pointers initialized in config file.
 109:../Dave/Generated/src/FATFS004/FATFS004.c ****  */
 110:../Dave/Generated/src/FATFS004/FATFS004.c **** extern  FATFS004_DeviceFuncType FATFS004_DeviceFunc[FATFS004_MAX_DRIVES];
 111:../Dave/Generated/src/FATFS004/FATFS004.c **** 
 112:../Dave/Generated/src/FATFS004/FATFS004.c **** /**
 113:../Dave/Generated/src/FATFS004/FATFS004.c ****  * Dummy Variable to hold the status.
 114:../Dave/Generated/src/FATFS004/FATFS004.c ****  */
 115:../Dave/Generated/src/FATFS004/FATFS004.c ****  status_t FATFS004_UnusedStatus;
 116:../Dave/Generated/src/FATFS004/FATFS004.c **** 
 117:../Dave/Generated/src/FATFS004/FATFS004.c **** 
 118:../Dave/Generated/src/FATFS004/FATFS004.c **** /*******************************************************************************
 119:../Dave/Generated/src/FATFS004/FATFS004.c **** **                     Public Function Definitions                            **
 120:../Dave/Generated/src/FATFS004/FATFS004.c **** *******************************************************************************/
 121:../Dave/Generated/src/FATFS004/FATFS004.c **** 
 122:../Dave/Generated/src/FATFS004/FATFS004.c **** /*<<<DD_FATFS004_API_1>>>*/
 123:../Dave/Generated/src/FATFS004/FATFS004.c **** /*
 124:../Dave/Generated/src/FATFS004/FATFS004.c ****  * The function performs the disk initialization.
 125:../Dave/Generated/src/FATFS004/FATFS004.c ****  */
 126:../Dave/Generated/src/FATFS004/FATFS004.c **** DSTATUS disk_initialize(BYTE Drive)
 127:../Dave/Generated/src/FATFS004/FATFS004.c **** {
  50              		.loc 1 127 0
  51              		.cfi_startproc
  52              		@ args = 0, pretend = 0, frame = 16
  53              		@ frame_needed = 1, uses_anonymous_args = 0
  54 0000 80B5     		push	{r7, lr}
  55              	.LCFI0:
  56              		.cfi_def_cfa_offset 8
  57              		.cfi_offset 7, -8
  58              		.cfi_offset 14, -4
  59 0002 84B0     		sub	sp, sp, #16
  60              	.LCFI1:
  61              		.cfi_def_cfa_offset 24
  62 0004 00AF     		add	r7, sp, #0
  63              	.LCFI2:
  64              		.cfi_def_cfa_register 7
  65 0006 0346     		mov	r3, r0
  66 0008 FB71     		strb	r3, [r7, #7]
 128:../Dave/Generated/src/FATFS004/FATFS004.c ****   DSTATUS DStatus = 0;
  67              		.loc 1 128 0
  68 000a 4FF00003 		mov	r3, #0
  69 000e FB73     		strb	r3, [r7, #15]
 129:../Dave/Generated/src/FATFS004/FATFS004.c ****   uint8_t Status;
 130:../Dave/Generated/src/FATFS004/FATFS004.c ****   FUNCTION_ENTRY(GID_FATFS004, (uint32_t)FATFS004_FUNCTION_ENTRY);
 131:../Dave/Generated/src/FATFS004/FATFS004.c ****   do
 132:../Dave/Generated/src/FATFS004/FATFS004.c ****   {
 133:../Dave/Generated/src/FATFS004/FATFS004.c **** /*<<<DD_FATFS004_API_1_1>>*/
 134:../Dave/Generated/src/FATFS004/FATFS004.c **** /* If drive number is greater than the maximum drives allowed  */
 135:../Dave/Generated/src/FATFS004/FATFS004.c ****     if (Drive >= FATFS004_MAX_DRIVES)
  70              		.loc 1 135 0
  71 0010 FB79     		ldrb	r3, [r7, #7]	@ zero_extendqisi2
  72 0012 002B     		cmp	r3, #0
  73 0014 03D0     		beq	.L2
 136:../Dave/Generated/src/FATFS004/FATFS004.c ****     {
 137:../Dave/Generated/src/FATFS004/FATFS004.c ****       DStatus = (STA_NODISK | STA_NOINIT);
  74              		.loc 1 137 0
  75 0016 4FF00303 		mov	r3, #3
  76 001a FB73     		strb	r3, [r7, #15]
 138:../Dave/Generated/src/FATFS004/FATFS004.c ****       break;
  77              		.loc 1 138 0
  78 001c 16E0     		b	.L3
  79              	.L2:
 139:../Dave/Generated/src/FATFS004/FATFS004.c ****     }
 140:../Dave/Generated/src/FATFS004/FATFS004.c ****     /* Call the Initialize function. */
 141:../Dave/Generated/src/FATFS004/FATFS004.c **** /*<<<DD_FATFS004_API_1_2>>*/
 142:../Dave/Generated/src/FATFS004/FATFS004.c ****     Status = FATFS004_DeviceFunc[Drive].InitializePtr();
  80              		.loc 1 142 0
  81 001e F979     		ldrb	r1, [r7, #7]	@ zero_extendqisi2
  82 0020 40F20002 		movw	r2, #:lower16:FATFS004_DeviceFunc
  83 0024 C0F20002 		movt	r2, #:upper16:FATFS004_DeviceFunc
  84 0028 0B46     		mov	r3, r1
  85 002a 4FEA8303 		lsl	r3, r3, #2
  86 002e 5B18     		adds	r3, r3, r1
  87 0030 4FEA8303 		lsl	r3, r3, #2
  88 0034 D318     		adds	r3, r2, r3
  89 0036 1B68     		ldr	r3, [r3, #0]
  90 0038 9847     		blx	r3
  91 003a 0346     		mov	r3, r0
  92 003c BB73     		strb	r3, [r7, #14]
 143:../Dave/Generated/src/FATFS004/FATFS004.c **** /* Fatfs to Block Layer Error Code Mapping */
 144:../Dave/Generated/src/FATFS004/FATFS004.c ****     DStatus = FATFS004_StatusCodes[Status];
  93              		.loc 1 144 0
  94 003e BA7B     		ldrb	r2, [r7, #14]	@ zero_extendqisi2
  95 0040 40F20003 		movw	r3, #:lower16:FATFS004_StatusCodes
  96 0044 C0F20003 		movt	r3, #:upper16:FATFS004_StatusCodes
  97 0048 9B5C     		ldrb	r3, [r3, r2]
  98 004a FB73     		strb	r3, [r7, #15]
  99              	.L3:
 145:../Dave/Generated/src/FATFS004/FATFS004.c ****   } while (0);
 146:../Dave/Generated/src/FATFS004/FATFS004.c ****   FUNCTION_EXIT(GID_FATFS004, (uint32_t)FATFS004_FUNCTION_EXIT);
 147:../Dave/Generated/src/FATFS004/FATFS004.c ****   return DStatus;
 100              		.loc 1 147 0
 101 004c FB7B     		ldrb	r3, [r7, #15]	@ zero_extendqisi2
 148:../Dave/Generated/src/FATFS004/FATFS004.c **** }
 102              		.loc 1 148 0
 103 004e 1846     		mov	r0, r3
 104 0050 07F11007 		add	r7, r7, #16
 105 0054 BD46     		mov	sp, r7
 106 0056 80BD     		pop	{r7, pc}
 107              		.cfi_endproc
 108              	.LFE112:
 110              		.section	.text.disk_status,"ax",%progbits
 111              		.align	2
 112              		.global	disk_status
 113              		.thumb
 114              		.thumb_func
 116              	disk_status:
 117              	.LFB113:
 149:../Dave/Generated/src/FATFS004/FATFS004.c **** 
 150:../Dave/Generated/src/FATFS004/FATFS004.c **** /*<<<DD_FATFS004_API_2>>>  */
 151:../Dave/Generated/src/FATFS004/FATFS004.c **** /*
 152:../Dave/Generated/src/FATFS004/FATFS004.c ****  * The function gets the disk status information.
 153:../Dave/Generated/src/FATFS004/FATFS004.c ****  */
 154:../Dave/Generated/src/FATFS004/FATFS004.c **** DSTATUS disk_status(BYTE Drive)
 155:../Dave/Generated/src/FATFS004/FATFS004.c **** {
 118              		.loc 1 155 0
 119              		.cfi_startproc
 120              		@ args = 0, pretend = 0, frame = 16
 121              		@ frame_needed = 1, uses_anonymous_args = 0
 122 0000 80B5     		push	{r7, lr}
 123              	.LCFI3:
 124              		.cfi_def_cfa_offset 8
 125              		.cfi_offset 7, -8
 126              		.cfi_offset 14, -4
 127 0002 84B0     		sub	sp, sp, #16
 128              	.LCFI4:
 129              		.cfi_def_cfa_offset 24
 130 0004 00AF     		add	r7, sp, #0
 131              	.LCFI5:
 132              		.cfi_def_cfa_register 7
 133 0006 0346     		mov	r3, r0
 134 0008 FB71     		strb	r3, [r7, #7]
 156:../Dave/Generated/src/FATFS004/FATFS004.c ****   DSTATUS DStatus;
 157:../Dave/Generated/src/FATFS004/FATFS004.c ****   uint8_t Status;
 158:../Dave/Generated/src/FATFS004/FATFS004.c ****   FUNCTION_ENTRY(GID_FATFS004, (uint32_t)FATFS004_FUNCTION_ENTRY);
 159:../Dave/Generated/src/FATFS004/FATFS004.c ****   do
 160:../Dave/Generated/src/FATFS004/FATFS004.c ****   {
 161:../Dave/Generated/src/FATFS004/FATFS004.c **** /*  <<<DD_FATFS004_API_2_1>>>  */
 162:../Dave/Generated/src/FATFS004/FATFS004.c **** /* If drive number is greater than the maximum drives allowed  */
 163:../Dave/Generated/src/FATFS004/FATFS004.c ****     if (Drive >= FATFS004_MAX_DRIVES)
 135              		.loc 1 163 0
 136 000a FB79     		ldrb	r3, [r7, #7]	@ zero_extendqisi2
 137 000c 002B     		cmp	r3, #0
 138 000e 03D0     		beq	.L6
 164:../Dave/Generated/src/FATFS004/FATFS004.c ****     {
 165:../Dave/Generated/src/FATFS004/FATFS004.c ****       DStatus = (STA_NODISK | STA_NOINIT);
 139              		.loc 1 165 0
 140 0010 4FF00303 		mov	r3, #3
 141 0014 FB73     		strb	r3, [r7, #15]
 166:../Dave/Generated/src/FATFS004/FATFS004.c ****       break;
 142              		.loc 1 166 0
 143 0016 18E0     		b	.L7
 144              	.L6:
 167:../Dave/Generated/src/FATFS004/FATFS004.c ****     }
 168:../Dave/Generated/src/FATFS004/FATFS004.c ****     /* Call the Initialize function.*/
 169:../Dave/Generated/src/FATFS004/FATFS004.c **** /*<<<DD_FATFS004_API_2_2>>>  */
 170:../Dave/Generated/src/FATFS004/FATFS004.c ****     Status = FATFS004_DeviceFunc[Drive].GetStatusPtr();
 145              		.loc 1 170 0
 146 0018 F979     		ldrb	r1, [r7, #7]	@ zero_extendqisi2
 147 001a 40F20002 		movw	r2, #:lower16:FATFS004_DeviceFunc
 148 001e C0F20002 		movt	r2, #:upper16:FATFS004_DeviceFunc
 149 0022 0B46     		mov	r3, r1
 150 0024 4FEA8303 		lsl	r3, r3, #2
 151 0028 5B18     		adds	r3, r3, r1
 152 002a 4FEA8303 		lsl	r3, r3, #2
 153 002e D318     		adds	r3, r2, r3
 154 0030 03F10403 		add	r3, r3, #4
 155 0034 1B68     		ldr	r3, [r3, #0]
 156 0036 9847     		blx	r3
 157 0038 0346     		mov	r3, r0
 158 003a BB73     		strb	r3, [r7, #14]
 171:../Dave/Generated/src/FATFS004/FATFS004.c **** /* Fatfs to Block Layer Error Code Mapping */
 172:../Dave/Generated/src/FATFS004/FATFS004.c ****     DStatus = FATFS004_StatusCodes[Status];
 159              		.loc 1 172 0
 160 003c BA7B     		ldrb	r2, [r7, #14]	@ zero_extendqisi2
 161 003e 40F20003 		movw	r3, #:lower16:FATFS004_StatusCodes
 162 0042 C0F20003 		movt	r3, #:upper16:FATFS004_StatusCodes
 163 0046 9B5C     		ldrb	r3, [r3, r2]
 164 0048 FB73     		strb	r3, [r7, #15]
 165              	.L7:
 173:../Dave/Generated/src/FATFS004/FATFS004.c ****   } while (0);
 174:../Dave/Generated/src/FATFS004/FATFS004.c ****   ERROR(GID_FATFS004,FATFS004_SDMMC002_ERROR,0,0);
 175:../Dave/Generated/src/FATFS004/FATFS004.c ****   FUNCTION_EXIT(GID_FATFS004, (uint32_t)FATFS004_FUNCTION_EXIT);
 176:../Dave/Generated/src/FATFS004/FATFS004.c ****   return DStatus;
 166              		.loc 1 176 0
 167 004a FB7B     		ldrb	r3, [r7, #15]	@ zero_extendqisi2
 177:../Dave/Generated/src/FATFS004/FATFS004.c **** }
 168              		.loc 1 177 0
 169 004c 1846     		mov	r0, r3
 170 004e 07F11007 		add	r7, r7, #16
 171 0052 BD46     		mov	sp, r7
 172 0054 80BD     		pop	{r7, pc}
 173              		.cfi_endproc
 174              	.LFE113:
 176 0056 00BF     		.section	.text.disk_read,"ax",%progbits
 177              		.align	2
 178              		.global	disk_read
 179              		.thumb
 180              		.thumb_func
 182              	disk_read:
 183              	.LFB114:
 178:../Dave/Generated/src/FATFS004/FATFS004.c **** 
 179:../Dave/Generated/src/FATFS004/FATFS004.c **** /*  <<<DD_FATFS004_API_3>>>  */
 180:../Dave/Generated/src/FATFS004/FATFS004.c **** /*
 181:../Dave/Generated/src/FATFS004/FATFS004.c ****  * The function reads the blocks of data from the disk.
 182:../Dave/Generated/src/FATFS004/FATFS004.c ****  */
 183:../Dave/Generated/src/FATFS004/FATFS004.c **** DRESULT disk_read
 184:../Dave/Generated/src/FATFS004/FATFS004.c **** (
 185:../Dave/Generated/src/FATFS004/FATFS004.c ****   BYTE Drive,
 186:../Dave/Generated/src/FATFS004/FATFS004.c ****   BYTE *Buffer,
 187:../Dave/Generated/src/FATFS004/FATFS004.c ****   DWORD SectorNumber,
 188:../Dave/Generated/src/FATFS004/FATFS004.c ****   BYTE SectorCount
 189:../Dave/Generated/src/FATFS004/FATFS004.c **** )
 190:../Dave/Generated/src/FATFS004/FATFS004.c **** {
 184              		.loc 1 190 0
 185              		.cfi_startproc
 186              		@ args = 0, pretend = 0, frame = 24
 187              		@ frame_needed = 1, uses_anonymous_args = 0
 188 0000 80B5     		push	{r7, lr}
 189              	.LCFI6:
 190              		.cfi_def_cfa_offset 8
 191              		.cfi_offset 7, -8
 192              		.cfi_offset 14, -4
 193 0002 86B0     		sub	sp, sp, #24
 194              	.LCFI7:
 195              		.cfi_def_cfa_offset 32
 196 0004 00AF     		add	r7, sp, #0
 197              	.LCFI8:
 198              		.cfi_def_cfa_register 7
 199 0006 B960     		str	r1, [r7, #8]
 200 0008 7A60     		str	r2, [r7, #4]
 201 000a 0246     		mov	r2, r0
 202 000c FA73     		strb	r2, [r7, #15]
 203 000e BB73     		strb	r3, [r7, #14]
 191:../Dave/Generated/src/FATFS004/FATFS004.c ****   DRESULT DResult;
 192:../Dave/Generated/src/FATFS004/FATFS004.c ****   uint32_t Result;
 193:../Dave/Generated/src/FATFS004/FATFS004.c ****   FUNCTION_ENTRY(GID_FATFS004, (uint32_t)FATFS004_FUNCTION_ENTRY);
 194:../Dave/Generated/src/FATFS004/FATFS004.c ****   do
 195:../Dave/Generated/src/FATFS004/FATFS004.c ****   {
 196:../Dave/Generated/src/FATFS004/FATFS004.c **** /*<<<DD_FATFS004_API_3_1>>>*/
 197:../Dave/Generated/src/FATFS004/FATFS004.c **** /* If drive number is greater than the maximum drives allowed  */
 198:../Dave/Generated/src/FATFS004/FATFS004.c ****     if (Drive >= FATFS004_MAX_DRIVES )
 204              		.loc 1 198 0
 205 0010 FB7B     		ldrb	r3, [r7, #15]	@ zero_extendqisi2
 206 0012 002B     		cmp	r3, #0
 207 0014 03D0     		beq	.L10
 199:../Dave/Generated/src/FATFS004/FATFS004.c ****     {
 200:../Dave/Generated/src/FATFS004/FATFS004.c ****       DResult = RES_PARERR;
 208              		.loc 1 200 0
 209 0016 4FF00403 		mov	r3, #4
 210 001a FB75     		strb	r3, [r7, #23]
 201:../Dave/Generated/src/FATFS004/FATFS004.c ****       break;
 211              		.loc 1 201 0
 212 001c 2BE0     		b	.L11
 213              	.L10:
 202:../Dave/Generated/src/FATFS004/FATFS004.c ****     }
 203:../Dave/Generated/src/FATFS004/FATFS004.c **** /*<<<DD_FATFS004_API_3_2>>>*/
 204:../Dave/Generated/src/FATFS004/FATFS004.c ****     /* If sector count is less than 1. Minimum 1 sector is needed*/
 205:../Dave/Generated/src/FATFS004/FATFS004.c ****     if (SectorCount < 1)
 214              		.loc 1 205 0
 215 001e BB7B     		ldrb	r3, [r7, #14]	@ zero_extendqisi2
 216 0020 002B     		cmp	r3, #0
 217 0022 03D1     		bne	.L12
 206:../Dave/Generated/src/FATFS004/FATFS004.c ****     {
 207:../Dave/Generated/src/FATFS004/FATFS004.c ****       DResult = RES_PARERR;
 218              		.loc 1 207 0
 219 0024 4FF00403 		mov	r3, #4
 220 0028 FB75     		strb	r3, [r7, #23]
 208:../Dave/Generated/src/FATFS004/FATFS004.c ****       break;
 221              		.loc 1 208 0
 222 002a 24E0     		b	.L11
 223              	.L12:
 209:../Dave/Generated/src/FATFS004/FATFS004.c ****     }
 210:../Dave/Generated/src/FATFS004/FATFS004.c **** /*<<<DD_FATFS004_API_3_3>>>*/
 211:../Dave/Generated/src/FATFS004/FATFS004.c ****     /* For BufferPtr not aligned */
 212:../Dave/Generated/src/FATFS004/FATFS004.c ****     if (((uint32_t)Buffer % 4UL) != 0UL)
 224              		.loc 1 212 0
 225 002c BB68     		ldr	r3, [r7, #8]
 226 002e 03F00303 		and	r3, r3, #3
 227 0032 002B     		cmp	r3, #0
 228 0034 03D0     		beq	.L13
 213:../Dave/Generated/src/FATFS004/FATFS004.c ****     {
 214:../Dave/Generated/src/FATFS004/FATFS004.c ****       DResult = RES_PARERR;
 229              		.loc 1 214 0
 230 0036 4FF00403 		mov	r3, #4
 231 003a FB75     		strb	r3, [r7, #23]
 215:../Dave/Generated/src/FATFS004/FATFS004.c ****       break;
 232              		.loc 1 215 0
 233 003c 1BE0     		b	.L11
 234              	.L13:
 216:../Dave/Generated/src/FATFS004/FATFS004.c ****     }
 217:../Dave/Generated/src/FATFS004/FATFS004.c **** /*<<<DD_FATFS004_API_3_4>>>*/
 218:../Dave/Generated/src/FATFS004/FATFS004.c ****     /*Call the ReadBlkPtr function.*/
 219:../Dave/Generated/src/FATFS004/FATFS004.c ****     Result = FATFS004_DeviceFunc[Drive].ReadBlkPtr(Buffer, SectorNumber, \
 235              		.loc 1 219 0
 236 003e F97B     		ldrb	r1, [r7, #15]	@ zero_extendqisi2
 237 0040 40F20002 		movw	r2, #:lower16:FATFS004_DeviceFunc
 238 0044 C0F20002 		movt	r2, #:upper16:FATFS004_DeviceFunc
 239 0048 0B46     		mov	r3, r1
 240 004a 4FEA8303 		lsl	r3, r3, #2
 241 004e 5B18     		adds	r3, r3, r1
 242 0050 4FEA8303 		lsl	r3, r3, #2
 243 0054 D318     		adds	r3, r2, r3
 244 0056 03F10803 		add	r3, r3, #8
 245 005a 1B68     		ldr	r3, [r3, #0]
 246 005c BA7B     		ldrb	r2, [r7, #14]	@ zero_extendqisi2
 247 005e B868     		ldr	r0, [r7, #8]
 248 0060 7968     		ldr	r1, [r7, #4]
 249 0062 9847     		blx	r3
 250 0064 3861     		str	r0, [r7, #16]
 220:../Dave/Generated/src/FATFS004/FATFS004.c ****                                                     SectorCount);
 221:../Dave/Generated/src/FATFS004/FATFS004.c **** /* Fatfs to Block Layer Error Code Mapping */
 222:../Dave/Generated/src/FATFS004/FATFS004.c ****     DResult = FATFS004_ErrorCodes[Result];                                               
 251              		.loc 1 222 0
 252 0066 40F20003 		movw	r3, #:lower16:FATFS004_ErrorCodes
 253 006a C0F20003 		movt	r3, #:upper16:FATFS004_ErrorCodes
 254 006e 3A69     		ldr	r2, [r7, #16]
 255 0070 9B18     		adds	r3, r3, r2
 256 0072 1B78     		ldrb	r3, [r3, #0]
 257 0074 FB75     		strb	r3, [r7, #23]
 258              	.L11:
 223:../Dave/Generated/src/FATFS004/FATFS004.c ****   } while (0);
 224:../Dave/Generated/src/FATFS004/FATFS004.c ****   ERROR(GID_FATFS004,FATFS004_SDMMC001_ERROR,0,0);
 225:../Dave/Generated/src/FATFS004/FATFS004.c ****   FUNCTION_EXIT(GID_FATFS004, (uint32_t)FATFS004_FUNCTION_EXIT);
 226:../Dave/Generated/src/FATFS004/FATFS004.c ****   return DResult;
 259              		.loc 1 226 0
 260 0076 FB7D     		ldrb	r3, [r7, #23]	@ zero_extendqisi2
 227:../Dave/Generated/src/FATFS004/FATFS004.c **** }
 261              		.loc 1 227 0
 262 0078 1846     		mov	r0, r3
 263 007a 07F11807 		add	r7, r7, #24
 264 007e BD46     		mov	sp, r7
 265 0080 80BD     		pop	{r7, pc}
 266              		.cfi_endproc
 267              	.LFE114:
 269 0082 00BF     		.section	.text.disk_write,"ax",%progbits
 270              		.align	2
 271              		.global	disk_write
 272              		.thumb
 273              		.thumb_func
 275              	disk_write:
 276              	.LFB115:
 228:../Dave/Generated/src/FATFS004/FATFS004.c **** 
 229:../Dave/Generated/src/FATFS004/FATFS004.c **** /*<<<DD_FATFS004_API_4>>>*/
 230:../Dave/Generated/src/FATFS004/FATFS004.c **** /*
 231:../Dave/Generated/src/FATFS004/FATFS004.c ****  * The function writes the blocks of data on the disk.
 232:../Dave/Generated/src/FATFS004/FATFS004.c ****  */
 233:../Dave/Generated/src/FATFS004/FATFS004.c **** DRESULT disk_write
 234:../Dave/Generated/src/FATFS004/FATFS004.c **** (
 235:../Dave/Generated/src/FATFS004/FATFS004.c ****   BYTE Drive,
 236:../Dave/Generated/src/FATFS004/FATFS004.c ****   const BYTE*  Buffer,
 237:../Dave/Generated/src/FATFS004/FATFS004.c ****   DWORD SectorNumber,
 238:../Dave/Generated/src/FATFS004/FATFS004.c ****   BYTE  SectorCount
 239:../Dave/Generated/src/FATFS004/FATFS004.c **** )
 240:../Dave/Generated/src/FATFS004/FATFS004.c **** {
 277              		.loc 1 240 0
 278              		.cfi_startproc
 279              		@ args = 0, pretend = 0, frame = 24
 280              		@ frame_needed = 1, uses_anonymous_args = 0
 281 0000 80B5     		push	{r7, lr}
 282              	.LCFI9:
 283              		.cfi_def_cfa_offset 8
 284              		.cfi_offset 7, -8
 285              		.cfi_offset 14, -4
 286 0002 86B0     		sub	sp, sp, #24
 287              	.LCFI10:
 288              		.cfi_def_cfa_offset 32
 289 0004 00AF     		add	r7, sp, #0
 290              	.LCFI11:
 291              		.cfi_def_cfa_register 7
 292 0006 B960     		str	r1, [r7, #8]
 293 0008 7A60     		str	r2, [r7, #4]
 294 000a 0246     		mov	r2, r0
 295 000c FA73     		strb	r2, [r7, #15]
 296 000e BB73     		strb	r3, [r7, #14]
 241:../Dave/Generated/src/FATFS004/FATFS004.c ****   DRESULT DResult;
 242:../Dave/Generated/src/FATFS004/FATFS004.c ****   uint32_t Result;
 243:../Dave/Generated/src/FATFS004/FATFS004.c ****   FUNCTION_ENTRY(GID_FATFS004, (uint32_t)FATFS004_FUNCTION_ENTRY);
 244:../Dave/Generated/src/FATFS004/FATFS004.c ****   do
 245:../Dave/Generated/src/FATFS004/FATFS004.c ****   {
 246:../Dave/Generated/src/FATFS004/FATFS004.c **** /*<<<DD_FATFS004_API_4_1>>>*/
 247:../Dave/Generated/src/FATFS004/FATFS004.c ****     /* If drive number is greater than the maximum drives allowed  */
 248:../Dave/Generated/src/FATFS004/FATFS004.c ****     if (Drive >= FATFS004_MAX_DRIVES)
 297              		.loc 1 248 0
 298 0010 FB7B     		ldrb	r3, [r7, #15]	@ zero_extendqisi2
 299 0012 002B     		cmp	r3, #0
 300 0014 03D0     		beq	.L16
 249:../Dave/Generated/src/FATFS004/FATFS004.c ****     {
 250:../Dave/Generated/src/FATFS004/FATFS004.c ****       DResult = RES_PARERR;
 301              		.loc 1 250 0
 302 0016 4FF00403 		mov	r3, #4
 303 001a FB75     		strb	r3, [r7, #23]
 251:../Dave/Generated/src/FATFS004/FATFS004.c ****       break;
 304              		.loc 1 251 0
 305 001c 2BE0     		b	.L17
 306              	.L16:
 252:../Dave/Generated/src/FATFS004/FATFS004.c ****     }
 253:../Dave/Generated/src/FATFS004/FATFS004.c **** /*<<<DD_FATFS004_API_4_2>>> */
 254:../Dave/Generated/src/FATFS004/FATFS004.c ****     /* If sector count is less than 1. Minimum 1 sector is needed*/
 255:../Dave/Generated/src/FATFS004/FATFS004.c ****     if (SectorCount < 1)
 307              		.loc 1 255 0
 308 001e BB7B     		ldrb	r3, [r7, #14]	@ zero_extendqisi2
 309 0020 002B     		cmp	r3, #0
 310 0022 03D1     		bne	.L18
 256:../Dave/Generated/src/FATFS004/FATFS004.c ****     {
 257:../Dave/Generated/src/FATFS004/FATFS004.c ****       DResult = RES_PARERR;
 311              		.loc 1 257 0
 312 0024 4FF00403 		mov	r3, #4
 313 0028 FB75     		strb	r3, [r7, #23]
 258:../Dave/Generated/src/FATFS004/FATFS004.c ****       break;
 314              		.loc 1 258 0
 315 002a 24E0     		b	.L17
 316              	.L18:
 259:../Dave/Generated/src/FATFS004/FATFS004.c ****     }
 260:../Dave/Generated/src/FATFS004/FATFS004.c **** /*<<<DD_FATFS004_API_4_3>>> */
 261:../Dave/Generated/src/FATFS004/FATFS004.c ****     /* for BufferPtr not aligned */
 262:../Dave/Generated/src/FATFS004/FATFS004.c ****     if (((uint32_t)Buffer % 4UL) != 0UL)
 317              		.loc 1 262 0
 318 002c BB68     		ldr	r3, [r7, #8]
 319 002e 03F00303 		and	r3, r3, #3
 320 0032 002B     		cmp	r3, #0
 321 0034 03D0     		beq	.L19
 263:../Dave/Generated/src/FATFS004/FATFS004.c ****     {
 264:../Dave/Generated/src/FATFS004/FATFS004.c ****       DResult = RES_PARERR;
 322              		.loc 1 264 0
 323 0036 4FF00403 		mov	r3, #4
 324 003a FB75     		strb	r3, [r7, #23]
 265:../Dave/Generated/src/FATFS004/FATFS004.c ****       break;
 325              		.loc 1 265 0
 326 003c 1BE0     		b	.L17
 327              	.L19:
 266:../Dave/Generated/src/FATFS004/FATFS004.c ****     }
 267:../Dave/Generated/src/FATFS004/FATFS004.c **** /*<<<DD_FATFS004_API_4_4>>> */
 268:../Dave/Generated/src/FATFS004/FATFS004.c ****     /*Call the WriteBlkPtr function.*/
 269:../Dave/Generated/src/FATFS004/FATFS004.c ****     Result = FATFS004_DeviceFunc[Drive].WriteBlkPtr(Buffer, SectorNumber, SectorCount);
 328              		.loc 1 269 0
 329 003e F97B     		ldrb	r1, [r7, #15]	@ zero_extendqisi2
 330 0040 40F20002 		movw	r2, #:lower16:FATFS004_DeviceFunc
 331 0044 C0F20002 		movt	r2, #:upper16:FATFS004_DeviceFunc
 332 0048 0B46     		mov	r3, r1
 333 004a 4FEA8303 		lsl	r3, r3, #2
 334 004e 5B18     		adds	r3, r3, r1
 335 0050 4FEA8303 		lsl	r3, r3, #2
 336 0054 D318     		adds	r3, r2, r3
 337 0056 03F10C03 		add	r3, r3, #12
 338 005a 1B68     		ldr	r3, [r3, #0]
 339 005c BA7B     		ldrb	r2, [r7, #14]	@ zero_extendqisi2
 340 005e B868     		ldr	r0, [r7, #8]
 341 0060 7968     		ldr	r1, [r7, #4]
 342 0062 9847     		blx	r3
 343 0064 3861     		str	r0, [r7, #16]
 270:../Dave/Generated/src/FATFS004/FATFS004.c **** /* Fatfs to Block Layer Error Code Mapping */
 271:../Dave/Generated/src/FATFS004/FATFS004.c ****     DResult = FATFS004_ErrorCodes[Result];  
 344              		.loc 1 271 0
 345 0066 40F20003 		movw	r3, #:lower16:FATFS004_ErrorCodes
 346 006a C0F20003 		movt	r3, #:upper16:FATFS004_ErrorCodes
 347 006e 3A69     		ldr	r2, [r7, #16]
 348 0070 9B18     		adds	r3, r3, r2
 349 0072 1B78     		ldrb	r3, [r3, #0]
 350 0074 FB75     		strb	r3, [r7, #23]
 351              	.L17:
 272:../Dave/Generated/src/FATFS004/FATFS004.c ****   } while (0);
 273:../Dave/Generated/src/FATFS004/FATFS004.c ****   ERROR(GID_FATFS004,FATFS004_SDMMC002_ERROR,0,0);
 274:../Dave/Generated/src/FATFS004/FATFS004.c ****   FUNCTION_EXIT(GID_FATFS004, (uint32_t)FATFS004_FUNCTION_EXIT);
 275:../Dave/Generated/src/FATFS004/FATFS004.c ****   return DResult;
 352              		.loc 1 275 0
 353 0076 FB7D     		ldrb	r3, [r7, #23]	@ zero_extendqisi2
 276:../Dave/Generated/src/FATFS004/FATFS004.c **** }
 354              		.loc 1 276 0
 355 0078 1846     		mov	r0, r3
 356 007a 07F11807 		add	r7, r7, #24
 357 007e BD46     		mov	sp, r7
 358 0080 80BD     		pop	{r7, pc}
 359              		.cfi_endproc
 360              	.LFE115:
 362 0082 00BF     		.section	.text.disk_ioctl,"ax",%progbits
 363              		.align	2
 364              		.global	disk_ioctl
 365              		.thumb
 366              		.thumb_func
 368              	disk_ioctl:
 369              	.LFB116:
 277:../Dave/Generated/src/FATFS004/FATFS004.c **** 
 278:../Dave/Generated/src/FATFS004/FATFS004.c **** /*<<<DD_FATFS004_API_5>>>*/
 279:../Dave/Generated/src/FATFS004/FATFS004.c **** /*
 280:../Dave/Generated/src/FATFS004/FATFS004.c ****  * The function performs the various IOCTL operation.
 281:../Dave/Generated/src/FATFS004/FATFS004.c ****  */
 282:../Dave/Generated/src/FATFS004/FATFS004.c **** DRESULT  disk_ioctl(BYTE Drive, BYTE Command, void * Buffer)
 283:../Dave/Generated/src/FATFS004/FATFS004.c **** {
 370              		.loc 1 283 0
 371              		.cfi_startproc
 372              		@ args = 0, pretend = 0, frame = 16
 373              		@ frame_needed = 1, uses_anonymous_args = 0
 374 0000 80B5     		push	{r7, lr}
 375              	.LCFI12:
 376              		.cfi_def_cfa_offset 8
 377              		.cfi_offset 7, -8
 378              		.cfi_offset 14, -4
 379 0002 84B0     		sub	sp, sp, #16
 380              	.LCFI13:
 381              		.cfi_def_cfa_offset 24
 382 0004 00AF     		add	r7, sp, #0
 383              	.LCFI14:
 384              		.cfi_def_cfa_register 7
 385 0006 0B46     		mov	r3, r1
 386 0008 3A60     		str	r2, [r7, #0]
 387 000a 0246     		mov	r2, r0
 388 000c FA71     		strb	r2, [r7, #7]
 389 000e BB71     		strb	r3, [r7, #6]
 284:../Dave/Generated/src/FATFS004/FATFS004.c ****   DRESULT DResult;
 285:../Dave/Generated/src/FATFS004/FATFS004.c ****   uint32_t Result;
 286:../Dave/Generated/src/FATFS004/FATFS004.c ****   FUNCTION_ENTRY(GID_FATFS004, (uint32_t)FATFS004_FUNCTION_ENTRY);
 287:../Dave/Generated/src/FATFS004/FATFS004.c ****   do
 288:../Dave/Generated/src/FATFS004/FATFS004.c ****   {
 289:../Dave/Generated/src/FATFS004/FATFS004.c **** /*<<<DD_FATFS004_API_5_1>>>*/
 290:../Dave/Generated/src/FATFS004/FATFS004.c ****     if (Drive >= FATFS004_MAX_DRIVES)
 390              		.loc 1 290 0
 391 0010 FB79     		ldrb	r3, [r7, #7]	@ zero_extendqisi2
 392 0012 002B     		cmp	r3, #0
 393 0014 03D0     		beq	.L22
 291:../Dave/Generated/src/FATFS004/FATFS004.c ****     {
 292:../Dave/Generated/src/FATFS004/FATFS004.c ****       DResult = RES_PARERR;
 394              		.loc 1 292 0
 395 0016 4FF00403 		mov	r3, #4
 396 001a FB73     		strb	r3, [r7, #15]
 293:../Dave/Generated/src/FATFS004/FATFS004.c ****       break;
 397              		.loc 1 293 0
 398 001c 24E0     		b	.L23
 399              	.L22:
 294:../Dave/Generated/src/FATFS004/FATFS004.c ****     }
 295:../Dave/Generated/src/FATFS004/FATFS004.c ****     /* for BufferPtr not aligned */
 296:../Dave/Generated/src/FATFS004/FATFS004.c **** /*<<<DD_FATFS004_API_5_2>>>*/
 297:../Dave/Generated/src/FATFS004/FATFS004.c ****     if (((uint32_t)Buffer % 4UL) != 0UL)
 400              		.loc 1 297 0
 401 001e 3B68     		ldr	r3, [r7, #0]
 402 0020 03F00303 		and	r3, r3, #3
 403 0024 002B     		cmp	r3, #0
 404 0026 03D0     		beq	.L24
 298:../Dave/Generated/src/FATFS004/FATFS004.c ****     {
 299:../Dave/Generated/src/FATFS004/FATFS004.c ****       DResult = RES_PARERR;
 405              		.loc 1 299 0
 406 0028 4FF00403 		mov	r3, #4
 407 002c FB73     		strb	r3, [r7, #15]
 300:../Dave/Generated/src/FATFS004/FATFS004.c ****       break;
 408              		.loc 1 300 0
 409 002e 1BE0     		b	.L23
 410              	.L24:
 301:../Dave/Generated/src/FATFS004/FATFS004.c ****     }
 302:../Dave/Generated/src/FATFS004/FATFS004.c **** /*<<<DD_FATFS004_API_5_3>>>*/
 303:../Dave/Generated/src/FATFS004/FATFS004.c ****     /*Call the Ioctl function.*/
 304:../Dave/Generated/src/FATFS004/FATFS004.c ****     Result = FATFS004_DeviceFunc[Drive].IoctlPtr(Command, Buffer);
 411              		.loc 1 304 0
 412 0030 F979     		ldrb	r1, [r7, #7]	@ zero_extendqisi2
 413 0032 40F20002 		movw	r2, #:lower16:FATFS004_DeviceFunc
 414 0036 C0F20002 		movt	r2, #:upper16:FATFS004_DeviceFunc
 415 003a 0B46     		mov	r3, r1
 416 003c 4FEA8303 		lsl	r3, r3, #2
 417 0040 5B18     		adds	r3, r3, r1
 418 0042 4FEA8303 		lsl	r3, r3, #2
 419 0046 D318     		adds	r3, r2, r3
 420 0048 03F11003 		add	r3, r3, #16
 421 004c 1B68     		ldr	r3, [r3, #0]
 422 004e BA79     		ldrb	r2, [r7, #6]	@ zero_extendqisi2
 423 0050 1046     		mov	r0, r2
 424 0052 3968     		ldr	r1, [r7, #0]
 425 0054 9847     		blx	r3
 426 0056 B860     		str	r0, [r7, #8]
 305:../Dave/Generated/src/FATFS004/FATFS004.c **** /* Fatfs to Block Layer Error Code Mapping */
 306:../Dave/Generated/src/FATFS004/FATFS004.c ****     DResult = FATFS004_ErrorCodes[Result];  
 427              		.loc 1 306 0
 428 0058 40F20003 		movw	r3, #:lower16:FATFS004_ErrorCodes
 429 005c C0F20003 		movt	r3, #:upper16:FATFS004_ErrorCodes
 430 0060 BA68     		ldr	r2, [r7, #8]
 431 0062 9B18     		adds	r3, r3, r2
 432 0064 1B78     		ldrb	r3, [r3, #0]
 433 0066 FB73     		strb	r3, [r7, #15]
 434              	.L23:
 307:../Dave/Generated/src/FATFS004/FATFS004.c ****   } while (0);
 308:../Dave/Generated/src/FATFS004/FATFS004.c ****   ERROR(GID_FATFS004,FATFS004_SDMMC002_ERROR,0,0);
 309:../Dave/Generated/src/FATFS004/FATFS004.c ****   FUNCTION_EXIT(GID_FATFS004, (uint32_t)FATFS004_FUNCTION_EXIT);
 310:../Dave/Generated/src/FATFS004/FATFS004.c ****   return DResult;
 435              		.loc 1 310 0
 436 0068 FB7B     		ldrb	r3, [r7, #15]	@ zero_extendqisi2
 311:../Dave/Generated/src/FATFS004/FATFS004.c **** }
 437              		.loc 1 311 0
 438 006a 1846     		mov	r0, r3
 439 006c 07F11007 		add	r7, r7, #16
 440 0070 BD46     		mov	sp, r7
 441 0072 80BD     		pop	{r7, pc}
 442              		.cfi_endproc
 443              	.LFE116:
 445              		.section	.text.get_fattime,"ax",%progbits
 446              		.align	2
 447              		.global	get_fattime
 448              		.thumb
 449              		.thumb_func
 451              	get_fattime:
 452              	.LFB117:
 312:../Dave/Generated/src/FATFS004/FATFS004.c **** 
 313:../Dave/Generated/src/FATFS004/FATFS004.c **** /*<<<DD_FATFS004_API_6>>> */
 314:../Dave/Generated/src/FATFS004/FATFS004.c **** /**
 315:../Dave/Generated/src/FATFS004/FATFS004.c ****  * This is a real time clock service to be called from
 316:../Dave/Generated/src/FATFS004/FATFS004.c ****  * FatFs module.This function is not required in read-only cfg
 317:../Dave/Generated/src/FATFS004/FATFS004.c ****  */
 318:../Dave/Generated/src/FATFS004/FATFS004.c **** DWORD get_fattime()
 319:../Dave/Generated/src/FATFS004/FATFS004.c **** {
 453              		.loc 1 319 0
 454              		.cfi_startproc
 455              		@ args = 0, pretend = 0, frame = 8
 456              		@ frame_needed = 1, uses_anonymous_args = 0
 457 0000 80B5     		push	{r7, lr}
 458              	.LCFI15:
 459              		.cfi_def_cfa_offset 8
 460              		.cfi_offset 7, -8
 461              		.cfi_offset 14, -4
 462 0002 82B0     		sub	sp, sp, #8
 463              	.LCFI16:
 464              		.cfi_def_cfa_offset 16
 465 0004 00AF     		add	r7, sp, #0
 466              	.LCFI17:
 467              		.cfi_def_cfa_register 7
 320:../Dave/Generated/src/FATFS004/FATFS004.c ****   RTC001_TimeHandle Time = {0};  
 468              		.loc 1 320 0
 469 0006 4FF00003 		mov	r3, #0
 470 000a 3B60     		str	r3, [r7, #0]
 471 000c 4FF00003 		mov	r3, #0
 472 0010 7B60     		str	r3, [r7, #4]
 321:../Dave/Generated/src/FATFS004/FATFS004.c ****   FATFS004_UnusedStatus = RTC001_Clock_GetTime(&Time);
 473              		.loc 1 321 0
 474 0012 3B46     		mov	r3, r7
 475 0014 1846     		mov	r0, r3
 476 0016 FFF7FEFF 		bl	RTC001_Clock_GetTime
 477 001a 0246     		mov	r2, r0
 478 001c 40F20003 		movw	r3, #:lower16:FATFS004_UnusedStatus
 479 0020 C0F20003 		movt	r3, #:upper16:FATFS004_UnusedStatus
 480 0024 1A60     		str	r2, [r3, #0]
 322:../Dave/Generated/src/FATFS004/FATFS004.c **** /* Pack date and time into a DWORD variable */
 323:../Dave/Generated/src/FATFS004/FATFS004.c ****   return    ((DWORD)(Time.Year - 1980) << 25)
 481              		.loc 1 323 0
 482 0026 FB88     		ldrh	r3, [r7, #6]
 483 0028 A3F2BC73 		subw	r3, r3, #1980
 484 002c 4FEA4362 		lsl	r2, r3, #25
 324:../Dave/Generated/src/FATFS004/FATFS004.c ****       | ((DWORD)Time.Month << 21)
 485              		.loc 1 324 0
 486 0030 7B79     		ldrb	r3, [r7, #5]	@ zero_extendqisi2
 487 0032 4FEA4353 		lsl	r3, r3, #21
 488 0036 1A43     		orrs	r2, r2, r3
 325:../Dave/Generated/src/FATFS004/FATFS004.c ****       | ((DWORD)Time.Days << 16)
 489              		.loc 1 325 0
 490 0038 FB78     		ldrb	r3, [r7, #3]	@ zero_extendqisi2
 491 003a 4FEA0343 		lsl	r3, r3, #16
 492 003e 1A43     		orrs	r2, r2, r3
 326:../Dave/Generated/src/FATFS004/FATFS004.c ****       | ((DWORD)Time.Hours << 11)
 493              		.loc 1 326 0
 494 0040 BB78     		ldrb	r3, [r7, #2]	@ zero_extendqisi2
 495 0042 4FEAC323 		lsl	r3, r3, #11
 496 0046 1A43     		orrs	r2, r2, r3
 327:../Dave/Generated/src/FATFS004/FATFS004.c ****       | ((DWORD)Time.Min << 5)
 497              		.loc 1 327 0
 498 0048 7B78     		ldrb	r3, [r7, #1]	@ zero_extendqisi2
 499 004a 4FEA4313 		lsl	r3, r3, #5
 500 004e 1A43     		orrs	r2, r2, r3
 328:../Dave/Generated/src/FATFS004/FATFS004.c ****       | ((DWORD)Time.Sec >> 1);
 501              		.loc 1 328 0
 502 0050 3B78     		ldrb	r3, [r7, #0]	@ zero_extendqisi2
 503 0052 4FEA5303 		lsr	r3, r3, #1
 504 0056 DBB2     		uxtb	r3, r3
 323:../Dave/Generated/src/FATFS004/FATFS004.c ****   return    ((DWORD)(Time.Year - 1980) << 25)
 505              		.loc 1 323 0
 506 0058 1343     		orrs	r3, r3, r2
 329:../Dave/Generated/src/FATFS004/FATFS004.c **** }
 507              		.loc 1 329 0
 508 005a 1846     		mov	r0, r3
 509 005c 07F10807 		add	r7, r7, #8
 510 0060 BD46     		mov	sp, r7
 511 0062 80BD     		pop	{r7, pc}
 512              		.cfi_endproc
 513              	.LFE117:
 515              		.text
 516              	.Letext0:
 517              		.file 2 "c:\\dave-3.1.10\\arm-gcc\\bin\\../lib/gcc/arm-none-eabi/4.7.4/../../../../arm-none-eabi/i
 518              		.file 3 "F:\\WORK\\SmartHome_checkout1\\XMC4500_RK_HTTPserver\\Dave\\Generated\\inc\\DAVESupport/.
 519              		.file 4 "F:\\WORK\\SmartHome_checkout1\\XMC4500_RK_HTTPserver\\Dave\\Generated\\inc\\DAVESupport/.
 520              		.file 5 "F:\\WORK\\SmartHome_checkout1\\XMC4500_RK_HTTPserver\\Dave\\Generated\\inc\\DAVESupport/.
 521              		.file 6 "F:\\WORK\\SmartHome_checkout1\\XMC4500_RK_HTTPserver\\Dave\\Generated\\inc\\DAVESupport/.
 522              		.file 7 "F:\\WORK\\SmartHome_checkout1\\XMC4500_RK_HTTPserver\\Dave\\Generated\\inc\\DAVESupport/.
 523              		.file 8 "F:\\WORK\\SmartHome_checkout1\\XMC4500_RK_HTTPserver\\Dave\\Generated\\inc\\DAVESupport/.
 524              		.file 9 "F:\\WORK\\SmartHome_checkout1\\XMC4500_RK_HTTPserver\\Dave\\Generated\\inc\\DAVESupport/.
 525              		.file 10 "C:\\DAVE-3.1.10\\eclipse\\/../CMSIS/Include/core_cm4.h"