   1              		.syntax unified
   2              		.cpu cortex-m4
   3              		.eabi_attribute 27, 3
   4              		.fpu fpv4-sp-d16
   5              		.eabi_attribute 20, 1
   6              		.eabi_attribute 21, 1
   7              		.eabi_attribute 23, 3
   8              		.eabi_attribute 24, 1
   9              		.eabi_attribute 25, 1
  10              		.eabi_attribute 26, 1
  11              		.eabi_attribute 30, 4
  12              		.eabi_attribute 34, 1
  13              		.eabi_attribute 18, 4
  14              		.thumb
  15              		.file	"FATFS004.c"
  16              		.section	.text.disk_initialize,"ax",%progbits
  17              		.align	1
  18              		.global	disk_initialize
  19              		.thumb
  20              		.thumb_func
  22              	disk_initialize:
  23              		@ args = 0, pretend = 0, frame = 0
  24              		@ frame_needed = 0, uses_anonymous_args = 0
  25 0000 08B5     		push	{r3, lr}
  26 0002 28B9     		cbnz	r0, .L3
  27 0004 034B     		ldr	r3, .L5
  28 0006 1868     		ldr	r0, [r3, #0]
  29 0008 8047     		blx	r0
  30 000a 0349     		ldr	r1, .L5+4
  31 000c 085C     		ldrb	r0, [r1, r0]	@ zero_extendqisi2
  32 000e 08BD     		pop	{r3, pc}
  33              	.L3:
  34 0010 0320     		movs	r0, #3
  35 0012 08BD     		pop	{r3, pc}
  36              	.L6:
  37              		.align	2
  38              	.L5:
  39 0014 00000000 		.word	FATFS004_DeviceFunc
  40 0018 00000000 		.word	.LANCHOR0
  42              		.section	.text.disk_status,"ax",%progbits
  43              		.align	1
  44              		.global	disk_status
  45              		.thumb
  46              		.thumb_func
  48              	disk_status:
  49              		@ args = 0, pretend = 0, frame = 0
  50              		@ frame_needed = 0, uses_anonymous_args = 0
  51 0000 08B5     		push	{r3, lr}
  52 0002 28B9     		cbnz	r0, .L9
  53 0004 034B     		ldr	r3, .L10
  54 0006 5868     		ldr	r0, [r3, #4]
  55 0008 8047     		blx	r0
  56 000a 0349     		ldr	r1, .L10+4
  57 000c 085C     		ldrb	r0, [r1, r0]	@ zero_extendqisi2
  58 000e 08BD     		pop	{r3, pc}
  59              	.L9:
  60 0010 0320     		movs	r0, #3
  61 0012 08BD     		pop	{r3, pc}
  62              	.L11:
  63              		.align	2
  64              	.L10:
  65 0014 00000000 		.word	FATFS004_DeviceFunc
  66 0018 00000000 		.word	.LANCHOR0
  68              		.section	.text.disk_read,"ax",%progbits
  69              		.align	1
  70              		.global	disk_read
  71              		.thumb
  72              		.thumb_func
  74              	disk_read:
  75              		@ args = 0, pretend = 0, frame = 0
  76              		@ frame_needed = 0, uses_anonymous_args = 0
  77 0000 10B5     		push	{r4, lr}
  78 0002 60B9     		cbnz	r0, .L16
  79 0004 5BB1     		cbz	r3, .L16
  80 0006 8807     		lsls	r0, r1, #30
  81 0008 09D1     		bne	.L16
  82 000a 0648     		ldr	r0, .L17
  83 000c 8468     		ldr	r4, [r0, #8]
  84 000e 0846     		mov	r0, r1
  85 0010 1146     		mov	r1, r2
  86 0012 1A46     		mov	r2, r3
  87 0014 A047     		blx	r4
  88 0016 044B     		ldr	r3, .L17+4
  89 0018 1918     		adds	r1, r3, r0
  90 001a 4879     		ldrb	r0, [r1, #5]	@ zero_extendqisi2
  91 001c 10BD     		pop	{r4, pc}
  92              	.L16:
  93 001e 0420     		movs	r0, #4
  94 0020 10BD     		pop	{r4, pc}
  95              	.L18:
  96 0022 00BF     		.align	2
  97              	.L17:
  98 0024 00000000 		.word	FATFS004_DeviceFunc
  99 0028 00000000 		.word	.LANCHOR0
 101              		.section	.text.disk_write,"ax",%progbits
 102              		.align	1
 103              		.global	disk_write
 104              		.thumb
 105              		.thumb_func
 107              	disk_write:
 108              		@ args = 0, pretend = 0, frame = 0
 109              		@ frame_needed = 0, uses_anonymous_args = 0
 110 0000 10B5     		push	{r4, lr}
 111 0002 60B9     		cbnz	r0, .L23
 112 0004 5BB1     		cbz	r3, .L23
 113 0006 8807     		lsls	r0, r1, #30
 114 0008 09D1     		bne	.L23
 115 000a 0648     		ldr	r0, .L24
 116 000c C468     		ldr	r4, [r0, #12]
 117 000e 0846     		mov	r0, r1
 118 0010 1146     		mov	r1, r2
 119 0012 1A46     		mov	r2, r3
 120 0014 A047     		blx	r4
 121 0016 044B     		ldr	r3, .L24+4
 122 0018 1918     		adds	r1, r3, r0
 123 001a 4879     		ldrb	r0, [r1, #5]	@ zero_extendqisi2
 124 001c 10BD     		pop	{r4, pc}
 125              	.L23:
 126 001e 0420     		movs	r0, #4
 127 0020 10BD     		pop	{r4, pc}
 128              	.L25:
 129 0022 00BF     		.align	2
 130              	.L24:
 131 0024 00000000 		.word	FATFS004_DeviceFunc
 132 0028 00000000 		.word	.LANCHOR0
 134              		.section	.text.disk_ioctl,"ax",%progbits
 135              		.align	1
 136              		.global	disk_ioctl
 137              		.thumb
 138              		.thumb_func
 140              	disk_ioctl:
 141              		@ args = 0, pretend = 0, frame = 0
 142              		@ frame_needed = 0, uses_anonymous_args = 0
 143 0000 08B5     		push	{r3, lr}
 144 0002 50B9     		cbnz	r0, .L29
 145 0004 9307     		lsls	r3, r2, #30
 146 0006 08D1     		bne	.L29
 147 0008 054B     		ldr	r3, .L30
 148 000a 0846     		mov	r0, r1
 149 000c 1B69     		ldr	r3, [r3, #16]
 150 000e 1146     		mov	r1, r2
 151 0010 9847     		blx	r3
 152 0012 0449     		ldr	r1, .L30+4
 153 0014 0818     		adds	r0, r1, r0
 154 0016 4079     		ldrb	r0, [r0, #5]	@ zero_extendqisi2
 155 0018 08BD     		pop	{r3, pc}
 156              	.L29:
 157 001a 0420     		movs	r0, #4
 158 001c 08BD     		pop	{r3, pc}
 159              	.L31:
 160 001e 00BF     		.align	2
 161              	.L30:
 162 0020 00000000 		.word	FATFS004_DeviceFunc
 163 0024 00000000 		.word	.LANCHOR0
 165              		.section	.text.get_fattime,"ax",%progbits
 166              		.align	1
 167              		.global	get_fattime
 168              		.thumb
 169              		.thumb_func
 171              	get_fattime:
 172              		@ args = 0, pretend = 0, frame = 8
 173              		@ frame_needed = 0, uses_anonymous_args = 0
 174 0000 07B5     		push	{r0, r1, r2, lr}
 175 0002 0023     		movs	r3, #0
 176 0004 6846     		mov	r0, sp
 177 0006 0093     		str	r3, [sp, #0]
 178 0008 0193     		str	r3, [sp, #4]
 179 000a FFF7FEFF 		bl	RTC001_Clock_GetTime
 180 000e 0E49     		ldr	r1, .L33
 181 0010 9DF80320 		ldrb	r2, [sp, #3]	@ zero_extendqisi2
 182 0014 0860     		str	r0, [r1, #0]
 183 0016 9DF80500 		ldrb	r0, [sp, #5]	@ zero_extendqisi2
 184 001a 4305     		lsls	r3, r0, #21
 185 001c 43EA0241 		orr	r1, r3, r2, lsl #16
 186 0020 9DF80220 		ldrb	r2, [sp, #2]	@ zero_extendqisi2
 187 0024 9DF80130 		ldrb	r3, [sp, #1]	@ zero_extendqisi2
 188 0028 41EAC220 		orr	r0, r1, r2, lsl #11
 189 002c 40EA4311 		orr	r1, r0, r3, lsl #5
 190 0030 9DF80020 		ldrb	r2, [sp, #0]	@ zero_extendqisi2
 191 0034 BDF80600 		ldrh	r0, [sp, #6]
 192 0038 41EA5203 		orr	r3, r1, r2, lsr #1
 193 003c A0F2BC71 		subw	r1, r0, #1980
 194 0040 43EA4160 		orr	r0, r3, r1, lsl #25
 195 0044 0EBD     		pop	{r1, r2, r3, pc}
 196              	.L34:
 197 0046 00BF     		.align	2
 198              	.L33:
 199 0048 00000000 		.word	FATFS004_UnusedStatus
 201              		.comm	FATFS004_UnusedStatus,4,4
 202              		.global	FATFS004_StatusCodes
 203              		.global	FATFS004_ErrorCodes
 204              		.data
 205              		.set	.LANCHOR0,. + 0
 208              	FATFS004_StatusCodes:
 209 0000 00       		.byte	0
 210 0001 01       		.byte	1
 211 0002 02       		.byte	2
 212 0003 03       		.byte	3
 213 0004 04       		.byte	4
 216              	FATFS004_ErrorCodes:
 217 0005 00       		.byte	0
 218 0006 01       		.byte	1
 219 0007 02       		.byte	2
 220 0008 03       		.byte	3
 221 0009 04       		.byte	4
 222              		.ident	"GCC: (GNU Tools for ARM Embedded Processors) 4.7.4 20130913 (release) [ARM/embedded-4_7-br