   1              		.syntax unified
   2              		.cpu cortex-m4
   3              		.eabi_attribute 27, 3
   4              		.fpu fpv4-sp-d16
   5              		.eabi_attribute 20, 1
   6              		.eabi_attribute 21, 1
   7              		.eabi_attribute 23, 3
   8              		.eabi_attribute 24, 1
   9              		.eabi_attribute 25, 1
  10              		.eabi_attribute 26, 1
  11              		.eabi_attribute 30, 6
  12              		.eabi_attribute 34, 1
  13              		.eabi_attribute 18, 4
  14              		.thumb
  15              		.file	"synopGMAC_plat.c"
  16              		.text
  17              	.Ltext0:
  18              		.cfi_sections	.debug_frame
  19              		.section	.text.synopGMACReadReg,"ax",%progbits
  20              		.align	2
  21              		.global	synopGMACReadReg
  22              		.thumb
  23              		.thumb_func
  25              	synopGMACReadReg:
  26              	.LFB117:
  27              		.file 1 "../Dave/Generated/src/ETH001/synopGMAC_plat.c"
   1:../Dave/Generated/src/ETH001/synopGMAC_plat.c **** /* ===================================================================================
   2:../Dave/Generated/src/ETH001/synopGMAC_plat.c ****  * Copyright (c) <2009> Synopsys, Inc.
   3:../Dave/Generated/src/ETH001/synopGMAC_plat.c ****  *
   4:../Dave/Generated/src/ETH001/synopGMAC_plat.c ****  * Permission is hereby granted, free of charge, to any person obtaining a copy of 
   5:../Dave/Generated/src/ETH001/synopGMAC_plat.c ****  * this software annotated with this license and associated documentation files 
   6:../Dave/Generated/src/ETH001/synopGMAC_plat.c ****  * (the "Software"), to deal in the Software without restriction, including without 
   7:../Dave/Generated/src/ETH001/synopGMAC_plat.c ****  * limitation the rights to use, copy, modify, merge, publish, distribute, sublicense, 
   8:../Dave/Generated/src/ETH001/synopGMAC_plat.c ****  * and/or sell copies of the Software, and to permit persons to whom the Software is 
   9:../Dave/Generated/src/ETH001/synopGMAC_plat.c ****  * furnished to do so, subject to the following conditions:
  10:../Dave/Generated/src/ETH001/synopGMAC_plat.c ****  *
  11:../Dave/Generated/src/ETH001/synopGMAC_plat.c ****  * The above copyright notice and this permission notice shall be included in all 
  12:../Dave/Generated/src/ETH001/synopGMAC_plat.c ****  * copies or substantial portions of the Software.
  13:../Dave/Generated/src/ETH001/synopGMAC_plat.c ****  *
  14:../Dave/Generated/src/ETH001/synopGMAC_plat.c ****  * THE SOFTWARE IS PROVIDED "AS IS", WITHOUT WARRANTY OF ANY KIND, EXPRESS OR IMPLIED, 
  15:../Dave/Generated/src/ETH001/synopGMAC_plat.c ****  * INCLUDING BUT NOT LIMITED TO THE WARRANTIES OF MERCHANTABILITY, FITNESS FOR A 
  16:../Dave/Generated/src/ETH001/synopGMAC_plat.c ****  * PARTICULAR PURPOSE AND NONINFRINGEMENT. IN NO EVENT SHALL THE AUTHORS OR COPYRIGHT 
  17:../Dave/Generated/src/ETH001/synopGMAC_plat.c ****  * HOLDERS BE LIABLE FOR ANY CLAIM, DAMAGES OR OTHER LIABILITY, WHETHER IN AN ACTION 
  18:../Dave/Generated/src/ETH001/synopGMAC_plat.c ****  * OF CONTRACT, TORT OR OTHERWISE, ARISING FROM, OUT OF OR IN CONNECTION WITH THE SOFTWARE 
  19:../Dave/Generated/src/ETH001/synopGMAC_plat.c ****  * OR THE USE OR OTHER DEALINGS IN THE SOFTWARE.
  20:../Dave/Generated/src/ETH001/synopGMAC_plat.c ****  *
  21:../Dave/Generated/src/ETH001/synopGMAC_plat.c ****  * =================================================================================== */
  22:../Dave/Generated/src/ETH001/synopGMAC_plat.c **** /* =========================================================================== * 
  23:../Dave/Generated/src/ETH001/synopGMAC_plat.c ****  * Copyright (c) 2011, Infineon Technologies AG                                *
  24:../Dave/Generated/src/ETH001/synopGMAC_plat.c ****  * All rights reserved.                                                        * 
  25:../Dave/Generated/src/ETH001/synopGMAC_plat.c ****  *                                                                             *
  26:../Dave/Generated/src/ETH001/synopGMAC_plat.c ****  * Redistribution and use in source and binary forms, with or without          *
  27:../Dave/Generated/src/ETH001/synopGMAC_plat.c ****  * modification, are permitted provided that the following conditions are met: *
  28:../Dave/Generated/src/ETH001/synopGMAC_plat.c ****  * Redistributions of source code must retain the above copyright notice, this *
  29:../Dave/Generated/src/ETH001/synopGMAC_plat.c ****  * list of conditions and the following disclaimer. Redistributions in binary  *
  30:../Dave/Generated/src/ETH001/synopGMAC_plat.c ****  * form must reproduce the above copyright notice, this list of conditions and *
  31:../Dave/Generated/src/ETH001/synopGMAC_plat.c ****  * the following disclaimer in the documentation and/or other materials        *
  32:../Dave/Generated/src/ETH001/synopGMAC_plat.c ****  * provided with the distribution. Neither the name of the copyright holders   * 
  33:../Dave/Generated/src/ETH001/synopGMAC_plat.c ****  * nor the names of its contributors may be used to endorse or promote         *
  34:../Dave/Generated/src/ETH001/synopGMAC_plat.c ****  * products derived from this software without specific prior written          * 
  35:../Dave/Generated/src/ETH001/synopGMAC_plat.c ****  * permission.                                                                 *
  36:../Dave/Generated/src/ETH001/synopGMAC_plat.c ****  *                                                                             *
  37:../Dave/Generated/src/ETH001/synopGMAC_plat.c ****  * THIS SOFTWARE IS PROVIDED BY THE COPYRIGHT HOLDERS AND CONTRIBUTORS "AS IS" *
  38:../Dave/Generated/src/ETH001/synopGMAC_plat.c ****  * AND ANY EXPRESS OR IMPLIED WARRANTIES, INCLUDING, BUT NOT LIMITED TO,       *
  39:../Dave/Generated/src/ETH001/synopGMAC_plat.c ****  * THE IMPLIED WARRANTIES OF MERCHANTABILITY AND FITNESS FOR A PARTICULAR      *
  40:../Dave/Generated/src/ETH001/synopGMAC_plat.c ****  * PURPOSE ARE DISCLAIMED. IN NO EVENT SHALL THE COPYRIGHT HOLDER OR           *
  41:../Dave/Generated/src/ETH001/synopGMAC_plat.c ****  * CONTRIBUTORS BE LIABLE FOR ANY DIRECT, INDIRECT, INCIDENTAL, SPECIAL,       *
  42:../Dave/Generated/src/ETH001/synopGMAC_plat.c ****  * EXEMPLARY, OR CONSEQUENTIAL DAMAGES (INCLUDING, BUT NOT LIMITED TO,         * 
  43:../Dave/Generated/src/ETH001/synopGMAC_plat.c ****  * PROCUREMENT OF SUBSTITUTE GOODS OR SERVICES; LOSS OF USE, DATA, OR PROFITS; *
  44:../Dave/Generated/src/ETH001/synopGMAC_plat.c ****  * OR BUSINESS INTERRUPTION) HOWEVER CAUSED AND ON ANY THEORY OF LIABILITY,    *
  45:../Dave/Generated/src/ETH001/synopGMAC_plat.c ****  * WHETHER IN CONTRACT, STRICT LIABILITY, OR TORT (INCLUDING NEGLIGENCE OR     *
  46:../Dave/Generated/src/ETH001/synopGMAC_plat.c ****  * OTHERWISE) ARISING IN ANY WAY OUT OF THE USE OF THIS SOFTWARE, EVEN IF      *
  47:../Dave/Generated/src/ETH001/synopGMAC_plat.c ****  * ADVISED OF THE POSSIBILITY OF SUCH DAMAGE.                                  *
  48:../Dave/Generated/src/ETH001/synopGMAC_plat.c ****  * To improve the quality of the software, users are encouraged to share       *
  49:../Dave/Generated/src/ETH001/synopGMAC_plat.c ****  * modifications, enhancements or bug fixes with                               *
  50:../Dave/Generated/src/ETH001/synopGMAC_plat.c ****  * Infineon Technologies AG (dave@infineon.com).                               *
  51:../Dave/Generated/src/ETH001/synopGMAC_plat.c ****  *                                                                             *
  52:../Dave/Generated/src/ETH001/synopGMAC_plat.c ****  * ==========================================================================  *
  53:../Dave/Generated/src/ETH001/synopGMAC_plat.c **** ********************************************************************************
  54:../Dave/Generated/src/ETH001/synopGMAC_plat.c **** **                                                                            **
  55:../Dave/Generated/src/ETH001/synopGMAC_plat.c **** **                                                                            **
  56:../Dave/Generated/src/ETH001/synopGMAC_plat.c **** ** PLATFORM : Infineon XMC4000 Series                                         **
  57:../Dave/Generated/src/ETH001/synopGMAC_plat.c **** **                                                                            **
  58:../Dave/Generated/src/ETH001/synopGMAC_plat.c **** ** COMPILER : Compiler Independent                                            **
  59:../Dave/Generated/src/ETH001/synopGMAC_plat.c **** **                                                                            **
  60:../Dave/Generated/src/ETH001/synopGMAC_plat.c **** ** AUTHOR : DAVE App Developer                                                **
  61:../Dave/Generated/src/ETH001/synopGMAC_plat.c **** **                                                                            **
  62:../Dave/Generated/src/ETH001/synopGMAC_plat.c **** ** MAY BE CHANGED BY USER [Yes/No]: Yes                                       **
  63:../Dave/Generated/src/ETH001/synopGMAC_plat.c **** **                                                                            **
  64:../Dave/Generated/src/ETH001/synopGMAC_plat.c **** ** MODIFICATION DATE : Dec 29, 2011                                           **
  65:../Dave/Generated/src/ETH001/synopGMAC_plat.c **** **                                                                            **
  66:../Dave/Generated/src/ETH001/synopGMAC_plat.c **** *******************************************************************************/
  67:../Dave/Generated/src/ETH001/synopGMAC_plat.c ****  
  68:../Dave/Generated/src/ETH001/synopGMAC_plat.c **** /*******************************************************************************
  69:../Dave/Generated/src/ETH001/synopGMAC_plat.c **** **                       Author(s) Identity                                   **
  70:../Dave/Generated/src/ETH001/synopGMAC_plat.c **** ********************************************************************************
  71:../Dave/Generated/src/ETH001/synopGMAC_plat.c **** **                                                                            **
  72:../Dave/Generated/src/ETH001/synopGMAC_plat.c **** ** Initials     Name                                                          **
  73:../Dave/Generated/src/ETH001/synopGMAC_plat.c **** ** ---------------------------------------------------------------------------**
  74:../Dave/Generated/src/ETH001/synopGMAC_plat.c **** ** JRP          DAVE App Developer                                            **
  75:../Dave/Generated/src/ETH001/synopGMAC_plat.c **** *******************************************************************************/
  76:../Dave/Generated/src/ETH001/synopGMAC_plat.c **** /**\file
  77:../Dave/Generated/src/ETH001/synopGMAC_plat.c ****  *  This file defines the wrapper for the platform/OS related functions
  78:../Dave/Generated/src/ETH001/synopGMAC_plat.c ****  *  The function definitions needs to be modified according to the platform 
  79:../Dave/Generated/src/ETH001/synopGMAC_plat.c ****  *  and the Operating system used.
  80:../Dave/Generated/src/ETH001/synopGMAC_plat.c ****  *  This file should be handled with greatest care while porting the driver
  81:../Dave/Generated/src/ETH001/synopGMAC_plat.c ****  *  to a different platform running different operating system other than
  82:../Dave/Generated/src/ETH001/synopGMAC_plat.c ****  *  Linux 2.6.xx.
  83:../Dave/Generated/src/ETH001/synopGMAC_plat.c ****  * \internal
  84:../Dave/Generated/src/ETH001/synopGMAC_plat.c ****  * ----------------------------REVISION HISTORY-----------------------------
  85:../Dave/Generated/src/ETH001/synopGMAC_plat.c ****  * Synopsys			01/Aug/2007			Created
  86:../Dave/Generated/src/ETH001/synopGMAC_plat.c ****  */
  87:../Dave/Generated/src/ETH001/synopGMAC_plat.c ****  
  88:../Dave/Generated/src/ETH001/synopGMAC_plat.c **** #include <DAVE3.h>
  89:../Dave/Generated/src/ETH001/synopGMAC_plat.c **** 
  90:../Dave/Generated/src/ETH001/synopGMAC_plat.c **** /**
  91:../Dave/Generated/src/ETH001/synopGMAC_plat.c ****  * @cond INTERNAL_DOCS
  92:../Dave/Generated/src/ETH001/synopGMAC_plat.c ****  */
  93:../Dave/Generated/src/ETH001/synopGMAC_plat.c **** 
  94:../Dave/Generated/src/ETH001/synopGMAC_plat.c **** /**
  95:../Dave/Generated/src/ETH001/synopGMAC_plat.c ****  * The Low level function to read register contents from Hardware.
  96:../Dave/Generated/src/ETH001/synopGMAC_plat.c ****  *
  97:../Dave/Generated/src/ETH001/synopGMAC_plat.c ****  * @param[in] pointer to the base of register map
  98:../Dave/Generated/src/ETH001/synopGMAC_plat.c ****  * @param[in] Offset from the base
  99:../Dave/Generated/src/ETH001/synopGMAC_plat.c ****  * \return  Returns the register contents
 100:../Dave/Generated/src/ETH001/synopGMAC_plat.c ****  */
 101:../Dave/Generated/src/ETH001/synopGMAC_plat.c **** u32 synopGMACReadReg(u32 *RegBase, u32 RegOffset)
 102:../Dave/Generated/src/ETH001/synopGMAC_plat.c **** {
  28              		.loc 1 102 0
  29              		.cfi_startproc
  30              		@ args = 0, pretend = 0, frame = 16
  31              		@ frame_needed = 1, uses_anonymous_args = 0
  32              		@ link register save eliminated.
  33 0000 80B4     		push	{r7}
  34              	.LCFI0:
  35              		.cfi_def_cfa_offset 4
  36              		.cfi_offset 7, -4
  37 0002 85B0     		sub	sp, sp, #20
  38              	.LCFI1:
  39              		.cfi_def_cfa_offset 24
  40 0004 00AF     		add	r7, sp, #0
  41              	.LCFI2:
  42              		.cfi_def_cfa_register 7
  43 0006 7860     		str	r0, [r7, #4]
  44 0008 3960     		str	r1, [r7, #0]
 103:../Dave/Generated/src/ETH001/synopGMAC_plat.c ****   u32 data;
 104:../Dave/Generated/src/ETH001/synopGMAC_plat.c ****   data = (*(u32 *) ((u32)RegBase + RegOffset));
  45              		.loc 1 104 0
  46 000a 7A68     		ldr	r2, [r7, #4]
  47 000c 3B68     		ldr	r3, [r7, #0]
  48 000e D318     		adds	r3, r2, r3
  49 0010 1B68     		ldr	r3, [r3, #0]
  50 0012 FB60     		str	r3, [r7, #12]
 105:../Dave/Generated/src/ETH001/synopGMAC_plat.c ****   return data;
  51              		.loc 1 105 0
  52 0014 FB68     		ldr	r3, [r7, #12]
 106:../Dave/Generated/src/ETH001/synopGMAC_plat.c **** 
 107:../Dave/Generated/src/ETH001/synopGMAC_plat.c **** }
  53              		.loc 1 107 0
  54 0016 1846     		mov	r0, r3
  55 0018 07F11407 		add	r7, r7, #20
  56 001c BD46     		mov	sp, r7
  57 001e 80BC     		pop	{r7}
  58 0020 7047     		bx	lr
  59              		.cfi_endproc
  60              	.LFE117:
  62 0022 00BF     		.section	.text.synopGMACWriteReg,"ax",%progbits
  63              		.align	2
  64              		.global	synopGMACWriteReg
  65              		.thumb
  66              		.thumb_func
  68              	synopGMACWriteReg:
  69              	.LFB118:
 108:../Dave/Generated/src/ETH001/synopGMAC_plat.c **** 
 109:../Dave/Generated/src/ETH001/synopGMAC_plat.c **** /**
 110:../Dave/Generated/src/ETH001/synopGMAC_plat.c ****  * The Low level function to write to a register in Hardware.
 111:../Dave/Generated/src/ETH001/synopGMAC_plat.c ****  *
 112:../Dave/Generated/src/ETH001/synopGMAC_plat.c ****  * @param[in] pointer to the base of register map
 113:../Dave/Generated/src/ETH001/synopGMAC_plat.c ****  * @param[in] Offset from the base
 114:../Dave/Generated/src/ETH001/synopGMAC_plat.c ****  * @param[in] Data to be written
 115:../Dave/Generated/src/ETH001/synopGMAC_plat.c ****  * \return  void
 116:../Dave/Generated/src/ETH001/synopGMAC_plat.c ****  */
 117:../Dave/Generated/src/ETH001/synopGMAC_plat.c **** void  synopGMACWriteReg(u32 *RegBase, u32 RegOffset, u32 RegData)
 118:../Dave/Generated/src/ETH001/synopGMAC_plat.c **** {
  70              		.loc 1 118 0
  71              		.cfi_startproc
  72              		@ args = 0, pretend = 0, frame = 16
  73              		@ frame_needed = 1, uses_anonymous_args = 0
  74              		@ link register save eliminated.
  75 0000 80B4     		push	{r7}
  76              	.LCFI3:
  77              		.cfi_def_cfa_offset 4
  78              		.cfi_offset 7, -4
  79 0002 85B0     		sub	sp, sp, #20
  80              	.LCFI4:
  81              		.cfi_def_cfa_offset 24
  82 0004 00AF     		add	r7, sp, #0
  83              	.LCFI5:
  84              		.cfi_def_cfa_register 7
  85 0006 F860     		str	r0, [r7, #12]
  86 0008 B960     		str	r1, [r7, #8]
  87 000a 7A60     		str	r2, [r7, #4]
 119:../Dave/Generated/src/ETH001/synopGMAC_plat.c ****   * (u32 *) ((u32)RegBase + RegOffset) = RegData;
  88              		.loc 1 119 0
  89 000c FA68     		ldr	r2, [r7, #12]
  90 000e BB68     		ldr	r3, [r7, #8]
  91 0010 D318     		adds	r3, r2, r3
  92 0012 7A68     		ldr	r2, [r7, #4]
  93 0014 1A60     		str	r2, [r3, #0]
 120:../Dave/Generated/src/ETH001/synopGMAC_plat.c ****   return;
  94              		.loc 1 120 0
  95 0016 00BF     		nop
 121:../Dave/Generated/src/ETH001/synopGMAC_plat.c **** }
  96              		.loc 1 121 0
  97 0018 07F11407 		add	r7, r7, #20
  98 001c BD46     		mov	sp, r7
  99 001e 80BC     		pop	{r7}
 100 0020 7047     		bx	lr
 101              		.cfi_endproc
 102              	.LFE118:
 104 0022 00BF     		.section	.text.synopGMACSetBits,"ax",%progbits
 105              		.align	2
 106              		.global	synopGMACSetBits
 107              		.thumb
 108              		.thumb_func
 110              	synopGMACSetBits:
 111              	.LFB119:
 122:../Dave/Generated/src/ETH001/synopGMAC_plat.c **** 
 123:../Dave/Generated/src/ETH001/synopGMAC_plat.c **** /**
 124:../Dave/Generated/src/ETH001/synopGMAC_plat.c ****  * The Low level function to set bits of a register in Hardware.
 125:../Dave/Generated/src/ETH001/synopGMAC_plat.c ****  *
 126:../Dave/Generated/src/ETH001/synopGMAC_plat.c ****  * @param[in] pointer to the base of register map
 127:../Dave/Generated/src/ETH001/synopGMAC_plat.c ****  * @param[in] Offset from the base
 128:../Dave/Generated/src/ETH001/synopGMAC_plat.c ****  * @param[in] Bit mask to set bits to logical 1
 129:../Dave/Generated/src/ETH001/synopGMAC_plat.c ****  * \return  void
 130:../Dave/Generated/src/ETH001/synopGMAC_plat.c ****  */
 131:../Dave/Generated/src/ETH001/synopGMAC_plat.c **** void synopGMACSetBits(u32 *RegBase, u32 RegOffset, u32 BitPos)
 132:../Dave/Generated/src/ETH001/synopGMAC_plat.c **** {
 112              		.loc 1 132 0
 113              		.cfi_startproc
 114              		@ args = 0, pretend = 0, frame = 24
 115              		@ frame_needed = 1, uses_anonymous_args = 0
 116              		@ link register save eliminated.
 117 0000 80B4     		push	{r7}
 118              	.LCFI6:
 119              		.cfi_def_cfa_offset 4
 120              		.cfi_offset 7, -4
 121 0002 87B0     		sub	sp, sp, #28
 122              	.LCFI7:
 123              		.cfi_def_cfa_offset 32
 124 0004 00AF     		add	r7, sp, #0
 125              	.LCFI8:
 126              		.cfi_def_cfa_register 7
 127 0006 F860     		str	r0, [r7, #12]
 128 0008 B960     		str	r1, [r7, #8]
 129 000a 7A60     		str	r2, [r7, #4]
 133:../Dave/Generated/src/ETH001/synopGMAC_plat.c ****   u32 data;
 134:../Dave/Generated/src/ETH001/synopGMAC_plat.c **** 
 135:../Dave/Generated/src/ETH001/synopGMAC_plat.c ****   /* Read data from the register */
 136:../Dave/Generated/src/ETH001/synopGMAC_plat.c ****   data = (*(u32 *) ((u32)RegBase + RegOffset));
 130              		.loc 1 136 0
 131 000c FA68     		ldr	r2, [r7, #12]
 132 000e BB68     		ldr	r3, [r7, #8]
 133 0010 D318     		adds	r3, r2, r3
 134 0012 1B68     		ldr	r3, [r3, #0]
 135 0014 7B61     		str	r3, [r7, #20]
 137:../Dave/Generated/src/ETH001/synopGMAC_plat.c **** 
 138:../Dave/Generated/src/ETH001/synopGMAC_plat.c ****   /* Set the bits */
 139:../Dave/Generated/src/ETH001/synopGMAC_plat.c ****   data |= BitPos;
 136              		.loc 1 139 0
 137 0016 7A69     		ldr	r2, [r7, #20]
 138 0018 7B68     		ldr	r3, [r7, #4]
 139 001a 1343     		orrs	r3, r3, r2
 140 001c 7B61     		str	r3, [r7, #20]
 140:../Dave/Generated/src/ETH001/synopGMAC_plat.c **** 
 141:../Dave/Generated/src/ETH001/synopGMAC_plat.c ****   /* Write back into the register */
 142:../Dave/Generated/src/ETH001/synopGMAC_plat.c ****   * (u32 *) ((u32)RegBase + RegOffset) = data;
 141              		.loc 1 142 0
 142 001e FA68     		ldr	r2, [r7, #12]
 143 0020 BB68     		ldr	r3, [r7, #8]
 144 0022 D318     		adds	r3, r2, r3
 145 0024 7A69     		ldr	r2, [r7, #20]
 146 0026 1A60     		str	r2, [r3, #0]
 143:../Dave/Generated/src/ETH001/synopGMAC_plat.c ****   return;
 147              		.loc 1 143 0
 148 0028 00BF     		nop
 144:../Dave/Generated/src/ETH001/synopGMAC_plat.c **** }
 149              		.loc 1 144 0
 150 002a 07F11C07 		add	r7, r7, #28
 151 002e BD46     		mov	sp, r7
 152 0030 80BC     		pop	{r7}
 153 0032 7047     		bx	lr
 154              		.cfi_endproc
 155              	.LFE119:
 157              		.section	.text.synopGMACClearBits,"ax",%progbits
 158              		.align	2
 159              		.global	synopGMACClearBits
 160              		.thumb
 161              		.thumb_func
 163              	synopGMACClearBits:
 164              	.LFB120:
 145:../Dave/Generated/src/ETH001/synopGMAC_plat.c **** 
 146:../Dave/Generated/src/ETH001/synopGMAC_plat.c **** 
 147:../Dave/Generated/src/ETH001/synopGMAC_plat.c **** /**
 148:../Dave/Generated/src/ETH001/synopGMAC_plat.c ****  * The Low level function to clear bits of a register in Hardware.
 149:../Dave/Generated/src/ETH001/synopGMAC_plat.c ****  *
 150:../Dave/Generated/src/ETH001/synopGMAC_plat.c ****  * @param[in] pointer to the base of register map
 151:../Dave/Generated/src/ETH001/synopGMAC_plat.c ****  * @param[in] Offset from the base
 152:../Dave/Generated/src/ETH001/synopGMAC_plat.c ****  * @param[in] Bit mask to clear bits to logical 0
 153:../Dave/Generated/src/ETH001/synopGMAC_plat.c ****  * \return  void
 154:../Dave/Generated/src/ETH001/synopGMAC_plat.c ****  */
 155:../Dave/Generated/src/ETH001/synopGMAC_plat.c **** void synopGMACClearBits(u32 *RegBase, u32 RegOffset, u32 BitPos)
 156:../Dave/Generated/src/ETH001/synopGMAC_plat.c **** {
 165              		.loc 1 156 0
 166              		.cfi_startproc
 167              		@ args = 0, pretend = 0, frame = 24
 168              		@ frame_needed = 1, uses_anonymous_args = 0
 169              		@ link register save eliminated.
 170 0000 80B4     		push	{r7}
 171              	.LCFI9:
 172              		.cfi_def_cfa_offset 4
 173              		.cfi_offset 7, -4
 174 0002 87B0     		sub	sp, sp, #28
 175              	.LCFI10:
 176              		.cfi_def_cfa_offset 32
 177 0004 00AF     		add	r7, sp, #0
 178              	.LCFI11:
 179              		.cfi_def_cfa_register 7
 180 0006 F860     		str	r0, [r7, #12]
 181 0008 B960     		str	r1, [r7, #8]
 182 000a 7A60     		str	r2, [r7, #4]
 157:../Dave/Generated/src/ETH001/synopGMAC_plat.c ****   u32 data;
 158:../Dave/Generated/src/ETH001/synopGMAC_plat.c ****   /* Read data from the register */
 159:../Dave/Generated/src/ETH001/synopGMAC_plat.c ****   data = (*(u32 *) ((u32)RegBase + RegOffset));
 183              		.loc 1 159 0
 184 000c FA68     		ldr	r2, [r7, #12]
 185 000e BB68     		ldr	r3, [r7, #8]
 186 0010 D318     		adds	r3, r2, r3
 187 0012 1B68     		ldr	r3, [r3, #0]
 188 0014 7B61     		str	r3, [r7, #20]
 160:../Dave/Generated/src/ETH001/synopGMAC_plat.c **** 
 161:../Dave/Generated/src/ETH001/synopGMAC_plat.c ****   /*Clear the bits */
 162:../Dave/Generated/src/ETH001/synopGMAC_plat.c ****   data &= (~BitPos);
 189              		.loc 1 162 0
 190 0016 7B68     		ldr	r3, [r7, #4]
 191 0018 6FEA0303 		mvn	r3, r3
 192 001c 7A69     		ldr	r2, [r7, #20]
 193 001e 1340     		ands	r3, r3, r2
 194 0020 7B61     		str	r3, [r7, #20]
 163:../Dave/Generated/src/ETH001/synopGMAC_plat.c **** 
 164:../Dave/Generated/src/ETH001/synopGMAC_plat.c ****   /* Write back into the register */
 165:../Dave/Generated/src/ETH001/synopGMAC_plat.c ****   * (u32 *) ((u32)RegBase + RegOffset) = data;
 195              		.loc 1 165 0
 196 0022 FA68     		ldr	r2, [r7, #12]
 197 0024 BB68     		ldr	r3, [r7, #8]
 198 0026 D318     		adds	r3, r2, r3
 199 0028 7A69     		ldr	r2, [r7, #20]
 200 002a 1A60     		str	r2, [r3, #0]
 166:../Dave/Generated/src/ETH001/synopGMAC_plat.c **** 
 167:../Dave/Generated/src/ETH001/synopGMAC_plat.c ****   return;
 201              		.loc 1 167 0
 202 002c 00BF     		nop
 168:../Dave/Generated/src/ETH001/synopGMAC_plat.c **** }
 203              		.loc 1 168 0
 204 002e 07F11C07 		add	r7, r7, #28
 205 0032 BD46     		mov	sp, r7
 206 0034 80BC     		pop	{r7}
 207 0036 7047     		bx	lr
 208              		.cfi_endproc
 209              	.LFE120:
 211              		.section	.text.synopGMACCheckBits,"ax",%progbits
 212              		.align	2
 213              		.global	synopGMACCheckBits
 214              		.thumb
 215              		.thumb_func
 217              	synopGMACCheckBits:
 218              	.LFB121:
 169:../Dave/Generated/src/ETH001/synopGMAC_plat.c **** 
 170:../Dave/Generated/src/ETH001/synopGMAC_plat.c **** /**
 171:../Dave/Generated/src/ETH001/synopGMAC_plat.c ****  * The Low level function to Check the setting of the bits.
 172:../Dave/Generated/src/ETH001/synopGMAC_plat.c ****  *
 173:../Dave/Generated/src/ETH001/synopGMAC_plat.c ****  * @param[in] pointer to the base of register map
 174:../Dave/Generated/src/ETH001/synopGMAC_plat.c ****  * @param[in] Offset from the base
 175:../Dave/Generated/src/ETH001/synopGMAC_plat.c ****  * @param[in] Bit mask to set bits to logical 1
 176:../Dave/Generated/src/ETH001/synopGMAC_plat.c ****  * \return  returns TRUE if set to '1' returns FALSE if set to '0'. Result undefined there are no b
 177:../Dave/Generated/src/ETH001/synopGMAC_plat.c ****  *
 178:../Dave/Generated/src/ETH001/synopGMAC_plat.c ****  */
 179:../Dave/Generated/src/ETH001/synopGMAC_plat.c **** bool synopGMACCheckBits(u32 *RegBase, u32 RegOffset, u32 BitPos)
 180:../Dave/Generated/src/ETH001/synopGMAC_plat.c **** {
 219              		.loc 1 180 0
 220              		.cfi_startproc
 221              		@ args = 0, pretend = 0, frame = 24
 222              		@ frame_needed = 1, uses_anonymous_args = 0
 223              		@ link register save eliminated.
 224 0000 80B4     		push	{r7}
 225              	.LCFI12:
 226              		.cfi_def_cfa_offset 4
 227              		.cfi_offset 7, -4
 228 0002 87B0     		sub	sp, sp, #28
 229              	.LCFI13:
 230              		.cfi_def_cfa_offset 32
 231 0004 00AF     		add	r7, sp, #0
 232              	.LCFI14:
 233              		.cfi_def_cfa_register 7
 234 0006 F860     		str	r0, [r7, #12]
 235 0008 B960     		str	r1, [r7, #8]
 236 000a 7A60     		str	r2, [r7, #4]
 181:../Dave/Generated/src/ETH001/synopGMAC_plat.c ****   u32 data;
 182:../Dave/Generated/src/ETH001/synopGMAC_plat.c ****   u32 addr = (u32)RegBase + RegOffset;
 237              		.loc 1 182 0
 238 000c FA68     		ldr	r2, [r7, #12]
 239 000e BB68     		ldr	r3, [r7, #8]
 240 0010 D318     		adds	r3, r2, r3
 241 0012 7B61     		str	r3, [r7, #20]
 183:../Dave/Generated/src/ETH001/synopGMAC_plat.c ****   data = (*(u32 *)addr);
 242              		.loc 1 183 0
 243 0014 7B69     		ldr	r3, [r7, #20]
 244 0016 1B68     		ldr	r3, [r3, #0]
 245 0018 3B61     		str	r3, [r7, #16]
 184:../Dave/Generated/src/ETH001/synopGMAC_plat.c ****   data &= BitPos;
 246              		.loc 1 184 0
 247 001a 3A69     		ldr	r2, [r7, #16]
 248 001c 7B68     		ldr	r3, [r7, #4]
 249 001e 1340     		ands	r3, r3, r2
 250 0020 3B61     		str	r3, [r7, #16]
 185:../Dave/Generated/src/ETH001/synopGMAC_plat.c ****   if(data)  return TRUE;
 251              		.loc 1 185 0
 252 0022 3B69     		ldr	r3, [r7, #16]
 253 0024 002B     		cmp	r3, #0
 254 0026 02D0     		beq	.L10
 255              		.loc 1 185 0 is_stmt 0 discriminator 1
 256 0028 4FF00103 		mov	r3, #1
 257 002c 01E0     		b	.L11
 258              	.L10:
 186:../Dave/Generated/src/ETH001/synopGMAC_plat.c ****   else	    return FALSE;
 259              		.loc 1 186 0 is_stmt 1
 260 002e 4FF00003 		mov	r3, #0
 261              	.L11:
 187:../Dave/Generated/src/ETH001/synopGMAC_plat.c **** 
 188:../Dave/Generated/src/ETH001/synopGMAC_plat.c **** }
 262              		.loc 1 188 0
 263 0032 1846     		mov	r0, r3
 264 0034 07F11C07 		add	r7, r7, #28
 265 0038 BD46     		mov	sp, r7
 266 003a 80BC     		pop	{r7}
 267 003c 7047     		bx	lr
 268              		.cfi_endproc
 269              	.LFE121:
 271 003e 00BF     		.text
 272              	.Letext0:
 273              		.file 2 "c:\\dave-3.1.10\\arm-gcc\\bin\\../lib/gcc/arm-none-eabi/4.7.4/../../../../arm-none-eabi/i
 274              		.file 3 "F:\\WORK\\SmartHome_checkout1\\XMC4500_RK_HTTPserver\\Dave\\Generated\\inc\\DAVESupport/.
 275              		.file 4 "C:\\DAVE-3.1.10\\eclipse\\/../CMSIS/Include/core_cm4.h"