Archive member included because of file (symbol)

c:/dave-3.1.10/arm-gcc/bin/../lib/gcc/arm-none-eabi/4.7.4/armv7e-m\libgcc.a(_arm_addsubdf3.o)
                              Main.o (__aeabi_i2d)
c:/dave-3.1.10/arm-gcc/bin/../lib/gcc/arm-none-eabi/4.7.4/armv7e-m\libgcc.a(_arm_muldivdf3.o)
                              Main.o (__aeabi_dmul)
c:/dave-3.1.10/arm-gcc/bin/../lib/gcc/arm-none-eabi/4.7.4/armv7e-m\libgcc.a(_arm_fixunsdfsi.o)
                              Main.o (__aeabi_d2uiz)
c:/dave-3.1.10/arm-gcc/bin/../lib/gcc/arm-none-eabi/4.7.4/../../../../arm-none-eabi/lib/armv7e-m\libc.a(lib_a-calloc.o)
                              Dave/Generated/src/SLTHA001/SLTHA001.o (calloc)
c:/dave-3.1.10/arm-gcc/bin/../lib/gcc/arm-none-eabi/4.7.4/../../../../arm-none-eabi/lib/armv7e-m\libc.a(lib_a-errno.o)
                              Dave/Generated/src/SLTHA001/SLTHA001.o (__errno)
c:/dave-3.1.10/arm-gcc/bin/../lib/gcc/arm-none-eabi/4.7.4/../../../../arm-none-eabi/lib/armv7e-m\libc.a(lib_a-fclose.o)
                              Dave/Generated/src/WEBSERVER001/HTTPServer/fs.o (fclose)
c:/dave-3.1.10/arm-gcc/bin/../lib/gcc/arm-none-eabi/4.7.4/../../../../arm-none-eabi/lib/armv7e-m\libc.a(lib_a-fflush.o)
                              c:/dave-3.1.10/arm-gcc/bin/../lib/gcc/arm-none-eabi/4.7.4/../../../../arm-none-eabi/lib/armv7e-m\libc.a(lib_a-fclose.o) (_fflush_r)
c:/dave-3.1.10/arm-gcc/bin/../lib/gcc/arm-none-eabi/4.7.4/../../../../arm-none-eabi/lib/armv7e-m\libc.a(lib_a-findfp.o)
                              c:/dave-3.1.10/arm-gcc/bin/../lib/gcc/arm-none-eabi/4.7.4/../../../../arm-none-eabi/lib/armv7e-m\libc.a(lib_a-fclose.o) (__sinit)
c:/dave-3.1.10/arm-gcc/bin/../lib/gcc/arm-none-eabi/4.7.4/../../../../arm-none-eabi/lib/armv7e-m\libc.a(lib_a-fopen.o)
                              Dave/Generated/src/WEBSERVER001/HTTPServer/fs.o (fopen)
c:/dave-3.1.10/arm-gcc/bin/../lib/gcc/arm-none-eabi/4.7.4/../../../../arm-none-eabi/lib/armv7e-m\libc.a(lib_a-fread.o)
                              Dave/Generated/src/WEBSERVER001/HTTPServer/fs.o (fread)
c:/dave-3.1.10/arm-gcc/bin/../lib/gcc/arm-none-eabi/4.7.4/../../../../arm-none-eabi/lib/armv7e-m\libc.a(lib_a-fseek.o)
                              c:/dave-3.1.10/arm-gcc/bin/../lib/gcc/arm-none-eabi/4.7.4/../../../../arm-none-eabi/lib/armv7e-m\libc.a(lib_a-fopen.o) (_fseek_r)
c:/dave-3.1.10/arm-gcc/bin/../lib/gcc/arm-none-eabi/4.7.4/../../../../arm-none-eabi/lib/armv7e-m\libc.a(lib_a-fstatr.o)
                              c:/dave-3.1.10/arm-gcc/bin/../lib/gcc/arm-none-eabi/4.7.4/../../../../arm-none-eabi/lib/armv7e-m\libc.a(lib_a-fseek.o) (_fstat_r)
c:/dave-3.1.10/arm-gcc/bin/../lib/gcc/arm-none-eabi/4.7.4/../../../../arm-none-eabi/lib/armv7e-m\libc.a(lib_a-fwalk.o)
                              c:/dave-3.1.10/arm-gcc/bin/../lib/gcc/arm-none-eabi/4.7.4/../../../../arm-none-eabi/lib/armv7e-m\libc.a(lib_a-findfp.o) (_fwalk)
c:/dave-3.1.10/arm-gcc/bin/../lib/gcc/arm-none-eabi/4.7.4/../../../../arm-none-eabi/lib/armv7e-m\libc.a(lib_a-impure.o)
                              c:/dave-3.1.10/arm-gcc/bin/../lib/gcc/arm-none-eabi/4.7.4/../../../../arm-none-eabi/lib/armv7e-m\libc.a(lib_a-fflush.o) (_global_impure_ptr)
c:/dave-3.1.10/arm-gcc/bin/../lib/gcc/arm-none-eabi/4.7.4/../../../../arm-none-eabi/lib/armv7e-m\libc.a(lib_a-init.o)
                              Startup/startup_XMC4500.o (__libc_init_array)
c:/dave-3.1.10/arm-gcc/bin/../lib/gcc/arm-none-eabi/4.7.4/../../../../arm-none-eabi/lib/armv7e-m\libc.a(lib_a-makebuf.o)
                              c:/dave-3.1.10/arm-gcc/bin/../lib/gcc/arm-none-eabi/4.7.4/../../../../arm-none-eabi/lib/armv7e-m\libc.a(lib_a-fseek.o) (__smakebuf_r)
c:/dave-3.1.10/arm-gcc/bin/../lib/gcc/arm-none-eabi/4.7.4/../../../../arm-none-eabi/lib/armv7e-m\libc.a(lib_a-malloc.o)
                              Dave/Generated/src/SLTHA001/SLTHA001.o (malloc)
c:/dave-3.1.10/arm-gcc/bin/../lib/gcc/arm-none-eabi/4.7.4/../../../../arm-none-eabi/lib/armv7e-m\libc.a(lib_a-memcpy.o)
                              Dave/Generated/src/WEBSERVER001/HTTPServer/httpd.o (memcpy)
c:/dave-3.1.10/arm-gcc/bin/../lib/gcc/arm-none-eabi/4.7.4/../../../../arm-none-eabi/lib/armv7e-m\libc.a(lib_a-memmove.o)
                              Dave/Generated/src/LMM001/LMM001.o (memmove)
c:/dave-3.1.10/arm-gcc/bin/../lib/gcc/arm-none-eabi/4.7.4/../../../../arm-none-eabi/lib/armv7e-m\libc.a(lib_a-memset.o)
                              Dave/Generated/src/WEBSERVER001/HTTPServer/httpd.o (memset)
c:/dave-3.1.10/arm-gcc/bin/../lib/gcc/arm-none-eabi/4.7.4/../../../../arm-none-eabi/lib/armv7e-m\libc.a(lib_a-mktime.o)
                              Dave/Generated/src/SLTHA001/SLTHA001.o (mktime)
c:/dave-3.1.10/arm-gcc/bin/../lib/gcc/arm-none-eabi/4.7.4/../../../../arm-none-eabi/lib/armv7e-m\libc.a(lib_a-mktm_r.o)
                              c:/dave-3.1.10/arm-gcc/bin/../lib/gcc/arm-none-eabi/4.7.4/../../../../arm-none-eabi/lib/armv7e-m\libc.a(lib_a-mktime.o) (__tzcalc_limits)
c:/dave-3.1.10/arm-gcc/bin/../lib/gcc/arm-none-eabi/4.7.4/../../../../arm-none-eabi/lib/armv7e-m\libc.a(lib_a-openr.o)
                              c:/dave-3.1.10/arm-gcc/bin/../lib/gcc/arm-none-eabi/4.7.4/../../../../arm-none-eabi/lib/armv7e-m\libc.a(lib_a-fopen.o) (_open_r)
c:/dave-3.1.10/arm-gcc/bin/../lib/gcc/arm-none-eabi/4.7.4/../../../../arm-none-eabi/lib/armv7e-m\libc.a(lib_a-reent.o)
                              c:/dave-3.1.10/arm-gcc/bin/../lib/gcc/arm-none-eabi/4.7.4/../../../../arm-none-eabi/lib/armv7e-m\libc.a(lib_a-fstatr.o) (errno)
c:/dave-3.1.10/arm-gcc/bin/../lib/gcc/arm-none-eabi/4.7.4/../../../../arm-none-eabi/lib/armv7e-m\libc.a(lib_a-refill.o)
                              c:/dave-3.1.10/arm-gcc/bin/../lib/gcc/arm-none-eabi/4.7.4/../../../../arm-none-eabi/lib/armv7e-m\libc.a(lib_a-fread.o) (__srefill_r)
c:/dave-3.1.10/arm-gcc/bin/../lib/gcc/arm-none-eabi/4.7.4/../../../../arm-none-eabi/lib/armv7e-m\libc.a(lib_a-stdio.o)
                              c:/dave-3.1.10/arm-gcc/bin/../lib/gcc/arm-none-eabi/4.7.4/../../../../arm-none-eabi/lib/armv7e-m\libc.a(lib_a-findfp.o) (__sread)
c:/dave-3.1.10/arm-gcc/bin/../lib/gcc/arm-none-eabi/4.7.4/../../../../arm-none-eabi/lib/armv7e-m\libc.a(lib_a-strchr.o)
                              Dave/Generated/src/WEBSERVER001/HTTPServer/httpd.o (strchr)
c:/dave-3.1.10/arm-gcc/bin/../lib/gcc/arm-none-eabi/4.7.4/../../../../arm-none-eabi/lib/armv7e-m\libc.a(lib_a-strcmp.o)
                              Main.o (strcmp)
c:/dave-3.1.10/arm-gcc/bin/../lib/gcc/arm-none-eabi/4.7.4/../../../../arm-none-eabi/lib/armv7e-m\libc.a(lib_a-strcpy.o)
                              Dave/Generated/src/SLTHA001/SLTHA001.o (strcpy)
c:/dave-3.1.10/arm-gcc/bin/../lib/gcc/arm-none-eabi/4.7.4/../../../../arm-none-eabi/lib/armv7e-m\libc.a(lib_a-strlen.o)
                              Dave/Generated/src/WEBSERVER001/HTTPServer/httpd.o (strlen)
c:/dave-3.1.10/arm-gcc/bin/../lib/gcc/arm-none-eabi/4.7.4/../../../../arm-none-eabi/lib/armv7e-m\libc.a(lib_a-strncmp.o)
                              Dave/Generated/src/WEBSERVER001/HTTPServer/httpd.o (strncmp)
c:/dave-3.1.10/arm-gcc/bin/../lib/gcc/arm-none-eabi/4.7.4/../../../../arm-none-eabi/lib/armv7e-m\libc.a(lib_a-strstr.o)
                              Dave/Generated/src/WEBSERVER001/HTTPServer/httpd.o (strstr)
c:/dave-3.1.10/arm-gcc/bin/../lib/gcc/arm-none-eabi/4.7.4/../../../../arm-none-eabi/lib/armv7e-m\libc.a(lib_a-sysstat.o)
                              Dave/Generated/src/WEBSERVER001/HTTPServer/fs.o (stat)
c:/dave-3.1.10/arm-gcc/bin/../lib/gcc/arm-none-eabi/4.7.4/../../../../arm-none-eabi/lib/armv7e-m\libc.a(lib_a-tzlock.o)
                              c:/dave-3.1.10/arm-gcc/bin/../lib/gcc/arm-none-eabi/4.7.4/../../../../arm-none-eabi/lib/armv7e-m\libc.a(lib_a-mktm_r.o) (__tz_lock)
c:/dave-3.1.10/arm-gcc/bin/../lib/gcc/arm-none-eabi/4.7.4/../../../../arm-none-eabi/lib/armv7e-m\libc.a(lib_a-tzvars.o)
                              c:/dave-3.1.10/arm-gcc/bin/../lib/gcc/arm-none-eabi/4.7.4/../../../../arm-none-eabi/lib/armv7e-m\libc.a(lib_a-mktime.o) (_daylight)
c:/dave-3.1.10/arm-gcc/bin/../lib/gcc/arm-none-eabi/4.7.4/../../../../arm-none-eabi/lib/armv7e-m\libc.a(lib_a-closer.o)
                              c:/dave-3.1.10/arm-gcc/bin/../lib/gcc/arm-none-eabi/4.7.4/../../../../arm-none-eabi/lib/armv7e-m\libc.a(lib_a-stdio.o) (_close_r)
c:/dave-3.1.10/arm-gcc/bin/../lib/gcc/arm-none-eabi/4.7.4/../../../../arm-none-eabi/lib/armv7e-m\libc.a(lib_a-div.o)
                              c:/dave-3.1.10/arm-gcc/bin/../lib/gcc/arm-none-eabi/4.7.4/../../../../arm-none-eabi/lib/armv7e-m\libc.a(lib_a-mktime.o) (div)
c:/dave-3.1.10/arm-gcc/bin/../lib/gcc/arm-none-eabi/4.7.4/../../../../arm-none-eabi/lib/armv7e-m\libc.a(lib_a-flags.o)
                              c:/dave-3.1.10/arm-gcc/bin/../lib/gcc/arm-none-eabi/4.7.4/../../../../arm-none-eabi/lib/armv7e-m\libc.a(lib_a-fopen.o) (__sflags)
c:/dave-3.1.10/arm-gcc/bin/../lib/gcc/arm-none-eabi/4.7.4/../../../../arm-none-eabi/lib/armv7e-m\libc.a(lib_a-gettzinfo.o)
                              c:/dave-3.1.10/arm-gcc/bin/../lib/gcc/arm-none-eabi/4.7.4/../../../../arm-none-eabi/lib/armv7e-m\libc.a(lib_a-mktime.o) (__gettzinfo)
c:/dave-3.1.10/arm-gcc/bin/../lib/gcc/arm-none-eabi/4.7.4/../../../../arm-none-eabi/lib/armv7e-m\libc.a(lib_a-isattyr.o)
                              c:/dave-3.1.10/arm-gcc/bin/../lib/gcc/arm-none-eabi/4.7.4/../../../../arm-none-eabi/lib/armv7e-m\libc.a(lib_a-makebuf.o) (_isatty_r)
c:/dave-3.1.10/arm-gcc/bin/../lib/gcc/arm-none-eabi/4.7.4/../../../../arm-none-eabi/lib/armv7e-m\libc.a(lib_a-lseekr.o)
                              c:/dave-3.1.10/arm-gcc/bin/../lib/gcc/arm-none-eabi/4.7.4/../../../../arm-none-eabi/lib/armv7e-m\libc.a(lib_a-stdio.o) (_lseek_r)
c:/dave-3.1.10/arm-gcc/bin/../lib/gcc/arm-none-eabi/4.7.4/../../../../arm-none-eabi/lib/armv7e-m\libc.a(lib_a-memchr.o)
                              c:/dave-3.1.10/arm-gcc/bin/../lib/gcc/arm-none-eabi/4.7.4/../../../../arm-none-eabi/lib/armv7e-m\libc.a(lib_a-strstr.o) (memchr)
c:/dave-3.1.10/arm-gcc/bin/../lib/gcc/arm-none-eabi/4.7.4/../../../../arm-none-eabi/lib/armv7e-m\libc.a(lib_a-memcmp.o)
                              c:/dave-3.1.10/arm-gcc/bin/../lib/gcc/arm-none-eabi/4.7.4/../../../../arm-none-eabi/lib/armv7e-m\libc.a(lib_a-strstr.o) (memcmp)
c:/dave-3.1.10/arm-gcc/bin/../lib/gcc/arm-none-eabi/4.7.4/../../../../arm-none-eabi/lib/armv7e-m\libc.a(lib_a-statr.o)
                              c:/dave-3.1.10/arm-gcc/bin/../lib/gcc/arm-none-eabi/4.7.4/../../../../arm-none-eabi/lib/armv7e-m\libc.a(lib_a-sysstat.o) (_stat_r)
C:\DAVE-3.1.10\eclipse\/../CMSIS/Infineon/Lib\libxmclibcstubs.a(System_LibcStubs.o)
                              c:/dave-3.1.10/arm-gcc/bin/../lib/gcc/arm-none-eabi/4.7.4/../../../../arm-none-eabi/lib/armv7e-m\libc.a(lib_a-init.o) (_init)

Allocating common symbols
Common symbol       size              file

netif               0x34              Dave/Generated/src/ETH004/01_lwIP_Stack/src/core/netconf.o
netif_list          0x4               Dave/Generated/src/ETH004/01_lwIP_Stack/src/core/netif.o
Eth_RxDMADescList   0xf0              Dave/Generated/src/ETH001/DMA_Descriptors.o
GMM001_handle1      0x6               Dave/Generated/src/GMM001/GMM001.o
tcp_active_pcbs     0x4               Dave/Generated/src/ETH004/01_lwIP_Stack/src/core/tcp.o
udp_pcbs            0x4               Dave/Generated/src/ETH004/01_lwIP_Stack/src/core/udp.o
TimerTbl            0x400             Dave/Generated/src/SYSTM001/SYSTM001.o
errno               0x4               c:/dave-3.1.10/arm-gcc/bin/../lib/gcc/arm-none-eabi/4.7.4/../../../../arm-none-eabi/lib/armv7e-m\libc.a(lib_a-reent.o)
current_netif       0x4               Dave/Generated/src/ETH004/01_lwIP_Stack/src/core/ipv4/ip.o
tcp_ticks           0x4               Dave/Generated/src/ETH004/01_lwIP_Stack/src/core/tcp.o
tcp_listen_pcbs     0x4               Dave/Generated/src/ETH004/01_lwIP_Stack/src/core/tcp.o
Eth_RxBuffer        0x23a0            Dave/Generated/src/ETH001/DMA_Descriptors.o
lwip250mStimer      0x4               Dave/Generated/src/ETH004/01_lwIP_Stack/src/core/netconf.o
FATFS004_UnusedStatus
                    0x4               Dave/Generated/src/FATFS004/FATFS004.o
Eth_TxDMADescList   0xf0              Dave/Generated/src/ETH001/DMA_Descriptors.o
tcp_tmp_pcb         0x4               Dave/Generated/src/ETH004/01_lwIP_Stack/src/core/tcp.o
NVIC_SCU001_Handle0
                    0x88              Dave/Generated/src/NVIC_SCU001/NVIC_SCU001.o
NormalIntStatus     0x2               Dave/Generated/src/SDMMC003/SDMMC003_Private.o
tcp_input_pcb       0x4               Dave/Generated/src/ETH004/01_lwIP_Stack/src/core/tcp_in.o
current_header      0x4               Dave/Generated/src/ETH004/01_lwIP_Stack/src/core/ipv4/ip.o
tcp_bound_pcbs      0x4               Dave/Generated/src/ETH004/01_lwIP_Stack/src/core/tcp.o
PHYtimerCallback    0x4               Dave/Generated/src/ETH002/EthernetPHY.o
MACaddr             0x6               Dave/Generated/src/ETH004/01_lwIP_Stack/src/netif/ethernetif.o
fs_memory           0x118             Dave/Generated/src/WEBSERVER001/HTTPServer/fs.o
myfsObject          0x234             Dave/Generated/src/WEBSERVER001/HTTPServer/httpd.o
GMACdevice          0xc4              Dave/Generated/src/ETH001/synopGMAC_stack_interface.o
SDMMC003_ReturnStatus
                    0x4               Dave/Generated/src/SDMMC003/SDMMC003_Private.o
SDMMC003_ISRContext
                    0x6               Dave/Generated/src/SDMMC003/SDMMC003_Private.o
GMM001_handle2      0x6               Dave/Generated/src/GMM001/GMM001.o
tcp_tw_pcbs         0x4               Dave/Generated/src/ETH004/01_lwIP_Stack/src/core/tcp.o
ErrorIntStatus      0x2               Dave/Generated/src/SDMMC003/SDMMC003_Private.o
netif_default       0x4               Dave/Generated/src/ETH004/01_lwIP_Stack/src/core/netif.o
Eth_TxBuffer        0x23a0            Dave/Generated/src/ETH001/DMA_Descriptors.o
GMM001_handle0      0x6               Dave/Generated/src/GMM001/GMM001.o
CGI_TAB             0x8               Main.o
GMAC_Power_down     0x4               Dave/Generated/src/ETH001/synopGMAC_stack_interface.o
SDMMC003_CardInfo   0x30              Dave/Generated/src/SDMMC003/SDMMC003_Private.o
synopGMACdev        0x4               Dave/Generated/src/ETH001/synopGMAC_stack_interface.o
Eth_TimerHandle     0x4               Dave/Generated/src/ETH004/01_lwIP_Stack/src/core/netconf.o

Discarded input sections

 .comment       0x00000000       0x71 Startup/system_XMC4500.o
 .comment       0x00000000       0x71 Main.o
 .comment       0x00000000       0x71 Dave/Generated/src/WEBSERVER001/HTTPServer/fs.o
 .comment       0x00000000       0x71 Dave/Generated/src/WEBSERVER001/HTTPServer/fsdata.o
 .comment       0x00000000       0x71 Dave/Generated/src/WEBSERVER001/HTTPServer/httpd.o
 .comment       0x00000000       0x71 Dave/Generated/src/SYSTM001/SYSTM001.o
 .comment       0x00000000       0x71 Dave/Generated/src/SLTHA003/SLTHA003.o
 .comment       0x00000000       0x71 Dave/Generated/src/SLTHA003/SLTHA003_Conf.o
 .comment       0x00000000       0x71 Dave/Generated/src/SLTHA001/SLTHA001.o
 .comment       0x00000000       0x71 Dave/Generated/src/SLTHA001/SLTHA001_Conf.o
 .comment       0x00000000       0x71 Dave/Generated/src/SDMMC003/SDMMC003.o
 .comment       0x00000000       0x71 Dave/Generated/src/SDMMC003/SDMMC003_Conf.o
 .comment       0x00000000       0x71 Dave/Generated/src/SDMMC003/SDMMC003_Private.o
 .comment       0x00000000       0x71 Dave/Generated/src/SDMMC001/SDMMC001.o
 .comment       0x00000000       0x71 Dave/Generated/src/SDMMC001/SDMMC001_Conf.o
 .comment       0x00000000       0x71 Dave/Generated/src/RTC001/RTC001.o
 .comment       0x00000000       0x71 Dave/Generated/src/RTC001/RTC001_Conf.o
 .comment       0x00000000       0x71 Dave/Generated/src/RESET001/RESET001.o
 .comment       0x00000000       0x71 Dave/Generated/src/NVIC_SCU001/NVIC_SCU001.o
 .comment       0x00000000       0x71 Dave/Generated/src/LMM001/LMM001.o
 .comment       0x00000000       0x71 Dave/Generated/src/LMM001/LMM001_Conf.o
 .comment       0x00000000       0x71 Dave/Generated/src/LIBS/CCU8PWMLIB.o
 .comment       0x00000000       0x71 Dave/Generated/src/IO004/IO004.o
 .comment       0x00000000       0x71 Dave/Generated/src/IO004/IO004_Conf.o
 .comment       0x00000000       0x71 Dave/Generated/src/IO001/IO001.o
 .comment       0x00000000       0x71 Dave/Generated/src/IO001/IO001_Conf.o
 .comment       0x00000000       0x71 Dave/Generated/src/GMM001/GMM001.o
 .comment       0x00000000       0x71 Dave/Generated/src/GMM001/GMM001_Conf.o
 .comment       0x00000000       0x71 Dave/Generated/src/FATFS004/FATFS004.o
 .comment       0x00000000       0x71 Dave/Generated/src/FATFS004/FATFS004_Conf.o
 .comment       0x00000000       0x71 Dave/Generated/src/FATFS002/FATFS002_Conf.o
 .comment       0x00000000       0x71 Dave/Generated/src/FATFS002/syscall.o
 .comment       0x00000000       0x71 Dave/Generated/src/FATFS002/Src/ff.o
 .comment       0x00000000       0x71 Dave/Generated/src/ETH004/ETH004_Conf.o
 .comment       0x00000000       0x71 Dave/Generated/src/ETH004/01_lwIP_Stack/src/netif/etharp.o
 .comment       0x00000000       0x71 Dave/Generated/src/ETH004/01_lwIP_Stack/src/netif/ethernetif.o
 .comment       0x00000000       0x71 Dave/Generated/src/ETH004/01_lwIP_Stack/src/netif/loopif.o
 .comment       0x00000000       0x71 Dave/Generated/src/ETH004/01_lwIP_Stack/src/netif/slipif.o
 .comment       0x00000000       0x71 Dave/Generated/src/ETH004/01_lwIP_Stack/src/core/dhcp.o
 .comment       0x00000000       0x71 Dave/Generated/src/ETH004/01_lwIP_Stack/src/core/dns.o
 .comment       0x00000000       0x71 Dave/Generated/src/ETH004/01_lwIP_Stack/src/core/init.o
 .comment       0x00000000       0x71 Dave/Generated/src/ETH004/01_lwIP_Stack/src/core/mem.o
 .comment       0x00000000       0x71 Dave/Generated/src/ETH004/01_lwIP_Stack/src/core/memp.o
 .comment       0x00000000       0x71 Dave/Generated/src/ETH004/01_lwIP_Stack/src/core/netconf.o
 .comment       0x00000000       0x71 Dave/Generated/src/ETH004/01_lwIP_Stack/src/core/netif.o
 .comment       0x00000000       0x71 Dave/Generated/src/ETH004/01_lwIP_Stack/src/core/pbuf.o
 .comment       0x00000000       0x71 Dave/Generated/src/ETH004/01_lwIP_Stack/src/core/raw.o
 .comment       0x00000000       0x71 Dave/Generated/src/ETH004/01_lwIP_Stack/src/core/stats.o
 .comment       0x00000000       0x71 Dave/Generated/src/ETH004/01_lwIP_Stack/src/core/sys.o
 .comment       0x00000000       0x71 Dave/Generated/src/ETH004/01_lwIP_Stack/src/core/tcp.o
 .comment       0x00000000       0x71 Dave/Generated/src/ETH004/01_lwIP_Stack/src/core/tcp_in.o
 .comment       0x00000000       0x71 Dave/Generated/src/ETH004/01_lwIP_Stack/src/core/tcp_out.o
 .comment       0x00000000       0x71 Dave/Generated/src/ETH004/01_lwIP_Stack/src/core/udp.o
 .comment       0x00000000       0x71 Dave/Generated/src/ETH004/01_lwIP_Stack/src/core/ipv4/autoip.o
 .comment       0x00000000       0x71 Dave/Generated/src/ETH004/01_lwIP_Stack/src/core/ipv4/icmp.o
 .comment       0x00000000       0x71 Dave/Generated/src/ETH004/01_lwIP_Stack/src/core/ipv4/igmp.o
 .comment       0x00000000       0x71 Dave/Generated/src/ETH004/01_lwIP_Stack/src/core/ipv4/inet.o
 .comment       0x00000000       0x71 Dave/Generated/src/ETH004/01_lwIP_Stack/src/core/ipv4/inet_chksum.o
 .comment       0x00000000       0x71 Dave/Generated/src/ETH004/01_lwIP_Stack/src/core/ipv4/ip.o
 .comment       0x00000000       0x71 Dave/Generated/src/ETH004/01_lwIP_Stack/src/core/ipv4/ip_addr.o
 .comment       0x00000000       0x71 Dave/Generated/src/ETH004/01_lwIP_Stack/src/core/ipv4/ip_frag.o
 .comment       0x00000000       0x71 Dave/Generated/src/ETH004/01_lwIP_Stack/src/api/api_lib.o
 .comment       0x00000000       0x71 Dave/Generated/src/ETH004/01_lwIP_Stack/src/api/api_msg.o
 .comment       0x00000000       0x71 Dave/Generated/src/ETH004/01_lwIP_Stack/src/api/err.o
 .comment       0x00000000       0x71 Dave/Generated/src/ETH004/01_lwIP_Stack/src/api/netbuf.o
 .comment       0x00000000       0x71 Dave/Generated/src/ETH004/01_lwIP_Stack/src/api/netdb.o
 .comment       0x00000000       0x71 Dave/Generated/src/ETH004/01_lwIP_Stack/src/api/netifapi.o
 .comment       0x00000000       0x71 Dave/Generated/src/ETH004/01_lwIP_Stack/src/api/sockets.o
 .comment       0x00000000       0x71 Dave/Generated/src/ETH004/01_lwIP_Stack/src/api/tcpip.o
 .comment       0x00000000       0x71 Dave/Generated/src/ETH004/01_lwIP_Stack/port/arch/sys/sys_arch.o
 .comment       0x00000000       0x71 Dave/Generated/src/ETH002/EthernetPHY.o
 .comment       0x00000000       0x71 Dave/Generated/src/ETH001/DMA_Descriptors.o
 .comment       0x00000000       0x71 Dave/Generated/src/ETH001/synopGMAC_Dev.o
 .comment       0x00000000       0x71 Dave/Generated/src/ETH001/synopGMAC_network_interface.o
 .comment       0x00000000       0x71 Dave/Generated/src/ETH001/synopGMAC_plat.o
 .comment       0x00000000       0x71 Dave/Generated/src/ETH001/synopGMAC_stack_interface.o
 .comment       0x00000000       0x71 Dave/Generated/src/DAVESupport/DAVE3.o
 .comment       0x00000000       0x71 Dave/Generated/src/DAVESupport/MULTIPLEXER.o
 .comment       0x00000000       0x71 Dave/Generated/src/CLK001/CLK001.o
 .comment       0x00000000       0x71 Dave/Generated/src/ADCGROUP001/ADCGroup001.o
 .comment       0x00000000       0x71 Dave/Generated/src/ADCGROUP001/ADCGroup001_Conf.o
 .comment       0x00000000       0x71 Dave/Generated/src/ADCGLOB001/ADCGlob001.o
 .comment       0x00000000       0x71 Dave/Generated/src/ADCGLOB001/ADCGlob001_Conf.o
 .comment       0x00000000       0x71 Dave/Generated/src/ADCCH001/ADCCH001.o
 .comment       0x00000000       0x71 Dave/Generated/src/ADCCH001/ADCCH001_Conf.o
 .comment       0x00000000       0x71 Dave/Generated/src/ADC002/ADC002.o
 .comment       0x00000000       0x71 Dave/Generated/src/ADC002/ADC002_Conf.o
 .comment       0x00000000       0x71 C:\DAVE-3.1.10\eclipse\/../CMSIS/Infineon/Lib\libxmclibcstubs.a(System_LibcStubs.o)

Memory Configuration

Name             Origin             Length             Attributes
FLASH_1_cached   0x08000000         0x00100000         xr
FLASH_1_uncached 0x0c000000         0x00100000         xr
PSRAM_1          0x10000000         0x00010000         !xr
DSRAM_1_system   0x20000000         0x00010000         !xr
DSRAM_2_comm     0x30000000         0x00008000         !xr
*default*        0x00000000         0xffffffff

Linker script and memory map

LOAD Startup/startup_XMC4500.o
LOAD Startup/system_XMC4500.o
LOAD Main.o
LOAD Dave/Generated/src/WEBSERVER001/HTTPServer/fs.o
LOAD Dave/Generated/src/WEBSERVER001/HTTPServer/fsdata.o
LOAD Dave/Generated/src/WEBSERVER001/HTTPServer/httpd.o
LOAD Dave/Generated/src/SYSTM001/SYSTM001.o
LOAD Dave/Generated/src/SLTHA003/SLTHA003.o
LOAD Dave/Generated/src/SLTHA003/SLTHA003_Conf.o
LOAD Dave/Generated/src/SLTHA001/SLTHA001.o
LOAD Dave/Generated/src/SLTHA001/SLTHA001_Conf.o
LOAD Dave/Generated/src/SDMMC003/SDMMC003.o
LOAD Dave/Generated/src/SDMMC003/SDMMC003_Conf.o
LOAD Dave/Generated/src/SDMMC003/SDMMC003_Private.o
LOAD Dave/Generated/src/SDMMC001/SDMMC001.o
LOAD Dave/Generated/src/SDMMC001/SDMMC001_Conf.o
LOAD Dave/Generated/src/RTC001/RTC001.o
LOAD Dave/Generated/src/RTC001/RTC001_Conf.o
LOAD Dave/Generated/src/RESET001/RESET001.o
LOAD Dave/Generated/src/NVIC_SCU001/NVIC_SCU001.o
LOAD Dave/Generated/src/LMM001/LMM001.o
LOAD Dave/Generated/src/LMM001/LMM001_Conf.o
LOAD Dave/Generated/src/LIBS/CCU8PWMLIB.o
LOAD Dave/Generated/src/IO004/IO004.o
LOAD Dave/Generated/src/IO004/IO004_Conf.o
LOAD Dave/Generated/src/IO001/IO001.o
LOAD Dave/Generated/src/IO001/IO001_Conf.o
LOAD Dave/Generated/src/GMM001/GMM001.o
LOAD Dave/Generated/src/GMM001/GMM001_Conf.o
LOAD Dave/Generated/src/FATFS004/FATFS004.o
LOAD Dave/Generated/src/FATFS004/FATFS004_Conf.o
LOAD Dave/Generated/src/FATFS002/FATFS002_Conf.o
LOAD Dave/Generated/src/FATFS002/syscall.o
LOAD Dave/Generated/src/FATFS002/Src/ff.o
LOAD Dave/Generated/src/ETH004/ETH004_Conf.o
LOAD Dave/Generated/src/ETH004/01_lwIP_Stack/src/netif/etharp.o
LOAD Dave/Generated/src/ETH004/01_lwIP_Stack/src/netif/ethernetif.o
LOAD Dave/Generated/src/ETH004/01_lwIP_Stack/src/netif/loopif.o
LOAD Dave/Generated/src/ETH004/01_lwIP_Stack/src/netif/slipif.o
LOAD Dave/Generated/src/ETH004/01_lwIP_Stack/src/core/dhcp.o
LOAD Dave/Generated/src/ETH004/01_lwIP_Stack/src/core/dns.o
LOAD Dave/Generated/src/ETH004/01_lwIP_Stack/src/core/init.o
LOAD Dave/Generated/src/ETH004/01_lwIP_Stack/src/core/mem.o
LOAD Dave/Generated/src/ETH004/01_lwIP_Stack/src/core/memp.o
LOAD Dave/Generated/src/ETH004/01_lwIP_Stack/src/core/netconf.o
LOAD Dave/Generated/src/ETH004/01_lwIP_Stack/src/core/netif.o
LOAD Dave/Generated/src/ETH004/01_lwIP_Stack/src/core/pbuf.o
LOAD Dave/Generated/src/ETH004/01_lwIP_Stack/src/core/raw.o
LOAD Dave/Generated/src/ETH004/01_lwIP_Stack/src/core/stats.o
LOAD Dave/Generated/src/ETH004/01_lwIP_Stack/src/core/sys.o
LOAD Dave/Generated/src/ETH004/01_lwIP_Stack/src/core/tcp.o
LOAD Dave/Generated/src/ETH004/01_lwIP_Stack/src/core/tcp_in.o
LOAD Dave/Generated/src/ETH004/01_lwIP_Stack/src/core/tcp_out.o
LOAD Dave/Generated/src/ETH004/01_lwIP_Stack/src/core/udp.o
LOAD Dave/Generated/src/ETH004/01_lwIP_Stack/src/core/ipv4/autoip.o
LOAD Dave/Generated/src/ETH004/01_lwIP_Stack/src/core/ipv4/icmp.o
LOAD Dave/Generated/src/ETH004/01_lwIP_Stack/src/core/ipv4/igmp.o
LOAD Dave/Generated/src/ETH004/01_lwIP_Stack/src/core/ipv4/inet.o
LOAD Dave/Generated/src/ETH004/01_lwIP_Stack/src/core/ipv4/inet_chksum.o
LOAD Dave/Generated/src/ETH004/01_lwIP_Stack/src/core/ipv4/ip.o
LOAD Dave/Generated/src/ETH004/01_lwIP_Stack/src/core/ipv4/ip_addr.o
LOAD Dave/Generated/src/ETH004/01_lwIP_Stack/src/core/ipv4/ip_frag.o
LOAD Dave/Generated/src/ETH004/01_lwIP_Stack/src/api/api_lib.o
LOAD Dave/Generated/src/ETH004/01_lwIP_Stack/src/api/api_msg.o
LOAD Dave/Generated/src/ETH004/01_lwIP_Stack/src/api/err.o
LOAD Dave/Generated/src/ETH004/01_lwIP_Stack/src/api/netbuf.o
LOAD Dave/Generated/src/ETH004/01_lwIP_Stack/src/api/netdb.o
LOAD Dave/Generated/src/ETH004/01_lwIP_Stack/src/api/netifapi.o
LOAD Dave/Generated/src/ETH004/01_lwIP_Stack/src/api/sockets.o
LOAD Dave/Generated/src/ETH004/01_lwIP_Stack/src/api/tcpip.o
LOAD Dave/Generated/src/ETH004/01_lwIP_Stack/port/arch/sys/sys_arch.o
LOAD Dave/Generated/src/ETH002/EthernetPHY.o
LOAD Dave/Generated/src/ETH001/DMA_Descriptors.o
LOAD Dave/Generated/src/ETH001/synopGMAC_Dev.o
LOAD Dave/Generated/src/ETH001/synopGMAC_network_interface.o
LOAD Dave/Generated/src/ETH001/synopGMAC_plat.o
LOAD Dave/Generated/src/ETH001/synopGMAC_stack_interface.o
LOAD Dave/Generated/src/DAVESupport/DAVE3.o
LOAD Dave/Generated/src/DAVESupport/MULTIPLEXER.o
LOAD Dave/Generated/src/CLK001/CLK001.o
LOAD Dave/Generated/src/ADCGROUP001/ADCGroup001.o
LOAD Dave/Generated/src/ADCGROUP001/ADCGroup001_Conf.o
LOAD Dave/Generated/src/ADCGLOB001/ADCGlob001.o
LOAD Dave/Generated/src/ADCGLOB001/ADCGlob001_Conf.o
LOAD Dave/Generated/src/ADCCH001/ADCCH001.o
LOAD Dave/Generated/src/ADCCH001/ADCCH001_Conf.o
LOAD Dave/Generated/src/ADC002/ADC002.o
LOAD Dave/Generated/src/ADC002/ADC002_Conf.o
START GROUP
LOAD c:/dave-3.1.10/arm-gcc/bin/../lib/gcc/arm-none-eabi/4.7.4/armv7e-m\libgcc.a
LOAD c:/dave-3.1.10/arm-gcc/bin/../lib/gcc/arm-none-eabi/4.7.4/../../../../arm-none-eabi/lib/armv7e-m\libc.a
END GROUP
START GROUP
LOAD C:\DAVE-3.1.10\eclipse\/../CMSIS/Infineon/Lib\libxmclibcstubs.a
END GROUP
                0x00000800                stack_size = 0x800

.text           0x08000000    0x121cc load address 0x0c000000
                0x08000000                sText = .
 *(.Xmc4500.reset)
 .Xmc4500.reset
                0x08000000      0x21c Startup/startup_XMC4500.o
                0x08000000                __Xmc4500_interrupt_vector_cortex_m
                0x08000200                __Xmc4500_reset_cortex_m
 *(.Xmc4500.postreset)
 .Xmc4500.postreset
                0x0800021c       0xa8 Startup/startup_XMC4500.o
 *(.XmcStartup)
 .XmcStartup    0x080002c4        0x4 Startup/startup_XMC4500.o
 *(.text .text.* .gnu.linkonce.t.*)
 .text          0x080002c8      0x628 Startup/startup_XMC4500.o
                0x080002c8                NMI_Handler
                0x080002ca                NMI_Handler_Veneer
                0x080002d4                HardFault_Handler
                0x080002d6                HardFault_Handler_Veneer
                0x080002e0                MemManage_Handler
                0x080002e2                MemManage_Handler_Veneer
                0x080002ec                BusFault_Handler
                0x080002ee                BusFault_Handler_Veneer
                0x080002f8                UsageFault_Handler
                0x080002fa                UsageFault_Handler_Veneer
                0x08000304                SVC_Handler
                0x08000306                SVC_Handler_Veneer
                0x08000310                DebugMon_Handler
                0x08000312                DebugMon_Handler_Veneer
                0x0800031c                PendSV_Handler
                0x0800031e                PendSV_Handler_Veneer
                0x0800032a                SysTick_Handler_Veneer
                0x08000336                SCU_0_IRQHandler_Veneer
                0x08000340                ERU0_0_IRQHandler
                0x08000342                ERU0_0_IRQHandler_Veneer
                0x0800034c                ERU0_1_IRQHandler
                0x0800034e                ERU0_1_IRQHandler_Veneer
                0x08000358                ERU0_2_IRQHandler
                0x0800035a                ERU0_2_IRQHandler_Veneer
                0x08000364                ERU0_3_IRQHandler
                0x08000366                ERU0_3_IRQHandler_Veneer
                0x08000370                ERU1_0_IRQHandler
                0x08000372                ERU1_0_IRQHandler_Veneer
                0x0800037a                ERU1_1_IRQHandler
                0x0800037c                ERU1_1_IRQHandler_Veneer
                0x08000384                ERU1_2_IRQHandler
                0x08000386                ERU1_2_IRQHandler_Veneer
                0x0800038e                ERU1_3_IRQHandler
                0x08000390                ERU1_3_IRQHandler_Veneer
                0x08000398                PMU0_0_IRQHandler
                0x0800039a                PMU0_0_IRQHandler_Veneer
                0x080003a2                VADC0_C0_0_IRQHandler
                0x080003a4                VADC0_C0_0_IRQHandler_Veneer
                0x080003ac                VADC0_C0_1_IRQHandler
                0x080003ae                VADC0_C0_1_IRQHandler_Veneer
                0x080003b6                VADC0_C0_2_IRQHandler
                0x080003b8                VADC0_C0_2_IRQHandler_Veneer
                0x080003c0                VADC0_C0_3_IRQHandler
                0x080003c2                VADC0_C0_3_IRQHandler_Veneer
                0x080003ca                VADC0_G0_0_IRQHandler
                0x080003cc                VADC0_G0_0_IRQHandler_Veneer
                0x080003d4                VADC0_G0_1_IRQHandler
                0x080003d6                VADC0_G0_1_IRQHandler_Veneer
                0x080003de                VADC0_G0_2_IRQHandler
                0x080003e0                VADC0_G0_2_IRQHandler_Veneer
                0x080003e8                VADC0_G0_3_IRQHandler
                0x080003ea                VADC0_G0_3_IRQHandler_Veneer
                0x080003f2                VADC0_G1_0_IRQHandler
                0x080003f4                VADC0_G1_0_IRQHandler_Veneer
                0x080003fc                VADC0_G1_1_IRQHandler
                0x080003fe                VADC0_G1_1_IRQHandler_Veneer
                0x08000406                VADC0_G1_2_IRQHandler
                0x08000408                VADC0_G1_2_IRQHandler_Veneer
                0x08000410                VADC0_G1_3_IRQHandler
                0x08000412                VADC0_G1_3_IRQHandler_Veneer
                0x0800041a                VADC0_G2_0_IRQHandler
                0x0800041c                VADC0_G2_0_IRQHandler_Veneer
                0x08000424                VADC0_G2_1_IRQHandler
                0x08000426                VADC0_G2_1_IRQHandler_Veneer
                0x0800042e                VADC0_G2_2_IRQHandler
                0x08000430                VADC0_G2_2_IRQHandler_Veneer
                0x08000438                VADC0_G2_3_IRQHandler
                0x0800043a                VADC0_G2_3_IRQHandler_Veneer
                0x08000442                VADC0_G3_0_IRQHandler
                0x08000444                VADC0_G3_0_IRQHandler_Veneer
                0x0800044c                VADC0_G3_1_IRQHandler
                0x0800044e                VADC0_G3_1_IRQHandler_Veneer
                0x08000456                VADC0_G3_2_IRQHandler
                0x08000458                VADC0_G3_2_IRQHandler_Veneer
                0x08000460                VADC0_G3_3_IRQHandler
                0x08000462                VADC0_G3_3_IRQHandler_Veneer
                0x0800046a                DSD0_0_IRQHandler
                0x0800046c                DSD0_0_IRQHandler_Veneer
                0x08000474                DSD0_1_IRQHandler
                0x08000476                DSD0_1_IRQHandler_Veneer
                0x0800047e                DSD0_2_IRQHandler
                0x08000480                DSD0_2_IRQHandler_Veneer
                0x08000488                DSD0_3_IRQHandler
                0x0800048a                DSD0_3_IRQHandler_Veneer
                0x08000492                DSD0_4_IRQHandler
                0x08000494                DSD0_4_IRQHandler_Veneer
                0x0800049c                DSD0_5_IRQHandler
                0x0800049e                DSD0_5_IRQHandler_Veneer
                0x080004a6                DSD0_6_IRQHandler
                0x080004a8                DSD0_6_IRQHandler_Veneer
                0x080004b0                DSD0_7_IRQHandler
                0x080004b2                DSD0_7_IRQHandler_Veneer
                0x080004ba                DAC0_0_IRQHandler
                0x080004bc                DAC0_0_IRQHandler_Veneer
                0x080004c4                DAC0_1_IRQHandler
                0x080004c6                DAC0_1_IRQHandler_Veneer
                0x080004ce                CCU40_0_IRQHandler
                0x080004d0                CCU40_0_IRQHandler_Veneer
                0x080004d8                CCU40_1_IRQHandler
                0x080004da                CCU40_1_IRQHandler_Veneer
                0x080004e2                CCU40_2_IRQHandler
                0x080004e4                CCU40_2_IRQHandler_Veneer
                0x080004ec                CCU40_3_IRQHandler
                0x080004ee                CCU40_3_IRQHandler_Veneer
                0x080004f6                CCU41_0_IRQHandler
                0x080004f8                CCU41_0_IRQHandler_Veneer
                0x08000500                CCU41_1_IRQHandler
                0x08000502                CCU41_1_IRQHandler_Veneer
                0x0800050a                CCU41_2_IRQHandler
                0x0800050c                CCU41_2_IRQHandler_Veneer
                0x08000514                CCU41_3_IRQHandler
                0x08000516                CCU41_3_IRQHandler_Veneer
                0x0800051e                CCU42_0_IRQHandler
                0x08000520                CCU42_0_IRQHandler_Veneer
                0x08000528                CCU42_1_IRQHandler
                0x0800052a                CCU42_1_IRQHandler_Veneer
                0x08000532                CCU42_2_IRQHandler
                0x08000534                CCU42_2_IRQHandler_Veneer
                0x0800053c                CCU42_3_IRQHandler
                0x0800053e                CCU42_3_IRQHandler_Veneer
                0x08000546                CCU43_0_IRQHandler
                0x08000548                CCU43_0_IRQHandler_Veneer
                0x08000550                CCU43_1_IRQHandler
                0x08000552                CCU43_1_IRQHandler_Veneer
                0x0800055a                CCU43_2_IRQHandler
                0x0800055c                CCU43_2_IRQHandler_Veneer
                0x08000564                CCU43_3_IRQHandler
                0x08000566                CCU43_3_IRQHandler_Veneer
                0x0800056e                CCU80_0_IRQHandler
                0x08000570                CCU80_0_IRQHandler_Veneer
                0x08000578                CCU80_1_IRQHandler
                0x0800057a                CCU80_1_IRQHandler_Veneer
                0x08000582                CCU80_2_IRQHandler
                0x08000584                CCU80_2_IRQHandler_Veneer
                0x0800058c                CCU80_3_IRQHandler
                0x0800058e                CCU80_3_IRQHandler_Veneer
                0x08000596                CCU81_0_IRQHandler
                0x08000598                CCU81_0_IRQHandler_Veneer
                0x080005a0                CCU81_1_IRQHandler
                0x080005a2                CCU81_1_IRQHandler_Veneer
                0x080005aa                CCU81_2_IRQHandler
                0x080005ac                CCU81_2_IRQHandler_Veneer
                0x080005b4                CCU81_3_IRQHandler
                0x080005b6                CCU81_3_IRQHandler_Veneer
                0x080005be                POSIF0_0_IRQHandler
                0x080005c0                POSIF0_0_IRQHandler_Veneer
                0x080005c8                POSIF0_1_IRQHandler
                0x080005ca                POSIF0_1_IRQHandler_Veneer
                0x080005d2                POSIF1_0_IRQHandler
                0x080005d4                POSIF1_0_IRQHandler_Veneer
                0x080005dc                POSIF1_1_IRQHandler
                0x080005de                POSIF1_1_IRQHandler_Veneer
                0x080005e6                CAN0_0_IRQHandler
                0x080005e8                CAN0_0_IRQHandler_Veneer
                0x080005f0                CAN0_1_IRQHandler
                0x080005f2                CAN0_1_IRQHandler_Veneer
                0x080005fa                CAN0_2_IRQHandler
                0x080005fc                CAN0_2_IRQHandler_Veneer
                0x08000604                CAN0_3_IRQHandler
                0x08000606                CAN0_3_IRQHandler_Veneer
                0x0800060e                CAN0_4_IRQHandler
                0x08000610                CAN0_4_IRQHandler_Veneer
                0x08000618                CAN0_5_IRQHandler
                0x0800061a                CAN0_5_IRQHandler_Veneer
                0x08000622                CAN0_6_IRQHandler
                0x08000624                CAN0_6_IRQHandler_Veneer
                0x0800062c                CAN0_7_IRQHandler
                0x0800062e                CAN0_7_IRQHandler_Veneer
                0x08000636                USIC0_0_IRQHandler
                0x08000638                USIC0_0_IRQHandler_Veneer
                0x08000640                USIC0_1_IRQHandler
                0x08000642                USIC0_1_IRQHandler_Veneer
                0x0800064a                USIC0_2_IRQHandler
                0x0800064c                USIC0_2_IRQHandler_Veneer
                0x08000654                USIC0_3_IRQHandler
                0x08000656                USIC0_3_IRQHandler_Veneer
                0x0800065e                USIC0_4_IRQHandler
                0x08000660                USIC0_4_IRQHandler_Veneer
                0x08000668                USIC0_5_IRQHandler
                0x0800066a                USIC0_5_IRQHandler_Veneer
                0x08000672                USIC1_0_IRQHandler
                0x08000674                USIC1_0_IRQHandler_Veneer
                0x0800067c                USIC1_1_IRQHandler
                0x0800067e                USIC1_1_IRQHandler_Veneer
                0x08000686                USIC1_2_IRQHandler
                0x08000688                USIC1_2_IRQHandler_Veneer
                0x08000690                USIC1_3_IRQHandler
                0x08000692                USIC1_3_IRQHandler_Veneer
                0x0800069a                USIC1_4_IRQHandler
                0x0800069c                USIC1_4_IRQHandler_Veneer
                0x080006a4                USIC1_5_IRQHandler
                0x080006a6                USIC1_5_IRQHandler_Veneer
                0x080006ae                USIC2_0_IRQHandler
                0x080006b0                USIC2_0_IRQHandler_Veneer
                0x080006b8                USIC2_1_IRQHandler
                0x080006ba                USIC2_1_IRQHandler_Veneer
                0x080006c2                USIC2_2_IRQHandler
                0x080006c4                USIC2_2_IRQHandler_Veneer
                0x080006cc                USIC2_3_IRQHandler
                0x080006ce                USIC2_3_IRQHandler_Veneer
                0x080006d6                USIC2_4_IRQHandler
                0x080006d8                USIC2_4_IRQHandler_Veneer
                0x080006e0                USIC2_5_IRQHandler
                0x080006e2                USIC2_5_IRQHandler_Veneer
                0x080006ea                LEDTS0_0_IRQHandler
                0x080006ec                LEDTS0_0_IRQHandler_Veneer
                0x080006f4                FCE0_0_IRQHandler
                0x080006f6                FCE0_0_IRQHandler_Veneer
                0x080006fe                GPDMA0_0_IRQHandler
                0x08000700                GPDMA0_0_IRQHandler_Veneer
                0x0800070a                SDMMC0_0_IRQHandler_Veneer
                0x08000712                USB0_0_IRQHandler
                0x08000714                USB0_0_IRQHandler_Veneer
                0x0800071e                ETH0_0_IRQHandler_Veneer
                0x08000726                GPDMA1_0_IRQHandler
                0x08000728                GPDMA1_0_IRQHandler_Veneer
 .text          0x080008f0        0x0 Startup/system_XMC4500.o
 .text.SystemCoreClockUpdate
                0x080008f0       0x70 Startup/system_XMC4500.o
                0x080008f0                SystemCoreClockUpdate
 .text.SystemInit
                0x08000960      0x204 Startup/system_XMC4500.o
                0x08000960                SystemInit
 .text          0x08000b64        0x0 Main.o
 *fill*         0x08000b64        0x4 00
 .text.SSI_ADC_Handler
                0x08000b68       0x98 Main.o
                0x08000b68                SSI_ADC_Handler
 .text.CGI_led_handler
                0x08000c00       0x88 Main.o
                0x08000c00                CGI_led_handler
 .text.http_CGI_init
                0x08000c88       0x1c Main.o
                0x08000c88                http_CGI_init
 .text.http_SSI_init
                0x08000ca4       0x14 Main.o
                0x08000ca4                http_SSI_init
 .text.startup.main
                0x08000cb8       0x20 Main.o
                0x08000cb8                main
 .text          0x08000cd8        0x0 Dave/Generated/src/WEBSERVER001/HTTPServer/fs.o
 .text.fs_open  0x08000cd8       0x6c Dave/Generated/src/WEBSERVER001/HTTPServer/fs.o
                0x08000cd8                fs_open
 .text.fs_close
                0x08000d44       0x2c Dave/Generated/src/WEBSERVER001/HTTPServer/fs.o
                0x08000d44                fs_close
 .text.fs_read  0x08000d70       0x20 Dave/Generated/src/WEBSERVER001/HTTPServer/fs.o
                0x08000d70                fs_read
 .text.fs_bytes_left
                0x08000d90        0x8 Dave/Generated/src/WEBSERVER001/HTTPServer/fs.o
                0x08000d90                fs_bytes_left
 .text          0x08000d98        0x0 Dave/Generated/src/WEBSERVER001/HTTPServer/fsdata.o
 .text          0x08000d98        0x0 Dave/Generated/src/WEBSERVER001/HTTPServer/httpd.o
 .text.http_accept
                0x08000d98       0x68 Dave/Generated/src/WEBSERVER001/HTTPServer/httpd.o
 .text.http_state_free
                0x08000e00       0x2a Dave/Generated/src/WEBSERVER001/HTTPServer/httpd.o
 .text.http_err
                0x08000e2a        0x8 Dave/Generated/src/WEBSERVER001/HTTPServer/httpd.o
 .text.strnstr  0x08000e32       0x4e Dave/Generated/src/WEBSERVER001/HTTPServer/httpd.o
 .text.http_close_conn
                0x08000e80       0x54 Dave/Generated/src/WEBSERVER001/HTTPServer/httpd.o
 .text.http_get_404_file
                0x08000ed4       0x40 Dave/Generated/src/WEBSERVER001/HTTPServer/httpd.o
 .text.http_write.constprop.9
                0x08000f14       0x30 Dave/Generated/src/WEBSERVER001/HTTPServer/httpd.o
 .text.http_send_data
                0x08000f44      0x41c Dave/Generated/src/WEBSERVER001/HTTPServer/httpd.o
 .text.http_sent
                0x08001360       0x16 Dave/Generated/src/WEBSERVER001/HTTPServer/httpd.o
 .text.http_poll
                0x08001376       0x32 Dave/Generated/src/WEBSERVER001/HTTPServer/httpd.o
 .text.http_find_error_file
                0x080013a8       0x70 Dave/Generated/src/WEBSERVER001/HTTPServer/httpd.o
 .text.http_recv
                0x08001418      0x2c4 Dave/Generated/src/WEBSERVER001/HTTPServer/httpd.o
 .text.httpd_init
                0x080016dc       0x48 Dave/Generated/src/WEBSERVER001/HTTPServer/httpd.o
                0x080016dc                httpd_init
 .text.http_set_ssi_handler
                0x08001724        0xc Dave/Generated/src/WEBSERVER001/HTTPServer/httpd.o
                0x08001724                http_set_ssi_handler
 .text.http_set_cgi_handlers
                0x08001730       0x10 Dave/Generated/src/WEBSERVER001/HTTPServer/httpd.o
                0x08001730                http_set_cgi_handlers
 .text          0x08001740        0x0 Dave/Generated/src/SYSTM001/SYSTM001.o
 .text.SYSTM001_lInsertTimerList
                0x08001740       0x6c Dave/Generated/src/SYSTM001/SYSTM001.o
 .text.SYSTM001_lRemoveTimerList
                0x080017ac       0x44 Dave/Generated/src/SYSTM001/SYSTM001.o
 .text.SysTick_Handler
                0x080017f0       0x5c Dave/Generated/src/SYSTM001/SYSTM001.o
                0x080017f0                SysTick_Handler
 .text.SYSTM001_Init
                0x0800184c       0x64 Dave/Generated/src/SYSTM001/SYSTM001.o
                0x0800184c                SYSTM001_Init
 .text.SYSTM001_CreateTimer
                0x080018b0       0x6c Dave/Generated/src/SYSTM001/SYSTM001.o
                0x080018b0                SYSTM001_CreateTimer
 .text.SYSTM001_StartTimer
                0x0800191c       0x44 Dave/Generated/src/SYSTM001/SYSTM001.o
                0x0800191c                SYSTM001_StartTimer
 .text.SYSTM001_StopTimer
                0x08001960       0x3c Dave/Generated/src/SYSTM001/SYSTM001.o
                0x08001960                SYSTM001_StopTimer
 .text.SYSTM001_DeleteTimer
                0x0800199c       0x44 Dave/Generated/src/SYSTM001/SYSTM001.o
                0x0800199c                SYSTM001_DeleteTimer
 .text.SYSTM001_GetTime
                0x080019e0        0xc Dave/Generated/src/SYSTM001/SYSTM001.o
                0x080019e0                SYSTM001_GetTime
 .text.SYSTM001_GetSysTickCount
                0x080019ec        0xc Dave/Generated/src/SYSTM001/SYSTM001.o
                0x080019ec                SYSTM001_GetSysTickCount
 .text          0x080019f8        0x0 Dave/Generated/src/SLTHA003/SLTHA003.o
 .text._malloc_r
                0x080019f8        0x6 Dave/Generated/src/SLTHA003/SLTHA003.o
                0x080019f8                _malloc_r
 .text._calloc_r
                0x080019fe       0x1a Dave/Generated/src/SLTHA003/SLTHA003.o
                0x080019fe                _calloc_r
 .text._free_r  0x08001a18        0x6 Dave/Generated/src/SLTHA003/SLTHA003.o
                0x08001a18                _free_r
 .text._realloc_r
                0x08001a1e        0x6 Dave/Generated/src/SLTHA003/SLTHA003.o
                0x08001a1e                _realloc_r
 .text._gettimeofday_r
                0x08001a24       0x20 Dave/Generated/src/SLTHA003/SLTHA003.o
                0x08001a24                _gettimeofday_r
 .text._times_r
                0x08001a44        0xc Dave/Generated/src/SLTHA003/SLTHA003.o
                0x08001a44                _times_r
 .text          0x08001a50        0x0 Dave/Generated/src/SLTHA003/SLTHA003_Conf.o
 .text          0x08001a50        0x0 Dave/Generated/src/SLTHA001/SLTHA001.o
 .text.SLTHA001_lFatInfoToStatus
                0x08001a50       0x84 Dave/Generated/src/SLTHA001/SLTHA001.o
 .text.SLTHA001_lFindAvailableSlot
                0x08001ad4       0x44 Dave/Generated/src/SLTHA001/SLTHA001.o
                0x08001ad4                SLTHA001_lFindAvailableSlot
 .text.SLTHA001_lLocalInitialize
                0x08001b18       0x28 Dave/Generated/src/SLTHA001/SLTHA001.o
                0x08001b18                SLTHA001_lLocalInitialize
 .text._open    0x08001b40      0x148 Dave/Generated/src/SLTHA001/SLTHA001.o
                0x08001b40                _open
 .text._close   0x08001c88       0x5c Dave/Generated/src/SLTHA001/SLTHA001.o
                0x08001c88                _close
 .text._read_r  0x08001ce4       0x74 Dave/Generated/src/SLTHA001/SLTHA001.o
                0x08001ce4                _read_r
 .text._write_r
                0x08001d58       0x74 Dave/Generated/src/SLTHA001/SLTHA001.o
                0x08001d58                _write_r
 .text._lseek   0x08001dcc       0x70 Dave/Generated/src/SLTHA001/SLTHA001.o
                0x08001dcc                _lseek
 .text._unlink  0x08001e3c       0x24 Dave/Generated/src/SLTHA001/SLTHA001.o
                0x08001e3c                _unlink
 .text._fstat   0x08001e60       0x64 Dave/Generated/src/SLTHA001/SLTHA001.o
                0x08001e60                _fstat
 .text._stat    0x08001ec4       0x44 Dave/Generated/src/SLTHA001/SLTHA001.o
                0x08001ec4                _stat
 .text.rename   0x08001f08       0x24 Dave/Generated/src/SLTHA001/SLTHA001.o
                0x08001f08                rename
 .text._chmod   0x08001f2c       0x28 Dave/Generated/src/SLTHA001/SLTHA001.o
                0x08001f2c                _chmod
 .text._mkdir   0x08001f54       0x24 Dave/Generated/src/SLTHA001/SLTHA001.o
                0x08001f54                _mkdir
 .text._sync    0x08001f78       0x20 Dave/Generated/src/SLTHA001/SLTHA001.o
                0x08001f78                _sync
 .text.mkfs     0x08001f98       0x24 Dave/Generated/src/SLTHA001/SLTHA001.o
                0x08001f98                mkfs
 .text.mount    0x08001fbc       0x24 Dave/Generated/src/SLTHA001/SLTHA001.o
                0x08001fbc                mount
 .text._isatty  0x08001fe0        0xa Dave/Generated/src/SLTHA001/SLTHA001.o
                0x08001fe0                _isatty
 .text.SLTHA001_Init
                0x08001fea        0x4 Dave/Generated/src/SLTHA001/SLTHA001.o
                0x08001fea                SLTHA001_Init
 .text._link    0x08001fee       0x10 Dave/Generated/src/SLTHA001/SLTHA001.o
                0x08001fee                _link
 .text.fdisk    0x08001ffe        0x6 Dave/Generated/src/SLTHA001/SLTHA001.o
                0x08001ffe                fdisk
 .text          0x08002004        0x0 Dave/Generated/src/SLTHA001/SLTHA001_Conf.o
 .text          0x08002004        0x0 Dave/Generated/src/SDMMC003/SDMMC003.o
 .text.SDMMC003_HostControllerInit
                0x08002004       0x68 Dave/Generated/src/SDMMC003/SDMMC003.o
                0x08002004                SDMMC003_HostControllerInit
 .text.SDMMC003_HostControllerDeInit
                0x0800206c       0x24 Dave/Generated/src/SDMMC003/SDMMC003.o
                0x0800206c                SDMMC003_HostControllerDeInit
 .text.SDMMC003_CardReadMultipleBlocks
                0x08002090       0x5c Dave/Generated/src/SDMMC003/SDMMC003.o
                0x08002090                SDMMC003_CardReadMultipleBlocks
 .text.SDMMC003_CardReadSingleBlock
                0x080020ec       0x5c Dave/Generated/src/SDMMC003/SDMMC003.o
                0x080020ec                SDMMC003_CardReadSingleBlock
 .text.SDMMC003_CardWriteMultipleBlocks
                0x08002148       0x60 Dave/Generated/src/SDMMC003/SDMMC003.o
                0x08002148                SDMMC003_CardWriteMultipleBlocks
 .text.SDMMC003_CardWriteSingleBlock
                0x080021a8       0x60 Dave/Generated/src/SDMMC003/SDMMC003.o
                0x080021a8                SDMMC003_CardWriteSingleBlock
 .text.SDMMC003_LockUnlockCard
                0x08002208       0x5c Dave/Generated/src/SDMMC003/SDMMC003.o
                0x08002208                SDMMC003_LockUnlockCard
 .text.SDMMC003_GetLockStatus
                0x08002264       0x40 Dave/Generated/src/SDMMC003/SDMMC003.o
                0x08002264                SDMMC003_GetLockStatus
 .text.SDMMC003_GetCurrentState
                0x080022a4       0x40 Dave/Generated/src/SDMMC003/SDMMC003.o
                0x080022a4                SDMMC003_GetCurrentState
 .text.SDMMC003_GetCardType
                0x080022e4       0x18 Dave/Generated/src/SDMMC003/SDMMC003.o
                0x080022e4                SDMMC003_GetCardType
 .text.SDMMC003_GetCid
                0x080022fc       0x54 Dave/Generated/src/SDMMC003/SDMMC003.o
                0x080022fc                SDMMC003_GetCid
 .text.SDMMC003_GetOcr
                0x08002350       0x20 Dave/Generated/src/SDMMC003/SDMMC003.o
                0x08002350                SDMMC003_GetOcr
 .text.SDMMC003_GetCsd
                0x08002370       0x40 Dave/Generated/src/SDMMC003/SDMMC003.o
                0x08002370                SDMMC003_GetCsd
 .text.SDMMC003_GetSectorCount
                0x080023b0       0x8c Dave/Generated/src/SDMMC003/SDMMC003.o
                0x080023b0                SDMMC003_GetSectorCount
 .text.SDMMC003_GetSectorSize
                0x0800243c       0x1c Dave/Generated/src/SDMMC003/SDMMC003.o
                0x0800243c                SDMMC003_GetSectorSize
 .text.SDMMC003_GetBlockSize
                0x08002458       0x54 Dave/Generated/src/SDMMC003/SDMMC003.o
                0x08002458                SDMMC003_GetBlockSize
 .text.SDMMC003_FlushDiskWriteCache
                0x080024ac       0x14 Dave/Generated/src/SDMMC003/SDMMC003.o
                0x080024ac                SDMMC003_FlushDiskWriteCache
 .text.SDMMC003_GetSdStatus
                0x080024c0       0x68 Dave/Generated/src/SDMMC003/SDMMC003.o
                0x080024c0                SDMMC003_GetSdStatus
 .text.SDMMC003_EraseBlock
                0x08002528       0xc0 Dave/Generated/src/SDMMC003/SDMMC003.o
                0x08002528                SDMMC003_EraseBlock
 .text.SDMMC003_EjectCard
                0x080025e8       0x48 Dave/Generated/src/SDMMC003/SDMMC003.o
                0x080025e8                SDMMC003_EjectCard
 .text.SDMMC003_Init
                0x08002630        0xc Dave/Generated/src/SDMMC003/SDMMC003.o
                0x08002630                SDMMC003_Init
 .text.SDMMC003_Start
                0x0800263c       0x5c Dave/Generated/src/SDMMC003/SDMMC003.o
                0x0800263c                SDMMC003_Start
 .text.SDMMC003_CardDetectionSupport
                0x08002698       0x14 Dave/Generated/src/SDMMC003/SDMMC003.o
                0x08002698                SDMMC003_CardDetectionSupport
 .text          0x080026ac        0x0 Dave/Generated/src/SDMMC003/SDMMC003_Conf.o
 .text          0x080026ac        0x0 Dave/Generated/src/SDMMC003/SDMMC003_Private.o
 .text.Timer_CallBack
                0x080026ac       0x18 Dave/Generated/src/SDMMC003/SDMMC003_Private.o
                0x080026ac                Timer_CallBack
 .text.SDMMC003_lCardCleanUp
                0x080026c4       0x3c Dave/Generated/src/SDMMC003/SDMMC003_Private.o
                0x080026c4                SDMMC003_lCardCleanUp
 .text.SDMMC003_lCheckDatCmdline
                0x08002700       0x64 Dave/Generated/src/SDMMC003/SDMMC003_Private.o
                0x08002700                SDMMC003_lCheckDatCmdline
 .text.SDMMC003_lCheckArgumentError
                0x08002764       0x2a Dave/Generated/src/SDMMC003/SDMMC003_Private.o
                0x08002764                SDMMC003_lCheckArgumentError
 .text.SDMMC003_lCheckEraseError
                0x0800278e       0x20 Dave/Generated/src/SDMMC003/SDMMC003_Private.o
                0x0800278e                SDMMC003_lCheckEraseError
 .text.SDMMC003_lCheckCardError
                0x080027ae       0x20 Dave/Generated/src/SDMMC003/SDMMC003_Private.o
                0x080027ae                SDMMC003_lCheckCardError
 .text.SDMMC003_lCheckErrorInResponse
                0x080027ce       0x50 Dave/Generated/src/SDMMC003/SDMMC003_Private.o
                0x080027ce                SDMMC003_lCheckErrorInResponse
 *fill*         0x0800281e        0x2 00
 .text.SDMMC003_lGetCardLockState
                0x08002820       0x28 Dave/Generated/src/SDMMC003/SDMMC003_Private.o
                0x08002820                SDMMC003_lGetCardLockState
 .text.SDMMC003_lWriteCardType
                0x08002848       0x30 Dave/Generated/src/SDMMC003/SDMMC003_Private.o
                0x08002848                SDMMC003_lWriteCardType
 .text.SDMMC003_lSetWriteProtect
                0x08002878       0x38 Dave/Generated/src/SDMMC003/SDMMC003_Private.o
                0x08002878                SDMMC003_lSetWriteProtect
 .text.SDMMC003_lCheckLockStatus
                0x080028b0       0x28 Dave/Generated/src/SDMMC003/SDMMC003_Private.o
                0x080028b0                SDMMC003_lCheckLockStatus
 .text.SDMMC003_lNormalInterruptHandler
                0x080028d8       0x8c Dave/Generated/src/SDMMC003/SDMMC003_Private.o
                0x080028d8                SDMMC003_lNormalInterruptHandler
 .text.SDMMC003_lErrorInterruptHandler
                0x08002964      0x14c Dave/Generated/src/SDMMC003/SDMMC003_Private.o
                0x08002964                SDMMC003_lErrorInterruptHandler
 .text.SDMMC003_CheckPCMDFlag
                0x08002ab0        0xc Dave/Generated/src/SDMMC003/SDMMC003_Private.o
                0x08002ab0                SDMMC003_CheckPCMDFlag
 .text.SDMMC003_lDelay
                0x08002abc       0x44 Dave/Generated/src/SDMMC003/SDMMC003_Private.o
                0x08002abc                SDMMC003_lDelay
 .text.SDMMC0_0_IRQHandler
                0x08002b00       0x48 Dave/Generated/src/SDMMC003/SDMMC003_Private.o
                0x08002b00                SDMMC0_0_IRQHandler
 .text.SDMMC003_lStartTimer
                0x08002b48       0x38 Dave/Generated/src/SDMMC003/SDMMC003_Private.o
                0x08002b48                SDMMC003_lStartTimer
 .text.SDMMC003_lStopTimer
                0x08002b80       0x1c Dave/Generated/src/SDMMC003/SDMMC003_Private.o
                0x08002b80                SDMMC003_lStopTimer
 .text.SDMMC003_lCommandDelay
                0x08002b9c       0x54 Dave/Generated/src/SDMMC003/SDMMC003_Private.o
                0x08002b9c                SDMMC003_lCommandDelay
 .text.SDMMC003_lTransferDelay
                0x08002bf0       0x44 Dave/Generated/src/SDMMC003/SDMMC003_Private.o
                0x08002bf0                SDMMC003_lTransferDelay
 .text.SDMMC003_lReadResponse
                0x08002c34       0xa0 Dave/Generated/src/SDMMC003/SDMMC003_Private.o
                0x08002c34                SDMMC003_lReadResponse
 .text.SDMMC003_lReset
                0x08002cd4       0x44 Dave/Generated/src/SDMMC003/SDMMC003_Private.o
                0x08002cd4                SDMMC003_lReset
 .text.SDMMC003_lErrorInterruptRecovery
                0x08002d18       0x9c Dave/Generated/src/SDMMC003/SDMMC003_Private.o
                0x08002d18                SDMMC003_lErrorInterruptRecovery
 .text.SDMMC003_lDataTransfer
                0x08002db4       0x84 Dave/Generated/src/SDMMC003/SDMMC003_Private.o
                0x08002db4                SDMMC003_lDataTransfer
 .text.SDMMC003_lSendCommand
                0x08002e38       0xa8 Dave/Generated/src/SDMMC003/SDMMC003_Private.o
                0x08002e38                SDMMC003_lSendCommand
 .text.SDMMC003_lAcmdErrorRecovery
                0x08002ee0       0x68 Dave/Generated/src/SDMMC003/SDMMC003_Private.o
                0x08002ee0                SDMMC003_lAcmdErrorRecovery
 .text.SDMMC003_lSwitchToTransferState
                0x08002f48       0x44 Dave/Generated/src/SDMMC003/SDMMC003_Private.o
                0x08002f48                SDMMC003_lSwitchToTransferState
 .text.SDMMC003_lSwitchBusWidth
                0x08002f8c       0x64 Dave/Generated/src/SDMMC003/SDMMC003_Private.o
                0x08002f8c                SDMMC003_lSwitchBusWidth
 .text.SDMMC003_lConfigureRegForMultiTransfer
                0x08002ff0       0x78 Dave/Generated/src/SDMMC003/SDMMC003_Private.o
                0x08002ff0                SDMMC003_lConfigureRegForMultiTransfer
 .text.SDMMC003_lMultiBlockTransfer
                0x08003068       0x50 Dave/Generated/src/SDMMC003/SDMMC003_Private.o
                0x08003068                SDMMC003_lMultiBlockTransfer
 .text.SDMMC003_lConfigureForSingleTransfer
                0x080030b8       0x4c Dave/Generated/src/SDMMC003/SDMMC003_Private.o
                0x080030b8                SDMMC003_lConfigureForSingleTransfer
 .text.SDMMC003_lReadRca
                0x08003104       0x14 Dave/Generated/src/SDMMC003/SDMMC003_Private.o
                0x08003104                SDMMC003_lReadRca
 .text.SDMMC003_lQueryOperatingCond
                0x08003118       0x48 Dave/Generated/src/SDMMC003/SDMMC003_Private.o
                0x08003118                SDMMC003_lQueryOperatingCond
 .text.SDMMC003_lSetVoltageWindow
                0x08003160       0x68 Dave/Generated/src/SDMMC003/SDMMC003_Private.o
                0x08003160                SDMMC003_lSetVoltageWindow
 .text.SDMMC003_lQueryVoltage
                0x080031c8       0x58 Dave/Generated/src/SDMMC003/SDMMC003_Private.o
                0x080031c8                SDMMC003_lQueryVoltage
 .text.SDMMC003_lInitializeCard
                0x08003220       0xa4 Dave/Generated/src/SDMMC003/SDMMC003_Private.o
                0x08003220                SDMMC003_lInitializeCard
 .text.SDMMC003_lSingleBlockTransfer
                0x080032c4       0x6c Dave/Generated/src/SDMMC003/SDMMC003_Private.o
                0x080032c4                SDMMC003_lSingleBlockTransfer
 .text.SDMMC003_lSwitchSpeed
                0x08003330       0x60 Dave/Generated/src/SDMMC003/SDMMC003_Private.o
                0x08003330                SDMMC003_lSwitchSpeed
 .text.SDMMC003_lReadCardRegisters
                0x08003390       0x9c Dave/Generated/src/SDMMC003/SDMMC003_Private.o
                0x08003390                SDMMC003_lReadCardRegisters
 .text.SDMMC003_lAfterCardInitialize
                0x0800342c       0x40 Dave/Generated/src/SDMMC003/SDMMC003_Private.o
                0x0800342c                SDMMC003_lAfterCardInitialize
 .text.SDMMC003_lCardIdentificationProcess
                0x0800346c       0x6c Dave/Generated/src/SDMMC003/SDMMC003_Private.o
                0x0800346c                SDMMC003_lCardIdentificationProcess
 .text.SDMMC003_lCheckSectorBound
                0x080034d8       0x22 Dave/Generated/src/SDMMC003/SDMMC003_Private.o
                0x080034d8                SDMMC003_lCheckSectorBound
 *fill*         0x080034fa        0x2 00
 .text.SDMMC003_lLocalErase
                0x080034fc       0x6c Dave/Generated/src/SDMMC003/SDMMC003_Private.o
                0x080034fc                SDMMC003_lLocalErase
 .text          0x08003568        0x0 Dave/Generated/src/SDMMC001/SDMMC001.o
 .text.SDMMC001_lFindDiskStatus
                0x08003568       0x34 Dave/Generated/src/SDMMC001/SDMMC001.o
                0x08003568                SDMMC001_lFindDiskStatus
 .text.SDMMC001_Initialize
                0x0800359c       0x38 Dave/Generated/src/SDMMC001/SDMMC001.o
                0x0800359c                SDMMC001_Initialize
 .text.SDMMC001_GetStatus
                0x080035d4        0x4 Dave/Generated/src/SDMMC001/SDMMC001.o
                0x080035d4                SDMMC001_GetStatus
 .text.SDMMC001_ReadBlock
                0x080035d8       0x30 Dave/Generated/src/SDMMC001/SDMMC001.o
                0x080035d8                SDMMC001_ReadBlock
 .text.SDMMC001_WriteBlock
                0x08003608       0x3c Dave/Generated/src/SDMMC001/SDMMC001.o
                0x08003608                SDMMC001_WriteBlock
 .text.SDMMC001_Ioctl
                0x08003644      0x1ac Dave/Generated/src/SDMMC001/SDMMC001.o
                0x08003644                SDMMC001_Ioctl
 .text          0x080037f0        0x0 Dave/Generated/src/SDMMC001/SDMMC001_Conf.o
 .text          0x080037f0        0x0 Dave/Generated/src/RTC001/RTC001.o
 .text.RTC001_ldatevalid
                0x080037f0       0x54 Dave/Generated/src/RTC001/RTC001.o
 .text.RTC001_DeInit
                0x08003844        0x2 Dave/Generated/src/RTC001/RTC001.o
                0x08003844                RTC001_DeInit
 *fill*         0x08003846        0x2 00
 .text.RTC001_Enable
                0x08003848       0x30 Dave/Generated/src/RTC001/RTC001.o
                0x08003848                RTC001_Enable
 .text.RTC001_Disable
                0x08003878       0x74 Dave/Generated/src/RTC001/RTC001.o
                0x08003878                RTC001_Disable
 .text.RTC001_GetFlagStatus
                0x080038ec       0x14 Dave/Generated/src/RTC001/RTC001.o
                0x080038ec                RTC001_GetFlagStatus
 .text.RTC001_ClearFlagStatus
                0x08003900       0x10 Dave/Generated/src/RTC001/RTC001.o
                0x08003900                RTC001_ClearFlagStatus
 .text.RTC001_ConfigAlarm
                0x08003910       0x8c Dave/Generated/src/RTC001/RTC001.o
                0x08003910                RTC001_ConfigAlarm
 .text.RTC001_Clock_GetTime
                0x0800399c       0x3c Dave/Generated/src/RTC001/RTC001.o
                0x0800399c                RTC001_Clock_GetTime
 .text.RTC001_Clock_SetTime
                0x080039d8       0xf8 Dave/Generated/src/RTC001/RTC001.o
                0x080039d8                RTC001_Clock_SetTime
 .text.RTC001_Init
                0x08003ad0       0x7c Dave/Generated/src/RTC001/RTC001.o
                0x08003ad0                RTC001_Init
 .text.RTC001_Time
                0x08003b4c       0xd0 Dave/Generated/src/RTC001/RTC001.o
                0x08003b4c                RTC001_Time
 .text          0x08003c1c        0x0 Dave/Generated/src/RTC001/RTC001_Conf.o
 .text          0x08003c1c        0x0 Dave/Generated/src/RESET001/RESET001.o
 .text.RESET001_AssertReset
                0x08003c1c       0x14 Dave/Generated/src/RESET001/RESET001.o
                0x08003c1c                RESET001_AssertReset
 .text.RESET001_DeassertReset
                0x08003c30       0x14 Dave/Generated/src/RESET001/RESET001.o
                0x08003c30                RESET001_DeassertReset
 .text.RESET001_GetResetInfo
                0x08003c44        0xc Dave/Generated/src/RESET001/RESET001.o
                0x08003c44                RESET001_GetResetInfo
 .text.RESET001_GetStatus
                0x08003c50       0x1c Dave/Generated/src/RESET001/RESET001.o
                0x08003c50                RESET001_GetStatus
 .text          0x08003c6c        0x0 Dave/Generated/src/NVIC_SCU001/NVIC_SCU001.o
 .text.NVIC_SCU001_Init
                0x08003c6c       0x3c Dave/Generated/src/NVIC_SCU001/NVIC_SCU001.o
                0x08003c6c                NVIC_SCU001_Init
 .text.NVIC_SCU001_RegisterCallback
                0x08003ca8       0x14 Dave/Generated/src/NVIC_SCU001/NVIC_SCU001.o
                0x08003ca8                NVIC_SCU001_RegisterCallback
 .text.SCU_0_IRQHandler
                0x08003cbc      0x1ac Dave/Generated/src/NVIC_SCU001/NVIC_SCU001.o
                0x08003cbc                SCU_0_IRQHandler
 .text          0x08003e68        0x0 Dave/Generated/src/LMM001/LMM001.o
 .text.LMM001_lmake_new_block
                0x08003e68       0x32 Dave/Generated/src/LMM001/LMM001.o
 .text.LMM001_ldisconnect_from_free_list
                0x08003e9a       0x2e Dave/Generated/src/LMM001/LMM001.o
 .text.LMM001_l_assimilate_up
                0x08003ec8       0x3a Dave/Generated/src/LMM001/LMM001.o
 .text.LMM001_l_assimilate_down
                0x08003f02       0x28 Dave/Generated/src/LMM001/LMM001.o
 .text.LMM001_free
                0x08003f2a       0x68 Dave/Generated/src/LMM001/LMM001.o
                0x08003f2a                LMM001_free
 .text.LMM001_malloc
                0x08003f92       0xec Dave/Generated/src/LMM001/LMM001.o
                0x08003f92                LMM001_malloc
 .text.LMM001_realloc
                0x0800407e       0xfc Dave/Generated/src/LMM001/LMM001.o
                0x0800407e                LMM001_realloc
 .text          0x0800417a        0x0 Dave/Generated/src/LMM001/LMM001_Conf.o
 .text          0x0800417a        0x0 Dave/Generated/src/LIBS/CCU8PWMLIB.o
 .text          0x0800417a        0x0 Dave/Generated/src/IO004/IO004.o
 *fill*         0x0800417a        0x2 00
 .text.IO004_Init
                0x0800417c       0x28 Dave/Generated/src/IO004/IO004.o
                0x0800417c                IO004_Init
 .text.IO004_DisableOutputDriver
                0x080041a4       0xb2 Dave/Generated/src/IO004/IO004.o
                0x080041a4                IO004_DisableOutputDriver
 .text.IO004_EnableOutputDriver
                0x08004256       0xb2 Dave/Generated/src/IO004/IO004.o
                0x08004256                IO004_EnableOutputDriver
 .text          0x08004308        0x0 Dave/Generated/src/IO004/IO004_Conf.o
 .text          0x08004308        0x0 Dave/Generated/src/IO001/IO001.o
 .text.IO001_Init
                0x08004308       0x18 Dave/Generated/src/IO001/IO001.o
                0x08004308                IO001_Init
 .text.IO001_EnableDigitalInput
                0x08004320       0xba Dave/Generated/src/IO001/IO001.o
                0x08004320                IO001_EnableDigitalInput
 .text.IO001_DisableDigitalInput
                0x080043da       0x12 Dave/Generated/src/IO001/IO001.o
                0x080043da                IO001_DisableDigitalInput
 .text          0x080043ec        0x0 Dave/Generated/src/IO001/IO001_Conf.o
 .text          0x080043ec        0x0 Dave/Generated/src/GMM001/GMM001.o
 .text.GMM001_Init
                0x080043ec       0x70 Dave/Generated/src/GMM001/GMM001.o
                0x080043ec                GMM001_Init
 .text.GMM001_malloc
                0x0800445c       0x34 Dave/Generated/src/GMM001/GMM001.o
                0x0800445c                GMM001_malloc
 .text.GMM001_realloc
                0x08004490       0x78 Dave/Generated/src/GMM001/GMM001.o
                0x08004490                GMM001_realloc
 .text.GMM001_free
                0x08004508       0x60 Dave/Generated/src/GMM001/GMM001.o
                0x08004508                GMM001_free
 .text          0x08004568        0x0 Dave/Generated/src/GMM001/GMM001_Conf.o
 .text          0x08004568        0x0 Dave/Generated/src/FATFS004/FATFS004.o
 .text.disk_initialize
                0x08004568       0x1c Dave/Generated/src/FATFS004/FATFS004.o
                0x08004568                disk_initialize
 .text.disk_status
                0x08004584       0x1c Dave/Generated/src/FATFS004/FATFS004.o
                0x08004584                disk_status
 .text.disk_read
                0x080045a0       0x2c Dave/Generated/src/FATFS004/FATFS004.o
                0x080045a0                disk_read
 .text.disk_write
                0x080045cc       0x2c Dave/Generated/src/FATFS004/FATFS004.o
                0x080045cc                disk_write
 .text.disk_ioctl
                0x080045f8       0x28 Dave/Generated/src/FATFS004/FATFS004.o
                0x080045f8                disk_ioctl
 .text.get_fattime
                0x08004620       0x4c Dave/Generated/src/FATFS004/FATFS004.o
                0x08004620                get_fattime
 .text          0x0800466c        0x0 Dave/Generated/src/FATFS004/FATFS004_Conf.o
 .text          0x0800466c        0x0 Dave/Generated/src/FATFS002/FATFS002_Conf.o
 .text.FATFS002_Init
                0x0800466c        0x2 Dave/Generated/src/FATFS002/FATFS002_Conf.o
                0x0800466c                FATFS002_Init
 .text          0x0800466e        0x0 Dave/Generated/src/FATFS002/syscall.o
 .text          0x0800466e        0x0 Dave/Generated/src/FATFS002/Src/ff.o
 .text.mem_cpy  0x0800466e       0x12 Dave/Generated/src/FATFS002/Src/ff.o
 .text.mem_set  0x08004680        0xe Dave/Generated/src/FATFS002/Src/ff.o
 .text.get_fileinfo
                0x0800468e       0x82 Dave/Generated/src/FATFS002/Src/ff.o
 .text.move_window
                0x08004710       0x76 Dave/Generated/src/FATFS002/Src/ff.o
 .text.sync     0x08004786       0xb6 Dave/Generated/src/FATFS002/Src/ff.o
 .text.validate
                0x0800483c       0x24 Dave/Generated/src/FATFS002/Src/ff.o
 .text.check_fs
                0x08004860       0x88 Dave/Generated/src/FATFS002/Src/ff.o
 .text.chk_mounted
                0x080048e8      0x314 Dave/Generated/src/FATFS002/Src/ff.o
 .text.clust2sect
                0x08004bfc       0x18 Dave/Generated/src/FATFS002/Src/ff.o
                0x08004bfc                clust2sect
 .text.get_fat  0x08004c14       0xca Dave/Generated/src/FATFS002/Src/ff.o
                0x08004c14                get_fat
 .text.dir_sdi  0x08004cde       0x84 Dave/Generated/src/FATFS002/Src/ff.o
 .text.dir_remove
                0x08004d62       0x24 Dave/Generated/src/FATFS002/Src/ff.o
 .text.put_fat  0x08004d86       0xf6 Dave/Generated/src/FATFS002/Src/ff.o
                0x08004d86                put_fat
 .text.create_chain
                0x08004e7c       0x9a Dave/Generated/src/FATFS002/Src/ff.o
 .text.dir_next
                0x08004f16       0xf4 Dave/Generated/src/FATFS002/Src/ff.o
 *fill*         0x0800500a        0x2 00
 .text.follow_path
                0x0800500c      0x204 Dave/Generated/src/FATFS002/Src/ff.o
 .text.dir_register
                0x08005210       0x5a Dave/Generated/src/FATFS002/Src/ff.o
 .text.dir_read
                0x0800526a       0x4a Dave/Generated/src/FATFS002/Src/ff.o
 .text.remove_chain
                0x080052b4       0x82 Dave/Generated/src/FATFS002/Src/ff.o
 *fill*         0x08005336        0x2 00
 .text.f_mount  0x08005338       0x2c Dave/Generated/src/FATFS002/Src/ff.o
                0x08005338                f_mount
 .text.f_open   0x08005364      0x152 Dave/Generated/src/FATFS002/Src/ff.o
                0x08005364                f_open
 .text.f_read   0x080054b6      0x168 Dave/Generated/src/FATFS002/Src/ff.o
                0x080054b6                f_read
 .text.f_write  0x0800561e      0x196 Dave/Generated/src/FATFS002/Src/ff.o
                0x0800561e                f_write
 .text.f_sync   0x080057b4       0xac Dave/Generated/src/FATFS002/Src/ff.o
                0x080057b4                f_sync
 .text.f_close  0x08005860        0xe Dave/Generated/src/FATFS002/Src/ff.o
                0x08005860                f_close
 *fill*         0x0800586e        0x2 00
 .text.f_chdrive
                0x08005870       0x14 Dave/Generated/src/FATFS002/Src/ff.o
                0x08005870                f_chdrive
 .text.f_chdir  0x08005884       0x5e Dave/Generated/src/FATFS002/Src/ff.o
                0x08005884                f_chdir
 .text.f_lseek  0x080058e2      0x140 Dave/Generated/src/FATFS002/Src/ff.o
                0x080058e2                f_lseek
 .text.f_opendir
                0x08005a22       0x64 Dave/Generated/src/FATFS002/Src/ff.o
                0x08005a22                f_opendir
 .text.f_readdir
                0x08005a86       0x54 Dave/Generated/src/FATFS002/Src/ff.o
                0x08005a86                f_readdir
 .text.f_stat   0x08005ada       0x40 Dave/Generated/src/FATFS002/Src/ff.o
                0x08005ada                f_stat
 .text.f_getfree
                0x08005b1a       0xe8 Dave/Generated/src/FATFS002/Src/ff.o
                0x08005b1a                f_getfree
 .text.f_truncate
                0x08005c02       0x92 Dave/Generated/src/FATFS002/Src/ff.o
                0x08005c02                f_truncate
 .text.f_unlink
                0x08005c94       0xc8 Dave/Generated/src/FATFS002/Src/ff.o
                0x08005c94                f_unlink
 .text.f_mkdir  0x08005d5c      0x1c2 Dave/Generated/src/FATFS002/Src/ff.o
                0x08005d5c                f_mkdir
 .text.f_chmod  0x08005f1e       0x5c Dave/Generated/src/FATFS002/Src/ff.o
                0x08005f1e                f_chmod
 .text.f_utime  0x08005f7a       0x5c Dave/Generated/src/FATFS002/Src/ff.o
                0x08005f7a                f_utime
 .text.f_rename
                0x08005fd6      0x128 Dave/Generated/src/FATFS002/Src/ff.o
                0x08005fd6                f_rename
 *fill*         0x080060fe        0x2 00
 .text.f_mkfs   0x08006100      0x5c8 Dave/Generated/src/FATFS002/Src/ff.o
                0x08006100                f_mkfs
 .text.f_gets   0x080066c8       0x44 Dave/Generated/src/FATFS002/Src/ff.o
                0x080066c8                f_gets
 .text.f_putc   0x0800670c       0x22 Dave/Generated/src/FATFS002/Src/ff.o
                0x0800670c                f_putc
 .text.f_puts   0x0800672e       0x20 Dave/Generated/src/FATFS002/Src/ff.o
                0x0800672e                f_puts
 .text.f_printf
                0x0800674e      0x23c Dave/Generated/src/FATFS002/Src/ff.o
                0x0800674e                f_printf
 .text          0x0800698a        0x0 Dave/Generated/src/ETH004/ETH004_Conf.o
 .text          0x0800698a        0x0 Dave/Generated/src/ETH004/01_lwIP_Stack/src/netif/etharp.o
 .text.etharp_send_ip
                0x0800698a       0x30 Dave/Generated/src/ETH004/01_lwIP_Stack/src/netif/etharp.o
 .text.free_etharp_q
                0x080069ba       0x1a Dave/Generated/src/ETH004/01_lwIP_Stack/src/netif/etharp.o
 .text.find_entry
                0x080069d4      0x12c Dave/Generated/src/ETH004/01_lwIP_Stack/src/netif/etharp.o
 .text.update_arp_entry
                0x08006b00       0xac Dave/Generated/src/ETH004/01_lwIP_Stack/src/netif/etharp.o
 .text.etharp_tmr
                0x08006bac       0x40 Dave/Generated/src/ETH004/01_lwIP_Stack/src/netif/etharp.o
                0x08006bac                etharp_tmr
 .text.etharp_find_addr
                0x08006bec       0x3c Dave/Generated/src/ETH004/01_lwIP_Stack/src/netif/etharp.o
                0x08006bec                etharp_find_addr
 .text.etharp_ip_input
                0x08006c28       0x26 Dave/Generated/src/ETH004/01_lwIP_Stack/src/netif/etharp.o
                0x08006c28                etharp_ip_input
 .text.etharp_arp_input
                0x08006c4e       0xd4 Dave/Generated/src/ETH004/01_lwIP_Stack/src/netif/etharp.o
                0x08006c4e                etharp_arp_input
 *fill*         0x08006d22        0x2 00
 .text.etharp_request
                0x08006d24       0x98 Dave/Generated/src/ETH004/01_lwIP_Stack/src/netif/etharp.o
                0x08006d24                etharp_request
 .text.etharp_query
                0x08006dbc      0x114 Dave/Generated/src/ETH004/01_lwIP_Stack/src/netif/etharp.o
                0x08006dbc                etharp_query
 .text.etharp_output
                0x08006ed0       0xb8 Dave/Generated/src/ETH004/01_lwIP_Stack/src/netif/etharp.o
                0x08006ed0                etharp_output
 .text.ethernet_input
                0x08006f88       0x52 Dave/Generated/src/ETH004/01_lwIP_Stack/src/netif/etharp.o
                0x08006f88                ethernet_input
 .text          0x08006fda        0x0 Dave/Generated/src/ETH004/01_lwIP_Stack/src/netif/ethernetif.o
 .text.low_level_output
                0x08006fda       0x36 Dave/Generated/src/ETH004/01_lwIP_Stack/src/netif/ethernetif.o
 .text.lwip_Input
                0x08007010       0x5c Dave/Generated/src/ETH004/01_lwIP_Stack/src/netif/ethernetif.o
                0x08007010                lwip_Input
 .text.ethernetif_init
                0x0800706c       0x60 Dave/Generated/src/ETH004/01_lwIP_Stack/src/netif/ethernetif.o
                0x0800706c                ethernetif_init
 .text.Eth_Received_Data_Handler
                0x080070cc        0x4 Dave/Generated/src/ETH004/01_lwIP_Stack/src/netif/ethernetif.o
                0x080070cc                Eth_Received_Data_Handler
 .text          0x080070d0        0x0 Dave/Generated/src/ETH004/01_lwIP_Stack/src/netif/loopif.o
 .text          0x080070d0        0x0 Dave/Generated/src/ETH004/01_lwIP_Stack/src/netif/slipif.o
 .text          0x080070d0        0x0 Dave/Generated/src/ETH004/01_lwIP_Stack/src/core/dhcp.o
 .text          0x080070d0        0x0 Dave/Generated/src/ETH004/01_lwIP_Stack/src/core/dns.o
 .text.unlikely.dns_parse_name
                0x080070d0       0x18 Dave/Generated/src/ETH004/01_lwIP_Stack/src/core/dns.o
 .text.dns_send
                0x080070e8       0xc0 Dave/Generated/src/ETH004/01_lwIP_Stack/src/core/dns.o
 .text.dns_check_entry
                0x080071a8       0x94 Dave/Generated/src/ETH004/01_lwIP_Stack/src/core/dns.o
 .text.dns_recv
                0x0800723c      0x190 Dave/Generated/src/ETH004/01_lwIP_Stack/src/core/dns.o
 .text.dns_setserver
                0x080073cc       0x1c Dave/Generated/src/ETH004/01_lwIP_Stack/src/core/dns.o
                0x080073cc                dns_setserver
 .text.dns_init
                0x080073e8       0x44 Dave/Generated/src/ETH004/01_lwIP_Stack/src/core/dns.o
                0x080073e8                dns_init
 .text.dns_getserver
                0x0800742c       0x40 Dave/Generated/src/ETH004/01_lwIP_Stack/src/core/dns.o
                0x0800742c                dns_getserver
 .text.dns_tmr  0x0800746c       0x2c Dave/Generated/src/ETH004/01_lwIP_Stack/src/core/dns.o
                0x0800746c                dns_tmr
 .text.dns_gethostbyname
                0x08007498      0x110 Dave/Generated/src/ETH004/01_lwIP_Stack/src/core/dns.o
                0x08007498                dns_gethostbyname
 .text          0x080075a8        0x0 Dave/Generated/src/ETH004/01_lwIP_Stack/src/core/init.o
 .text.lwip_init
                0x080075a8       0x12 Dave/Generated/src/ETH004/01_lwIP_Stack/src/core/init.o
                0x080075a8                lwip_init
 .text          0x080075ba        0x0 Dave/Generated/src/ETH004/01_lwIP_Stack/src/core/mem.o
 *fill*         0x080075ba        0x2 00
 .text.mem_init
                0x080075bc       0x3c Dave/Generated/src/ETH004/01_lwIP_Stack/src/core/mem.o
                0x080075bc                mem_init
 .text.mem_free
                0x080075f8       0x90 Dave/Generated/src/ETH004/01_lwIP_Stack/src/core/mem.o
                0x080075f8                mem_free
 .text.mem_realloc
                0x08007688       0xa8 Dave/Generated/src/ETH004/01_lwIP_Stack/src/core/mem.o
                0x08007688                mem_realloc
 .text.mem_malloc
                0x08007730       0xac Dave/Generated/src/ETH004/01_lwIP_Stack/src/core/mem.o
                0x08007730                mem_malloc
 .text.mem_calloc
                0x080077dc       0x1c Dave/Generated/src/ETH004/01_lwIP_Stack/src/core/mem.o
                0x080077dc                mem_calloc
 .text          0x080077f8        0x0 Dave/Generated/src/ETH004/01_lwIP_Stack/src/core/memp.o
 .text          0x080077f8        0x0 Dave/Generated/src/ETH004/01_lwIP_Stack/src/core/netconf.o
 .text.Ethernetwait_Timer_CallBack
                0x080077f8        0xc Dave/Generated/src/ETH004/01_lwIP_Stack/src/core/netconf.o
                0x080077f8                Ethernetwait_Timer_CallBack
 .text.PeriodicTimerCallback
                0x08007804        0x2 Dave/Generated/src/ETH004/01_lwIP_Stack/src/core/netconf.o
                0x08007804                PeriodicTimerCallback
 *fill*         0x08007806        0x2 00
 .text.DeletePeriodicTimer
                0x08007808        0xc Dave/Generated/src/ETH004/01_lwIP_Stack/src/core/netconf.o
                0x08007808                DeletePeriodicTimer
 .text.OneShotTimerCallback
                0x08007814       0x38 Dave/Generated/src/ETH004/01_lwIP_Stack/src/core/netconf.o
                0x08007814                OneShotTimerCallback
 .text.lwIPStack_init
                0x0800784c      0x118 Dave/Generated/src/ETH004/01_lwIP_Stack/src/core/netconf.o
                0x0800784c                lwIPStack_init
 .text.LwIP_Periodic_Timer_CallBack
                0x08007964       0x78 Dave/Generated/src/ETH004/01_lwIP_Stack/src/core/netconf.o
                0x08007964                LwIP_Periodic_Timer_CallBack
 .text.Periodic_Timer_CallBack
                0x080079dc        0x6 Dave/Generated/src/ETH004/01_lwIP_Stack/src/core/netconf.o
                0x080079dc                Periodic_Timer_CallBack
 *fill*         0x080079e2        0x2 00
 .text.lwIPStack_UnInit
                0x080079e4       0x18 Dave/Generated/src/ETH004/01_lwIP_Stack/src/core/netconf.o
                0x080079e4                lwIPStack_UnInit
 .text          0x080079fc        0x0 Dave/Generated/src/ETH004/01_lwIP_Stack/src/core/netif.o
 .text.netif_remove
                0x080079fc       0x4c Dave/Generated/src/ETH004/01_lwIP_Stack/src/core/netif.o
                0x080079fc                netif_remove
 .text.netif_find
                0x08007a48       0x38 Dave/Generated/src/ETH004/01_lwIP_Stack/src/core/netif.o
                0x08007a48                netif_find
 .text.netif_set_ipaddr
                0x08007a80       0x50 Dave/Generated/src/ETH004/01_lwIP_Stack/src/core/netif.o
                0x08007a80                netif_set_ipaddr
 .text.netif_set_addr
                0x08007ad0       0x1a Dave/Generated/src/ETH004/01_lwIP_Stack/src/core/netif.o
                0x08007ad0                netif_set_addr
 *fill*         0x08007aea        0x2 00
 .text.netif_add
                0x08007aec       0x68 Dave/Generated/src/ETH004/01_lwIP_Stack/src/core/netif.o
                0x08007aec                netif_add
 .text.netif_set_gw
                0x08007b54        0x8 Dave/Generated/src/ETH004/01_lwIP_Stack/src/core/netif.o
                0x08007b54                netif_set_gw
 .text.netif_set_netmask
                0x08007b5c        0x8 Dave/Generated/src/ETH004/01_lwIP_Stack/src/core/netif.o
                0x08007b5c                netif_set_netmask
 .text.netif_set_default
                0x08007b64        0xc Dave/Generated/src/ETH004/01_lwIP_Stack/src/core/netif.o
                0x08007b64                netif_set_default
 .text.netif_set_up
                0x08007b70       0x1e Dave/Generated/src/ETH004/01_lwIP_Stack/src/core/netif.o
                0x08007b70                netif_set_up
 .text.netif_set_down
                0x08007b8e       0x12 Dave/Generated/src/ETH004/01_lwIP_Stack/src/core/netif.o
                0x08007b8e                netif_set_down
 .text.netif_is_up
                0x08007ba0        0xa Dave/Generated/src/ETH004/01_lwIP_Stack/src/core/netif.o
                0x08007ba0                netif_is_up
 .text          0x08007baa        0x0 Dave/Generated/src/ETH004/01_lwIP_Stack/src/core/pbuf.o
 .text.pbuf_header
                0x08007baa       0x58 Dave/Generated/src/ETH004/01_lwIP_Stack/src/core/pbuf.o
                0x08007baa                pbuf_header
 .text.pbuf_free
                0x08007c02       0x28 Dave/Generated/src/ETH004/01_lwIP_Stack/src/core/pbuf.o
                0x08007c02                pbuf_free
 .text.pbuf_realloc
                0x08007c2a       0x4c Dave/Generated/src/ETH004/01_lwIP_Stack/src/core/pbuf.o
                0x08007c2a                pbuf_realloc
 *fill*         0x08007c76        0x2 00
 .text.pbuf_alloc
                0x08007c78      0x11c Dave/Generated/src/ETH004/01_lwIP_Stack/src/core/pbuf.o
                0x08007c78                pbuf_alloc
 .text.pbuf_clen
                0x08007d94       0x10 Dave/Generated/src/ETH004/01_lwIP_Stack/src/core/pbuf.o
                0x08007d94                pbuf_clen
 .text.pbuf_ref
                0x08007da4        0xa Dave/Generated/src/ETH004/01_lwIP_Stack/src/core/pbuf.o
                0x08007da4                pbuf_ref
 .text.pbuf_cat
                0x08007dae       0x20 Dave/Generated/src/ETH004/01_lwIP_Stack/src/core/pbuf.o
                0x08007dae                pbuf_cat
 .text.pbuf_chain
                0x08007dce       0x12 Dave/Generated/src/ETH004/01_lwIP_Stack/src/core/pbuf.o
                0x08007dce                pbuf_chain
 .text.pbuf_dechain
                0x08007de0       0x26 Dave/Generated/src/ETH004/01_lwIP_Stack/src/core/pbuf.o
                0x08007de0                pbuf_dechain
 .text.pbuf_copy
                0x08007e06       0x92 Dave/Generated/src/ETH004/01_lwIP_Stack/src/core/pbuf.o
                0x08007e06                pbuf_copy
 .text.pbuf_copy_partial
                0x08007e98       0x5e Dave/Generated/src/ETH004/01_lwIP_Stack/src/core/pbuf.o
                0x08007e98                pbuf_copy_partial
 .text.pbuf_take
                0x08007ef6       0x48 Dave/Generated/src/ETH004/01_lwIP_Stack/src/core/pbuf.o
                0x08007ef6                pbuf_take
 .text.pbuf_coalesce
                0x08007f3e       0x28 Dave/Generated/src/ETH004/01_lwIP_Stack/src/core/pbuf.o
                0x08007f3e                pbuf_coalesce
 .text          0x08007f66        0x0 Dave/Generated/src/ETH004/01_lwIP_Stack/src/core/raw.o
 *fill*         0x08007f66        0x2 00
 .text.raw_input
                0x08007f68       0x6c Dave/Generated/src/ETH004/01_lwIP_Stack/src/core/raw.o
                0x08007f68                raw_input
 .text.raw_bind
                0x08007fd4        0xa Dave/Generated/src/ETH004/01_lwIP_Stack/src/core/raw.o
                0x08007fd4                raw_bind
 .text.raw_connect
                0x08007fde        0xa Dave/Generated/src/ETH004/01_lwIP_Stack/src/core/raw.o
                0x08007fde                raw_connect
 .text.raw_recv
                0x08007fe8        0x6 Dave/Generated/src/ETH004/01_lwIP_Stack/src/core/raw.o
                0x08007fe8                raw_recv
 .text.raw_sendto
                0x08007fee       0x86 Dave/Generated/src/ETH004/01_lwIP_Stack/src/core/raw.o
                0x08007fee                raw_sendto
 .text.raw_send
                0x08008074        0x6 Dave/Generated/src/ETH004/01_lwIP_Stack/src/core/raw.o
                0x08008074                raw_send
 *fill*         0x0800807a        0x2 00
 .text.raw_remove
                0x0800807c       0x28 Dave/Generated/src/ETH004/01_lwIP_Stack/src/core/raw.o
                0x0800807c                raw_remove
 .text.raw_new  0x080080a4       0x34 Dave/Generated/src/ETH004/01_lwIP_Stack/src/core/raw.o
                0x080080a4                raw_new
 .text          0x080080d8        0x0 Dave/Generated/src/ETH004/01_lwIP_Stack/src/core/stats.o
 .text          0x080080d8        0x0 Dave/Generated/src/ETH004/01_lwIP_Stack/src/core/sys.o
 .text          0x080080d8        0x0 Dave/Generated/src/ETH004/01_lwIP_Stack/src/core/tcp.o
 .text.tcp_accept_null
                0x080080d8        0x6 Dave/Generated/src/ETH004/01_lwIP_Stack/src/core/tcp.o
 *fill*         0x080080de        0x2 00
 .text.tcp_new_port
                0x080080e0       0x60 Dave/Generated/src/ETH004/01_lwIP_Stack/src/core/tcp.o
 .text.tcp_bind
                0x08008140       0xbc Dave/Generated/src/ETH004/01_lwIP_Stack/src/core/tcp.o
                0x08008140                tcp_bind
 .text.tcp_listen_with_backlog
                0x080081fc       0x90 Dave/Generated/src/ETH004/01_lwIP_Stack/src/core/tcp.o
                0x080081fc                tcp_listen_with_backlog
 .text.tcp_update_rcv_ann_wnd
                0x0800828c       0x38 Dave/Generated/src/ETH004/01_lwIP_Stack/src/core/tcp.o
                0x0800828c                tcp_update_rcv_ann_wnd
 .text.tcp_recved
                0x080082c4       0x3c Dave/Generated/src/ETH004/01_lwIP_Stack/src/core/tcp.o
                0x080082c4                tcp_recved
 .text.tcp_seg_free
                0x08008300       0x1e Dave/Generated/src/ETH004/01_lwIP_Stack/src/core/tcp.o
                0x08008300                tcp_seg_free
 .text.tcp_segs_free
                0x0800831e       0x18 Dave/Generated/src/ETH004/01_lwIP_Stack/src/core/tcp.o
                0x0800831e                tcp_segs_free
 .text.tcp_setprio
                0x08008336        0x4 Dave/Generated/src/ETH004/01_lwIP_Stack/src/core/tcp.o
                0x08008336                tcp_setprio
 .text.tcp_arg  0x0800833a        0x4 Dave/Generated/src/ETH004/01_lwIP_Stack/src/core/tcp.o
                0x0800833a                tcp_arg
 .text.tcp_recv
                0x0800833e        0x6 Dave/Generated/src/ETH004/01_lwIP_Stack/src/core/tcp.o
                0x0800833e                tcp_recv
 .text.tcp_sent
                0x08008344        0x6 Dave/Generated/src/ETH004/01_lwIP_Stack/src/core/tcp.o
                0x08008344                tcp_sent
 .text.tcp_err  0x0800834a        0x6 Dave/Generated/src/ETH004/01_lwIP_Stack/src/core/tcp.o
                0x0800834a                tcp_err
 .text.tcp_accept
                0x08008350        0x4 Dave/Generated/src/ETH004/01_lwIP_Stack/src/core/tcp.o
                0x08008350                tcp_accept
 .text.tcp_poll
                0x08008354        0xa Dave/Generated/src/ETH004/01_lwIP_Stack/src/core/tcp.o
                0x08008354                tcp_poll
 .text.tcp_pcb_purge
                0x0800835e       0x30 Dave/Generated/src/ETH004/01_lwIP_Stack/src/core/tcp.o
                0x0800835e                tcp_pcb_purge
 *fill*         0x0800838e        0x2 00
 .text.tcp_slowtmr
                0x08008390      0x22c Dave/Generated/src/ETH004/01_lwIP_Stack/src/core/tcp.o
                0x08008390                tcp_slowtmr
 .text.tcp_pcb_remove
                0x080085bc       0x60 Dave/Generated/src/ETH004/01_lwIP_Stack/src/core/tcp.o
                0x080085bc                tcp_pcb_remove
 .text.tcp_abandon
                0x0800861c       0x8c Dave/Generated/src/ETH004/01_lwIP_Stack/src/core/tcp.o
                0x0800861c                tcp_abandon
 .text.tcp_close
                0x080086a8       0x8c Dave/Generated/src/ETH004/01_lwIP_Stack/src/core/tcp.o
                0x080086a8                tcp_close
 .text.tcp_recv_null
                0x08008734       0x24 Dave/Generated/src/ETH004/01_lwIP_Stack/src/core/tcp.o
                0x08008734                tcp_recv_null
 .text.tcp_fasttmr
                0x08008758       0x58 Dave/Generated/src/ETH004/01_lwIP_Stack/src/core/tcp.o
                0x08008758                tcp_fasttmr
 .text.tcp_tmr  0x080087b0       0x24 Dave/Generated/src/ETH004/01_lwIP_Stack/src/core/tcp.o
                0x080087b0                tcp_tmr
 .text.tcp_next_iss
                0x080087d4       0x18 Dave/Generated/src/ETH004/01_lwIP_Stack/src/core/tcp.o
                0x080087d4                tcp_next_iss
 .text.tcp_alloc
                0x080087ec      0x114 Dave/Generated/src/ETH004/01_lwIP_Stack/src/core/tcp.o
                0x080087ec                tcp_alloc
 .text.tcp_new  0x08008900        0x6 Dave/Generated/src/ETH004/01_lwIP_Stack/src/core/tcp.o
                0x08008900                tcp_new
 .text.tcp_eff_send_mss
                0x08008906       0x1e Dave/Generated/src/ETH004/01_lwIP_Stack/src/core/tcp.o
                0x08008906                tcp_eff_send_mss
 .text.tcp_connect
                0x08008924       0xc8 Dave/Generated/src/ETH004/01_lwIP_Stack/src/core/tcp.o
                0x08008924                tcp_connect
 .text.tcp_debug_state_str
                0x080089ec       0x10 Dave/Generated/src/ETH004/01_lwIP_Stack/src/core/tcp.o
                0x080089ec                tcp_debug_state_str
 .text          0x080089fc        0x0 Dave/Generated/src/ETH004/01_lwIP_Stack/src/core/tcp_in.o
 .text.tcp_parseopt
                0x080089fc       0x80 Dave/Generated/src/ETH004/01_lwIP_Stack/src/core/tcp_in.o
 .text.tcp_receive
                0x08008a7c      0x474 Dave/Generated/src/ETH004/01_lwIP_Stack/src/core/tcp_in.o
 .text.tcp_input
                0x08008ef0      0x7dc Dave/Generated/src/ETH004/01_lwIP_Stack/src/core/tcp_in.o
                0x08008ef0                tcp_input
 .text          0x080096cc        0x0 Dave/Generated/src/ETH004/01_lwIP_Stack/src/core/tcp_out.o
 .text.tcp_output_set_header.constprop.0
                0x080096cc       0x6a Dave/Generated/src/ETH004/01_lwIP_Stack/src/core/tcp_out.o
 *fill*         0x08009736        0x2 00
 .text.tcp_enqueue
                0x08009738      0x394 Dave/Generated/src/ETH004/01_lwIP_Stack/src/core/tcp_out.o
                0x08009738                tcp_enqueue
 .text.tcp_write
                0x08009acc       0x2e Dave/Generated/src/ETH004/01_lwIP_Stack/src/core/tcp_out.o
                0x08009acc                tcp_write
 .text.tcp_send_ctrl
                0x08009afa       0x14 Dave/Generated/src/ETH004/01_lwIP_Stack/src/core/tcp_out.o
                0x08009afa                tcp_send_ctrl
 .text.tcp_send_empty_ack
                0x08009b0e       0x52 Dave/Generated/src/ETH004/01_lwIP_Stack/src/core/tcp_out.o
                0x08009b0e                tcp_send_empty_ack
 .text.tcp_output
                0x08009b60      0x258 Dave/Generated/src/ETH004/01_lwIP_Stack/src/core/tcp_out.o
                0x08009b60                tcp_output
 .text.tcp_rst  0x08009db8       0xa8 Dave/Generated/src/ETH004/01_lwIP_Stack/src/core/tcp_out.o
                0x08009db8                tcp_rst
 .text.tcp_rexmit_rto
                0x08009e60       0x2e Dave/Generated/src/ETH004/01_lwIP_Stack/src/core/tcp_out.o
                0x08009e60                tcp_rexmit_rto
 .text.tcp_rexmit
                0x08009e8e       0x48 Dave/Generated/src/ETH004/01_lwIP_Stack/src/core/tcp_out.o
                0x08009e8e                tcp_rexmit
 .text.tcp_rexmit_fast
                0x08009ed6       0x5e Dave/Generated/src/ETH004/01_lwIP_Stack/src/core/tcp_out.o
                0x08009ed6                tcp_rexmit_fast
 .text.tcp_keepalive
                0x08009f34       0x48 Dave/Generated/src/ETH004/01_lwIP_Stack/src/core/tcp_out.o
                0x08009f34                tcp_keepalive
 .text.tcp_zero_window_probe
                0x08009f7c       0xa2 Dave/Generated/src/ETH004/01_lwIP_Stack/src/core/tcp_out.o
                0x08009f7c                tcp_zero_window_probe
 .text          0x0800a01e        0x0 Dave/Generated/src/ETH004/01_lwIP_Stack/src/core/udp.o
 *fill*         0x0800a01e        0x2 00
 .text.udp_input
                0x0800a020      0x16c Dave/Generated/src/ETH004/01_lwIP_Stack/src/core/udp.o
                0x0800a020                udp_input
 .text.udp_bind
                0x0800a18c       0x58 Dave/Generated/src/ETH004/01_lwIP_Stack/src/core/udp.o
                0x0800a18c                udp_bind
 .text.udp_sendto_if
                0x0800a1e4       0xba Dave/Generated/src/ETH004/01_lwIP_Stack/src/core/udp.o
                0x0800a1e4                udp_sendto_if
 .text.udp_sendto
                0x0800a29e       0x4c Dave/Generated/src/ETH004/01_lwIP_Stack/src/core/udp.o
                0x0800a29e                udp_sendto
 .text.udp_send
                0x0800a2ea        0x8 Dave/Generated/src/ETH004/01_lwIP_Stack/src/core/udp.o
                0x0800a2ea                udp_send
 *fill*         0x0800a2f2        0x2 00
 .text.udp_connect
                0x0800a2f4       0x4c Dave/Generated/src/ETH004/01_lwIP_Stack/src/core/udp.o
                0x0800a2f4                udp_connect
 .text.udp_disconnect
                0x0800a340       0x18 Dave/Generated/src/ETH004/01_lwIP_Stack/src/core/udp.o
                0x0800a340                udp_disconnect
 .text.udp_recv
                0x0800a358        0x6 Dave/Generated/src/ETH004/01_lwIP_Stack/src/core/udp.o
                0x0800a358                udp_recv
 *fill*         0x0800a35e        0x2 00
 .text.udp_remove
                0x0800a360       0x28 Dave/Generated/src/ETH004/01_lwIP_Stack/src/core/udp.o
                0x0800a360                udp_remove
 .text.udp_new  0x0800a388       0x24 Dave/Generated/src/ETH004/01_lwIP_Stack/src/core/udp.o
                0x0800a388                udp_new
 .text          0x0800a3ac        0x0 Dave/Generated/src/ETH004/01_lwIP_Stack/src/core/ipv4/autoip.o
 .text          0x0800a3ac        0x0 Dave/Generated/src/ETH004/01_lwIP_Stack/src/core/ipv4/icmp.o
 .text.icmp_send_response
                0x0800a3ac       0x7c Dave/Generated/src/ETH004/01_lwIP_Stack/src/core/ipv4/icmp.o
 .text.icmp_input
                0x0800a428       0xf0 Dave/Generated/src/ETH004/01_lwIP_Stack/src/core/ipv4/icmp.o
                0x0800a428                icmp_input
 .text.icmp_dest_unreach
                0x0800a518        0x8 Dave/Generated/src/ETH004/01_lwIP_Stack/src/core/ipv4/icmp.o
                0x0800a518                icmp_dest_unreach
 .text.icmp_time_exceeded
                0x0800a520        0x8 Dave/Generated/src/ETH004/01_lwIP_Stack/src/core/ipv4/icmp.o
                0x0800a520                icmp_time_exceeded
 .text          0x0800a528        0x0 Dave/Generated/src/ETH004/01_lwIP_Stack/src/core/ipv4/igmp.o
 .text.igmp_init
                0x0800a528       0x24 Dave/Generated/src/ETH004/01_lwIP_Stack/src/core/ipv4/igmp.o
                0x0800a528                igmp_init
 .text.igmp_stop
                0x0800a54c       0x48 Dave/Generated/src/ETH004/01_lwIP_Stack/src/core/ipv4/igmp.o
                0x0800a54c                igmp_stop
 .text.igmp_lookfor_group
                0x0800a594       0x24 Dave/Generated/src/ETH004/01_lwIP_Stack/src/core/ipv4/igmp.o
                0x0800a594                igmp_lookfor_group
 .text.igmp_lookup_group
                0x0800a5b8       0x40 Dave/Generated/src/ETH004/01_lwIP_Stack/src/core/ipv4/igmp.o
                0x0800a5b8                igmp_lookup_group
 .text.igmp_start
                0x0800a5f8       0x34 Dave/Generated/src/ETH004/01_lwIP_Stack/src/core/ipv4/igmp.o
                0x0800a5f8                igmp_start
 .text.igmp_remove_group
                0x0800a62c       0x30 Dave/Generated/src/ETH004/01_lwIP_Stack/src/core/ipv4/igmp.o
                0x0800a62c                igmp_remove_group
 .text.igmp_start_timer
                0x0800a65c        0x4 Dave/Generated/src/ETH004/01_lwIP_Stack/src/core/ipv4/igmp.o
                0x0800a65c                igmp_start_timer
 .text.igmp_stop_timer
                0x0800a660        0x6 Dave/Generated/src/ETH004/01_lwIP_Stack/src/core/ipv4/igmp.o
                0x0800a660                igmp_stop_timer
 .text.igmp_delaying_member
                0x0800a666       0x1a Dave/Generated/src/ETH004/01_lwIP_Stack/src/core/ipv4/igmp.o
                0x0800a666                igmp_delaying_member
 .text.igmp_input
                0x0800a680       0xc4 Dave/Generated/src/ETH004/01_lwIP_Stack/src/core/ipv4/igmp.o
                0x0800a680                igmp_input
 .text.igmp_report_groups
                0x0800a744       0x24 Dave/Generated/src/ETH004/01_lwIP_Stack/src/core/ipv4/igmp.o
                0x0800a744                igmp_report_groups
 .text.igmp_ip_output_if
                0x0800a768       0x46 Dave/Generated/src/ETH004/01_lwIP_Stack/src/core/ipv4/igmp.o
                0x0800a768                igmp_ip_output_if
 *fill*         0x0800a7ae        0x2 00
 .text.igmp_send
                0x0800a7b0       0x88 Dave/Generated/src/ETH004/01_lwIP_Stack/src/core/ipv4/igmp.o
                0x0800a7b0                igmp_send
 .text.igmp_timeout
                0x0800a838        0xe Dave/Generated/src/ETH004/01_lwIP_Stack/src/core/ipv4/igmp.o
                0x0800a838                igmp_timeout
 *fill*         0x0800a846        0x2 00
 .text.igmp_tmr
                0x0800a848       0x24 Dave/Generated/src/ETH004/01_lwIP_Stack/src/core/ipv4/igmp.o
                0x0800a848                igmp_tmr
 .text.igmp_leavegroup
                0x0800a86c       0x9c Dave/Generated/src/ETH004/01_lwIP_Stack/src/core/ipv4/igmp.o
                0x0800a86c                igmp_leavegroup
 .text.igmp_joingroup
                0x0800a908       0x98 Dave/Generated/src/ETH004/01_lwIP_Stack/src/core/ipv4/igmp.o
                0x0800a908                igmp_joingroup
 .text          0x0800a9a0        0x0 Dave/Generated/src/ETH004/01_lwIP_Stack/src/core/ipv4/inet.o
 .text.inet_ntoa
                0x0800a9a0       0x6c Dave/Generated/src/ETH004/01_lwIP_Stack/src/core/ipv4/inet.o
                0x0800a9a0                inet_ntoa
 .text.htons    0x0800aa0c        0xa Dave/Generated/src/ETH004/01_lwIP_Stack/src/core/ipv4/inet.o
                0x0800aa0c                htons
 .text.ntohs    0x0800aa16        0xa Dave/Generated/src/ETH004/01_lwIP_Stack/src/core/ipv4/inet.o
                0x0800aa16                ntohs
 .text.htonl    0x0800aa20        0x4 Dave/Generated/src/ETH004/01_lwIP_Stack/src/core/ipv4/inet.o
                0x0800aa20                htonl
 .text.inet_aton
                0x0800aa24      0x106 Dave/Generated/src/ETH004/01_lwIP_Stack/src/core/ipv4/inet.o
                0x0800aa24                inet_aton
 .text.inet_addr
                0x0800ab2a       0x14 Dave/Generated/src/ETH004/01_lwIP_Stack/src/core/ipv4/inet.o
                0x0800ab2a                inet_addr
 .text.ntohl    0x0800ab3e        0x4 Dave/Generated/src/ETH004/01_lwIP_Stack/src/core/ipv4/inet.o
                0x0800ab3e                ntohl
 .text          0x0800ab42        0x0 Dave/Generated/src/ETH004/01_lwIP_Stack/src/core/ipv4/inet_chksum.o
 .text.lwip_standard_chksum
                0x0800ab42       0x44 Dave/Generated/src/ETH004/01_lwIP_Stack/src/core/ipv4/inet_chksum.o
 .text.inet_chksum_pseudo
                0x0800ab86       0x84 Dave/Generated/src/ETH004/01_lwIP_Stack/src/core/ipv4/inet_chksum.o
                0x0800ab86                inet_chksum_pseudo
 .text.inet_chksum
                0x0800ac0a        0xc Dave/Generated/src/ETH004/01_lwIP_Stack/src/core/ipv4/inet_chksum.o
                0x0800ac0a                inet_chksum
 .text.inet_chksum_pbuf
                0x0800ac16       0x46 Dave/Generated/src/ETH004/01_lwIP_Stack/src/core/ipv4/inet_chksum.o
                0x0800ac16                inet_chksum_pbuf
 .text          0x0800ac5c        0x0 Dave/Generated/src/ETH004/01_lwIP_Stack/src/core/ipv4/ip.o
 .text.ip_route
                0x0800ac5c       0x3c Dave/Generated/src/ETH004/01_lwIP_Stack/src/core/ipv4/ip.o
                0x0800ac5c                ip_route
 .text.ip_input
                0x0800ac98      0x1c0 Dave/Generated/src/ETH004/01_lwIP_Stack/src/core/ipv4/ip.o
                0x0800ac98                ip_input
 .text.ip_output_if_opt
                0x0800ae58      0x134 Dave/Generated/src/ETH004/01_lwIP_Stack/src/core/ipv4/ip.o
                0x0800ae58                ip_output_if_opt
 .text.ip_output_if
                0x0800af8c       0x22 Dave/Generated/src/ETH004/01_lwIP_Stack/src/core/ipv4/ip.o
                0x0800af8c                ip_output_if
 .text.ip_output
                0x0800afae       0x38 Dave/Generated/src/ETH004/01_lwIP_Stack/src/core/ipv4/ip.o
                0x0800afae                ip_output
 .text          0x0800afe6        0x0 Dave/Generated/src/ETH004/01_lwIP_Stack/src/core/ipv4/ip_addr.o
 .text.ip_addr_isbroadcast
                0x0800afe6       0x32 Dave/Generated/src/ETH004/01_lwIP_Stack/src/core/ipv4/ip_addr.o
                0x0800afe6                ip_addr_isbroadcast
 .text          0x0800b018        0x0 Dave/Generated/src/ETH004/01_lwIP_Stack/src/core/ipv4/ip_frag.o
 .text.ip_reass_free_complete_datagram
                0x0800b018       0x84 Dave/Generated/src/ETH004/01_lwIP_Stack/src/core/ipv4/ip_frag.o
 .text.ip_reass_remove_oldest_datagram
                0x0800b09c       0x6c Dave/Generated/src/ETH004/01_lwIP_Stack/src/core/ipv4/ip_frag.o
 .text.ip_reass_tmr
                0x0800b108       0x28 Dave/Generated/src/ETH004/01_lwIP_Stack/src/core/ipv4/ip_frag.o
                0x0800b108                ip_reass_tmr
 .text.ip_reass
                0x0800b130      0x294 Dave/Generated/src/ETH004/01_lwIP_Stack/src/core/ipv4/ip_frag.o
                0x0800b130                ip_reass
 .text.ip_frag  0x0800b3c4      0x15c Dave/Generated/src/ETH004/01_lwIP_Stack/src/core/ipv4/ip_frag.o
                0x0800b3c4                ip_frag
 .text          0x0800b520        0x0 Dave/Generated/src/ETH004/01_lwIP_Stack/src/api/api_lib.o
 .text          0x0800b520        0x0 Dave/Generated/src/ETH004/01_lwIP_Stack/src/api/api_msg.o
 .text          0x0800b520        0x0 Dave/Generated/src/ETH004/01_lwIP_Stack/src/api/err.o
 .text          0x0800b520        0x0 Dave/Generated/src/ETH004/01_lwIP_Stack/src/api/netbuf.o
 .text          0x0800b520        0x0 Dave/Generated/src/ETH004/01_lwIP_Stack/src/api/netdb.o
 .text          0x0800b520        0x0 Dave/Generated/src/ETH004/01_lwIP_Stack/src/api/netifapi.o
 .text          0x0800b520        0x0 Dave/Generated/src/ETH004/01_lwIP_Stack/src/api/sockets.o
 .text          0x0800b520        0x0 Dave/Generated/src/ETH004/01_lwIP_Stack/src/api/tcpip.o
 .text          0x0800b520        0x0 Dave/Generated/src/ETH004/01_lwIP_Stack/port/arch/sys/sys_arch.o
 .text          0x0800b520        0x0 Dave/Generated/src/ETH002/EthernetPHY.o
 .text.PHY_lWriteReg.constprop.0
                0x0800b520       0x3c Dave/Generated/src/ETH002/EthernetPHY.o
 .text.PHY_lReadReg.constprop.1
                0x0800b55c       0x40 Dave/Generated/src/ETH002/EthernetPHY.o
 .text.PHY_IsLinkUP
                0x0800b59c       0x32 Dave/Generated/src/ETH002/EthernetPHY.o
                0x0800b59c                PHY_IsLinkUP
 *fill*         0x0800b5ce        0x2 00
 .text.PHY_InitializeDevice
                0x0800b5d0       0xfc Dave/Generated/src/ETH002/EthernetPHY.o
                0x0800b5d0                PHY_InitializeDevice
 .text.PHY_RegisterTimerCallback
                0x0800b6cc        0xc Dave/Generated/src/ETH002/EthernetPHY.o
                0x0800b6cc                PHY_RegisterTimerCallback
 .text          0x0800b6d8        0x0 Dave/Generated/src/ETH001/DMA_Descriptors.o
 .text          0x0800b6d8        0x0 Dave/Generated/src/ETH001/synopGMAC_Dev.o
 .text.synopGMAC_set_tx_address
                0x0800b6d8       0x14 Dave/Generated/src/ETH001/synopGMAC_Dev.o
                0x0800b6d8                synopGMAC_set_tx_address
 .text.synopGMAC_RegisterOneShotTimerCallback
                0x0800b6ec        0xc Dave/Generated/src/ETH001/synopGMAC_Dev.o
                0x0800b6ec                synopGMAC_RegisterOneShotTimerCallback
 .text.synopGMAC_set_mdc_clk_div
                0x0800b6f8       0x20 Dave/Generated/src/ETH001/synopGMAC_Dev.o
                0x0800b6f8                synopGMAC_set_mdc_clk_div
 .text.synopGMAC_get_mdc_clk_div
                0x0800b718       0x10 Dave/Generated/src/ETH001/synopGMAC_Dev.o
                0x0800b718                synopGMAC_get_mdc_clk_div
 .text.synopGMAC_read_version
                0x0800b728       0x12 Dave/Generated/src/ETH001/synopGMAC_Dev.o
                0x0800b728                synopGMAC_read_version
 .text.synopGMAC_rmii_100mbps_enable
                0x0800b73a        0xc Dave/Generated/src/ETH001/synopGMAC_Dev.o
                0x0800b73a                synopGMAC_rmii_100mbps_enable
 *fill*         0x0800b746        0x2 00
 .text.synopGMAC_reset
                0x0800b748       0x2c Dave/Generated/src/ETH001/synopGMAC_Dev.o
                0x0800b748                synopGMAC_reset
 .text.synopGMAC_dma_bus_mode_init
                0x0800b774       0x10 Dave/Generated/src/ETH001/synopGMAC_Dev.o
                0x0800b774                synopGMAC_dma_bus_mode_init
 .text.synopGMAC_dma_control_init
                0x0800b784       0x10 Dave/Generated/src/ETH001/synopGMAC_Dev.o
                0x0800b784                synopGMAC_dma_control_init
 .text.synopGMAC_wd_enable
                0x0800b794        0xc Dave/Generated/src/ETH001/synopGMAC_Dev.o
                0x0800b794                synopGMAC_wd_enable
 .text.synopGMAC_wd_disable
                0x0800b7a0        0xc Dave/Generated/src/ETH001/synopGMAC_Dev.o
                0x0800b7a0                synopGMAC_wd_disable
 .text.synopGMAC_jab_enable
                0x0800b7ac        0xc Dave/Generated/src/ETH001/synopGMAC_Dev.o
                0x0800b7ac                synopGMAC_jab_enable
 .text.synopGMAC_jab_disable
                0x0800b7b8        0xc Dave/Generated/src/ETH001/synopGMAC_Dev.o
                0x0800b7b8                synopGMAC_jab_disable
 .text.synopGMAC_frame_burst_enable
                0x0800b7c4        0xc Dave/Generated/src/ETH001/synopGMAC_Dev.o
                0x0800b7c4                synopGMAC_frame_burst_enable
 .text.synopGMAC_frame_burst_disable
                0x0800b7d0        0xc Dave/Generated/src/ETH001/synopGMAC_Dev.o
                0x0800b7d0                synopGMAC_frame_burst_disable
 .text.synopGMAC_jumbo_frame_enable
                0x0800b7dc        0xc Dave/Generated/src/ETH001/synopGMAC_Dev.o
                0x0800b7dc                synopGMAC_jumbo_frame_enable
 .text.synopGMAC_jumbo_frame_disable
                0x0800b7e8        0xc Dave/Generated/src/ETH001/synopGMAC_Dev.o
                0x0800b7e8                synopGMAC_jumbo_frame_disable
 .text.synopGMAC_disable_crs
                0x0800b7f4        0xc Dave/Generated/src/ETH001/synopGMAC_Dev.o
                0x0800b7f4                synopGMAC_disable_crs
 .text.synopGMAC_select_gmii
                0x0800b800        0xc Dave/Generated/src/ETH001/synopGMAC_Dev.o
                0x0800b800                synopGMAC_select_gmii
 .text.synopGMAC_select_mii
                0x0800b80c        0xc Dave/Generated/src/ETH001/synopGMAC_Dev.o
                0x0800b80c                synopGMAC_select_mii
 .text.synopGMAC_rx_own_enable
                0x0800b818        0xc Dave/Generated/src/ETH001/synopGMAC_Dev.o
                0x0800b818                synopGMAC_rx_own_enable
 .text.synopGMAC_rx_own_disable
                0x0800b824        0xc Dave/Generated/src/ETH001/synopGMAC_Dev.o
                0x0800b824                synopGMAC_rx_own_disable
 .text.synopGMAC_loopback_on
                0x0800b830        0xc Dave/Generated/src/ETH001/synopGMAC_Dev.o
                0x0800b830                synopGMAC_loopback_on
 .text.synopGMAC_loopback_off
                0x0800b83c        0xc Dave/Generated/src/ETH001/synopGMAC_Dev.o
                0x0800b83c                synopGMAC_loopback_off
 .text.synopGMAC_set_full_duplex
                0x0800b848        0xc Dave/Generated/src/ETH001/synopGMAC_Dev.o
                0x0800b848                synopGMAC_set_full_duplex
 .text.synopGMAC_set_half_duplex
                0x0800b854        0xc Dave/Generated/src/ETH001/synopGMAC_Dev.o
                0x0800b854                synopGMAC_set_half_duplex
 .text.synopGMAC_retry_enable
                0x0800b860        0xc Dave/Generated/src/ETH001/synopGMAC_Dev.o
                0x0800b860                synopGMAC_retry_enable
 .text.synopGMAC_retry_disable
                0x0800b86c        0xc Dave/Generated/src/ETH001/synopGMAC_Dev.o
                0x0800b86c                synopGMAC_retry_disable
 .text.synopGMAC_pad_crc_strip_enable
                0x0800b878        0xa Dave/Generated/src/ETH001/synopGMAC_Dev.o
                0x0800b878                synopGMAC_pad_crc_strip_enable
 .text.synopGMAC_pad_crc_strip_disable
                0x0800b882        0xa Dave/Generated/src/ETH001/synopGMAC_Dev.o
                0x0800b882                synopGMAC_pad_crc_strip_disable
 .text.synopGMAC_back_off_limit
                0x0800b88c       0x20 Dave/Generated/src/ETH001/synopGMAC_Dev.o
                0x0800b88c                synopGMAC_back_off_limit
 .text.synopGMAC_deferral_check_enable
                0x0800b8ac        0xa Dave/Generated/src/ETH001/synopGMAC_Dev.o
                0x0800b8ac                synopGMAC_deferral_check_enable
 .text.synopGMAC_deferral_check_disable
                0x0800b8b6        0xa Dave/Generated/src/ETH001/synopGMAC_Dev.o
                0x0800b8b6                synopGMAC_deferral_check_disable
 .text.synopGMAC_rx_enable
                0x0800b8c0        0xa Dave/Generated/src/ETH001/synopGMAC_Dev.o
                0x0800b8c0                synopGMAC_rx_enable
 .text.synopGMAC_rx_disable
                0x0800b8ca        0xa Dave/Generated/src/ETH001/synopGMAC_Dev.o
                0x0800b8ca                synopGMAC_rx_disable
 .text.synopGMAC_tx_enable
                0x0800b8d4        0xa Dave/Generated/src/ETH001/synopGMAC_Dev.o
                0x0800b8d4                synopGMAC_tx_enable
 .text.synopGMAC_tx_disable
                0x0800b8de        0xa Dave/Generated/src/ETH001/synopGMAC_Dev.o
                0x0800b8de                synopGMAC_tx_disable
 .text.synopGMAC_frame_filter_enable
                0x0800b8e8        0xc Dave/Generated/src/ETH001/synopGMAC_Dev.o
                0x0800b8e8                synopGMAC_frame_filter_enable
 .text.synopGMAC_frame_filter_disable
                0x0800b8f4        0xc Dave/Generated/src/ETH001/synopGMAC_Dev.o
                0x0800b8f4                synopGMAC_frame_filter_disable
 .text.synopGMAC_write_hash_table_high
                0x0800b900        0xa Dave/Generated/src/ETH001/synopGMAC_Dev.o
                0x0800b900                synopGMAC_write_hash_table_high
 .text.synopGMAC_write_hash_table_low
                0x0800b90a        0xa Dave/Generated/src/ETH001/synopGMAC_Dev.o
                0x0800b90a                synopGMAC_write_hash_table_low
 .text.synopGMAC_hash_perfect_filter_enable
                0x0800b914        0xc Dave/Generated/src/ETH001/synopGMAC_Dev.o
                0x0800b914                synopGMAC_hash_perfect_filter_enable
 .text.synopGMAC_Hash_filter_only_enable
                0x0800b920        0xc Dave/Generated/src/ETH001/synopGMAC_Dev.o
                0x0800b920                synopGMAC_Hash_filter_only_enable
 .text.synopGMAC_src_addr_filter_enable
                0x0800b92c        0xc Dave/Generated/src/ETH001/synopGMAC_Dev.o
                0x0800b92c                synopGMAC_src_addr_filter_enable
 .text.synopGMAC_src_addr_filter_disable
                0x0800b938        0xc Dave/Generated/src/ETH001/synopGMAC_Dev.o
                0x0800b938                synopGMAC_src_addr_filter_disable
 .text.synopGMAC_dst_addr_filter_inverse
                0x0800b944        0xa Dave/Generated/src/ETH001/synopGMAC_Dev.o
                0x0800b944                synopGMAC_dst_addr_filter_inverse
 .text.synopGMAC_dst_addr_filter_normal
                0x0800b94e        0xa Dave/Generated/src/ETH001/synopGMAC_Dev.o
                0x0800b94e                synopGMAC_dst_addr_filter_normal
 .text.synopGMAC_set_pass_control
                0x0800b958       0x20 Dave/Generated/src/ETH001/synopGMAC_Dev.o
                0x0800b958                synopGMAC_set_pass_control
 .text.synopGMAC_broadcast_enable
                0x0800b978        0xa Dave/Generated/src/ETH001/synopGMAC_Dev.o
                0x0800b978                synopGMAC_broadcast_enable
 .text.synopGMAC_broadcast_disable
                0x0800b982        0xa Dave/Generated/src/ETH001/synopGMAC_Dev.o
                0x0800b982                synopGMAC_broadcast_disable
 .text.synopGMAC_multicast_enable
                0x0800b98c        0xa Dave/Generated/src/ETH001/synopGMAC_Dev.o
                0x0800b98c                synopGMAC_multicast_enable
 .text.synopGMAC_multicast_disable
                0x0800b996        0xa Dave/Generated/src/ETH001/synopGMAC_Dev.o
                0x0800b996                synopGMAC_multicast_disable
 .text.synopGMAC_multicast_hash_filter_enable
                0x0800b9a0        0xa Dave/Generated/src/ETH001/synopGMAC_Dev.o
                0x0800b9a0                synopGMAC_multicast_hash_filter_enable
 .text.synopGMAC_multicast_hash_filter_disable
                0x0800b9aa        0xa Dave/Generated/src/ETH001/synopGMAC_Dev.o
                0x0800b9aa                synopGMAC_multicast_hash_filter_disable
 .text.synopGMAC_promisc_enable
                0x0800b9b4        0xa Dave/Generated/src/ETH001/synopGMAC_Dev.o
                0x0800b9b4                synopGMAC_promisc_enable
 .text.synopGMAC_promisc_disable
                0x0800b9be        0xa Dave/Generated/src/ETH001/synopGMAC_Dev.o
                0x0800b9be                synopGMAC_promisc_disable
 .text.synopGMAC_unicast_hash_filter_enable
                0x0800b9c8        0xa Dave/Generated/src/ETH001/synopGMAC_Dev.o
                0x0800b9c8                synopGMAC_unicast_hash_filter_enable
 .text.synopGMAC_unicast_hash_filter_disable
                0x0800b9d2        0xa Dave/Generated/src/ETH001/synopGMAC_Dev.o
                0x0800b9d2                synopGMAC_unicast_hash_filter_disable
 .text.synopGMAC_unicast_pause_frame_detect_enable
                0x0800b9dc        0xa Dave/Generated/src/ETH001/synopGMAC_Dev.o
                0x0800b9dc                synopGMAC_unicast_pause_frame_detect_enable
 .text.synopGMAC_unicast_pause_frame_detect_disable
                0x0800b9e6        0xa Dave/Generated/src/ETH001/synopGMAC_Dev.o
                0x0800b9e6                synopGMAC_unicast_pause_frame_detect_disable
 .text.synopGMAC_rx_flow_control_enable
                0x0800b9f0        0xa Dave/Generated/src/ETH001/synopGMAC_Dev.o
                0x0800b9f0                synopGMAC_rx_flow_control_enable
 .text.synopGMAC_rx_flow_control_disable
                0x0800b9fa        0xa Dave/Generated/src/ETH001/synopGMAC_Dev.o
                0x0800b9fa                synopGMAC_rx_flow_control_disable
 .text.synopGMAC_tx_flow_control_enable
                0x0800ba04        0xa Dave/Generated/src/ETH001/synopGMAC_Dev.o
                0x0800ba04                synopGMAC_tx_flow_control_enable
 .text.synopGMAC_tx_flow_control_disable
                0x0800ba0e        0xa Dave/Generated/src/ETH001/synopGMAC_Dev.o
                0x0800ba0e                synopGMAC_tx_flow_control_disable
 .text.synopGMAC_tx_activate_flow_control
                0x0800ba18       0x28 Dave/Generated/src/ETH001/synopGMAC_Dev.o
                0x0800ba18                synopGMAC_tx_activate_flow_control
 .text.synopGMAC_tx_deactivate_flow_control
                0x0800ba40       0x12 Dave/Generated/src/ETH001/synopGMAC_Dev.o
                0x0800ba40                synopGMAC_tx_deactivate_flow_control
 *fill*         0x0800ba52        0x2 00
 .text.synopGMAC_pause_control
                0x0800ba54       0x3c Dave/Generated/src/ETH001/synopGMAC_Dev.o
                0x0800ba54                synopGMAC_pause_control
 .text.synopGMAC_mac_init
                0x0800ba90      0x14e Dave/Generated/src/ETH001/synopGMAC_Dev.o
                0x0800ba90                synopGMAC_mac_init
 .text.synopGMAC_set_mac_addr
                0x0800bbde       0x36 Dave/Generated/src/ETH001/synopGMAC_Dev.o
                0x0800bbde                synopGMAC_set_mac_addr
 .text.synopGMAC_get_mac_addr
                0x0800bc14       0x2e Dave/Generated/src/ETH001/synopGMAC_Dev.o
                0x0800bc14                synopGMAC_get_mac_addr
 *fill*         0x0800bc42        0x2 00
 .text.synopGMAC_attach
                0x0800bc44       0x40 Dave/Generated/src/ETH001/synopGMAC_Dev.o
                0x0800bc44                synopGMAC_attach
 .text.synopGMAC_rx_desc_init_ring
                0x0800bc84       0x1a Dave/Generated/src/ETH001/synopGMAC_Dev.o
                0x0800bc84                synopGMAC_rx_desc_init_ring
 .text.synopGMAC_tx_desc_init_ring
                0x0800bc9e       0x12 Dave/Generated/src/ETH001/synopGMAC_Dev.o
                0x0800bc9e                synopGMAC_tx_desc_init_ring
 .text.synopGMAC_rx_desc_init_chain
                0x0800bcb0       0x10 Dave/Generated/src/ETH001/synopGMAC_Dev.o
                0x0800bcb0                synopGMAC_rx_desc_init_chain
 .text.synopGMAC_tx_desc_init_chain
                0x0800bcc0        0xc Dave/Generated/src/ETH001/synopGMAC_Dev.o
                0x0800bcc0                synopGMAC_tx_desc_init_chain
 .text.synopGMAC_init_tx_rx_desc_queue
                0x0800bccc       0x5c Dave/Generated/src/ETH001/synopGMAC_Dev.o
                0x0800bccc                synopGMAC_init_tx_rx_desc_queue
 .text.synopGMAC_init_rx_desc_base
                0x0800bd28        0xc Dave/Generated/src/ETH001/synopGMAC_Dev.o
                0x0800bd28                synopGMAC_init_rx_desc_base
 .text.synopGMAC_init_tx_desc_base
                0x0800bd34        0xc Dave/Generated/src/ETH001/synopGMAC_Dev.o
                0x0800bd34                synopGMAC_init_tx_desc_base
 .text.synopGMAC_set_owner_dma
                0x0800bd40        0xa Dave/Generated/src/ETH001/synopGMAC_Dev.o
                0x0800bd40                synopGMAC_set_owner_dma
 .text.synopGMAC_set_desc_sof
                0x0800bd4a        0xa Dave/Generated/src/ETH001/synopGMAC_Dev.o
                0x0800bd4a                synopGMAC_set_desc_sof
 .text.synopGMAC_set_desc_eof
                0x0800bd54        0xa Dave/Generated/src/ETH001/synopGMAC_Dev.o
                0x0800bd54                synopGMAC_set_desc_eof
 .text.synopGMAC_is_sof_in_rx_desc
                0x0800bd5e        0x8 Dave/Generated/src/ETH001/synopGMAC_Dev.o
                0x0800bd5e                synopGMAC_is_sof_in_rx_desc
 .text.synopGMAC_is_eof_in_rx_desc
                0x0800bd66        0x8 Dave/Generated/src/ETH001/synopGMAC_Dev.o
                0x0800bd66                synopGMAC_is_eof_in_rx_desc
 .text.synopGMAC_is_da_filter_failed
                0x0800bd6e        0x8 Dave/Generated/src/ETH001/synopGMAC_Dev.o
                0x0800bd6e                synopGMAC_is_da_filter_failed
 .text.synopGMAC_is_sa_filter_failed
                0x0800bd76        0x8 Dave/Generated/src/ETH001/synopGMAC_Dev.o
                0x0800bd76                synopGMAC_is_sa_filter_failed
 .text.synopGMAC_is_desc_owned_by_dma
                0x0800bd7e        0x6 Dave/Generated/src/ETH001/synopGMAC_Dev.o
                0x0800bd7e                synopGMAC_is_desc_owned_by_dma
 .text.synopGMAC_get_rx_desc_frame_length
                0x0800bd84        0x6 Dave/Generated/src/ETH001/synopGMAC_Dev.o
                0x0800bd84                synopGMAC_get_rx_desc_frame_length
 .text.synopGMAC_is_desc_valid
                0x0800bd8a        0xa Dave/Generated/src/ETH001/synopGMAC_Dev.o
                0x0800bd8a                synopGMAC_is_desc_valid
 .text.synopGMAC_is_desc_empty
                0x0800bd94        0xe Dave/Generated/src/ETH001/synopGMAC_Dev.o
                0x0800bd94                synopGMAC_is_desc_empty
 .text.synopGMAC_is_rx_desc_valid
                0x0800bda2       0x12 Dave/Generated/src/ETH001/synopGMAC_Dev.o
                0x0800bda2                synopGMAC_is_rx_desc_valid
 .text.synopGMAC_is_tx_aborted
                0x0800bdb4        0xc Dave/Generated/src/ETH001/synopGMAC_Dev.o
                0x0800bdb4                synopGMAC_is_tx_aborted
 .text.synopGMAC_is_tx_carrier_error
                0x0800bdc0        0xc Dave/Generated/src/ETH001/synopGMAC_Dev.o
                0x0800bdc0                synopGMAC_is_tx_carrier_error
 .text.synopGMAC_get_tx_collision_count
                0x0800bdcc        0x6 Dave/Generated/src/ETH001/synopGMAC_Dev.o
                0x0800bdcc                synopGMAC_get_tx_collision_count
 .text.synopGMAC_is_exc_tx_collisions
                0x0800bdd2        0x6 Dave/Generated/src/ETH001/synopGMAC_Dev.o
                0x0800bdd2                synopGMAC_is_exc_tx_collisions
 .text.synopGMAC_is_rx_frame_damaged
                0x0800bdd8        0xc Dave/Generated/src/ETH001/synopGMAC_Dev.o
                0x0800bdd8                synopGMAC_is_rx_frame_damaged
 .text.synopGMAC_is_rx_frame_collision
                0x0800bde4        0x6 Dave/Generated/src/ETH001/synopGMAC_Dev.o
                0x0800bde4                synopGMAC_is_rx_frame_collision
 .text.synopGMAC_is_rx_crc
                0x0800bdea        0x6 Dave/Generated/src/ETH001/synopGMAC_Dev.o
                0x0800bdea                synopGMAC_is_rx_crc
 .text.synopGMAC_is_frame_dribbling_errors
                0x0800bdf0        0x6 Dave/Generated/src/ETH001/synopGMAC_Dev.o
                0x0800bdf0                synopGMAC_is_frame_dribbling_errors
 .text.synopGMAC_is_rx_frame_length_errors
                0x0800bdf6        0x6 Dave/Generated/src/ETH001/synopGMAC_Dev.o
                0x0800bdf6                synopGMAC_is_rx_frame_length_errors
 .text.synopGMAC_is_last_rx_desc
                0x0800bdfc       0x18 Dave/Generated/src/ETH001/synopGMAC_Dev.o
                0x0800bdfc                synopGMAC_is_last_rx_desc
 .text.synopGMAC_is_last_tx_desc
                0x0800be14       0x18 Dave/Generated/src/ETH001/synopGMAC_Dev.o
                0x0800be14                synopGMAC_is_last_tx_desc
 .text.synopGMAC_is_rx_desc_chained
                0x0800be2c        0x8 Dave/Generated/src/ETH001/synopGMAC_Dev.o
                0x0800be2c                synopGMAC_is_rx_desc_chained
 .text.synopGMAC_is_tx_desc_chained
                0x0800be34        0x8 Dave/Generated/src/ETH001/synopGMAC_Dev.o
                0x0800be34                synopGMAC_is_tx_desc_chained
 .text.synopGMAC_get_desc_data
                0x0800be3c       0x3e Dave/Generated/src/ETH001/synopGMAC_Dev.o
                0x0800be3c                synopGMAC_get_desc_data
 .text.synopGMAC_get_tx_qptr
                0x0800be7a       0xee Dave/Generated/src/ETH001/synopGMAC_Dev.o
                0x0800be7a                synopGMAC_get_tx_qptr
 .text.synopGMAC_set_tx_qptr
                0x0800bf68       0xbc Dave/Generated/src/ETH001/synopGMAC_Dev.o
                0x0800bf68                synopGMAC_set_tx_qptr
 .text.synopGMAC_set_rx_qptr
                0x0800c024       0xb8 Dave/Generated/src/ETH001/synopGMAC_Dev.o
                0x0800c024                synopGMAC_set_rx_qptr
 .text.synopGMAC_get_rx_qptr
                0x0800c0dc       0xb4 Dave/Generated/src/ETH001/synopGMAC_Dev.o
                0x0800c0dc                synopGMAC_get_rx_qptr
 .text.synopGMAC_clear_interrupt
                0x0800c190       0x1a Dave/Generated/src/ETH001/synopGMAC_Dev.o
                0x0800c190                synopGMAC_clear_interrupt
 .text.synopGMAC_get_interrupt_type
                0x0800c1aa       0x54 Dave/Generated/src/ETH001/synopGMAC_Dev.o
                0x0800c1aa                synopGMAC_get_interrupt_type
 .text.synopGMAC_get_interrupt_mask
                0x0800c1fe        0x8 Dave/Generated/src/ETH001/synopGMAC_Dev.o
                0x0800c1fe                synopGMAC_get_interrupt_mask
 .text.synopGMAC_enable_interrupt
                0x0800c206        0xa Dave/Generated/src/ETH001/synopGMAC_Dev.o
                0x0800c206                synopGMAC_enable_interrupt
 .text.synopGMAC_disable_interrupt_all
                0x0800c210        0xa Dave/Generated/src/ETH001/synopGMAC_Dev.o
                0x0800c210                synopGMAC_disable_interrupt_all
 .text.synopGMAC_disable_interrupt
                0x0800c21a        0xa Dave/Generated/src/ETH001/synopGMAC_Dev.o
                0x0800c21a                synopGMAC_disable_interrupt
 .text.synopGMAC_enable_dma_rx
                0x0800c224       0x1c Dave/Generated/src/ETH001/synopGMAC_Dev.o
                0x0800c224                synopGMAC_enable_dma_rx
 .text.synopGMAC_enable_dma_tx
                0x0800c240       0x1c Dave/Generated/src/ETH001/synopGMAC_Dev.o
                0x0800c240                synopGMAC_enable_dma_tx
 .text.synopGMAC_resume_dma_tx
                0x0800c25c        0xa Dave/Generated/src/ETH001/synopGMAC_Dev.o
                0x0800c25c                synopGMAC_resume_dma_tx
 .text.synopGMAC_resume_dma_rx
                0x0800c266        0xa Dave/Generated/src/ETH001/synopGMAC_Dev.o
                0x0800c266                synopGMAC_resume_dma_rx
 .text.synopGMAC_take_desc_ownership
                0x0800c270        0xc Dave/Generated/src/ETH001/synopGMAC_Dev.o
                0x0800c270                synopGMAC_take_desc_ownership
 .text.synopGMAC_take_desc_ownership_rx
                0x0800c27c       0x2e Dave/Generated/src/ETH001/synopGMAC_Dev.o
                0x0800c27c                synopGMAC_take_desc_ownership_rx
 .text.synopGMAC_take_desc_ownership_tx
                0x0800c2aa       0x2e Dave/Generated/src/ETH001/synopGMAC_Dev.o
                0x0800c2aa                synopGMAC_take_desc_ownership_tx
 .text.synopGMAC_disable_dma_tx
                0x0800c2d8       0x1c Dave/Generated/src/ETH001/synopGMAC_Dev.o
                0x0800c2d8                synopGMAC_disable_dma_tx
 .text.synopGMAC_disable_dma_rx
                0x0800c2f4       0x1c Dave/Generated/src/ETH001/synopGMAC_Dev.o
                0x0800c2f4                synopGMAC_disable_dma_rx
 .text.synopGMAC_pmt_int_enable
                0x0800c310        0xa Dave/Generated/src/ETH001/synopGMAC_Dev.o
                0x0800c310                synopGMAC_pmt_int_enable
 .text.synopGMAC_pmt_int_disable
                0x0800c31a        0xa Dave/Generated/src/ETH001/synopGMAC_Dev.o
                0x0800c31a                synopGMAC_pmt_int_disable
 .text.synopGMAC_power_down_enable
                0x0800c324        0xa Dave/Generated/src/ETH001/synopGMAC_Dev.o
                0x0800c324                synopGMAC_power_down_enable
 .text.synopGMAC_power_down_disable
                0x0800c32e        0xa Dave/Generated/src/ETH001/synopGMAC_Dev.o
                0x0800c32e                synopGMAC_power_down_disable
 .text.synopGMAC_enable_pmt_interrupt
                0x0800c338        0xa Dave/Generated/src/ETH001/synopGMAC_Dev.o
                0x0800c338                synopGMAC_enable_pmt_interrupt
 .text.synopGMAC_disable_pmt_interrupt
                0x0800c342        0xa Dave/Generated/src/ETH001/synopGMAC_Dev.o
                0x0800c342                synopGMAC_disable_pmt_interrupt
 .text.synopGMAC_magic_packet_enable
                0x0800c34c        0xa Dave/Generated/src/ETH001/synopGMAC_Dev.o
                0x0800c34c                synopGMAC_magic_packet_enable
 .text.synopGMAC_wakeup_frame_enable
                0x0800c356        0xa Dave/Generated/src/ETH001/synopGMAC_Dev.o
                0x0800c356                synopGMAC_wakeup_frame_enable
 .text.synopGMAC_pmt_unicast_enable
                0x0800c360        0xc Dave/Generated/src/ETH001/synopGMAC_Dev.o
                0x0800c360                synopGMAC_pmt_unicast_enable
 .text.synopGMAC_is_magic_packet_received
                0x0800c36c       0x10 Dave/Generated/src/ETH001/synopGMAC_Dev.o
                0x0800c36c                synopGMAC_is_magic_packet_received
 .text.synopGMAC_is_wakeup_frame_received
                0x0800c37c       0x10 Dave/Generated/src/ETH001/synopGMAC_Dev.o
                0x0800c37c                synopGMAC_is_wakeup_frame_received
 .text.synopGMAC_write_wakeup_frame_register
                0x0800c38c       0x34 Dave/Generated/src/ETH001/synopGMAC_Dev.o
                0x0800c38c                synopGMAC_write_wakeup_frame_register
 .text.synopGMAC_mmc_counters_stop
                0x0800c3c0        0xc Dave/Generated/src/ETH001/synopGMAC_Dev.o
                0x0800c3c0                synopGMAC_mmc_counters_stop
 .text.synopGMAC_mmc_counters_resume
                0x0800c3cc        0xc Dave/Generated/src/ETH001/synopGMAC_Dev.o
                0x0800c3cc                synopGMAC_mmc_counters_resume
 .text.synopGMAC_mmc_counters_set_selfclear
                0x0800c3d8        0xc Dave/Generated/src/ETH001/synopGMAC_Dev.o
                0x0800c3d8                synopGMAC_mmc_counters_set_selfclear
 .text.synopGMAC_mmc_counters_reset_selfclear
                0x0800c3e4        0xc Dave/Generated/src/ETH001/synopGMAC_Dev.o
                0x0800c3e4                synopGMAC_mmc_counters_reset_selfclear
 .text.synopGMAC_mmc_counters_disable_rollover
                0x0800c3f0        0xc Dave/Generated/src/ETH001/synopGMAC_Dev.o
                0x0800c3f0                synopGMAC_mmc_counters_disable_rollover
 .text.synopGMAC_mmc_counters_enable_rollover
                0x0800c3fc        0xc Dave/Generated/src/ETH001/synopGMAC_Dev.o
                0x0800c3fc                synopGMAC_mmc_counters_enable_rollover
 .text.synopGMAC_read_mmc_counter
                0x0800c408        0x6 Dave/Generated/src/ETH001/synopGMAC_Dev.o
                0x0800c408                synopGMAC_read_mmc_counter
 .text.synopGMAC_read_mmc_rx_int_status
                0x0800c40e        0xa Dave/Generated/src/ETH001/synopGMAC_Dev.o
                0x0800c40e                synopGMAC_read_mmc_rx_int_status
 .text.synopGMAC_read_mmc_tx_int_status
                0x0800c418        0xa Dave/Generated/src/ETH001/synopGMAC_Dev.o
                0x0800c418                synopGMAC_read_mmc_tx_int_status
 .text.synopGMAC_disable_mmc_tx_interrupt
                0x0800c422        0xc Dave/Generated/src/ETH001/synopGMAC_Dev.o
                0x0800c422                synopGMAC_disable_mmc_tx_interrupt
 .text.synopGMAC_enable_mmc_tx_interrupt
                0x0800c42e        0xc Dave/Generated/src/ETH001/synopGMAC_Dev.o
                0x0800c42e                synopGMAC_enable_mmc_tx_interrupt
 .text.synopGMAC_disable_mmc_rx_interrupt
                0x0800c43a        0xc Dave/Generated/src/ETH001/synopGMAC_Dev.o
                0x0800c43a                synopGMAC_disable_mmc_rx_interrupt
 .text.synopGMAC_enable_mmc_rx_interrupt
                0x0800c446        0xc Dave/Generated/src/ETH001/synopGMAC_Dev.o
                0x0800c446                synopGMAC_enable_mmc_rx_interrupt
 .text.synopGMAC_disable_mmc_ipc_rx_interrupt
                0x0800c452        0xc Dave/Generated/src/ETH001/synopGMAC_Dev.o
                0x0800c452                synopGMAC_disable_mmc_ipc_rx_interrupt
 .text.synopGMAC_enable_mmc_ipc_rx_interrupt
                0x0800c45e        0xc Dave/Generated/src/ETH001/synopGMAC_Dev.o
                0x0800c45e                synopGMAC_enable_mmc_ipc_rx_interrupt
 .text.synopGMAC_enable_rx_chksum_offload
                0x0800c46a        0xc Dave/Generated/src/ETH001/synopGMAC_Dev.o
                0x0800c46a                synopGMAC_enable_rx_chksum_offload
 .text.synopGMAC_disable_rx_Ipchecksum_offload
                0x0800c476        0xc Dave/Generated/src/ETH001/synopGMAC_Dev.o
                0x0800c476                synopGMAC_disable_rx_Ipchecksum_offload
 .text.synopGMAC_rx_tcpip_chksum_drop_enable
                0x0800c482        0xc Dave/Generated/src/ETH001/synopGMAC_Dev.o
                0x0800c482                synopGMAC_rx_tcpip_chksum_drop_enable
 .text.synopGMAC_rx_tcpip_chksum_drop_disable
                0x0800c48e        0xc Dave/Generated/src/ETH001/synopGMAC_Dev.o
                0x0800c48e                synopGMAC_rx_tcpip_chksum_drop_disable
 .text.synopGMAC_is_ext_status
                0x0800c49a        0x6 Dave/Generated/src/ETH001/synopGMAC_Dev.o
                0x0800c49a                synopGMAC_is_ext_status
 .text.synopGMAC_ES_is_IP_header_error
                0x0800c4a0        0x6 Dave/Generated/src/ETH001/synopGMAC_Dev.o
                0x0800c4a0                synopGMAC_ES_is_IP_header_error
 .text.synopGMAC_ES_is_rx_checksum_bypassed
                0x0800c4a6        0x6 Dave/Generated/src/ETH001/synopGMAC_Dev.o
                0x0800c4a6                synopGMAC_ES_is_rx_checksum_bypassed
 .text.synopGMAC_ES_is_IP_payload_error
                0x0800c4ac        0x6 Dave/Generated/src/ETH001/synopGMAC_Dev.o
                0x0800c4ac                synopGMAC_ES_is_IP_payload_error
 .text.synopGMAC_is_rx_checksum_error
                0x0800c4b2       0x38 Dave/Generated/src/ETH001/synopGMAC_Dev.o
                0x0800c4b2                synopGMAC_is_rx_checksum_error
 .text.synopGMAC_is_tx_ipv4header_checksum_error
                0x0800c4ea        0x6 Dave/Generated/src/ETH001/synopGMAC_Dev.o
                0x0800c4ea                synopGMAC_is_tx_ipv4header_checksum_error
 .text.synopGMAC_is_tx_payload_checksum_error
                0x0800c4f0        0x6 Dave/Generated/src/ETH001/synopGMAC_Dev.o
                0x0800c4f0                synopGMAC_is_tx_payload_checksum_error
 .text.synopGMAC_tx_checksum_offload_bypass
                0x0800c4f6        0xa Dave/Generated/src/ETH001/synopGMAC_Dev.o
                0x0800c4f6                synopGMAC_tx_checksum_offload_bypass
 .text.synopGMAC_tx_checksum_offload_ipv4hdr
                0x0800c500        0xe Dave/Generated/src/ETH001/synopGMAC_Dev.o
                0x0800c500                synopGMAC_tx_checksum_offload_ipv4hdr
 .text.synopGMAC_tx_checksum_offload_tcponly
                0x0800c50e        0xe Dave/Generated/src/ETH001/synopGMAC_Dev.o
                0x0800c50e                synopGMAC_tx_checksum_offload_tcponly
 .text.synopGMAC_tx_checksum_offload_tcp_pseudo
                0x0800c51c        0xa Dave/Generated/src/ETH001/synopGMAC_Dev.o
                0x0800c51c                synopGMAC_tx_checksum_offload_tcp_pseudo
 .text          0x0800c526        0x0 Dave/Generated/src/ETH001/synopGMAC_network_interface.o
 .text.is_valid_ether_addr
                0x0800c526       0x28 Dave/Generated/src/ETH001/synopGMAC_network_interface.o
 .text.synopGMAC_IsEtherAddrsValid
                0x0800c54e       0x10 Dave/Generated/src/ETH001/synopGMAC_network_interface.o
                0x0800c54e                synopGMAC_IsEtherAddrsValid
 *fill*         0x0800c55e        0x2 00
 .text.synopGMAC_powerup_mac
                0x0800c560       0x3c Dave/Generated/src/ETH001/synopGMAC_network_interface.o
                0x0800c560                synopGMAC_powerup_mac
 .text.synopGMAC_cable_unplug_function
                0x0800c59c       0x38 Dave/Generated/src/ETH001/synopGMAC_network_interface.o
                0x0800c59c                synopGMAC_cable_unplug_function
 .text.synopGMAC_setup_rx_desc_queue
                0x0800c5d4       0x7c Dave/Generated/src/ETH001/synopGMAC_network_interface.o
                0x0800c5d4                synopGMAC_setup_rx_desc_queue
 .text.synopGMAC_giveup_rx_desc_queue
                0x0800c650       0x6c Dave/Generated/src/ETH001/synopGMAC_network_interface.o
                0x0800c650                synopGMAC_giveup_rx_desc_queue
 .text.synopGMAC_setup_tx_desc_queue
                0x0800c6bc       0x7c Dave/Generated/src/ETH001/synopGMAC_network_interface.o
                0x0800c6bc                synopGMAC_setup_tx_desc_queue
 .text.synopGMAC_giveup_tx_desc_queue
                0x0800c738       0x6c Dave/Generated/src/ETH001/synopGMAC_network_interface.o
                0x0800c738                synopGMAC_giveup_tx_desc_queue
 .text.synop_handle_transmit_over
                0x0800c7a4       0x8e Dave/Generated/src/ETH001/synopGMAC_network_interface.o
                0x0800c7a4                synop_handle_transmit_over
 .text.synopGMAC_set_mac_address
                0x0800c832       0x36 Dave/Generated/src/ETH001/synopGMAC_network_interface.o
                0x0800c832                synopGMAC_set_mac_address
 .text.synopGMAC_change_mtu
                0x0800c868        0x4 Dave/Generated/src/ETH001/synopGMAC_network_interface.o
                0x0800c868                synopGMAC_change_mtu
 .text          0x0800c86c        0x0 Dave/Generated/src/ETH001/synopGMAC_plat.o
 .text.synopGMACReadReg
                0x0800c86c        0x4 Dave/Generated/src/ETH001/synopGMAC_plat.o
                0x0800c86c                synopGMACReadReg
 .text.synopGMACWriteReg
                0x0800c870        0x4 Dave/Generated/src/ETH001/synopGMAC_plat.o
                0x0800c870                synopGMACWriteReg
 .text.synopGMACSetBits
                0x0800c874        0x8 Dave/Generated/src/ETH001/synopGMAC_plat.o
                0x0800c874                synopGMACSetBits
 .text.synopGMACClearBits
                0x0800c87c        0xa Dave/Generated/src/ETH001/synopGMAC_plat.o
                0x0800c87c                synopGMACClearBits
 .text.synopGMACCheckBits
                0x0800c886        0xc Dave/Generated/src/ETH001/synopGMAC_plat.o
                0x0800c886                synopGMACCheckBits
 .text          0x0800c892        0x0 Dave/Generated/src/ETH001/synopGMAC_stack_interface.o
 *fill*         0x0800c892        0x2 00
 .text.Eth_GetTxBuffer
                0x0800c894       0x14 Dave/Generated/src/ETH001/synopGMAC_stack_interface.o
                0x0800c894                Eth_GetTxBuffer
 .text.Eth_InitNetworkInterface
                0x0800c8a8       0x74 Dave/Generated/src/ETH001/synopGMAC_stack_interface.o
                0x0800c8a8                Eth_InitNetworkInterface
 .text.Eth_ExitNetworkInterface
                0x0800c91c        0x2 Dave/Generated/src/ETH001/synopGMAC_stack_interface.o
                0x0800c91c                Eth_ExitNetworkInterface
 *fill*         0x0800c91e        0x2 00
 .text.Eth_OpenNetworkInterface
                0x0800c920      0x190 Dave/Generated/src/ETH001/synopGMAC_stack_interface.o
                0x0800c920                Eth_OpenNetworkInterface
 .text.Eth_CloseNetworkInterface
                0x0800cab0       0x48 Dave/Generated/src/ETH001/synopGMAC_stack_interface.o
                0x0800cab0                Eth_CloseNetworkInterface
 .text.Eth_TransmitFrames
                0x0800caf8       0x38 Dave/Generated/src/ETH001/synopGMAC_stack_interface.o
                0x0800caf8                Eth_TransmitFrames
 .text.Eth_ReceiveData
                0x0800cb30      0x16c Dave/Generated/src/ETH001/synopGMAC_stack_interface.o
                0x0800cb30                Eth_ReceiveData
 .text.ETH0_0_IRQHandler
                0x0800cc9c      0x17c Dave/Generated/src/ETH001/synopGMAC_stack_interface.o
                0x0800cc9c                ETH0_0_IRQHandler
 .text.Eth_PerformIoctl
                0x0800ce18      0x36c Dave/Generated/src/ETH001/synopGMAC_stack_interface.o
                0x0800ce18                Eth_PerformIoctl
 .text.synopGMAC_RegisterPeriodicTimerCallback
                0x0800d184        0xc Dave/Generated/src/ETH001/synopGMAC_stack_interface.o
                0x0800d184                synopGMAC_RegisterPeriodicTimerCallback
 .text.synopGMAC_RegisterDeleteTimerCallback
                0x0800d190        0xc Dave/Generated/src/ETH001/synopGMAC_stack_interface.o
                0x0800d190                synopGMAC_RegisterDeleteTimerCallback
 .text.synopGMAC_periodic_check
                0x0800d19c        0xc Dave/Generated/src/ETH001/synopGMAC_stack_interface.o
                0x0800d19c                synopGMAC_periodic_check
 .text          0x0800d1a8        0x0 Dave/Generated/src/DAVESupport/DAVE3.o
 .text.DAVE_Init
                0x0800d1a8       0x60 Dave/Generated/src/DAVESupport/DAVE3.o
                0x0800d1a8                DAVE_Init
 .text.SystemInit_DAVE3
                0x0800d208        0x4 Dave/Generated/src/DAVESupport/DAVE3.o
                0x0800d208                SystemInit_DAVE3
 .text          0x0800d20c        0x0 Dave/Generated/src/DAVESupport/MULTIPLEXER.o
 .text.DAVE_MUX_Init
                0x0800d20c      0x150 Dave/Generated/src/DAVESupport/MULTIPLEXER.o
                0x0800d20c                DAVE_MUX_Init
 .text.DAVE_MUX_PreInit
                0x0800d35c       0x18 Dave/Generated/src/DAVESupport/MULTIPLEXER.o
                0x0800d35c                DAVE_MUX_PreInit
 .text          0x0800d374        0x0 Dave/Generated/src/CLK001/CLK001.o
 .text.Delay    0x0800d374       0x14 Dave/Generated/src/CLK001/CLK001.o
 .text.CLK001_Init
                0x0800d388      0x280 Dave/Generated/src/CLK001/CLK001.o
                0x0800d388                CLK001_Init
 .text.AllowPLLInitByStartup
                0x0800d608        0x4 Dave/Generated/src/CLK001/CLK001.o
                0x0800d608                AllowPLLInitByStartup
 .text          0x0800d60c        0x0 Dave/Generated/src/ADCGROUP001/ADCGroup001.o
 .text.ADCGROUP001_lInit
                0x0800d60c      0x124 Dave/Generated/src/ADCGROUP001/ADCGroup001.o
                0x0800d60c                ADCGROUP001_lInit
 .text.ADCGROUP001_Init
                0x0800d730       0x14 Dave/Generated/src/ADCGROUP001/ADCGroup001.o
                0x0800d730                ADCGROUP001_Init
 .text.ADCGROUP001_Deinit
                0x0800d744       0x3a Dave/Generated/src/ADCGROUP001/ADCGroup001.o
                0x0800d744                ADCGROUP001_Deinit
 .text.ADCGROUP001_SetGroupBound0
                0x0800d77e       0x32 Dave/Generated/src/ADCGROUP001/ADCGroup001.o
                0x0800d77e                ADCGROUP001_SetGroupBound0
 .text.ADCGROUP001_SetGroupBound1
                0x0800d7b0       0x38 Dave/Generated/src/ADCGROUP001/ADCGroup001.o
                0x0800d7b0                ADCGROUP001_SetGroupBound1
 .text.ADCGROUP001_ActiveGroupServiceRequestNode
                0x0800d7e8       0x34 Dave/Generated/src/ADCGROUP001/ADCGroup001.o
                0x0800d7e8                ADCGROUP001_ActiveGroupServiceRequestNode
 .text.ADCGROUP001_DeActiveGroupServiceRequestNode
                0x0800d81c       0x2a Dave/Generated/src/ADCGROUP001/ADCGroup001.o
                0x0800d81c                ADCGROUP001_DeActiveGroupServiceRequestNode
 .text.ADCGROUP001_ActiveSharedServiceRequestNode
                0x0800d846       0x36 Dave/Generated/src/ADCGROUP001/ADCGroup001.o
                0x0800d846                ADCGROUP001_ActiveSharedServiceRequestNode
 .text.ADCGROUP001_DeActiveSharedServiceRequestNode
                0x0800d87c       0x2c Dave/Generated/src/ADCGROUP001/ADCGroup001.o
                0x0800d87c                ADCGROUP001_DeActiveSharedServiceRequestNode
 .text.ADCGROUP001_EMUXStartSelection
                0x0800d8a8       0x2c Dave/Generated/src/ADCGROUP001/ADCGroup001.o
                0x0800d8a8                ADCGROUP001_EMUXStartSelection
 .text.ADCGROUP001_GetEMUXStartSelection
                0x0800d8d4       0x22 Dave/Generated/src/ADCGROUP001/ADCGroup001.o
                0x0800d8d4                ADCGROUP001_GetEMUXStartSelection
 .text.ADCGROUP001_SetEMUXChannelSelect
                0x0800d8f6       0x2e Dave/Generated/src/ADCGROUP001/ADCGroup001.o
                0x0800d8f6                ADCGROUP001_SetEMUXChannelSelect
 .text.ADCGROUP001_SetEMUXMode
                0x0800d924       0x32 Dave/Generated/src/ADCGROUP001/ADCGroup001.o
                0x0800d924                ADCGROUP001_SetEMUXMode
 .text.ADCGROUP001_SetEMUXCodeScheme
                0x0800d956       0x32 Dave/Generated/src/ADCGROUP001/ADCGroup001.o
                0x0800d956                ADCGROUP001_SetEMUXCodeScheme
 .text.ADCGROUP001_SetGroupClass0SampleTime
                0x0800d988       0x28 Dave/Generated/src/ADCGROUP001/ADCGroup001.o
                0x0800d988                ADCGROUP001_SetGroupClass0SampleTime
 .text.ADCGROUP001_SetGroupClass1SampleTime
                0x0800d9b0       0x28 Dave/Generated/src/ADCGROUP001/ADCGroup001.o
                0x0800d9b0                ADCGROUP001_SetGroupClass1SampleTime
 .text.ADCGROUP001_SetGroupClass0EmuxSampleTime
                0x0800d9d8       0x2e Dave/Generated/src/ADCGROUP001/ADCGroup001.o
                0x0800d9d8                ADCGROUP001_SetGroupClass0EmuxSampleTime
 .text.ADCGROUP001_SetGroupClass1EmuxSampleTime
                0x0800da06       0x2e Dave/Generated/src/ADCGROUP001/ADCGroup001.o
                0x0800da06                ADCGROUP001_SetGroupClass1EmuxSampleTime
 .text.ADCGROUP001_SetGroupClass0ConvMode
                0x0800da34       0x32 Dave/Generated/src/ADCGROUP001/ADCGroup001.o
                0x0800da34                ADCGROUP001_SetGroupClass0ConvMode
 .text.ADCGROUP001_SetGroupClass1ConvMode
                0x0800da66       0x32 Dave/Generated/src/ADCGROUP001/ADCGroup001.o
                0x0800da66                ADCGROUP001_SetGroupClass1ConvMode
 .text.ADCGROUP001_SetGroupClass0EmuxConvMode
                0x0800da98       0x32 Dave/Generated/src/ADCGROUP001/ADCGroup001.o
                0x0800da98                ADCGROUP001_SetGroupClass0EmuxConvMode
 .text.ADCGROUP001_SetGroupClass1EmuxConvMode
                0x0800daca       0x32 Dave/Generated/src/ADCGROUP001/ADCGroup001.o
                0x0800daca                ADCGROUP001_SetGroupClass1EmuxConvMode
 .text.ADCGROUP001_SetEMUXSampleTimeControl
                0x0800dafc       0x32 Dave/Generated/src/ADCGROUP001/ADCGroup001.o
                0x0800dafc                ADCGROUP001_SetEMUXSampleTimeControl
 .text          0x0800db2e        0x0 Dave/Generated/src/ADCGROUP001/ADCGroup001_Conf.o
 .text          0x0800db2e        0x0 Dave/Generated/src/ADCGLOB001/ADCGlob001.o
 *fill*         0x0800db2e        0x2 00
 .text.ADCGLOB001_Init
                0x0800db30       0xc0 Dave/Generated/src/ADCGLOB001/ADCGlob001.o
                0x0800db30                ADCGLOB001_Init
 .text.ADCGLOB001_DeInit
                0x0800dbf0       0x48 Dave/Generated/src/ADCGLOB001/ADCGlob001.o
                0x0800dbf0                ADCGLOB001_DeInit
 .text.ADCGLOB001_CLKRequestDisable
                0x0800dc38       0x1a Dave/Generated/src/ADCGLOB001/ADCGlob001.o
                0x0800dc38                ADCGLOB001_CLKRequestDisable
 .text.ADCGLOB001_CLKRequestEnable
                0x0800dc52       0x1a Dave/Generated/src/ADCGLOB001/ADCGlob001.o
                0x0800dc52                ADCGLOB001_CLKRequestEnable
 .text.ADCGLOB001_SetStartUpCalibration
                0x0800dc6c       0x26 Dave/Generated/src/ADCGLOB001/ADCGlob001.o
                0x0800dc6c                ADCGLOB001_SetStartUpCalibration
 *fill*         0x0800dc92        0x2 00
 .text.ADCGLOB001_StartUpCalibrationInit
                0x0800dc94       0x34 Dave/Generated/src/ADCGLOB001/ADCGlob001.o
                0x0800dc94                ADCGLOB001_StartUpCalibrationInit
 .text.ADCGLOB001_EnableSleepModeControl
                0x0800dcc8       0x1a Dave/Generated/src/ADCGLOB001/ADCGlob001.o
                0x0800dcc8                ADCGLOB001_EnableSleepModeControl
 .text.ADCGLOB001_DisregardSleepModeControl
                0x0800dce2       0x1a Dave/Generated/src/ADCGLOB001/ADCGlob001.o
                0x0800dce2                ADCGLOB001_DisregardSleepModeControl
 .text.ADCGLOB001_SetGlobClass0ConvMode
                0x0800dcfc       0x32 Dave/Generated/src/ADCGLOB001/ADCGlob001.o
                0x0800dcfc                ADCGLOB001_SetGlobClass0ConvMode
 .text.ADCGLOB001_SetGlobClass0SampleTime
                0x0800dd2e       0x28 Dave/Generated/src/ADCGLOB001/ADCGlob001.o
                0x0800dd2e                ADCGLOB001_SetGlobClass0SampleTime
 .text.ADCGLOB001_SetGlobClass0EmuxConvMode
                0x0800dd56       0x32 Dave/Generated/src/ADCGLOB001/ADCGlob001.o
                0x0800dd56                ADCGLOB001_SetGlobClass0EmuxConvMode
 .text.ADCGLOB001_SetGlobClass0EmuxSampleTime
                0x0800dd88       0x2e Dave/Generated/src/ADCGLOB001/ADCGlob001.o
                0x0800dd88                ADCGLOB001_SetGlobClass0EmuxSampleTime
 .text.ADCGLOB001_SetGlobClass1ConvMode
                0x0800ddb6       0x32 Dave/Generated/src/ADCGLOB001/ADCGlob001.o
                0x0800ddb6                ADCGLOB001_SetGlobClass1ConvMode
 .text.ADCGLOB001_SetGlobClass1SampleTime
                0x0800dde8       0x28 Dave/Generated/src/ADCGLOB001/ADCGlob001.o
                0x0800dde8                ADCGLOB001_SetGlobClass1SampleTime
 .text.ADCGLOB001_SetGlobClass1EmuxConvMode
                0x0800de10       0x32 Dave/Generated/src/ADCGLOB001/ADCGlob001.o
                0x0800de10                ADCGLOB001_SetGlobClass1EmuxConvMode
 .text.ADCGLOB001_SetGlobClass1EmuxSampleTime
                0x0800de42       0x2e Dave/Generated/src/ADCGLOB001/ADCGlob001.o
                0x0800de42                ADCGLOB001_SetGlobClass1EmuxSampleTime
 .text.ADCGLOB001_GetDisableBitStatus
                0x0800de70       0x1a Dave/Generated/src/ADCGLOB001/ADCGlob001.o
                0x0800de70                ADCGLOB001_GetDisableBitStatus
 .text.ADCGLOB001_GetIdValue
                0x0800de8a       0x16 Dave/Generated/src/ADCGLOB001/ADCGlob001.o
                0x0800de8a                ADCGLOB001_GetIdValue
 .text.ADCGLOB001_GTFRConvtrDiagnoGrp
                0x0800dea0       0x4c Dave/Generated/src/ADCGLOB001/ADCGlob001.o
                0x0800dea0                ADCGLOB001_GTFRConvtrDiagnoGrp
 .text.ADCGLOB001_GTFRConvtrDiagnoEnable
                0x0800deec       0x2a Dave/Generated/src/ADCGLOB001/ADCGlob001.o
                0x0800deec                ADCGLOB001_GTFRConvtrDiagnoEnable
 .text.ADCGLOB001_GTFRConvtrDiagnoPullDevicesSelect
                0x0800df16       0x4a Dave/Generated/src/ADCGLOB001/ADCGlob001.o
                0x0800df16                ADCGLOB001_GTFRConvtrDiagnoPullDevicesSelect
 .text.ADCGLOB001_GTFRPullDwnDiagnoEnable
                0x0800df60       0x2a Dave/Generated/src/ADCGLOB001/ADCGlob001.o
                0x0800df60                ADCGLOB001_GTFRPullDwnDiagnoEnable
 .text          0x0800df8a        0x0 Dave/Generated/src/ADCGLOB001/ADCGlob001_Conf.o
 .text          0x0800df8a        0x0 Dave/Generated/src/ADCCH001/ADCCH001.o
 *fill*         0x0800df8a        0x2 00
 .text.ADCCH001_Init
                0x0800df8c      0x170 Dave/Generated/src/ADCCH001/ADCCH001.o
                0x0800df8c                ADCCH001_Init
 .text.ADCCH001_Deinit
                0x0800e0fc       0x64 Dave/Generated/src/ADCCH001/ADCCH001.o
                0x0800e0fc                ADCCH001_Deinit
 .text.ADCCH001_SetAlias
                0x0800e160       0x46 Dave/Generated/src/ADCCH001/ADCCH001.o
                0x0800e160                ADCCH001_SetAlias
 .text.ADCCH001_EnableBoundaryFlag
                0x0800e1a6       0x2c Dave/Generated/src/ADCCH001/ADCCH001.o
                0x0800e1a6                ADCCH001_EnableBoundaryFlag
 .text.ADCCH001_DisableBoundaryFlag
                0x0800e1d2       0x2e Dave/Generated/src/ADCCH001/ADCCH001.o
                0x0800e1d2                ADCCH001_DisableBoundaryFlag
 .text.ADCCH001_SelectInputClass
                0x0800e200       0x30 Dave/Generated/src/ADCCH001/ADCCH001.o
                0x0800e200                ADCCH001_SelectInputClass
 .text.ADCCH001_SelectChEvtMode
                0x0800e230       0x30 Dave/Generated/src/ADCCH001/ADCCH001.o
                0x0800e230                ADCCH001_SelectChEvtMode
 .text.ADCCH001_SelectUpperBoundary
                0x0800e260       0x34 Dave/Generated/src/ADCCH001/ADCCH001.o
                0x0800e260                ADCCH001_SelectUpperBoundary
 .text.ADCCH001_SelectLowerBoundary
                0x0800e294       0x36 Dave/Generated/src/ADCCH001/ADCCH001.o
                0x0800e294                ADCCH001_SelectLowerBoundary
 .text.ADCCH001_GetResult
                0x0800e2ca       0x30 Dave/Generated/src/ADCCH001/ADCCH001.o
                0x0800e2ca                ADCCH001_GetResult
 .text.ADCCH001_GetFastCompareResult
                0x0800e2fa       0x38 Dave/Generated/src/ADCCH001/ADCCH001.o
                0x0800e2fa                ADCCH001_GetFastCompareResult
 .text.ADCCH001_SetCompareValue
                0x0800e332       0x36 Dave/Generated/src/ADCCH001/ADCCH001.o
                0x0800e332                ADCCH001_SetCompareValue
 .text.ADCCH001_EnablePriorityChannel
                0x0800e368       0x22 Dave/Generated/src/ADCCH001/ADCCH001.o
                0x0800e368                ADCCH001_EnablePriorityChannel
 .text.ADCCH001_DisablePriorityChannel
                0x0800e38a       0x24 Dave/Generated/src/ADCCH001/ADCCH001.o
                0x0800e38a                ADCCH001_DisablePriorityChannel
 .text.ADCCH001_EnableResultEvt
                0x0800e3ae       0x24 Dave/Generated/src/ADCCH001/ADCCH001.o
                0x0800e3ae                ADCCH001_EnableResultEvt
 .text.ADCCH001_DisableResultEvt
                0x0800e3d2       0x24 Dave/Generated/src/ADCCH001/ADCCH001.o
                0x0800e3d2                ADCCH001_DisableResultEvt
 .text.ADCCH001_GetResultEvtFlag
                0x0800e3f6       0x2a Dave/Generated/src/ADCCH001/ADCCH001.o
                0x0800e3f6                ADCCH001_GetResultEvtFlag
 .text.ADCCH001_GetChannelEvtFlag
                0x0800e420       0x26 Dave/Generated/src/ADCCH001/ADCCH001.o
                0x0800e420                ADCCH001_GetChannelEvtFlag
 .text.ADCCH001_SetResultEvtFlag
                0x0800e446       0x28 Dave/Generated/src/ADCCH001/ADCCH001.o
                0x0800e446                ADCCH001_SetResultEvtFlag
 .text.ADCCH001_SetChannelEvtFlag
                0x0800e46e       0x22 Dave/Generated/src/ADCCH001/ADCCH001.o
                0x0800e46e                ADCCH001_SetChannelEvtFlag
 .text.ADCCH001_ClearResultEvtFlag
                0x0800e490       0x28 Dave/Generated/src/ADCCH001/ADCCH001.o
                0x0800e490                ADCCH001_ClearResultEvtFlag
 .text.ADCCH001_ClearChannelEvtFlag
                0x0800e4b8       0x22 Dave/Generated/src/ADCCH001/ADCCH001.o
                0x0800e4b8                ADCCH001_ClearChannelEvtFlag
 .text.ADCCH001_SetBWDChannel
                0x0800e4da       0x2e Dave/Generated/src/ADCCH001/ADCCH001.o
                0x0800e4da                ADCCH001_SetBWDChannel
 .text.ADCCH001_EnableBWD
                0x0800e508       0x24 Dave/Generated/src/ADCCH001/ADCCH001.o
                0x0800e508                ADCCH001_EnableBWD
 .text.ADCCH001_DisableBWD
                0x0800e52c       0x24 Dave/Generated/src/ADCCH001/ADCCH001.o
                0x0800e52c                ADCCH001_DisableBWD
 .text.ADCCH001_EnableWaitForRead
                0x0800e550       0x24 Dave/Generated/src/ADCCH001/ADCCH001.o
                0x0800e550                ADCCH001_EnableWaitForRead
 .text.ADCCH001_DisableWaitForRead
                0x0800e574       0x24 Dave/Generated/src/ADCCH001/ADCCH001.o
                0x0800e574                ADCCH001_DisableWaitForRead
 .text          0x0800e598        0x0 Dave/Generated/src/ADCCH001/ADCCH001_Conf.o
 .text          0x0800e598        0x0 Dave/Generated/src/ADC002/ADC002.o
 .text.ADC002_Init
                0x0800e598       0x9c Dave/Generated/src/ADC002/ADC002.o
                0x0800e598                ADC002_Init
 .text.ADC002_InitializeQueue
                0x0800e634       0x66 Dave/Generated/src/ADC002/ADC002.o
                0x0800e634                ADC002_InitializeQueue
 *fill*         0x0800e69a        0x2 00
 .text.ADC002_Deinit
                0x0800e69c       0x4c Dave/Generated/src/ADC002/ADC002.o
                0x0800e69c                ADC002_Deinit
 .text.ADC002_ClearEvent
                0x0800e6e8       0x1e Dave/Generated/src/ADC002/ADC002.o
                0x0800e6e8                ADC002_ClearEvent
 .text.ADC002_FlushQueue
                0x0800e706       0x1e Dave/Generated/src/ADC002/ADC002.o
                0x0800e706                ADC002_FlushQueue
 .text.ADC002_TriggerEvent
                0x0800e724       0x1e Dave/Generated/src/ADC002/ADC002.o
                0x0800e724                ADC002_TriggerEvent
 .text.ADC002_ClearValidBit
                0x0800e742       0x1e Dave/Generated/src/ADC002/ADC002.o
                0x0800e742                ADC002_ClearValidBit
 .text.ADC002_EnableGate
                0x0800e760       0x28 Dave/Generated/src/ADC002/ADC002.o
                0x0800e760                ADC002_EnableGate
 .text.ADC002_EnableQueueArbitrationSlot
                0x0800e788       0x1e Dave/Generated/src/ADC002/ADC002.o
                0x0800e788                ADC002_EnableQueueArbitrationSlot
 .text.ADC002_DisableQueueArbitrationSlot
                0x0800e7a6       0x1e Dave/Generated/src/ADC002/ADC002.o
                0x0800e7a6                ADC002_DisableQueueArbitrationSlot
 .text.ADC002_SetExternalTriggerMode
                0x0800e7c4       0x46 Dave/Generated/src/ADC002/ADC002.o
                0x0800e7c4                ADC002_SetExternalTriggerMode
 .text.ADC002_EnableExternalTrigger
                0x0800e80a       0x1e Dave/Generated/src/ADC002/ADC002.o
                0x0800e80a                ADC002_EnableExternalTrigger
 .text.ADC002_DisableExternalTrigger
                0x0800e828       0x1e Dave/Generated/src/ADC002/ADC002.o
                0x0800e828                ADC002_DisableExternalTrigger
 .text.ADC002_IsEmpty
                0x0800e846       0x22 Dave/Generated/src/ADC002/ADC002.o
                0x0800e846                ADC002_IsEmpty
 .text.ADC002_GetFillingLevel
                0x0800e868       0x44 Dave/Generated/src/ADC002/ADC002.o
                0x0800e868                ADC002_GetFillingLevel
 .text.ADC002_GetGateLevel
                0x0800e8ac       0x22 Dave/Generated/src/ADC002/ADC002.o
                0x0800e8ac                ADC002_GetGateLevel
 .text.ADC002_IsEventDetected
                0x0800e8ce       0x22 Dave/Generated/src/ADC002/ADC002.o
                0x0800e8ce                ADC002_IsEventDetected
 .text.ADC002_AddQueueEntry
                0x0800e8f0       0x48 Dave/Generated/src/ADC002/ADC002.o
                0x0800e8f0                ADC002_AddQueueEntry
 .text.ADC002_SetConversionMode
                0x0800e938       0x18 Dave/Generated/src/ADC002/ADC002.o
                0x0800e938                ADC002_SetConversionMode
 .text.ADC002_SetSampleTime
                0x0800e950       0x18 Dave/Generated/src/ADC002/ADC002.o
                0x0800e950                ADC002_SetSampleTime
 .text.ADC002_SetEMUXConversionMode
                0x0800e968       0x18 Dave/Generated/src/ADC002/ADC002.o
                0x0800e968                ADC002_SetEMUXConversionMode
 .text.ADC002_EMUXSetSampleTime
                0x0800e980       0x18 Dave/Generated/src/ADC002/ADC002.o
                0x0800e980                ADC002_EMUXSetSampleTime
 .text.ADC002_GetQueueStage0Entry
                0x0800e998       0x1e Dave/Generated/src/ADC002/ADC002.o
                0x0800e998                ADC002_GetQueueStage0Entry
 .text.ADC002_GetQueueBackupStageEntry
                0x0800e9b6       0x1e Dave/Generated/src/ADC002/ADC002.o
                0x0800e9b6                ADC002_GetQueueBackupStageEntry
 .text.ADC002_GetSourceEventFlag
                0x0800e9d4       0x22 Dave/Generated/src/ADC002/ADC002.o
                0x0800e9d4                ADC002_GetSourceEventFlag
 .text.ADC002_SetSourceEventFlag
                0x0800e9f6       0x1e Dave/Generated/src/ADC002/ADC002.o
                0x0800e9f6                ADC002_SetSourceEventFlag
 .text.ADC002_ClearSourceEventFlag
                0x0800ea14       0x1e Dave/Generated/src/ADC002/ADC002.o
                0x0800ea14                ADC002_ClearSourceEventFlag
 .text          0x0800ea32        0x0 Dave/Generated/src/ADC002/ADC002_Conf.o
 *fill*         0x0800ea32        0x2 00
 .text          0x0800ea34      0x370 c:/dave-3.1.10/arm-gcc/bin/../lib/gcc/arm-none-eabi/4.7.4/armv7e-m\libgcc.a(_arm_addsubdf3.o)
                0x0800ea34                __aeabi_drsub
                0x0800ea3c                __aeabi_dsub
                0x0800ea3c                __subdf3
                0x0800ea40                __aeabi_dadd
                0x0800ea40                __adddf3
                0x0800ecb8                __floatunsidf
                0x0800ecb8                __aeabi_ui2d
                0x0800ecd8                __floatsidf
                0x0800ecd8                __aeabi_i2d
                0x0800ecfc                __aeabi_f2d
                0x0800ecfc                __extendsfdf2
                0x0800ed38                __floatundidf
                0x0800ed38                __aeabi_ul2d
                0x0800ed48                __floatdidf
                0x0800ed48                __aeabi_l2d
 .text          0x0800eda4      0x424 c:/dave-3.1.10/arm-gcc/bin/../lib/gcc/arm-none-eabi/4.7.4/armv7e-m\libgcc.a(_arm_muldivdf3.o)
                0x0800eda4                __aeabi_dmul
                0x0800eda4                __muldf3
                0x0800eff8                __divdf3
                0x0800eff8                __aeabi_ddiv
 .text          0x0800f1c8       0x40 c:/dave-3.1.10/arm-gcc/bin/../lib/gcc/arm-none-eabi/4.7.4/armv7e-m\libgcc.a(_arm_fixunsdfsi.o)
                0x0800f1c8                __aeabi_d2uiz
                0x0800f1c8                __fixunsdfsi
 .text          0x0800f208        0x0 c:/dave-3.1.10/arm-gcc/bin/../lib/gcc/arm-none-eabi/4.7.4/../../../../arm-none-eabi/lib/armv7e-m\libc.a(lib_a-calloc.o)
 .text.calloc   0x0800f208       0x18 c:/dave-3.1.10/arm-gcc/bin/../lib/gcc/arm-none-eabi/4.7.4/../../../../arm-none-eabi/lib/armv7e-m\libc.a(lib_a-calloc.o)
                0x0800f208                calloc
 .text          0x0800f220        0x0 c:/dave-3.1.10/arm-gcc/bin/../lib/gcc/arm-none-eabi/4.7.4/../../../../arm-none-eabi/lib/armv7e-m\libc.a(lib_a-errno.o)
 .text.__errno  0x0800f220        0xc c:/dave-3.1.10/arm-gcc/bin/../lib/gcc/arm-none-eabi/4.7.4/../../../../arm-none-eabi/lib/armv7e-m\libc.a(lib_a-errno.o)
                0x0800f220                __errno
 .text          0x0800f22c        0x0 c:/dave-3.1.10/arm-gcc/bin/../lib/gcc/arm-none-eabi/4.7.4/../../../../arm-none-eabi/lib/armv7e-m\libc.a(lib_a-fclose.o)
 .text._fclose_r
                0x0800f22c       0x94 c:/dave-3.1.10/arm-gcc/bin/../lib/gcc/arm-none-eabi/4.7.4/../../../../arm-none-eabi/lib/armv7e-m\libc.a(lib_a-fclose.o)
                0x0800f22c                _fclose_r
 .text.fclose   0x0800f2c0       0x10 c:/dave-3.1.10/arm-gcc/bin/../lib/gcc/arm-none-eabi/4.7.4/../../../../arm-none-eabi/lib/armv7e-m\libc.a(lib_a-fclose.o)
                0x0800f2c0                fclose
 .text          0x0800f2d0        0x0 c:/dave-3.1.10/arm-gcc/bin/../lib/gcc/arm-none-eabi/4.7.4/../../../../arm-none-eabi/lib/armv7e-m\libc.a(lib_a-fflush.o)
 .text._fflush_r
                0x0800f2d0      0x168 c:/dave-3.1.10/arm-gcc/bin/../lib/gcc/arm-none-eabi/4.7.4/../../../../arm-none-eabi/lib/armv7e-m\libc.a(lib_a-fflush.o)
                0x0800f2d0                _fflush_r
 .text.fflush   0x0800f438       0x24 c:/dave-3.1.10/arm-gcc/bin/../lib/gcc/arm-none-eabi/4.7.4/../../../../arm-none-eabi/lib/armv7e-m\libc.a(lib_a-fflush.o)
                0x0800f438                fflush
 .text          0x0800f45c        0x0 c:/dave-3.1.10/arm-gcc/bin/../lib/gcc/arm-none-eabi/4.7.4/../../../../arm-none-eabi/lib/armv7e-m\libc.a(lib_a-findfp.o)
 .text.__fp_lock
                0x0800f45c        0x4 c:/dave-3.1.10/arm-gcc/bin/../lib/gcc/arm-none-eabi/4.7.4/../../../../arm-none-eabi/lib/armv7e-m\libc.a(lib_a-findfp.o)
 .text.__fp_unlock
                0x0800f460        0x4 c:/dave-3.1.10/arm-gcc/bin/../lib/gcc/arm-none-eabi/4.7.4/../../../../arm-none-eabi/lib/armv7e-m\libc.a(lib_a-findfp.o)
 .text._cleanup_r
                0x0800f464        0xc c:/dave-3.1.10/arm-gcc/bin/../lib/gcc/arm-none-eabi/4.7.4/../../../../arm-none-eabi/lib/armv7e-m\libc.a(lib_a-findfp.o)
                0x0800f464                _cleanup_r
 .text.std.isra.0
                0x0800f470       0x50 c:/dave-3.1.10/arm-gcc/bin/../lib/gcc/arm-none-eabi/4.7.4/../../../../arm-none-eabi/lib/armv7e-m\libc.a(lib_a-findfp.o)
 .text.__sfmoreglue
                0x0800f4c0       0x2c c:/dave-3.1.10/arm-gcc/bin/../lib/gcc/arm-none-eabi/4.7.4/../../../../arm-none-eabi/lib/armv7e-m\libc.a(lib_a-findfp.o)
                0x0800f4c0                __sfmoreglue
 .text._cleanup
                0x0800f4ec       0x10 c:/dave-3.1.10/arm-gcc/bin/../lib/gcc/arm-none-eabi/4.7.4/../../../../arm-none-eabi/lib/armv7e-m\libc.a(lib_a-findfp.o)
                0x0800f4ec                _cleanup
 .text.__sinit  0x0800f4fc       0x4c c:/dave-3.1.10/arm-gcc/bin/../lib/gcc/arm-none-eabi/4.7.4/../../../../arm-none-eabi/lib/armv7e-m\libc.a(lib_a-findfp.o)
                0x0800f4fc                __sinit
 .text.__sfp    0x0800f548       0xa4 c:/dave-3.1.10/arm-gcc/bin/../lib/gcc/arm-none-eabi/4.7.4/../../../../arm-none-eabi/lib/armv7e-m\libc.a(lib_a-findfp.o)
                0x0800f548                __sfp
 .text.__sfp_lock_acquire
                0x0800f5ec        0x4 c:/dave-3.1.10/arm-gcc/bin/../lib/gcc/arm-none-eabi/4.7.4/../../../../arm-none-eabi/lib/armv7e-m\libc.a(lib_a-findfp.o)
                0x0800f5ec                __sfp_lock_acquire
 .text.__sfp_lock_release
                0x0800f5f0        0x4 c:/dave-3.1.10/arm-gcc/bin/../lib/gcc/arm-none-eabi/4.7.4/../../../../arm-none-eabi/lib/armv7e-m\libc.a(lib_a-findfp.o)
                0x0800f5f0                __sfp_lock_release
 .text.__sinit_lock_acquire
                0x0800f5f4        0x4 c:/dave-3.1.10/arm-gcc/bin/../lib/gcc/arm-none-eabi/4.7.4/../../../../arm-none-eabi/lib/armv7e-m\libc.a(lib_a-findfp.o)
                0x0800f5f4                __sinit_lock_acquire
 .text.__sinit_lock_release
                0x0800f5f8        0x4 c:/dave-3.1.10/arm-gcc/bin/../lib/gcc/arm-none-eabi/4.7.4/../../../../arm-none-eabi/lib/armv7e-m\libc.a(lib_a-findfp.o)
                0x0800f5f8                __sinit_lock_release
 .text.__fp_lock_all
                0x0800f5fc       0x18 c:/dave-3.1.10/arm-gcc/bin/../lib/gcc/arm-none-eabi/4.7.4/../../../../arm-none-eabi/lib/armv7e-m\libc.a(lib_a-findfp.o)
                0x0800f5fc                __fp_lock_all
 .text.__fp_unlock_all
                0x0800f614       0x18 c:/dave-3.1.10/arm-gcc/bin/../lib/gcc/arm-none-eabi/4.7.4/../../../../arm-none-eabi/lib/armv7e-m\libc.a(lib_a-findfp.o)
                0x0800f614                __fp_unlock_all
 .text          0x0800f62c        0x0 c:/dave-3.1.10/arm-gcc/bin/../lib/gcc/arm-none-eabi/4.7.4/../../../../arm-none-eabi/lib/armv7e-m\libc.a(lib_a-fopen.o)
 .text._fopen_r
                0x0800f62c       0x88 c:/dave-3.1.10/arm-gcc/bin/../lib/gcc/arm-none-eabi/4.7.4/../../../../arm-none-eabi/lib/armv7e-m\libc.a(lib_a-fopen.o)
                0x0800f62c                _fopen_r
 .text.fopen    0x0800f6b4       0x18 c:/dave-3.1.10/arm-gcc/bin/../lib/gcc/arm-none-eabi/4.7.4/../../../../arm-none-eabi/lib/armv7e-m\libc.a(lib_a-fopen.o)
                0x0800f6b4                fopen
 .text          0x0800f6cc        0x0 c:/dave-3.1.10/arm-gcc/bin/../lib/gcc/arm-none-eabi/4.7.4/../../../../arm-none-eabi/lib/armv7e-m\libc.a(lib_a-fread.o)
 .text._fread_r
                0x0800f6cc      0x1a4 c:/dave-3.1.10/arm-gcc/bin/../lib/gcc/arm-none-eabi/4.7.4/../../../../arm-none-eabi/lib/armv7e-m\libc.a(lib_a-fread.o)
                0x0800f6cc                _fread_r
 .text.fread    0x0800f870       0x24 c:/dave-3.1.10/arm-gcc/bin/../lib/gcc/arm-none-eabi/4.7.4/../../../../arm-none-eabi/lib/armv7e-m\libc.a(lib_a-fread.o)
                0x0800f870                fread
 .text          0x0800f894        0x0 c:/dave-3.1.10/arm-gcc/bin/../lib/gcc/arm-none-eabi/4.7.4/../../../../arm-none-eabi/lib/armv7e-m\libc.a(lib_a-fseek.o)
 .text._fseek_r
                0x0800f894      0x2f8 c:/dave-3.1.10/arm-gcc/bin/../lib/gcc/arm-none-eabi/4.7.4/../../../../arm-none-eabi/lib/armv7e-m\libc.a(lib_a-fseek.o)
                0x0800f894                _fseek_r
 .text.fseek    0x0800fb8c       0x1c c:/dave-3.1.10/arm-gcc/bin/../lib/gcc/arm-none-eabi/4.7.4/../../../../arm-none-eabi/lib/armv7e-m\libc.a(lib_a-fseek.o)
                0x0800fb8c                fseek
 .text          0x0800fba8        0x0 c:/dave-3.1.10/arm-gcc/bin/../lib/gcc/arm-none-eabi/4.7.4/../../../../arm-none-eabi/lib/armv7e-m\libc.a(lib_a-fstatr.o)
 .text._fstat_r
                0x0800fba8       0x28 c:/dave-3.1.10/arm-gcc/bin/../lib/gcc/arm-none-eabi/4.7.4/../../../../arm-none-eabi/lib/armv7e-m\libc.a(lib_a-fstatr.o)
                0x0800fba8                _fstat_r
 .text          0x0800fbd0        0x0 c:/dave-3.1.10/arm-gcc/bin/../lib/gcc/arm-none-eabi/4.7.4/../../../../arm-none-eabi/lib/armv7e-m\libc.a(lib_a-fwalk.o)
 .text._fwalk   0x0800fbd0       0xb8 c:/dave-3.1.10/arm-gcc/bin/../lib/gcc/arm-none-eabi/4.7.4/../../../../arm-none-eabi/lib/armv7e-m\libc.a(lib_a-fwalk.o)
                0x0800fbd0                _fwalk
 .text._fwalk_reent
                0x0800fc88       0xc0 c:/dave-3.1.10/arm-gcc/bin/../lib/gcc/arm-none-eabi/4.7.4/../../../../arm-none-eabi/lib/armv7e-m\libc.a(lib_a-fwalk.o)
                0x0800fc88                _fwalk_reent
 .text          0x0800fd48        0x0 c:/dave-3.1.10/arm-gcc/bin/../lib/gcc/arm-none-eabi/4.7.4/../../../../arm-none-eabi/lib/armv7e-m\libc.a(lib_a-impure.o)
 .text          0x0800fd48        0x0 c:/dave-3.1.10/arm-gcc/bin/../lib/gcc/arm-none-eabi/4.7.4/../../../../arm-none-eabi/lib/armv7e-m\libc.a(lib_a-init.o)
 .text.__libc_init_array
                0x0800fd48       0x94 c:/dave-3.1.10/arm-gcc/bin/../lib/gcc/arm-none-eabi/4.7.4/../../../../arm-none-eabi/lib/armv7e-m\libc.a(lib_a-init.o)
                0x0800fd48                __libc_init_array
 .text          0x0800fddc        0x0 c:/dave-3.1.10/arm-gcc/bin/../lib/gcc/arm-none-eabi/4.7.4/../../../../arm-none-eabi/lib/armv7e-m\libc.a(lib_a-makebuf.o)
 .text.__smakebuf_r
                0x0800fddc       0xe8 c:/dave-3.1.10/arm-gcc/bin/../lib/gcc/arm-none-eabi/4.7.4/../../../../arm-none-eabi/lib/armv7e-m\libc.a(lib_a-makebuf.o)
                0x0800fddc                __smakebuf_r
 .text          0x0800fec4        0x0 c:/dave-3.1.10/arm-gcc/bin/../lib/gcc/arm-none-eabi/4.7.4/../../../../arm-none-eabi/lib/armv7e-m\libc.a(lib_a-malloc.o)
 .text.malloc   0x0800fec4       0x10 c:/dave-3.1.10/arm-gcc/bin/../lib/gcc/arm-none-eabi/4.7.4/../../../../arm-none-eabi/lib/armv7e-m\libc.a(lib_a-malloc.o)
                0x0800fec4                malloc
 .text.free     0x0800fed4       0x10 c:/dave-3.1.10/arm-gcc/bin/../lib/gcc/arm-none-eabi/4.7.4/../../../../arm-none-eabi/lib/armv7e-m\libc.a(lib_a-malloc.o)
                0x0800fed4                free
 .text          0x0800fee4        0x0 c:/dave-3.1.10/arm-gcc/bin/../lib/gcc/arm-none-eabi/4.7.4/../../../../arm-none-eabi/lib/armv7e-m\libc.a(lib_a-memcpy.o)
 .text.memcpy   0x0800fee4      0x144 c:/dave-3.1.10/arm-gcc/bin/../lib/gcc/arm-none-eabi/4.7.4/../../../../arm-none-eabi/lib/armv7e-m\libc.a(lib_a-memcpy.o)
                0x0800fee4                memcpy
 .text          0x08010028        0x0 c:/dave-3.1.10/arm-gcc/bin/../lib/gcc/arm-none-eabi/4.7.4/../../../../arm-none-eabi/lib/armv7e-m\libc.a(lib_a-memmove.o)
 .text.memmove  0x08010028      0x198 c:/dave-3.1.10/arm-gcc/bin/../lib/gcc/arm-none-eabi/4.7.4/../../../../arm-none-eabi/lib/armv7e-m\libc.a(lib_a-memmove.o)
                0x08010028                memmove
 .text          0x080101c0        0x0 c:/dave-3.1.10/arm-gcc/bin/../lib/gcc/arm-none-eabi/4.7.4/../../../../arm-none-eabi/lib/armv7e-m\libc.a(lib_a-memset.o)
 .text.memset   0x080101c0      0x12c c:/dave-3.1.10/arm-gcc/bin/../lib/gcc/arm-none-eabi/4.7.4/../../../../arm-none-eabi/lib/armv7e-m\libc.a(lib_a-memset.o)
                0x080101c0                memset
 .text          0x080102ec        0x0 c:/dave-3.1.10/arm-gcc/bin/../lib/gcc/arm-none-eabi/4.7.4/../../../../arm-none-eabi/lib/armv7e-m\libc.a(lib_a-mktime.o)
 .text.validate_structure
                0x080102ec      0x20c c:/dave-3.1.10/arm-gcc/bin/../lib/gcc/arm-none-eabi/4.7.4/../../../../arm-none-eabi/lib/armv7e-m\libc.a(lib_a-mktime.o)
 .text.mktime   0x080104f8      0x36c c:/dave-3.1.10/arm-gcc/bin/../lib/gcc/arm-none-eabi/4.7.4/../../../../arm-none-eabi/lib/armv7e-m\libc.a(lib_a-mktime.o)
                0x080104f8                mktime
 .text          0x08010864        0x0 c:/dave-3.1.10/arm-gcc/bin/../lib/gcc/arm-none-eabi/4.7.4/../../../../arm-none-eabi/lib/armv7e-m\libc.a(lib_a-mktm_r.o)
 .text.__tzcalc_limits
                0x08010864      0x1b8 c:/dave-3.1.10/arm-gcc/bin/../lib/gcc/arm-none-eabi/4.7.4/../../../../arm-none-eabi/lib/armv7e-m\libc.a(lib_a-mktm_r.o)
                0x08010864                __tzcalc_limits
 .text._mktm_r  0x08010a1c      0x360 c:/dave-3.1.10/arm-gcc/bin/../lib/gcc/arm-none-eabi/4.7.4/../../../../arm-none-eabi/lib/armv7e-m\libc.a(lib_a-mktm_r.o)
                0x08010a1c                _mktm_r
 .text          0x08010d7c        0x0 c:/dave-3.1.10/arm-gcc/bin/../lib/gcc/arm-none-eabi/4.7.4/../../../../arm-none-eabi/lib/armv7e-m\libc.a(lib_a-openr.o)
 .text._open_r  0x08010d7c       0x28 c:/dave-3.1.10/arm-gcc/bin/../lib/gcc/arm-none-eabi/4.7.4/../../../../arm-none-eabi/lib/armv7e-m\libc.a(lib_a-openr.o)
                0x08010d7c                _open_r
 .text          0x08010da4        0x0 c:/dave-3.1.10/arm-gcc/bin/../lib/gcc/arm-none-eabi/4.7.4/../../../../arm-none-eabi/lib/armv7e-m\libc.a(lib_a-reent.o)
 .text.cleanup_glue
                0x08010da4       0x1c c:/dave-3.1.10/arm-gcc/bin/../lib/gcc/arm-none-eabi/4.7.4/../../../../arm-none-eabi/lib/armv7e-m\libc.a(lib_a-reent.o)
                0x08010da4                cleanup_glue
 .text._reclaim_reent
                0x08010dc0       0x8c c:/dave-3.1.10/arm-gcc/bin/../lib/gcc/arm-none-eabi/4.7.4/../../../../arm-none-eabi/lib/armv7e-m\libc.a(lib_a-reent.o)
                0x08010dc0                _reclaim_reent
 .text._wrapup_reent
                0x08010e4c       0x74 c:/dave-3.1.10/arm-gcc/bin/../lib/gcc/arm-none-eabi/4.7.4/../../../../arm-none-eabi/lib/armv7e-m\libc.a(lib_a-reent.o)
                0x08010e4c                _wrapup_reent
 .text          0x08010ec0        0x0 c:/dave-3.1.10/arm-gcc/bin/../lib/gcc/arm-none-eabi/4.7.4/../../../../arm-none-eabi/lib/armv7e-m\libc.a(lib_a-refill.o)
 .text.lflush   0x08010ec0       0x14 c:/dave-3.1.10/arm-gcc/bin/../lib/gcc/arm-none-eabi/4.7.4/../../../../arm-none-eabi/lib/armv7e-m\libc.a(lib_a-refill.o)
 .text.__srefill_r
                0x08010ed4      0x110 c:/dave-3.1.10/arm-gcc/bin/../lib/gcc/arm-none-eabi/4.7.4/../../../../arm-none-eabi/lib/armv7e-m\libc.a(lib_a-refill.o)
                0x08010ed4                __srefill_r
 .text          0x08010fe4        0x0 c:/dave-3.1.10/arm-gcc/bin/../lib/gcc/arm-none-eabi/4.7.4/../../../../arm-none-eabi/lib/armv7e-m\libc.a(lib_a-stdio.o)
 .text.__sread  0x08010fe4       0x24 c:/dave-3.1.10/arm-gcc/bin/../lib/gcc/arm-none-eabi/4.7.4/../../../../arm-none-eabi/lib/armv7e-m\libc.a(lib_a-stdio.o)
                0x08010fe4                __sread
 .text.__seofread
                0x08011008        0x4 c:/dave-3.1.10/arm-gcc/bin/../lib/gcc/arm-none-eabi/4.7.4/../../../../arm-none-eabi/lib/armv7e-m\libc.a(lib_a-stdio.o)
                0x08011008                __seofread
 .text.__swrite
                0x0801100c       0x44 c:/dave-3.1.10/arm-gcc/bin/../lib/gcc/arm-none-eabi/4.7.4/../../../../arm-none-eabi/lib/armv7e-m\libc.a(lib_a-stdio.o)
                0x0801100c                __swrite
 .text.__sseek  0x08011050       0x24 c:/dave-3.1.10/arm-gcc/bin/../lib/gcc/arm-none-eabi/4.7.4/../../../../arm-none-eabi/lib/armv7e-m\libc.a(lib_a-stdio.o)
                0x08011050                __sseek
 .text.__sclose
                0x08011074        0x8 c:/dave-3.1.10/arm-gcc/bin/../lib/gcc/arm-none-eabi/4.7.4/../../../../arm-none-eabi/lib/armv7e-m\libc.a(lib_a-stdio.o)
                0x08011074                __sclose
 .text          0x0801107c        0x0 c:/dave-3.1.10/arm-gcc/bin/../lib/gcc/arm-none-eabi/4.7.4/../../../../arm-none-eabi/lib/armv7e-m\libc.a(lib_a-strchr.o)
 .text.strchr   0x0801107c       0xfc c:/dave-3.1.10/arm-gcc/bin/../lib/gcc/arm-none-eabi/4.7.4/../../../../arm-none-eabi/lib/armv7e-m\libc.a(lib_a-strchr.o)
                0x0801107c                strchr
 .text          0x08011178        0x0 c:/dave-3.1.10/arm-gcc/bin/../lib/gcc/arm-none-eabi/4.7.4/../../../../arm-none-eabi/lib/armv7e-m\libc.a(lib_a-strcmp.o)
 .text.strcmp   0x08011178       0x80 c:/dave-3.1.10/arm-gcc/bin/../lib/gcc/arm-none-eabi/4.7.4/../../../../arm-none-eabi/lib/armv7e-m\libc.a(lib_a-strcmp.o)
                0x08011178                strcmp
 .text.strcmp_unaligned
                0x080111f8      0x15c c:/dave-3.1.10/arm-gcc/bin/../lib/gcc/arm-none-eabi/4.7.4/../../../../arm-none-eabi/lib/armv7e-m\libc.a(lib_a-strcmp.o)
 .text          0x08011354        0x0 c:/dave-3.1.10/arm-gcc/bin/../lib/gcc/arm-none-eabi/4.7.4/../../../../arm-none-eabi/lib/armv7e-m\libc.a(lib_a-strcpy.o)
 .text.strcpy   0x08011354       0xbc c:/dave-3.1.10/arm-gcc/bin/../lib/gcc/arm-none-eabi/4.7.4/../../../../arm-none-eabi/lib/armv7e-m\libc.a(lib_a-strcpy.o)
                0x08011354                strcpy
 .text          0x08011410        0x0 c:/dave-3.1.10/arm-gcc/bin/../lib/gcc/arm-none-eabi/4.7.4/../../../../arm-none-eabi/lib/armv7e-m\libc.a(lib_a-strlen.o)
 .text.strlen   0x08011410       0x60 c:/dave-3.1.10/arm-gcc/bin/../lib/gcc/arm-none-eabi/4.7.4/../../../../arm-none-eabi/lib/armv7e-m\libc.a(lib_a-strlen.o)
                0x08011410                strlen
 .text          0x08011470        0x0 c:/dave-3.1.10/arm-gcc/bin/../lib/gcc/arm-none-eabi/4.7.4/../../../../arm-none-eabi/lib/armv7e-m\libc.a(lib_a-strncmp.o)
 .text.strncmp  0x08011470      0x120 c:/dave-3.1.10/arm-gcc/bin/../lib/gcc/arm-none-eabi/4.7.4/../../../../arm-none-eabi/lib/armv7e-m\libc.a(lib_a-strncmp.o)
                0x08011470                strncmp
 .text          0x08011590        0x0 c:/dave-3.1.10/arm-gcc/bin/../lib/gcc/arm-none-eabi/4.7.4/../../../../arm-none-eabi/lib/armv7e-m\libc.a(lib_a-strstr.o)
 .text.critical_factorization
                0x08011590       0xbc c:/dave-3.1.10/arm-gcc/bin/../lib/gcc/arm-none-eabi/4.7.4/../../../../arm-none-eabi/lib/armv7e-m\libc.a(lib_a-strstr.o)
 .text.two_way_long_needle
                0x0801164c      0x318 c:/dave-3.1.10/arm-gcc/bin/../lib/gcc/arm-none-eabi/4.7.4/../../../../arm-none-eabi/lib/armv7e-m\libc.a(lib_a-strstr.o)
 .text.strstr   0x08011964      0x2f0 c:/dave-3.1.10/arm-gcc/bin/../lib/gcc/arm-none-eabi/4.7.4/../../../../arm-none-eabi/lib/armv7e-m\libc.a(lib_a-strstr.o)
                0x08011964                strstr
 .text          0x08011c54        0x0 c:/dave-3.1.10/arm-gcc/bin/../lib/gcc/arm-none-eabi/4.7.4/../../../../arm-none-eabi/lib/armv7e-m\libc.a(lib_a-sysstat.o)
 .text.stat     0x08011c54       0x18 c:/dave-3.1.10/arm-gcc/bin/../lib/gcc/arm-none-eabi/4.7.4/../../../../arm-none-eabi/lib/armv7e-m\libc.a(lib_a-sysstat.o)
                0x08011c54                stat
 .text          0x08011c6c        0x0 c:/dave-3.1.10/arm-gcc/bin/../lib/gcc/arm-none-eabi/4.7.4/../../../../arm-none-eabi/lib/armv7e-m\libc.a(lib_a-tzlock.o)
 .text.__tz_lock
                0x08011c6c        0x4 c:/dave-3.1.10/arm-gcc/bin/../lib/gcc/arm-none-eabi/4.7.4/../../../../arm-none-eabi/lib/armv7e-m\libc.a(lib_a-tzlock.o)
                0x08011c6c                __tz_lock
 .text.__tz_unlock
                0x08011c70        0x4 c:/dave-3.1.10/arm-gcc/bin/../lib/gcc/arm-none-eabi/4.7.4/../../../../arm-none-eabi/lib/armv7e-m\libc.a(lib_a-tzlock.o)
                0x08011c70                __tz_unlock
 .text          0x08011c74        0x0 c:/dave-3.1.10/arm-gcc/bin/../lib/gcc/arm-none-eabi/4.7.4/../../../../arm-none-eabi/lib/armv7e-m\libc.a(lib_a-tzvars.o)
 .text          0x08011c74        0x0 c:/dave-3.1.10/arm-gcc/bin/../lib/gcc/arm-none-eabi/4.7.4/../../../../arm-none-eabi/lib/armv7e-m\libc.a(lib_a-closer.o)
 .text._close_r
                0x08011c74       0x24 c:/dave-3.1.10/arm-gcc/bin/../lib/gcc/arm-none-eabi/4.7.4/../../../../arm-none-eabi/lib/armv7e-m\libc.a(lib_a-closer.o)
                0x08011c74                _close_r
 .text          0x08011c98        0x0 c:/dave-3.1.10/arm-gcc/bin/../lib/gcc/arm-none-eabi/4.7.4/../../../../arm-none-eabi/lib/armv7e-m\libc.a(lib_a-div.o)
 .text.div      0x08011c98       0x2c c:/dave-3.1.10/arm-gcc/bin/../lib/gcc/arm-none-eabi/4.7.4/../../../../arm-none-eabi/lib/armv7e-m\libc.a(lib_a-div.o)
                0x08011c98                div
 .text          0x08011cc4        0x0 c:/dave-3.1.10/arm-gcc/bin/../lib/gcc/arm-none-eabi/4.7.4/../../../../arm-none-eabi/lib/armv7e-m\libc.a(lib_a-flags.o)
 .text.__sflags
                0x08011cc4       0x6c c:/dave-3.1.10/arm-gcc/bin/../lib/gcc/arm-none-eabi/4.7.4/../../../../arm-none-eabi/lib/armv7e-m\libc.a(lib_a-flags.o)
                0x08011cc4                __sflags
 .text          0x08011d30        0x0 c:/dave-3.1.10/arm-gcc/bin/../lib/gcc/arm-none-eabi/4.7.4/../../../../arm-none-eabi/lib/armv7e-m\libc.a(lib_a-gettzinfo.o)
 .text.__gettzinfo
                0x08011d30        0xc c:/dave-3.1.10/arm-gcc/bin/../lib/gcc/arm-none-eabi/4.7.4/../../../../arm-none-eabi/lib/armv7e-m\libc.a(lib_a-gettzinfo.o)
                0x08011d30                __gettzinfo
 .text          0x08011d3c        0x0 c:/dave-3.1.10/arm-gcc/bin/../lib/gcc/arm-none-eabi/4.7.4/../../../../arm-none-eabi/lib/armv7e-m\libc.a(lib_a-isattyr.o)
 .text._isatty_r
                0x08011d3c       0x24 c:/dave-3.1.10/arm-gcc/bin/../lib/gcc/arm-none-eabi/4.7.4/../../../../arm-none-eabi/lib/armv7e-m\libc.a(lib_a-isattyr.o)
                0x08011d3c                _isatty_r
 .text          0x08011d60        0x0 c:/dave-3.1.10/arm-gcc/bin/../lib/gcc/arm-none-eabi/4.7.4/../../../../arm-none-eabi/lib/armv7e-m\libc.a(lib_a-lseekr.o)
 .text._lseek_r
                0x08011d60       0x28 c:/dave-3.1.10/arm-gcc/bin/../lib/gcc/arm-none-eabi/4.7.4/../../../../arm-none-eabi/lib/armv7e-m\libc.a(lib_a-lseekr.o)
                0x08011d60                _lseek_r
 .text          0x08011d88        0x0 c:/dave-3.1.10/arm-gcc/bin/../lib/gcc/arm-none-eabi/4.7.4/../../../../arm-none-eabi/lib/armv7e-m\libc.a(lib_a-memchr.o)
 .text.memchr   0x08011d88      0x140 c:/dave-3.1.10/arm-gcc/bin/../lib/gcc/arm-none-eabi/4.7.4/../../../../arm-none-eabi/lib/armv7e-m\libc.a(lib_a-memchr.o)
                0x08011d88                memchr
 .text          0x08011ec8        0x0 c:/dave-3.1.10/arm-gcc/bin/../lib/gcc/arm-none-eabi/4.7.4/../../../../arm-none-eabi/lib/armv7e-m\libc.a(lib_a-memcmp.o)
 .text.memcmp   0x08011ec8       0xb8 c:/dave-3.1.10/arm-gcc/bin/../lib/gcc/arm-none-eabi/4.7.4/../../../../arm-none-eabi/lib/armv7e-m\libc.a(lib_a-memcmp.o)
                0x08011ec8                memcmp
 .text          0x08011f80        0x0 c:/dave-3.1.10/arm-gcc/bin/../lib/gcc/arm-none-eabi/4.7.4/../../../../arm-none-eabi/lib/armv7e-m\libc.a(lib_a-statr.o)
 .text._stat_r  0x08011f80       0x28 c:/dave-3.1.10/arm-gcc/bin/../lib/gcc/arm-none-eabi/4.7.4/../../../../arm-none-eabi/lib/armv7e-m\libc.a(lib_a-statr.o)
                0x08011f80                _stat_r
 .text          0x08011fa8        0x0 C:\DAVE-3.1.10\eclipse\/../CMSIS/Infineon/Lib\libxmclibcstubs.a(System_LibcStubs.o)
 .text._open    0x08011fa8       0x1c C:\DAVE-3.1.10\eclipse\/../CMSIS/Infineon/Lib\libxmclibcstubs.a(System_LibcStubs.o)
 .text._lseek   0x08011fc4       0x1c C:\DAVE-3.1.10\eclipse\/../CMSIS/Infineon/Lib\libxmclibcstubs.a(System_LibcStubs.o)
 .text._read    0x08011fe0       0x1c C:\DAVE-3.1.10\eclipse\/../CMSIS/Infineon/Lib\libxmclibcstubs.a(System_LibcStubs.o)
                0x08011fe0                _read
 .text._write   0x08011ffc       0x1c C:\DAVE-3.1.10\eclipse\/../CMSIS/Infineon/Lib\libxmclibcstubs.a(System_LibcStubs.o)
                0x08011ffc                _write
 .text._close   0x08012018       0x10 C:\DAVE-3.1.10\eclipse\/../CMSIS/Infineon/Lib\libxmclibcstubs.a(System_LibcStubs.o)
 .text._fstat   0x08012028       0x28 C:\DAVE-3.1.10\eclipse\/../CMSIS/Infineon/Lib\libxmclibcstubs.a(System_LibcStubs.o)
 .text._link    0x08012050       0x28 C:\DAVE-3.1.10\eclipse\/../CMSIS/Infineon/Lib\libxmclibcstubs.a(System_LibcStubs.o)
 .text._unlink  0x08012078       0x18 C:\DAVE-3.1.10\eclipse\/../CMSIS/Infineon/Lib\libxmclibcstubs.a(System_LibcStubs.o)
 .text._sbrk    0x08012090       0xa0 C:\DAVE-3.1.10\eclipse\/../CMSIS/Infineon/Lib\libxmclibcstubs.a(System_LibcStubs.o)
                0x08012090                _sbrk
 .text._times   0x08012130       0x18 C:\DAVE-3.1.10\eclipse\/../CMSIS/Infineon/Lib\libxmclibcstubs.a(System_LibcStubs.o)
                0x08012130                _times
 .text._wait    0x08012148       0x18 C:\DAVE-3.1.10\eclipse\/../CMSIS/Infineon/Lib\libxmclibcstubs.a(System_LibcStubs.o)
                0x08012148                _wait
 .text._kill    0x08012160       0x1c C:\DAVE-3.1.10\eclipse\/../CMSIS/Infineon/Lib\libxmclibcstubs.a(System_LibcStubs.o)
                0x08012160                _kill
 .text._fork    0x0801217c       0x10 C:\DAVE-3.1.10\eclipse\/../CMSIS/Infineon/Lib\libxmclibcstubs.a(System_LibcStubs.o)
                0x0801217c                _fork
 .text._getpid  0x0801218c       0x10 C:\DAVE-3.1.10\eclipse\/../CMSIS/Infineon/Lib\libxmclibcstubs.a(System_LibcStubs.o)
                0x0801218c                _getpid
 .text._exit    0x0801219c        0xc C:\DAVE-3.1.10\eclipse\/../CMSIS/Infineon/Lib\libxmclibcstubs.a(System_LibcStubs.o)
                0x0801219c                _exit
 .text._init    0x080121a8        0xc C:\DAVE-3.1.10\eclipse\/../CMSIS/Infineon/Lib\libxmclibcstubs.a(System_LibcStubs.o)
                0x080121a8                _init
 .text._isatty  0x080121b4       0x18 C:\DAVE-3.1.10\eclipse\/../CMSIS/Infineon/Lib\libxmclibcstubs.a(System_LibcStubs.o)
 *(.glue*)
 .glue_7        0x00000000        0x0 linker stubs
 .glue_7t       0x00000000        0x0 linker stubs
 *(.v4*)
 .v4_bx         0x00000000        0x0 linker stubs
 *(.vfp11_veneer)
 .vfp11_veneer  0x00000000        0x0 linker stubs
 *(.init)
                0x080121cc                __preinit_array_start = .
 *(.preinit_array)
                0x080121cc                __preinit_array_end = .
                0x080121cc                __init_array_start = .
 *(SORT(.init_array.*))
 *(.init_array)
                0x080121cc                __init_array_end = .
 *crtbegin.o(.ctors)
 *(EXCLUDE_FILE(*crtend.o) .ctors)
 *(SORT(.ctors.*))
 *crtend.o(.ctors)
 *(.fini)
                0x080121cc                __fini_array_start = .
 *(.fini_array)
 *(SORT(.fini_array.*))
                0x080121cc                __fini_array_end = .
 *crtbegin.o(.dtors)
 *(EXCLUDE_FILE(*crtend.o) .dtors)
 *(SORT(.dtors.*))
 *crtend.o(.dtors)
                0x080121cc                __extab_start = .
 *(.ARM.extab* .gnu.linkonce.armextab.*)
 .ARM.extab.Xmc4500.reset
                0x080121cc        0x0 Startup/startup_XMC4500.o
 .ARM.extab.Xmc4500.postreset
                0x080121cc        0x0 Startup/startup_XMC4500.o
                0x080121cc                . = ALIGN (0x4)
                0x080121cc                __extab_end = ABSOLUTE (.)

.iplt           0x080121cc        0x0 load address 0x0c0121cc
 .iplt          0x00000000        0x0 Startup/startup_XMC4500.o

.ARM.exidx      0x080121cc       0x10 load address 0x0c0121cc
                0x080121cc                __exidx_start = .
 *(.ARM.exidx* .gnu.linkonce.armexidx.*)
 .ARM.exidx.Xmc4500.reset
                0x080121cc        0x8 Startup/startup_XMC4500.o
 .ARM.exidx.Xmc4500.postreset
                0x080121d4        0x8 Startup/startup_XMC4500.o
                0x080121dc                . = ALIGN (0x4)
                0x080121dc                __exidx_end = ABSOLUTE (.)

.rodata         0x080121dc     0x1274 load address 0x0c0121dc
 *(.rodata .rodata.*)
 .rodata        0x080121dc        0x8 Main.o
                0x080121dc                LED_CGI
 .rodata.str1.1
                0x080121e4       0x1b Main.o
                                 0x21 (size before relaxing)
 *fill*         0x080121ff        0x1 00
 .rodata        0x08012200      0xcec Dave/Generated/src/WEBSERVER001/HTTPServer/fs.o
                0x08012200                file__index_html
                0x08012214                file__404_html
                0x08012228                file__img_sics_gif
 .rodata.str1.1
                0x08012eec        0x2 Dave/Generated/src/WEBSERVER001/HTTPServer/fs.o
 *fill*         0x08012eee        0x2 00
 .rodata        0x08012ef0       0x30 Dave/Generated/src/WEBSERVER001/HTTPServer/httpd.o
                0x08012ef0                g_psDefaultFilenames
                0x08012f18                g_pcTagLeadOut
                0x08012f1c                g_pcTagLeadIn
 .rodata.str1.1
                0x08012f20       0xc6 Dave/Generated/src/WEBSERVER001/HTTPServer/httpd.o
                                 0xe2 (size before relaxing)
 *fill*         0x08012fe6        0x2 00
 .rodata        0x08012fe8       0x28 Dave/Generated/src/SDMMC003/SDMMC003.o
 .rodata        0x08013010       0x92 Dave/Generated/src/SDMMC003/SDMMC003_Private.o
                0x08013010                SDMMC003_Command
                0x08013060                SDMMC003_SDHashTable
 *fill*         0x080130a2        0x2 00
 .rodata        0x080130a4       0x44 Dave/Generated/src/RTC001/RTC001.o
                0x080130a4                RTC001_DAYS_IN_MONTH
 .rodata        0x080130e8        0x4 Dave/Generated/src/RTC001/RTC001_Conf.o
                0x080130e8                RTC001_Handle
 .rodata        0x080130ec        0x8 Dave/Generated/src/IO004/IO004_Conf.o
                0x080130ec                IO004_Handle0
 .rodata        0x080130f4        0x8 Dave/Generated/src/IO001/IO001_Conf.o
                0x080130f4                IO001_Handle0
 .rodata        0x080130fc        0xc Dave/Generated/src/GMM001/GMM001.o
                0x080130fc                LENGTH1
                0x08013100                LENGTH2
                0x08013104                LENGTH3
 .rodata        0x08013108       0x14 Dave/Generated/src/FATFS004/FATFS004_Conf.o
                0x08013108                FATFS004_DeviceFunc
 .rodata        0x0801311c       0xac Dave/Generated/src/FATFS002/Src/ff.o
 .rodata.str1.1
                0x080131c8       0x43 Dave/Generated/src/FATFS002/Src/ff.o
 .rodata        0x0801320b        0xc Dave/Generated/src/ETH004/01_lwIP_Stack/src/netif/etharp.o
                0x0801320b                ethzero
                0x08013211                ethbroadcast
 .rodata.str1.1
                0x08013217        0xf Dave/Generated/src/ETH004/01_lwIP_Stack/src/core/dns.o
 .rodata        0x08013226       0x14 Dave/Generated/src/ETH004/01_lwIP_Stack/src/core/memp.o
                0x08013226                memp_sizes
 .rodata        0x0801323a       0x14 Dave/Generated/src/ETH004/01_lwIP_Stack/src/core/tcp.o
                0x0801323a                tcp_persist_backoff
                0x08013241                tcp_backoff
 .rodata.str1.1
                0x0801324e       0x68 Dave/Generated/src/ETH004/01_lwIP_Stack/src/core/tcp.o
 .rodata        0x080132b6        0x8 Dave/Generated/src/ETH004/01_lwIP_Stack/src/core/ipv4/ip_addr.o
                0x080132b6                ip_addr_broadcast
                0x080132ba                ip_addr_any
 .rodata        0x080132be        0x6 Dave/Generated/src/ETH001/synopGMAC_Dev.o
 .rodata        0x080132c4        0x6 Dave/Generated/src/ETH001/synopGMAC_stack_interface.o
 *fill*         0x080132ca        0x2 00
 .rodata        0x080132cc       0x20 Dave/Generated/src/ADCGROUP001/ADCGroup001_Conf.o
                0x080132cc                ADCGROUP001_Handle0
 .rodata        0x080132ec       0x18 Dave/Generated/src/ADCGLOB001/ADCGlob001_Conf.o
                0x080132ec                ADCGLOB001_Handle0
 .rodata        0x08013304       0x1c Dave/Generated/src/ADCCH001/ADCCH001_Conf.o
                0x08013304                ADCCH001_Handle0
 .rodata        0x08013320       0x5c Dave/Generated/src/ADC002/ADC002_Conf.o
                0x08013320                ADC002_Handle0
 .rodata.str1.4
                0x0801337c        0x2 c:/dave-3.1.10/arm-gcc/bin/../lib/gcc/arm-none-eabi/4.7.4/../../../../arm-none-eabi/lib/armv7e-m\libc.a(lib_a-impure.o)
                                  0x4 (size before relaxing)
 *fill*         0x0801337e        0x2 00
 .rodata._global_impure_ptr
                0x08013380        0x4 c:/dave-3.1.10/arm-gcc/bin/../lib/gcc/arm-none-eabi/4.7.4/../../../../arm-none-eabi/lib/armv7e-m\libc.a(lib_a-impure.o)
                0x08013380                _global_impure_ptr
 .rodata._DAYS_BEFORE_MONTH
                0x08013384       0x30 c:/dave-3.1.10/arm-gcc/bin/../lib/gcc/arm-none-eabi/4.7.4/../../../../arm-none-eabi/lib/armv7e-m\libc.a(lib_a-mktime.o)
 .rodata.DAYS_IN_MONTH
                0x080133b4       0x30 c:/dave-3.1.10/arm-gcc/bin/../lib/gcc/arm-none-eabi/4.7.4/../../../../arm-none-eabi/lib/armv7e-m\libc.a(lib_a-mktime.o)
 .rodata.mon_lengths
                0x080133e4       0x60 c:/dave-3.1.10/arm-gcc/bin/../lib/gcc/arm-none-eabi/4.7.4/../../../../arm-none-eabi/lib/armv7e-m\libc.a(lib_a-mktm_r.o)
 .rodata.year_lengths
                0x08013444        0x8 c:/dave-3.1.10/arm-gcc/bin/../lib/gcc/arm-none-eabi/4.7.4/../../../../arm-none-eabi/lib/armv7e-m\libc.a(lib_a-mktm_r.o)
 .rodata.str1.4
                0x0801344c        0x4 c:/dave-3.1.10/arm-gcc/bin/../lib/gcc/arm-none-eabi/4.7.4/../../../../arm-none-eabi/lib/armv7e-m\libc.a(lib_a-tzvars.o)
 *(.gnu.linkonce.r*)

.rel.dyn        0x08013450        0x0 load address 0x0c013450
 .rel.iplt      0x00000000        0x0 Startup/startup_XMC4500.o
                0x08013450                . = ALIGN (0x10)
                0x0c013450                eROData = (. | 0x4000000)

Stack           0x20000000      0x800
                0x20000800                . = (. + stack_size)
 *fill*         0x20000000      0x800 00
                0x20000800                __Xmc4500_stack = .

Communication_Buffers
                0x30000000     0x4920
 *DMA_Descriptors.o(COMMON)
 COMMON         0x30000000     0x4920 Dave/Generated/src/ETH001/DMA_Descriptors.o
                0x30000000                Eth_RxDMADescList
                0x300000f0                Eth_RxBuffer
                0x30002490                Eth_TxDMADescList
                0x30002580                Eth_TxBuffer

.bss            0x20000800     0x5d38
                0x20000800                __Xmc4500_sBSS = .
 *(.bss)
 .bss           0x20000800        0x0 Startup/startup_XMC4500.o
 .bss           0x20000800        0x0 Startup/system_XMC4500.o
 .bss           0x20000800        0x0 Main.o
 .bss           0x20000800        0x0 Dave/Generated/src/WEBSERVER001/HTTPServer/fs.o
 .bss           0x20000800        0x0 Dave/Generated/src/WEBSERVER001/HTTPServer/fsdata.o
 .bss           0x20000800      0x414 Dave/Generated/src/WEBSERVER001/HTTPServer/httpd.o
                0x20000800                g_pfnSSIHandler
                0x20000804                g_ppcTags
                0x20000808                g_iNumTags
                0x20000c0c                g_iNumCGIs
                0x20000c10                g_pCGIs
 .bss           0x20000c14        0xc Dave/Generated/src/SYSTM001/SYSTM001.o
                0x20000c14                TimerList
                0x20000c18                SysTickCount
                0x20000c1c                TimerTracker
 .bss           0x20000c20        0x0 Dave/Generated/src/SLTHA003/SLTHA003.o
 .bss           0x20000c20        0x0 Dave/Generated/src/SLTHA003/SLTHA003_Conf.o
 .bss           0x20000c20      0x194 Dave/Generated/src/SLTHA001/SLTHA001.o
                0x20000c24                FileHandle
 .bss           0x20000db4        0x0 Dave/Generated/src/SLTHA001/SLTHA001_Conf.o
 .bss           0x20000db4        0xc Dave/Generated/src/SDMMC003/SDMMC003.o
                0x20000db4                SDMMC003_Handle
 .bss           0x20000dc0        0x0 Dave/Generated/src/SDMMC003/SDMMC003_Conf.o
 .bss           0x20000dc0        0x0 Dave/Generated/src/SDMMC003/SDMMC003_Private.o
 .bss           0x20000dc0        0x2 Dave/Generated/src/SDMMC001/SDMMC001.o
 .bss           0x20000dc2        0x0 Dave/Generated/src/SDMMC001/SDMMC001_Conf.o
 .bss           0x20000dc2        0x0 Dave/Generated/src/RTC001/RTC001.o
 .bss           0x20000dc2        0x0 Dave/Generated/src/RTC001/RTC001_Conf.o
 .bss           0x20000dc2        0x0 Dave/Generated/src/RESET001/RESET001.o
 .bss           0x20000dc2        0x0 Dave/Generated/src/NVIC_SCU001/NVIC_SCU001.o
 .bss           0x20000dc2        0x0 Dave/Generated/src/LMM001/LMM001.o
 .bss           0x20000dc2        0x0 Dave/Generated/src/LMM001/LMM001_Conf.o
 .bss           0x20000dc2        0x0 Dave/Generated/src/LIBS/CCU8PWMLIB.o
 .bss           0x20000dc2        0x0 Dave/Generated/src/IO004/IO004.o
 .bss           0x20000dc2        0x0 Dave/Generated/src/IO004/IO004_Conf.o
 .bss           0x20000dc2        0x0 Dave/Generated/src/IO001/IO001.o
 .bss           0x20000dc2        0x0 Dave/Generated/src/IO001/IO001_Conf.o
 .bss           0x20000dc2        0x0 Dave/Generated/src/GMM001/GMM001.o
 .bss           0x20000dc2        0x0 Dave/Generated/src/GMM001/GMM001_Conf.o
 .bss           0x20000dc2        0x0 Dave/Generated/src/FATFS004/FATFS004.o
 .bss           0x20000dc2        0x0 Dave/Generated/src/FATFS004/FATFS004_Conf.o
 .bss           0x20000dc2        0x0 Dave/Generated/src/FATFS002/FATFS002_Conf.o
 .bss           0x20000dc2        0x0 Dave/Generated/src/FATFS002/syscall.o
 *fill*         0x20000dc2        0x2 00
 .bss           0x20000dc4       0x10 Dave/Generated/src/FATFS002/Src/ff.o
 .bss           0x20000dd4        0x6 Dave/Generated/src/ETH004/ETH004_Conf.o
                0x20000dd4                GWpos3
                0x20000dd6                Netpos4
                0x20000dd8                IPpos3
 *fill*         0x20000dda        0x2 00
 .bss           0x20000ddc       0xcc Dave/Generated/src/ETH004/01_lwIP_Stack/src/netif/etharp.o
 .bss           0x20000ea8        0x0 Dave/Generated/src/ETH004/01_lwIP_Stack/src/netif/ethernetif.o
 .bss           0x20000ea8        0x0 Dave/Generated/src/ETH004/01_lwIP_Stack/src/netif/loopif.o
 .bss           0x20000ea8        0x0 Dave/Generated/src/ETH004/01_lwIP_Stack/src/netif/slipif.o
 .bss           0x20000ea8        0x0 Dave/Generated/src/ETH004/01_lwIP_Stack/src/core/dhcp.o
 .bss           0x20000ea8      0x670 Dave/Generated/src/ETH004/01_lwIP_Stack/src/core/dns.o
 .bss           0x20001518        0x0 Dave/Generated/src/ETH004/01_lwIP_Stack/src/core/init.o
 .bss           0x20001518     0x4024 Dave/Generated/src/ETH004/01_lwIP_Stack/src/core/mem.o
 .bss           0x2000553c        0x0 Dave/Generated/src/ETH004/01_lwIP_Stack/src/core/memp.o
 .bss           0x2000553c       0x10 Dave/Generated/src/ETH004/01_lwIP_Stack/src/core/netconf.o
                0x2000553c                ARPTimer
                0x20005540                TCPTimer
                0x20005544                StatusCallback
                0x20005548                LinkCallback
 .bss           0x2000554c        0x1 Dave/Generated/src/ETH004/01_lwIP_Stack/src/core/netif.o
 .bss           0x2000554d        0x0 Dave/Generated/src/ETH004/01_lwIP_Stack/src/core/pbuf.o
 *fill*         0x2000554d        0x3 00
 .bss           0x20005550        0x4 Dave/Generated/src/ETH004/01_lwIP_Stack/src/core/raw.o
 .bss           0x20005554        0x0 Dave/Generated/src/ETH004/01_lwIP_Stack/src/core/stats.o
 .bss           0x20005554        0x0 Dave/Generated/src/ETH004/01_lwIP_Stack/src/core/sys.o
 .bss           0x20005554        0x1 Dave/Generated/src/ETH004/01_lwIP_Stack/src/core/tcp.o
 *fill*         0x20005555        0x3 00
 .bss           0x20005558       0x34 Dave/Generated/src/ETH004/01_lwIP_Stack/src/core/tcp_in.o
 .bss           0x2000558c        0x0 Dave/Generated/src/ETH004/01_lwIP_Stack/src/core/tcp_out.o
 .bss           0x2000558c        0x0 Dave/Generated/src/ETH004/01_lwIP_Stack/src/core/udp.o
 .bss           0x2000558c        0x0 Dave/Generated/src/ETH004/01_lwIP_Stack/src/core/ipv4/autoip.o
 .bss           0x2000558c        0x0 Dave/Generated/src/ETH004/01_lwIP_Stack/src/core/ipv4/icmp.o
 .bss           0x2000558c        0xc Dave/Generated/src/ETH004/01_lwIP_Stack/src/core/ipv4/igmp.o
 .bss           0x20005598       0x10 Dave/Generated/src/ETH004/01_lwIP_Stack/src/core/ipv4/inet.o
 .bss           0x200055a8        0x0 Dave/Generated/src/ETH004/01_lwIP_Stack/src/core/ipv4/inet_chksum.o
 .bss           0x200055a8        0x2 Dave/Generated/src/ETH004/01_lwIP_Stack/src/core/ipv4/ip.o
 .bss           0x200055aa        0x0 Dave/Generated/src/ETH004/01_lwIP_Stack/src/core/ipv4/ip_addr.o
 *fill*         0x200055aa        0x2 00
 .bss           0x200055ac      0x5e8 Dave/Generated/src/ETH004/01_lwIP_Stack/src/core/ipv4/ip_frag.o
 .bss           0x20005b94        0x0 Dave/Generated/src/ETH004/01_lwIP_Stack/src/api/api_lib.o
 .bss           0x20005b94        0x0 Dave/Generated/src/ETH004/01_lwIP_Stack/src/api/api_msg.o
 .bss           0x20005b94        0x0 Dave/Generated/src/ETH004/01_lwIP_Stack/src/api/err.o
 .bss           0x20005b94        0x0 Dave/Generated/src/ETH004/01_lwIP_Stack/src/api/netbuf.o
 .bss           0x20005b94        0x0 Dave/Generated/src/ETH004/01_lwIP_Stack/src/api/netdb.o
 .bss           0x20005b94        0x0 Dave/Generated/src/ETH004/01_lwIP_Stack/src/api/netifapi.o
 .bss           0x20005b94        0x0 Dave/Generated/src/ETH004/01_lwIP_Stack/src/api/sockets.o
 .bss           0x20005b94        0x0 Dave/Generated/src/ETH004/01_lwIP_Stack/src/api/tcpip.o
 .bss           0x20005b94        0x0 Dave/Generated/src/ETH004/01_lwIP_Stack/port/arch/sys/sys_arch.o
 .bss           0x20005b94        0x0 Dave/Generated/src/ETH002/EthernetPHY.o
 .bss           0x20005b94        0x0 Dave/Generated/src/ETH001/DMA_Descriptors.o
 .bss           0x20005b94        0x4 Dave/Generated/src/ETH001/synopGMAC_Dev.o
 .bss           0x20005b98        0x0 Dave/Generated/src/ETH001/synopGMAC_network_interface.o
 .bss           0x20005b98        0x0 Dave/Generated/src/ETH001/synopGMAC_plat.o
 .bss           0x20005b98        0x8 Dave/Generated/src/ETH001/synopGMAC_stack_interface.o
 .bss           0x20005ba0        0x0 Dave/Generated/src/DAVESupport/DAVE3.o
 .bss           0x20005ba0        0x0 Dave/Generated/src/DAVESupport/MULTIPLEXER.o
 .bss           0x20005ba0        0x0 Dave/Generated/src/CLK001/CLK001.o
 .bss           0x20005ba0        0x0 Dave/Generated/src/ADCGROUP001/ADCGroup001.o
 .bss           0x20005ba0        0x1 Dave/Generated/src/ADCGROUP001/ADCGroup001_Conf.o
                0x20005ba0                ADCGROUP001_DynamicHandle0
 .bss           0x20005ba1        0x0 Dave/Generated/src/ADCGLOB001/ADCGlob001.o
 .bss           0x20005ba1        0x1 Dave/Generated/src/ADCGLOB001/ADCGlob001_Conf.o
                0x20005ba1                ADCGLOB001_DynamicData0
 .bss           0x20005ba2        0x0 Dave/Generated/src/ADCCH001/ADCCH001.o
 .bss           0x20005ba2        0x4 Dave/Generated/src/ADCCH001/ADCCH001_Conf.o
                0x20005ba2                ADCCH001_DynamicHandle0
 .bss           0x20005ba6        0x0 Dave/Generated/src/ADC002/ADC002.o
 .bss           0x20005ba6        0x1 Dave/Generated/src/ADC002/ADC002_Conf.o
                0x20005ba6                ADC002_DynamicHandle0
 .bss           0x20005ba7        0x0 c:/dave-3.1.10/arm-gcc/bin/../lib/gcc/arm-none-eabi/4.7.4/armv7e-m\libgcc.a(_arm_addsubdf3.o)
 .bss           0x20005ba7        0x0 c:/dave-3.1.10/arm-gcc/bin/../lib/gcc/arm-none-eabi/4.7.4/armv7e-m\libgcc.a(_arm_muldivdf3.o)
 .bss           0x20005ba7        0x0 c:/dave-3.1.10/arm-gcc/bin/../lib/gcc/arm-none-eabi/4.7.4/armv7e-m\libgcc.a(_arm_fixunsdfsi.o)
 .bss           0x20005ba7        0x0 c:/dave-3.1.10/arm-gcc/bin/../lib/gcc/arm-none-eabi/4.7.4/../../../../arm-none-eabi/lib/armv7e-m\libc.a(lib_a-calloc.o)
 .bss           0x20005ba7        0x0 c:/dave-3.1.10/arm-gcc/bin/../lib/gcc/arm-none-eabi/4.7.4/../../../../arm-none-eabi/lib/armv7e-m\libc.a(lib_a-errno.o)
 .bss           0x20005ba7        0x0 c:/dave-3.1.10/arm-gcc/bin/../lib/gcc/arm-none-eabi/4.7.4/../../../../arm-none-eabi/lib/armv7e-m\libc.a(lib_a-fclose.o)
 .bss           0x20005ba7        0x0 c:/dave-3.1.10/arm-gcc/bin/../lib/gcc/arm-none-eabi/4.7.4/../../../../arm-none-eabi/lib/armv7e-m\libc.a(lib_a-fflush.o)
 .bss           0x20005ba7        0x0 c:/dave-3.1.10/arm-gcc/bin/../lib/gcc/arm-none-eabi/4.7.4/../../../../arm-none-eabi/lib/armv7e-m\libc.a(lib_a-findfp.o)
 .bss           0x20005ba7        0x0 c:/dave-3.1.10/arm-gcc/bin/../lib/gcc/arm-none-eabi/4.7.4/../../../../arm-none-eabi/lib/armv7e-m\libc.a(lib_a-fopen.o)
 .bss           0x20005ba7        0x0 c:/dave-3.1.10/arm-gcc/bin/../lib/gcc/arm-none-eabi/4.7.4/../../../../arm-none-eabi/lib/armv7e-m\libc.a(lib_a-fread.o)
 .bss           0x20005ba7        0x0 c:/dave-3.1.10/arm-gcc/bin/../lib/gcc/arm-none-eabi/4.7.4/../../../../arm-none-eabi/lib/armv7e-m\libc.a(lib_a-fseek.o)
 .bss           0x20005ba7        0x0 c:/dave-3.1.10/arm-gcc/bin/../lib/gcc/arm-none-eabi/4.7.4/../../../../arm-none-eabi/lib/armv7e-m\libc.a(lib_a-fstatr.o)
 .bss           0x20005ba7        0x0 c:/dave-3.1.10/arm-gcc/bin/../lib/gcc/arm-none-eabi/4.7.4/../../../../arm-none-eabi/lib/armv7e-m\libc.a(lib_a-fwalk.o)
 .bss           0x20005ba7        0x0 c:/dave-3.1.10/arm-gcc/bin/../lib/gcc/arm-none-eabi/4.7.4/../../../../arm-none-eabi/lib/armv7e-m\libc.a(lib_a-impure.o)
 .bss           0x20005ba7        0x0 c:/dave-3.1.10/arm-gcc/bin/../lib/gcc/arm-none-eabi/4.7.4/../../../../arm-none-eabi/lib/armv7e-m\libc.a(lib_a-init.o)
 .bss           0x20005ba7        0x0 c:/dave-3.1.10/arm-gcc/bin/../lib/gcc/arm-none-eabi/4.7.4/../../../../arm-none-eabi/lib/armv7e-m\libc.a(lib_a-makebuf.o)
 .bss           0x20005ba7        0x0 c:/dave-3.1.10/arm-gcc/bin/../lib/gcc/arm-none-eabi/4.7.4/../../../../arm-none-eabi/lib/armv7e-m\libc.a(lib_a-malloc.o)
 .bss           0x20005ba7        0x0 c:/dave-3.1.10/arm-gcc/bin/../lib/gcc/arm-none-eabi/4.7.4/../../../../arm-none-eabi/lib/armv7e-m\libc.a(lib_a-memcpy.o)
 .bss           0x20005ba7        0x0 c:/dave-3.1.10/arm-gcc/bin/../lib/gcc/arm-none-eabi/4.7.4/../../../../arm-none-eabi/lib/armv7e-m\libc.a(lib_a-memmove.o)
 .bss           0x20005ba7        0x0 c:/dave-3.1.10/arm-gcc/bin/../lib/gcc/arm-none-eabi/4.7.4/../../../../arm-none-eabi/lib/armv7e-m\libc.a(lib_a-memset.o)
 .bss           0x20005ba7        0x0 c:/dave-3.1.10/arm-gcc/bin/../lib/gcc/arm-none-eabi/4.7.4/../../../../arm-none-eabi/lib/armv7e-m\libc.a(lib_a-mktime.o)
 .bss           0x20005ba7        0x0 c:/dave-3.1.10/arm-gcc/bin/../lib/gcc/arm-none-eabi/4.7.4/../../../../arm-none-eabi/lib/armv7e-m\libc.a(lib_a-mktm_r.o)
 .bss           0x20005ba7        0x0 c:/dave-3.1.10/arm-gcc/bin/../lib/gcc/arm-none-eabi/4.7.4/../../../../arm-none-eabi/lib/armv7e-m\libc.a(lib_a-openr.o)
 .bss           0x20005ba7        0x0 c:/dave-3.1.10/arm-gcc/bin/../lib/gcc/arm-none-eabi/4.7.4/../../../../arm-none-eabi/lib/armv7e-m\libc.a(lib_a-reent.o)
 .bss           0x20005ba7        0x0 c:/dave-3.1.10/arm-gcc/bin/../lib/gcc/arm-none-eabi/4.7.4/../../../../arm-none-eabi/lib/armv7e-m\libc.a(lib_a-refill.o)
 .bss           0x20005ba7        0x0 c:/dave-3.1.10/arm-gcc/bin/../lib/gcc/arm-none-eabi/4.7.4/../../../../arm-none-eabi/lib/armv7e-m\libc.a(lib_a-stdio.o)
 .bss           0x20005ba7        0x0 c:/dave-3.1.10/arm-gcc/bin/../lib/gcc/arm-none-eabi/4.7.4/../../../../arm-none-eabi/lib/armv7e-m\libc.a(lib_a-strchr.o)
 .bss           0x20005ba7        0x0 c:/dave-3.1.10/arm-gcc/bin/../lib/gcc/arm-none-eabi/4.7.4/../../../../arm-none-eabi/lib/armv7e-m\libc.a(lib_a-strcmp.o)
 .bss           0x20005ba7        0x0 c:/dave-3.1.10/arm-gcc/bin/../lib/gcc/arm-none-eabi/4.7.4/../../../../arm-none-eabi/lib/armv7e-m\libc.a(lib_a-strcpy.o)
 .bss           0x20005ba7        0x0 c:/dave-3.1.10/arm-gcc/bin/../lib/gcc/arm-none-eabi/4.7.4/../../../../arm-none-eabi/lib/armv7e-m\libc.a(lib_a-strlen.o)
 .bss           0x20005ba7        0x0 c:/dave-3.1.10/arm-gcc/bin/../lib/gcc/arm-none-eabi/4.7.4/../../../../arm-none-eabi/lib/armv7e-m\libc.a(lib_a-strncmp.o)
 .bss           0x20005ba7        0x0 c:/dave-3.1.10/arm-gcc/bin/../lib/gcc/arm-none-eabi/4.7.4/../../../../arm-none-eabi/lib/armv7e-m\libc.a(lib_a-strstr.o)
 .bss           0x20005ba7        0x0 c:/dave-3.1.10/arm-gcc/bin/../lib/gcc/arm-none-eabi/4.7.4/../../../../arm-none-eabi/lib/armv7e-m\libc.a(lib_a-sysstat.o)
 .bss           0x20005ba7        0x0 c:/dave-3.1.10/arm-gcc/bin/../lib/gcc/arm-none-eabi/4.7.4/../../../../arm-none-eabi/lib/armv7e-m\libc.a(lib_a-tzlock.o)
 .bss           0x20005ba7        0x0 c:/dave-3.1.10/arm-gcc/bin/../lib/gcc/arm-none-eabi/4.7.4/../../../../arm-none-eabi/lib/armv7e-m\libc.a(lib_a-tzvars.o)
 .bss           0x20005ba7        0x0 c:/dave-3.1.10/arm-gcc/bin/../lib/gcc/arm-none-eabi/4.7.4/../../../../arm-none-eabi/lib/armv7e-m\libc.a(lib_a-closer.o)
 .bss           0x20005ba7        0x0 c:/dave-3.1.10/arm-gcc/bin/../lib/gcc/arm-none-eabi/4.7.4/../../../../arm-none-eabi/lib/armv7e-m\libc.a(lib_a-div.o)
 .bss           0x20005ba7        0x0 c:/dave-3.1.10/arm-gcc/bin/../lib/gcc/arm-none-eabi/4.7.4/../../../../arm-none-eabi/lib/armv7e-m\libc.a(lib_a-flags.o)
 .bss           0x20005ba7        0x0 c:/dave-3.1.10/arm-gcc/bin/../lib/gcc/arm-none-eabi/4.7.4/../../../../arm-none-eabi/lib/armv7e-m\libc.a(lib_a-gettzinfo.o)
 .bss           0x20005ba7        0x0 c:/dave-3.1.10/arm-gcc/bin/../lib/gcc/arm-none-eabi/4.7.4/../../../../arm-none-eabi/lib/armv7e-m\libc.a(lib_a-isattyr.o)
 .bss           0x20005ba7        0x0 c:/dave-3.1.10/arm-gcc/bin/../lib/gcc/arm-none-eabi/4.7.4/../../../../arm-none-eabi/lib/armv7e-m\libc.a(lib_a-lseekr.o)
 .bss           0x20005ba7        0x0 c:/dave-3.1.10/arm-gcc/bin/../lib/gcc/arm-none-eabi/4.7.4/../../../../arm-none-eabi/lib/armv7e-m\libc.a(lib_a-memchr.o)
 .bss           0x20005ba7        0x0 c:/dave-3.1.10/arm-gcc/bin/../lib/gcc/arm-none-eabi/4.7.4/../../../../arm-none-eabi/lib/armv7e-m\libc.a(lib_a-memcmp.o)
 .bss           0x20005ba7        0x0 c:/dave-3.1.10/arm-gcc/bin/../lib/gcc/arm-none-eabi/4.7.4/../../../../arm-none-eabi/lib/armv7e-m\libc.a(lib_a-statr.o)
 *fill*         0x20005ba7        0x1 00
 .bss           0x20005ba8        0xc C:\DAVE-3.1.10\eclipse\/../CMSIS/Infineon/Lib\libxmclibcstubs.a(System_LibcStubs.o)
                0x20005ba8                __dso_handle
 *(.bss*)
 .bss._daylight
                0x20005bb4        0x4 c:/dave-3.1.10/arm-gcc/bin/../lib/gcc/arm-none-eabi/4.7.4/../../../../arm-none-eabi/lib/armv7e-m\libc.a(lib_a-tzvars.o)
                0x20005bb4                _daylight
 .bss._timezone
                0x20005bb8        0x4 c:/dave-3.1.10/arm-gcc/bin/../lib/gcc/arm-none-eabi/4.7.4/../../../../arm-none-eabi/lib/armv7e-m\libc.a(lib_a-tzvars.o)
                0x20005bb8                _timezone
 *(EXCLUDE_FILE(*DMA_Descriptors.o) COMMON)
 COMMON         0x20005bbc        0x8 Main.o
                0x20005bbc                CGI_TAB
 COMMON         0x20005bc4      0x118 Dave/Generated/src/WEBSERVER001/HTTPServer/fs.o
                0x20005bc4                fs_memory
 COMMON         0x20005cdc      0x234 Dave/Generated/src/WEBSERVER001/HTTPServer/httpd.o
                0x20005cdc                myfsObject
 COMMON         0x20005f10      0x400 Dave/Generated/src/SYSTM001/SYSTM001.o
                0x20005f10                TimerTbl
 COMMON         0x20006310       0x40 Dave/Generated/src/SDMMC003/SDMMC003_Private.o
                0x20006310                NormalIntStatus
                0x20006314                SDMMC003_ReturnStatus
                0x20006318                SDMMC003_ISRContext
                0x2000631e                ErrorIntStatus
                0x20006320                SDMMC003_CardInfo
 COMMON         0x20006350       0x88 Dave/Generated/src/NVIC_SCU001/NVIC_SCU001.o
                0x20006350                NVIC_SCU001_Handle0
 COMMON         0x200063d8       0x12 Dave/Generated/src/GMM001/GMM001.o
                0x200063d8                GMM001_handle1
                0x200063de                GMM001_handle2
                0x200063e4                GMM001_handle0
 *fill*         0x200063ea        0x2 00
 COMMON         0x200063ec        0x4 Dave/Generated/src/FATFS004/FATFS004.o
                0x200063ec                FATFS004_UnusedStatus
 COMMON         0x200063f0        0x6 Dave/Generated/src/ETH004/01_lwIP_Stack/src/netif/ethernetif.o
                0x200063f0                MACaddr
 *fill*         0x200063f6        0x2 00
 COMMON         0x200063f8       0x3c Dave/Generated/src/ETH004/01_lwIP_Stack/src/core/netconf.o
                0x200063f8                netif
                0x2000642c                lwip250mStimer
                0x20006430                Eth_TimerHandle
 COMMON         0x20006434        0x8 Dave/Generated/src/ETH004/01_lwIP_Stack/src/core/netif.o
                0x20006434                netif_list
                0x20006438                netif_default
 COMMON         0x2000643c       0x18 Dave/Generated/src/ETH004/01_lwIP_Stack/src/core/tcp.o
                0x2000643c                tcp_active_pcbs
                0x20006440                tcp_ticks
                0x20006444                tcp_listen_pcbs
                0x20006448                tcp_tmp_pcb
                0x2000644c                tcp_bound_pcbs
                0x20006450                tcp_tw_pcbs
 COMMON         0x20006454        0x4 Dave/Generated/src/ETH004/01_lwIP_Stack/src/core/tcp_in.o
                0x20006454                tcp_input_pcb
 COMMON         0x20006458        0x4 Dave/Generated/src/ETH004/01_lwIP_Stack/src/core/udp.o
                0x20006458                udp_pcbs
 COMMON         0x2000645c        0x8 Dave/Generated/src/ETH004/01_lwIP_Stack/src/core/ipv4/ip.o
                0x2000645c                current_netif
                0x20006460                current_header
 COMMON         0x20006464        0x4 Dave/Generated/src/ETH002/EthernetPHY.o
                0x20006464                PHYtimerCallback
 COMMON         0x20006468       0xcc Dave/Generated/src/ETH001/synopGMAC_stack_interface.o
                0x20006468                GMACdevice
                0x2000652c                GMAC_Power_down
                0x20006530                synopGMACdev
 COMMON         0x20006534        0x4 c:/dave-3.1.10/arm-gcc/bin/../lib/gcc/arm-none-eabi/4.7.4/../../../../arm-none-eabi/lib/armv7e-m\libc.a(lib_a-reent.o)
                0x20006534                errno
 *(.gnu.linkonce.b*)
                0x20006538                __Xmc4500_eBSS = ALIGN (0x4)
                0x00005d38                __Xmc4500_BSS_Size = (__Xmc4500_eBSS - __Xmc4500_sBSS)

.data           0x20006540      0x564 load address 0x0c013450
                0x20006540                __Xmc4500_sData = .
 *(.data)
 .data          0x20006540        0x0 Startup/startup_XMC4500.o
 .data          0x20006540        0x4 Startup/system_XMC4500.o
                0x20006540                SystemCoreClock
 .data          0x20006544        0x8 Main.o
                0x20006544                TAGS
                0x20006548                TAGCHAR
 .data          0x2000654c        0x0 Dave/Generated/src/WEBSERVER001/HTTPServer/fs.o
 .data          0x2000654c        0x0 Dave/Generated/src/WEBSERVER001/HTTPServer/fsdata.o
 .data          0x2000654c       0x10 Dave/Generated/src/WEBSERVER001/HTTPServer/httpd.o
                0x2000654c                g_pcSSIExtensions
 .data          0x2000655c        0x0 Dave/Generated/src/SYSTM001/SYSTM001.o
 .data          0x2000655c        0x0 Dave/Generated/src/SLTHA003/SLTHA003.o
 .data          0x2000655c        0x0 Dave/Generated/src/SLTHA003/SLTHA003_Conf.o
 .data          0x2000655c       0x50 Dave/Generated/src/SLTHA001/SLTHA001.o
                0x20006560                ErrorCodes
 .data          0x200065ac        0x0 Dave/Generated/src/SLTHA001/SLTHA001_Conf.o
 .data          0x200065ac        0x0 Dave/Generated/src/SDMMC003/SDMMC003.o
 .data          0x200065ac        0x0 Dave/Generated/src/SDMMC003/SDMMC003_Conf.o
 .data          0x200065ac        0x0 Dave/Generated/src/SDMMC003/SDMMC003_Private.o
 .data          0x200065ac        0x0 Dave/Generated/src/SDMMC001/SDMMC001.o
 .data          0x200065ac        0x0 Dave/Generated/src/SDMMC001/SDMMC001_Conf.o
 .data          0x200065ac        0x0 Dave/Generated/src/RTC001/RTC001.o
 .data          0x200065ac        0x8 Dave/Generated/src/RTC001/RTC001_Conf.o
                0x200065ac                timeptr1
 .data          0x200065b4        0x0 Dave/Generated/src/RESET001/RESET001.o
 .data          0x200065b4        0x0 Dave/Generated/src/NVIC_SCU001/NVIC_SCU001.o
 .data          0x200065b4        0x0 Dave/Generated/src/LMM001/LMM001.o
 .data          0x200065b4        0x0 Dave/Generated/src/LMM001/LMM001_Conf.o
 .data          0x200065b4        0x0 Dave/Generated/src/LIBS/CCU8PWMLIB.o
 .data          0x200065b4        0x0 Dave/Generated/src/IO004/IO004.o
 .data          0x200065b4        0x0 Dave/Generated/src/IO004/IO004_Conf.o
 .data          0x200065b4        0x0 Dave/Generated/src/IO001/IO001.o
 .data          0x200065b4        0x0 Dave/Generated/src/IO001/IO001_Conf.o
 .data          0x200065b4        0x0 Dave/Generated/src/GMM001/GMM001.o
 .data          0x200065b4        0x0 Dave/Generated/src/GMM001/GMM001_Conf.o
 .data          0x200065b4        0xa Dave/Generated/src/FATFS004/FATFS004.o
                0x200065b4                FATFS004_StatusCodes
                0x200065b9                FATFS004_ErrorCodes
 .data          0x200065be        0x0 Dave/Generated/src/FATFS004/FATFS004_Conf.o
 .data          0x200065be        0x0 Dave/Generated/src/FATFS002/FATFS002_Conf.o
 .data          0x200065be        0x0 Dave/Generated/src/FATFS002/syscall.o
 .data          0x200065be        0x0 Dave/Generated/src/FATFS002/Src/ff.o
 .data          0x200065be       0x12 Dave/Generated/src/ETH004/ETH004_Conf.o
                0x200065be                GWpos4
                0x200065c0                GWpos2
                0x200065c2                GWpos1
                0x200065c4                Netpos3
                0x200065c6                Netpos2
                0x200065c8                Netpos1
                0x200065ca                IPpos4
                0x200065cc                IPpos2
                0x200065ce                IPpos1
 .data          0x200065d0        0x0 Dave/Generated/src/ETH004/01_lwIP_Stack/src/netif/etharp.o
 .data          0x200065d0        0x0 Dave/Generated/src/ETH004/01_lwIP_Stack/src/netif/ethernetif.o
 .data          0x200065d0        0x0 Dave/Generated/src/ETH004/01_lwIP_Stack/src/netif/loopif.o
 .data          0x200065d0        0x0 Dave/Generated/src/ETH004/01_lwIP_Stack/src/netif/slipif.o
 .data          0x200065d0        0x0 Dave/Generated/src/ETH004/01_lwIP_Stack/src/core/dhcp.o
 .data          0x200065d0        0x0 Dave/Generated/src/ETH004/01_lwIP_Stack/src/core/dns.o
 .data          0x200065d0        0x0 Dave/Generated/src/ETH004/01_lwIP_Stack/src/core/init.o
 .data          0x200065d0        0x0 Dave/Generated/src/ETH004/01_lwIP_Stack/src/core/mem.o
 .data          0x200065d0        0x0 Dave/Generated/src/ETH004/01_lwIP_Stack/src/core/memp.o
 .data          0x200065d0        0x1 Dave/Generated/src/ETH004/01_lwIP_Stack/src/core/netconf.o
                0x200065d0                EthernetTimer
 .data          0x200065d1        0x0 Dave/Generated/src/ETH004/01_lwIP_Stack/src/core/netif.o
 .data          0x200065d1        0x0 Dave/Generated/src/ETH004/01_lwIP_Stack/src/core/pbuf.o
 .data          0x200065d1        0x0 Dave/Generated/src/ETH004/01_lwIP_Stack/src/core/raw.o
 .data          0x200065d1        0x0 Dave/Generated/src/ETH004/01_lwIP_Stack/src/core/stats.o
 .data          0x200065d1        0x0 Dave/Generated/src/ETH004/01_lwIP_Stack/src/core/sys.o
 *fill*         0x200065d1        0x3 00
 .data          0x200065d4       0x34 Dave/Generated/src/ETH004/01_lwIP_Stack/src/core/tcp.o
                0x200065dc                tcp_state_str
 .data          0x20006608        0x0 Dave/Generated/src/ETH004/01_lwIP_Stack/src/core/tcp_in.o
 .data          0x20006608        0x0 Dave/Generated/src/ETH004/01_lwIP_Stack/src/core/tcp_out.o
 .data          0x20006608        0x0 Dave/Generated/src/ETH004/01_lwIP_Stack/src/core/udp.o
 .data          0x20006608        0x0 Dave/Generated/src/ETH004/01_lwIP_Stack/src/core/ipv4/autoip.o
 .data          0x20006608        0x0 Dave/Generated/src/ETH004/01_lwIP_Stack/src/core/ipv4/icmp.o
 .data          0x20006608        0x0 Dave/Generated/src/ETH004/01_lwIP_Stack/src/core/ipv4/igmp.o
 .data          0x20006608        0x0 Dave/Generated/src/ETH004/01_lwIP_Stack/src/core/ipv4/inet.o
 .data          0x20006608        0x0 Dave/Generated/src/ETH004/01_lwIP_Stack/src/core/ipv4/inet_chksum.o
 .data          0x20006608        0x0 Dave/Generated/src/ETH004/01_lwIP_Stack/src/core/ipv4/ip.o
 .data          0x20006608        0x0 Dave/Generated/src/ETH004/01_lwIP_Stack/src/core/ipv4/ip_addr.o
 .data          0x20006608        0x0 Dave/Generated/src/ETH004/01_lwIP_Stack/src/core/ipv4/ip_frag.o
 .data          0x20006608        0x0 Dave/Generated/src/ETH004/01_lwIP_Stack/src/api/api_lib.o
 .data          0x20006608        0x0 Dave/Generated/src/ETH004/01_lwIP_Stack/src/api/api_msg.o
 .data          0x20006608        0x0 Dave/Generated/src/ETH004/01_lwIP_Stack/src/api/err.o
 .data          0x20006608        0x0 Dave/Generated/src/ETH004/01_lwIP_Stack/src/api/netbuf.o
 .data          0x20006608        0x0 Dave/Generated/src/ETH004/01_lwIP_Stack/src/api/netdb.o
 .data          0x20006608        0x0 Dave/Generated/src/ETH004/01_lwIP_Stack/src/api/netifapi.o
 .data          0x20006608        0x0 Dave/Generated/src/ETH004/01_lwIP_Stack/src/api/sockets.o
 .data          0x20006608        0x0 Dave/Generated/src/ETH004/01_lwIP_Stack/src/api/tcpip.o
 .data          0x20006608        0x0 Dave/Generated/src/ETH004/01_lwIP_Stack/port/arch/sys/sys_arch.o
 .data          0x20006608        0x0 Dave/Generated/src/ETH002/EthernetPHY.o
 .data          0x20006608        0x0 Dave/Generated/src/ETH001/DMA_Descriptors.o
 .data          0x20006608        0x0 Dave/Generated/src/ETH001/synopGMAC_Dev.o
 .data          0x20006608        0x0 Dave/Generated/src/ETH001/synopGMAC_network_interface.o
 .data          0x20006608        0x0 Dave/Generated/src/ETH001/synopGMAC_plat.o
 .data          0x20006608        0x0 Dave/Generated/src/ETH001/synopGMAC_stack_interface.o
 .data          0x20006608        0x0 Dave/Generated/src/DAVESupport/DAVE3.o
 .data          0x20006608        0x0 Dave/Generated/src/DAVESupport/MULTIPLEXER.o
 .data          0x20006608        0x0 Dave/Generated/src/CLK001/CLK001.o
 .data          0x20006608        0x0 Dave/Generated/src/ADCGROUP001/ADCGroup001.o
 .data          0x20006608        0x0 Dave/Generated/src/ADCGROUP001/ADCGroup001_Conf.o
 .data          0x20006608        0x0 Dave/Generated/src/ADCGLOB001/ADCGlob001.o
 .data          0x20006608        0x0 Dave/Generated/src/ADCGLOB001/ADCGlob001_Conf.o
 .data          0x20006608        0x0 Dave/Generated/src/ADCCH001/ADCCH001.o
 .data          0x20006608        0x0 Dave/Generated/src/ADCCH001/ADCCH001_Conf.o
 .data          0x20006608        0x0 Dave/Generated/src/ADC002/ADC002.o
 .data          0x20006608       0x28 Dave/Generated/src/ADC002/ADC002_Conf.o
                0x20006608                ADC002_QueueEntryHandle0
 .data          0x20006630        0x0 c:/dave-3.1.10/arm-gcc/bin/../lib/gcc/arm-none-eabi/4.7.4/armv7e-m\libgcc.a(_arm_addsubdf3.o)
 .data          0x20006630        0x0 c:/dave-3.1.10/arm-gcc/bin/../lib/gcc/arm-none-eabi/4.7.4/armv7e-m\libgcc.a(_arm_muldivdf3.o)
 .data          0x20006630        0x0 c:/dave-3.1.10/arm-gcc/bin/../lib/gcc/arm-none-eabi/4.7.4/armv7e-m\libgcc.a(_arm_fixunsdfsi.o)
 .data          0x20006630        0x0 c:/dave-3.1.10/arm-gcc/bin/../lib/gcc/arm-none-eabi/4.7.4/../../../../arm-none-eabi/lib/armv7e-m\libc.a(lib_a-calloc.o)
 .data          0x20006630        0x0 c:/dave-3.1.10/arm-gcc/bin/../lib/gcc/arm-none-eabi/4.7.4/../../../../arm-none-eabi/lib/armv7e-m\libc.a(lib_a-errno.o)
 .data          0x20006630        0x0 c:/dave-3.1.10/arm-gcc/bin/../lib/gcc/arm-none-eabi/4.7.4/../../../../arm-none-eabi/lib/armv7e-m\libc.a(lib_a-fclose.o)
 .data          0x20006630        0x0 c:/dave-3.1.10/arm-gcc/bin/../lib/gcc/arm-none-eabi/4.7.4/../../../../arm-none-eabi/lib/armv7e-m\libc.a(lib_a-fflush.o)
 .data          0x20006630        0x0 c:/dave-3.1.10/arm-gcc/bin/../lib/gcc/arm-none-eabi/4.7.4/../../../../arm-none-eabi/lib/armv7e-m\libc.a(lib_a-findfp.o)
 .data          0x20006630        0x0 c:/dave-3.1.10/arm-gcc/bin/../lib/gcc/arm-none-eabi/4.7.4/../../../../arm-none-eabi/lib/armv7e-m\libc.a(lib_a-fopen.o)
 .data          0x20006630        0x0 c:/dave-3.1.10/arm-gcc/bin/../lib/gcc/arm-none-eabi/4.7.4/../../../../arm-none-eabi/lib/armv7e-m\libc.a(lib_a-fread.o)
 .data          0x20006630        0x0 c:/dave-3.1.10/arm-gcc/bin/../lib/gcc/arm-none-eabi/4.7.4/../../../../arm-none-eabi/lib/armv7e-m\libc.a(lib_a-fseek.o)
 .data          0x20006630        0x0 c:/dave-3.1.10/arm-gcc/bin/../lib/gcc/arm-none-eabi/4.7.4/../../../../arm-none-eabi/lib/armv7e-m\libc.a(lib_a-fstatr.o)
 .data          0x20006630        0x0 c:/dave-3.1.10/arm-gcc/bin/../lib/gcc/arm-none-eabi/4.7.4/../../../../arm-none-eabi/lib/armv7e-m\libc.a(lib_a-fwalk.o)
 .data          0x20006630        0x0 c:/dave-3.1.10/arm-gcc/bin/../lib/gcc/arm-none-eabi/4.7.4/../../../../arm-none-eabi/lib/armv7e-m\libc.a(lib_a-impure.o)
 .data          0x20006630        0x0 c:/dave-3.1.10/arm-gcc/bin/../lib/gcc/arm-none-eabi/4.7.4/../../../../arm-none-eabi/lib/armv7e-m\libc.a(lib_a-init.o)
 .data          0x20006630        0x0 c:/dave-3.1.10/arm-gcc/bin/../lib/gcc/arm-none-eabi/4.7.4/../../../../arm-none-eabi/lib/armv7e-m\libc.a(lib_a-makebuf.o)
 .data          0x20006630        0x0 c:/dave-3.1.10/arm-gcc/bin/../lib/gcc/arm-none-eabi/4.7.4/../../../../arm-none-eabi/lib/armv7e-m\libc.a(lib_a-malloc.o)
 .data          0x20006630        0x0 c:/dave-3.1.10/arm-gcc/bin/../lib/gcc/arm-none-eabi/4.7.4/../../../../arm-none-eabi/lib/armv7e-m\libc.a(lib_a-memcpy.o)
 .data          0x20006630        0x0 c:/dave-3.1.10/arm-gcc/bin/../lib/gcc/arm-none-eabi/4.7.4/../../../../arm-none-eabi/lib/armv7e-m\libc.a(lib_a-memmove.o)
 .data          0x20006630        0x0 c:/dave-3.1.10/arm-gcc/bin/../lib/gcc/arm-none-eabi/4.7.4/../../../../arm-none-eabi/lib/armv7e-m\libc.a(lib_a-memset.o)
 .data          0x20006630        0x0 c:/dave-3.1.10/arm-gcc/bin/../lib/gcc/arm-none-eabi/4.7.4/../../../../arm-none-eabi/lib/armv7e-m\libc.a(lib_a-mktime.o)
 .data          0x20006630        0x0 c:/dave-3.1.10/arm-gcc/bin/../lib/gcc/arm-none-eabi/4.7.4/../../../../arm-none-eabi/lib/armv7e-m\libc.a(lib_a-mktm_r.o)
 .data          0x20006630        0x0 c:/dave-3.1.10/arm-gcc/bin/../lib/gcc/arm-none-eabi/4.7.4/../../../../arm-none-eabi/lib/armv7e-m\libc.a(lib_a-openr.o)
 .data          0x20006630        0x0 c:/dave-3.1.10/arm-gcc/bin/../lib/gcc/arm-none-eabi/4.7.4/../../../../arm-none-eabi/lib/armv7e-m\libc.a(lib_a-reent.o)
 .data          0x20006630        0x0 c:/dave-3.1.10/arm-gcc/bin/../lib/gcc/arm-none-eabi/4.7.4/../../../../arm-none-eabi/lib/armv7e-m\libc.a(lib_a-refill.o)
 .data          0x20006630        0x0 c:/dave-3.1.10/arm-gcc/bin/../lib/gcc/arm-none-eabi/4.7.4/../../../../arm-none-eabi/lib/armv7e-m\libc.a(lib_a-stdio.o)
 .data          0x20006630        0x0 c:/dave-3.1.10/arm-gcc/bin/../lib/gcc/arm-none-eabi/4.7.4/../../../../arm-none-eabi/lib/armv7e-m\libc.a(lib_a-strchr.o)
 .data          0x20006630        0x0 c:/dave-3.1.10/arm-gcc/bin/../lib/gcc/arm-none-eabi/4.7.4/../../../../arm-none-eabi/lib/armv7e-m\libc.a(lib_a-strcmp.o)
 .data          0x20006630        0x0 c:/dave-3.1.10/arm-gcc/bin/../lib/gcc/arm-none-eabi/4.7.4/../../../../arm-none-eabi/lib/armv7e-m\libc.a(lib_a-strcpy.o)
 .data          0x20006630        0x0 c:/dave-3.1.10/arm-gcc/bin/../lib/gcc/arm-none-eabi/4.7.4/../../../../arm-none-eabi/lib/armv7e-m\libc.a(lib_a-strlen.o)
 .data          0x20006630        0x0 c:/dave-3.1.10/arm-gcc/bin/../lib/gcc/arm-none-eabi/4.7.4/../../../../arm-none-eabi/lib/armv7e-m\libc.a(lib_a-strncmp.o)
 .data          0x20006630        0x0 c:/dave-3.1.10/arm-gcc/bin/../lib/gcc/arm-none-eabi/4.7.4/../../../../arm-none-eabi/lib/armv7e-m\libc.a(lib_a-strstr.o)
 .data          0x20006630        0x0 c:/dave-3.1.10/arm-gcc/bin/../lib/gcc/arm-none-eabi/4.7.4/../../../../arm-none-eabi/lib/armv7e-m\libc.a(lib_a-sysstat.o)
 .data          0x20006630        0x0 c:/dave-3.1.10/arm-gcc/bin/../lib/gcc/arm-none-eabi/4.7.4/../../../../arm-none-eabi/lib/armv7e-m\libc.a(lib_a-tzlock.o)
 .data          0x20006630        0x0 c:/dave-3.1.10/arm-gcc/bin/../lib/gcc/arm-none-eabi/4.7.4/../../../../arm-none-eabi/lib/armv7e-m\libc.a(lib_a-tzvars.o)
 .data          0x20006630        0x0 c:/dave-3.1.10/arm-gcc/bin/../lib/gcc/arm-none-eabi/4.7.4/../../../../arm-none-eabi/lib/armv7e-m\libc.a(lib_a-closer.o)
 .data          0x20006630        0x0 c:/dave-3.1.10/arm-gcc/bin/../lib/gcc/arm-none-eabi/4.7.4/../../../../arm-none-eabi/lib/armv7e-m\libc.a(lib_a-div.o)
 .data          0x20006630        0x0 c:/dave-3.1.10/arm-gcc/bin/../lib/gcc/arm-none-eabi/4.7.4/../../../../arm-none-eabi/lib/armv7e-m\libc.a(lib_a-flags.o)
 .data          0x20006630        0x0 c:/dave-3.1.10/arm-gcc/bin/../lib/gcc/arm-none-eabi/4.7.4/../../../../arm-none-eabi/lib/armv7e-m\libc.a(lib_a-gettzinfo.o)
 .data          0x20006630        0x0 c:/dave-3.1.10/arm-gcc/bin/../lib/gcc/arm-none-eabi/4.7.4/../../../../arm-none-eabi/lib/armv7e-m\libc.a(lib_a-isattyr.o)
 .data          0x20006630        0x0 c:/dave-3.1.10/arm-gcc/bin/../lib/gcc/arm-none-eabi/4.7.4/../../../../arm-none-eabi/lib/armv7e-m\libc.a(lib_a-lseekr.o)
 .data          0x20006630        0x0 c:/dave-3.1.10/arm-gcc/bin/../lib/gcc/arm-none-eabi/4.7.4/../../../../arm-none-eabi/lib/armv7e-m\libc.a(lib_a-memchr.o)
 .data          0x20006630        0x0 c:/dave-3.1.10/arm-gcc/bin/../lib/gcc/arm-none-eabi/4.7.4/../../../../arm-none-eabi/lib/armv7e-m\libc.a(lib_a-memcmp.o)
 .data          0x20006630        0x0 c:/dave-3.1.10/arm-gcc/bin/../lib/gcc/arm-none-eabi/4.7.4/../../../../arm-none-eabi/lib/armv7e-m\libc.a(lib_a-statr.o)
 .data          0x20006630        0x0 C:\DAVE-3.1.10\eclipse\/../CMSIS/Infineon/Lib\libxmclibcstubs.a(System_LibcStubs.o)
 *(.data*)
 .data.impure_data
                0x20006630      0x428 c:/dave-3.1.10/arm-gcc/bin/../lib/gcc/arm-none-eabi/4.7.4/../../../../arm-none-eabi/lib/armv7e-m\libc.a(lib_a-impure.o)
 .data._impure_ptr
                0x20006a58        0x4 c:/dave-3.1.10/arm-gcc/bin/../lib/gcc/arm-none-eabi/4.7.4/../../../../arm-none-eabi/lib/armv7e-m\libc.a(lib_a-impure.o)
                0x20006a58                _impure_ptr
 .data._tzname  0x20006a5c        0x8 c:/dave-3.1.10/arm-gcc/bin/../lib/gcc/arm-none-eabi/4.7.4/../../../../arm-none-eabi/lib/armv7e-m\libc.a(lib_a-tzvars.o)
                0x20006a5c                _tzname
 .data.tzinfo   0x20006a64       0x40 c:/dave-3.1.10/arm-gcc/bin/../lib/gcc/arm-none-eabi/4.7.4/../../../../arm-none-eabi/lib/armv7e-m\libc.a(lib_a-gettzinfo.o)
 *(*.data)
 *(.gnu.linkonce.d*)
                0x20006aa4                __Xmc4500_eData = ALIGN (0x4)
                0x00000564                __Xmc4500_Data_Size = (__Xmc4500_eData - __Xmc4500_sData)
                0x20006aa8                __Xmc4500_heap_start = ALIGN (0x8)
                0x20010000                __Xmc4500_heap_end = (ORIGIN (DSRAM_1_system) + 0x10000)
                0x20006aa8                Heap_Bank1_Start = __Xmc4500_heap_start
                0x00009558                Heap_Bank1_Size = (__Xmc4500_heap_end - __Xmc4500_heap_start)
                0x20010000                Heap_Bank1_End = ABSOLUTE (__Xmc4500_heap_end)

.igot.plt       0x20006aa4        0x0 load address 0x0c0139b4
 .igot.plt      0x00000000        0x0 Startup/startup_XMC4500.o

DSRAM2_Heap     0x30004920        0x0
                0x30004920                Heap_Bank2_Start = .
                0x000036e0                Heap_Bank2_Size = (0x8000 - (Heap_Bank2_Start - ORIGIN (DSRAM_2_comm)))

PSRAM_Heap      0x10000000        0x0
                0x10000000                Heap_Bank3_Start = .
                0x00010000                Heap_Bank3_Size = (0x10000 - (Heap_Bank3_Start - ORIGIN (PSRAM_1)))

/DISCARD/
 *(.comment)

.stab
 *(.stab)

.stabstr
 *(.stabstr)

.debug
 *(.debug)

.line
 *(.line)

.debug_srcinfo
 *(.debug_srcinfo)

.debug_sfnames
 *(.debug_sfnames)

.debug_aranges  0x00000000       0xa0
 *(.debug_aranges)
 .debug_aranges
                0x00000000       0xa0 C:\DAVE-3.1.10\eclipse\/../CMSIS/Infineon/Lib\libxmclibcstubs.a(System_LibcStubs.o)

.debug_pubnames
 *(.debug_pubnames)

.debug_pubtypes
 *(.debug_pubtypes)

.debug_info     0x00000000      0x647
 *(.debug_info .gnu.linkonce.wi.*)
 .debug_info    0x00000000      0x647 C:\DAVE-3.1.10\eclipse\/../CMSIS/Infineon/Lib\libxmclibcstubs.a(System_LibcStubs.o)

.debug_abbrev   0x00000000      0x13c
 *(.debug_abbrev)
 .debug_abbrev  0x00000000      0x13c C:\DAVE-3.1.10\eclipse\/../CMSIS/Infineon/Lib\libxmclibcstubs.a(System_LibcStubs.o)

.debug_line     0x00000000      0x48c
 *(.debug_line)
 .debug_line    0x00000000      0x48c C:\DAVE-3.1.10\eclipse\/../CMSIS/Infineon/Lib\libxmclibcstubs.a(System_LibcStubs.o)

.debug_frame    0x00000000      0xb94
 *(.debug_frame)
 .debug_frame   0x00000000       0x28 c:/dave-3.1.10/arm-gcc/bin/../lib/gcc/arm-none-eabi/4.7.4/../../../../arm-none-eabi/lib/armv7e-m\libc.a(lib_a-calloc.o)
 .debug_frame   0x00000028       0x20 c:/dave-3.1.10/arm-gcc/bin/../lib/gcc/arm-none-eabi/4.7.4/../../../../arm-none-eabi/lib/armv7e-m\libc.a(lib_a-errno.o)
 .debug_frame   0x00000048       0x3c c:/dave-3.1.10/arm-gcc/bin/../lib/gcc/arm-none-eabi/4.7.4/../../../../arm-none-eabi/lib/armv7e-m\libc.a(lib_a-fclose.o)
 .debug_frame   0x00000084       0x40 c:/dave-3.1.10/arm-gcc/bin/../lib/gcc/arm-none-eabi/4.7.4/../../../../arm-none-eabi/lib/armv7e-m\libc.a(lib_a-fflush.o)
 .debug_frame   0x000000c4      0x11c c:/dave-3.1.10/arm-gcc/bin/../lib/gcc/arm-none-eabi/4.7.4/../../../../arm-none-eabi/lib/armv7e-m\libc.a(lib_a-findfp.o)
 .debug_frame   0x000001e0       0x48 c:/dave-3.1.10/arm-gcc/bin/../lib/gcc/arm-none-eabi/4.7.4/../../../../arm-none-eabi/lib/armv7e-m\libc.a(lib_a-fopen.o)
 .debug_frame   0x00000228       0x54 c:/dave-3.1.10/arm-gcc/bin/../lib/gcc/arm-none-eabi/4.7.4/../../../../arm-none-eabi/lib/armv7e-m\libc.a(lib_a-fread.o)
 .debug_frame   0x0000027c       0x54 c:/dave-3.1.10/arm-gcc/bin/../lib/gcc/arm-none-eabi/4.7.4/../../../../arm-none-eabi/lib/armv7e-m\libc.a(lib_a-fseek.o)
 .debug_frame   0x000002d0       0x2c c:/dave-3.1.10/arm-gcc/bin/../lib/gcc/arm-none-eabi/4.7.4/../../../../arm-none-eabi/lib/armv7e-m\libc.a(lib_a-fstatr.o)
 .debug_frame   0x000002fc       0x5c c:/dave-3.1.10/arm-gcc/bin/../lib/gcc/arm-none-eabi/4.7.4/../../../../arm-none-eabi/lib/armv7e-m\libc.a(lib_a-fwalk.o)
 .debug_frame   0x00000358       0x30 c:/dave-3.1.10/arm-gcc/bin/../lib/gcc/arm-none-eabi/4.7.4/../../../../arm-none-eabi/lib/armv7e-m\libc.a(lib_a-init.o)
 .debug_frame   0x00000388       0x30 c:/dave-3.1.10/arm-gcc/bin/../lib/gcc/arm-none-eabi/4.7.4/../../../../arm-none-eabi/lib/armv7e-m\libc.a(lib_a-makebuf.o)
 .debug_frame   0x000003b8       0x30 c:/dave-3.1.10/arm-gcc/bin/../lib/gcc/arm-none-eabi/4.7.4/../../../../arm-none-eabi/lib/armv7e-m\libc.a(lib_a-malloc.o)
 .debug_frame   0x000003e8       0x30 c:/dave-3.1.10/arm-gcc/bin/../lib/gcc/arm-none-eabi/4.7.4/../../../../arm-none-eabi/lib/armv7e-m\libc.a(lib_a-memcpy.o)
 .debug_frame   0x00000418       0x30 c:/dave-3.1.10/arm-gcc/bin/../lib/gcc/arm-none-eabi/4.7.4/../../../../arm-none-eabi/lib/armv7e-m\libc.a(lib_a-memmove.o)
 .debug_frame   0x00000448       0x2c c:/dave-3.1.10/arm-gcc/bin/../lib/gcc/arm-none-eabi/4.7.4/../../../../arm-none-eabi/lib/armv7e-m\libc.a(lib_a-memset.o)
 .debug_frame   0x00000474       0x5c c:/dave-3.1.10/arm-gcc/bin/../lib/gcc/arm-none-eabi/4.7.4/../../../../arm-none-eabi/lib/armv7e-m\libc.a(lib_a-mktime.o)
 .debug_frame   0x000004d0       0x60 c:/dave-3.1.10/arm-gcc/bin/../lib/gcc/arm-none-eabi/4.7.4/../../../../arm-none-eabi/lib/armv7e-m\libc.a(lib_a-mktm_r.o)
 .debug_frame   0x00000530       0x2c c:/dave-3.1.10/arm-gcc/bin/../lib/gcc/arm-none-eabi/4.7.4/../../../../arm-none-eabi/lib/armv7e-m\libc.a(lib_a-openr.o)
 .debug_frame   0x0000055c       0x6c c:/dave-3.1.10/arm-gcc/bin/../lib/gcc/arm-none-eabi/4.7.4/../../../../arm-none-eabi/lib/armv7e-m\libc.a(lib_a-reent.o)
 .debug_frame   0x000005c8       0x3c c:/dave-3.1.10/arm-gcc/bin/../lib/gcc/arm-none-eabi/4.7.4/../../../../arm-none-eabi/lib/armv7e-m\libc.a(lib_a-refill.o)
 .debug_frame   0x00000604       0x80 c:/dave-3.1.10/arm-gcc/bin/../lib/gcc/arm-none-eabi/4.7.4/../../../../arm-none-eabi/lib/armv7e-m\libc.a(lib_a-stdio.o)
 .debug_frame   0x00000684       0x2c c:/dave-3.1.10/arm-gcc/bin/../lib/gcc/arm-none-eabi/4.7.4/../../../../arm-none-eabi/lib/armv7e-m\libc.a(lib_a-strchr.o)
 .debug_frame   0x000006b0       0x30 c:/dave-3.1.10/arm-gcc/bin/../lib/gcc/arm-none-eabi/4.7.4/../../../../arm-none-eabi/lib/armv7e-m\libc.a(lib_a-strcmp.o)
 .debug_frame   0x000006e0       0x20 c:/dave-3.1.10/arm-gcc/bin/../lib/gcc/arm-none-eabi/4.7.4/../../../../arm-none-eabi/lib/armv7e-m\libc.a(lib_a-strcpy.o)
 .debug_frame   0x00000700       0x20 c:/dave-3.1.10/arm-gcc/bin/../lib/gcc/arm-none-eabi/4.7.4/../../../../arm-none-eabi/lib/armv7e-m\libc.a(lib_a-strlen.o)
 .debug_frame   0x00000720       0x2c c:/dave-3.1.10/arm-gcc/bin/../lib/gcc/arm-none-eabi/4.7.4/../../../../arm-none-eabi/lib/armv7e-m\libc.a(lib_a-strncmp.o)
 .debug_frame   0x0000074c       0x88 c:/dave-3.1.10/arm-gcc/bin/../lib/gcc/arm-none-eabi/4.7.4/../../../../arm-none-eabi/lib/armv7e-m\libc.a(lib_a-strstr.o)
 .debug_frame   0x000007d4       0x28 c:/dave-3.1.10/arm-gcc/bin/../lib/gcc/arm-none-eabi/4.7.4/../../../../arm-none-eabi/lib/armv7e-m\libc.a(lib_a-sysstat.o)
 .debug_frame   0x000007fc       0x30 c:/dave-3.1.10/arm-gcc/bin/../lib/gcc/arm-none-eabi/4.7.4/../../../../arm-none-eabi/lib/armv7e-m\libc.a(lib_a-tzlock.o)
 .debug_frame   0x0000082c       0x2c c:/dave-3.1.10/arm-gcc/bin/../lib/gcc/arm-none-eabi/4.7.4/../../../../arm-none-eabi/lib/armv7e-m\libc.a(lib_a-closer.o)
 .debug_frame   0x00000858       0x28 c:/dave-3.1.10/arm-gcc/bin/../lib/gcc/arm-none-eabi/4.7.4/../../../../arm-none-eabi/lib/armv7e-m\libc.a(lib_a-div.o)
 .debug_frame   0x00000880       0x2c c:/dave-3.1.10/arm-gcc/bin/../lib/gcc/arm-none-eabi/4.7.4/../../../../arm-none-eabi/lib/armv7e-m\libc.a(lib_a-flags.o)
 .debug_frame   0x000008ac       0x20 c:/dave-3.1.10/arm-gcc/bin/../lib/gcc/arm-none-eabi/4.7.4/../../../../arm-none-eabi/lib/armv7e-m\libc.a(lib_a-gettzinfo.o)
 .debug_frame   0x000008cc       0x2c c:/dave-3.1.10/arm-gcc/bin/../lib/gcc/arm-none-eabi/4.7.4/../../../../arm-none-eabi/lib/armv7e-m\libc.a(lib_a-isattyr.o)
 .debug_frame   0x000008f8       0x2c c:/dave-3.1.10/arm-gcc/bin/../lib/gcc/arm-none-eabi/4.7.4/../../../../arm-none-eabi/lib/armv7e-m\libc.a(lib_a-lseekr.o)
 .debug_frame   0x00000924       0x2c c:/dave-3.1.10/arm-gcc/bin/../lib/gcc/arm-none-eabi/4.7.4/../../../../arm-none-eabi/lib/armv7e-m\libc.a(lib_a-memchr.o)
 .debug_frame   0x00000950       0x2c c:/dave-3.1.10/arm-gcc/bin/../lib/gcc/arm-none-eabi/4.7.4/../../../../arm-none-eabi/lib/armv7e-m\libc.a(lib_a-memcmp.o)
 .debug_frame   0x0000097c       0x2c c:/dave-3.1.10/arm-gcc/bin/../lib/gcc/arm-none-eabi/4.7.4/../../../../arm-none-eabi/lib/armv7e-m\libc.a(lib_a-statr.o)
 .debug_frame   0x000009a8      0x1ec C:\DAVE-3.1.10\eclipse\/../CMSIS/Infineon/Lib\libxmclibcstubs.a(System_LibcStubs.o)

.debug_str      0x00000000      0x307
 *(.debug_str)
 .debug_str     0x00000000      0x307 C:\DAVE-3.1.10\eclipse\/../CMSIS/Infineon/Lib\libxmclibcstubs.a(System_LibcStubs.o)
                                0x362 (size before relaxing)

.debug_loc      0x00000000      0x388
 *(.debug_loc)
 .debug_loc     0x00000000      0x388 C:\DAVE-3.1.10\eclipse\/../CMSIS/Infineon/Lib\libxmclibcstubs.a(System_LibcStubs.o)

.debug_macinfo  0x00000000     0x5ad0
 *(.debug_macinfo)
 .debug_macinfo
                0x00000000     0x5ad0 C:\DAVE-3.1.10\eclipse\/../CMSIS/Infineon/Lib\libxmclibcstubs.a(System_LibcStubs.o)

.debug_ranges   0x00000000       0x90
 *(.debug_ranges)
 .debug_ranges  0x00000000       0x90 C:\DAVE-3.1.10\eclipse\/../CMSIS/Infineon/Lib\libxmclibcstubs.a(System_LibcStubs.o)

.debug_weaknames
 *(.debug_weaknames)

.debug_funcnames
 *(.debug_funcnames)

.debug_typenames
 *(.debug_typenames)

.debug_varnames
 *(.debug_varnames)

.build_attributes
                0x00000000     0x1b77
 *(.ARM.attributes)
 .ARM.attributes
                0x00000000       0x27 Startup/startup_XMC4500.o
 .ARM.attributes
                0x00000027       0x39 Startup/system_XMC4500.o
 .ARM.attributes
                0x00000060       0x39 Main.o
 .ARM.attributes
                0x00000099       0x39 Dave/Generated/src/WEBSERVER001/HTTPServer/fs.o
 .ARM.attributes
                0x000000d2       0x39 Dave/Generated/src/WEBSERVER001/HTTPServer/fsdata.o
 .ARM.attributes
                0x0000010b       0x39 Dave/Generated/src/WEBSERVER001/HTTPServer/httpd.o
 .ARM.attributes
                0x00000144       0x39 Dave/Generated/src/SYSTM001/SYSTM001.o
 .ARM.attributes
                0x0000017d       0x39 Dave/Generated/src/SLTHA003/SLTHA003.o
 .ARM.attributes
                0x000001b6       0x39 Dave/Generated/src/SLTHA003/SLTHA003_Conf.o
 .ARM.attributes
                0x000001ef       0x39 Dave/Generated/src/SLTHA001/SLTHA001.o
 .ARM.attributes
                0x00000228       0x39 Dave/Generated/src/SLTHA001/SLTHA001_Conf.o
 .ARM.attributes
                0x00000261       0x39 Dave/Generated/src/SDMMC003/SDMMC003.o
 .ARM.attributes
                0x0000029a       0x39 Dave/Generated/src/SDMMC003/SDMMC003_Conf.o
 .ARM.attributes
                0x000002d3       0x39 Dave/Generated/src/SDMMC003/SDMMC003_Private.o
 .ARM.attributes
                0x0000030c       0x39 Dave/Generated/src/SDMMC001/SDMMC001.o
 .ARM.attributes
                0x00000345       0x39 Dave/Generated/src/SDMMC001/SDMMC001_Conf.o
 .ARM.attributes
                0x0000037e       0x39 Dave/Generated/src/RTC001/RTC001.o
 .ARM.attributes
                0x000003b7       0x39 Dave/Generated/src/RTC001/RTC001_Conf.o
 .ARM.attributes
                0x000003f0       0x39 Dave/Generated/src/RESET001/RESET001.o
 .ARM.attributes
                0x00000429       0x39 Dave/Generated/src/NVIC_SCU001/NVIC_SCU001.o
 .ARM.attributes
                0x00000462       0x39 Dave/Generated/src/LMM001/LMM001.o
 .ARM.attributes
                0x0000049b       0x39 Dave/Generated/src/LMM001/LMM001_Conf.o
 .ARM.attributes
                0x000004d4       0x39 Dave/Generated/src/LIBS/CCU8PWMLIB.o
 .ARM.attributes
                0x0000050d       0x39 Dave/Generated/src/IO004/IO004.o
 .ARM.attributes
                0x00000546       0x39 Dave/Generated/src/IO004/IO004_Conf.o
 .ARM.attributes
                0x0000057f       0x39 Dave/Generated/src/IO001/IO001.o
 .ARM.attributes
                0x000005b8       0x39 Dave/Generated/src/IO001/IO001_Conf.o
 .ARM.attributes
                0x000005f1       0x39 Dave/Generated/src/GMM001/GMM001.o
 .ARM.attributes
                0x0000062a       0x39 Dave/Generated/src/GMM001/GMM001_Conf.o
 .ARM.attributes
                0x00000663       0x39 Dave/Generated/src/FATFS004/FATFS004.o
 .ARM.attributes
                0x0000069c       0x39 Dave/Generated/src/FATFS004/FATFS004_Conf.o
 .ARM.attributes
                0x000006d5       0x39 Dave/Generated/src/FATFS002/FATFS002_Conf.o
 .ARM.attributes
                0x0000070e       0x39 Dave/Generated/src/FATFS002/syscall.o
 .ARM.attributes
                0x00000747       0x39 Dave/Generated/src/FATFS002/Src/ff.o
 .ARM.attributes
                0x00000780       0x39 Dave/Generated/src/ETH004/ETH004_Conf.o
 .ARM.attributes
                0x000007b9       0x39 Dave/Generated/src/ETH004/01_lwIP_Stack/src/netif/etharp.o
 .ARM.attributes
                0x000007f2       0x39 Dave/Generated/src/ETH004/01_lwIP_Stack/src/netif/ethernetif.o
 .ARM.attributes
                0x0000082b       0x39 Dave/Generated/src/ETH004/01_lwIP_Stack/src/netif/loopif.o
 .ARM.attributes
                0x00000864       0x39 Dave/Generated/src/ETH004/01_lwIP_Stack/src/netif/slipif.o
 .ARM.attributes
                0x0000089d       0x39 Dave/Generated/src/ETH004/01_lwIP_Stack/src/core/dhcp.o
 .ARM.attributes
                0x000008d6       0x39 Dave/Generated/src/ETH004/01_lwIP_Stack/src/core/dns.o
 .ARM.attributes
                0x0000090f       0x39 Dave/Generated/src/ETH004/01_lwIP_Stack/src/core/init.o
 .ARM.attributes
                0x00000948       0x39 Dave/Generated/src/ETH004/01_lwIP_Stack/src/core/mem.o
 .ARM.attributes
                0x00000981       0x39 Dave/Generated/src/ETH004/01_lwIP_Stack/src/core/memp.o
 .ARM.attributes
                0x000009ba       0x39 Dave/Generated/src/ETH004/01_lwIP_Stack/src/core/netconf.o
 .ARM.attributes
                0x000009f3       0x39 Dave/Generated/src/ETH004/01_lwIP_Stack/src/core/netif.o
 .ARM.attributes
                0x00000a2c       0x39 Dave/Generated/src/ETH004/01_lwIP_Stack/src/core/pbuf.o
 .ARM.attributes
                0x00000a65       0x39 Dave/Generated/src/ETH004/01_lwIP_Stack/src/core/raw.o
 .ARM.attributes
                0x00000a9e       0x39 Dave/Generated/src/ETH004/01_lwIP_Stack/src/core/stats.o
 .ARM.attributes
                0x00000ad7       0x39 Dave/Generated/src/ETH004/01_lwIP_Stack/src/core/sys.o
 .ARM.attributes
                0x00000b10       0x39 Dave/Generated/src/ETH004/01_lwIP_Stack/src/core/tcp.o
 .ARM.attributes
                0x00000b49       0x39 Dave/Generated/src/ETH004/01_lwIP_Stack/src/core/tcp_in.o
 .ARM.attributes
                0x00000b82       0x39 Dave/Generated/src/ETH004/01_lwIP_Stack/src/core/tcp_out.o
 .ARM.attributes
                0x00000bbb       0x39 Dave/Generated/src/ETH004/01_lwIP_Stack/src/core/udp.o
 .ARM.attributes
                0x00000bf4       0x39 Dave/Generated/src/ETH004/01_lwIP_Stack/src/core/ipv4/autoip.o
 .ARM.attributes
                0x00000c2d       0x39 Dave/Generated/src/ETH004/01_lwIP_Stack/src/core/ipv4/icmp.o
 .ARM.attributes
                0x00000c66       0x39 Dave/Generated/src/ETH004/01_lwIP_Stack/src/core/ipv4/igmp.o
 .ARM.attributes
                0x00000c9f       0x39 Dave/Generated/src/ETH004/01_lwIP_Stack/src/core/ipv4/inet.o
 .ARM.attributes
                0x00000cd8       0x39 Dave/Generated/src/ETH004/01_lwIP_Stack/src/core/ipv4/inet_chksum.o
 .ARM.attributes
                0x00000d11       0x39 Dave/Generated/src/ETH004/01_lwIP_Stack/src/core/ipv4/ip.o
 .ARM.attributes
                0x00000d4a       0x39 Dave/Generated/src/ETH004/01_lwIP_Stack/src/core/ipv4/ip_addr.o
 .ARM.attributes
                0x00000d83       0x39 Dave/Generated/src/ETH004/01_lwIP_Stack/src/core/ipv4/ip_frag.o
 .ARM.attributes
                0x00000dbc       0x39 Dave/Generated/src/ETH004/01_lwIP_Stack/src/api/api_lib.o
 .ARM.attributes
                0x00000df5       0x39 Dave/Generated/src/ETH004/01_lwIP_Stack/src/api/api_msg.o
 .ARM.attributes
                0x00000e2e       0x39 Dave/Generated/src/ETH004/01_lwIP_Stack/src/api/err.o
 .ARM.attributes
                0x00000e67       0x39 Dave/Generated/src/ETH004/01_lwIP_Stack/src/api/netbuf.o
 .ARM.attributes
                0x00000ea0       0x39 Dave/Generated/src/ETH004/01_lwIP_Stack/src/api/netdb.o
 .ARM.attributes
                0x00000ed9       0x39 Dave/Generated/src/ETH004/01_lwIP_Stack/src/api/netifapi.o
 .ARM.attributes
                0x00000f12       0x39 Dave/Generated/src/ETH004/01_lwIP_Stack/src/api/sockets.o
 .ARM.attributes
                0x00000f4b       0x39 Dave/Generated/src/ETH004/01_lwIP_Stack/src/api/tcpip.o
 .ARM.attributes
                0x00000f84       0x39 Dave/Generated/src/ETH004/01_lwIP_Stack/port/arch/sys/sys_arch.o
 .ARM.attributes
                0x00000fbd       0x39 Dave/Generated/src/ETH002/EthernetPHY.o
 .ARM.attributes
                0x00000ff6       0x39 Dave/Generated/src/ETH001/DMA_Descriptors.o
 .ARM.attributes
                0x0000102f       0x39 Dave/Generated/src/ETH001/synopGMAC_Dev.o
 .ARM.attributes
                0x00001068       0x39 Dave/Generated/src/ETH001/synopGMAC_network_interface.o
 .ARM.attributes
                0x000010a1       0x39 Dave/Generated/src/ETH001/synopGMAC_plat.o
 .ARM.attributes
                0x000010da       0x39 Dave/Generated/src/ETH001/synopGMAC_stack_interface.o
 .ARM.attributes
                0x00001113       0x39 Dave/Generated/src/DAVESupport/DAVE3.o
 .ARM.attributes
                0x0000114c       0x39 Dave/Generated/src/DAVESupport/MULTIPLEXER.o
 .ARM.attributes
                0x00001185       0x39 Dave/Generated/src/CLK001/CLK001.o
 .ARM.attributes
                0x000011be       0x39 Dave/Generated/src/ADCGROUP001/ADCGroup001.o
 .ARM.attributes
                0x000011f7       0x39 Dave/Generated/src/ADCGROUP001/ADCGroup001_Conf.o
 .ARM.attributes
                0x00001230       0x39 Dave/Generated/src/ADCGLOB001/ADCGlob001.o
 .ARM.attributes
                0x00001269       0x39 Dave/Generated/src/ADCGLOB001/ADCGlob001_Conf.o
 .ARM.attributes
                0x000012a2       0x39 Dave/Generated/src/ADCCH001/ADCCH001.o
 .ARM.attributes
                0x000012db       0x39 Dave/Generated/src/ADCCH001/ADCCH001_Conf.o
 .ARM.attributes
                0x00001314       0x39 Dave/Generated/src/ADC002/ADC002.o
 .ARM.attributes
                0x0000134d       0x39 Dave/Generated/src/ADC002/ADC002_Conf.o
 .ARM.attributes
                0x00001386       0x1e c:/dave-3.1.10/arm-gcc/bin/../lib/gcc/arm-none-eabi/4.7.4/armv7e-m\libgcc.a(_arm_addsubdf3.o)
 .ARM.attributes
                0x000013a4       0x1e c:/dave-3.1.10/arm-gcc/bin/../lib/gcc/arm-none-eabi/4.7.4/armv7e-m\libgcc.a(_arm_muldivdf3.o)
 .ARM.attributes
                0x000013c2       0x1e c:/dave-3.1.10/arm-gcc/bin/../lib/gcc/arm-none-eabi/4.7.4/armv7e-m\libgcc.a(_arm_fixunsdfsi.o)
 .ARM.attributes
                0x000013e0       0x2e c:/dave-3.1.10/arm-gcc/bin/../lib/gcc/arm-none-eabi/4.7.4/../../../../arm-none-eabi/lib/armv7e-m\libc.a(lib_a-calloc.o)
 .ARM.attributes
                0x0000140e       0x2e c:/dave-3.1.10/arm-gcc/bin/../lib/gcc/arm-none-eabi/4.7.4/../../../../arm-none-eabi/lib/armv7e-m\libc.a(lib_a-errno.o)
 .ARM.attributes
                0x0000143c       0x2e c:/dave-3.1.10/arm-gcc/bin/../lib/gcc/arm-none-eabi/4.7.4/../../../../arm-none-eabi/lib/armv7e-m\libc.a(lib_a-fclose.o)
 .ARM.attributes
                0x0000146a       0x2e c:/dave-3.1.10/arm-gcc/bin/../lib/gcc/arm-none-eabi/4.7.4/../../../../arm-none-eabi/lib/armv7e-m\libc.a(lib_a-fflush.o)
 .ARM.attributes
                0x00001498       0x2e c:/dave-3.1.10/arm-gcc/bin/../lib/gcc/arm-none-eabi/4.7.4/../../../../arm-none-eabi/lib/armv7e-m\libc.a(lib_a-findfp.o)
 .ARM.attributes
                0x000014c6       0x2e c:/dave-3.1.10/arm-gcc/bin/../lib/gcc/arm-none-eabi/4.7.4/../../../../arm-none-eabi/lib/armv7e-m\libc.a(lib_a-fopen.o)
 .ARM.attributes
                0x000014f4       0x2e c:/dave-3.1.10/arm-gcc/bin/../lib/gcc/arm-none-eabi/4.7.4/../../../../arm-none-eabi/lib/armv7e-m\libc.a(lib_a-fread.o)
 .ARM.attributes
                0x00001522       0x2e c:/dave-3.1.10/arm-gcc/bin/../lib/gcc/arm-none-eabi/4.7.4/../../../../arm-none-eabi/lib/armv7e-m\libc.a(lib_a-fseek.o)
 .ARM.attributes
                0x00001550       0x2e c:/dave-3.1.10/arm-gcc/bin/../lib/gcc/arm-none-eabi/4.7.4/../../../../arm-none-eabi/lib/armv7e-m\libc.a(lib_a-fstatr.o)
 .ARM.attributes
                0x0000157e       0x2e c:/dave-3.1.10/arm-gcc/bin/../lib/gcc/arm-none-eabi/4.7.4/../../../../arm-none-eabi/lib/armv7e-m\libc.a(lib_a-fwalk.o)
 .ARM.attributes
                0x000015ac       0x2e c:/dave-3.1.10/arm-gcc/bin/../lib/gcc/arm-none-eabi/4.7.4/../../../../arm-none-eabi/lib/armv7e-m\libc.a(lib_a-impure.o)
 .ARM.attributes
                0x000015da       0x2e c:/dave-3.1.10/arm-gcc/bin/../lib/gcc/arm-none-eabi/4.7.4/../../../../arm-none-eabi/lib/armv7e-m\libc.a(lib_a-init.o)
 .ARM.attributes
                0x00001608       0x2e c:/dave-3.1.10/arm-gcc/bin/../lib/gcc/arm-none-eabi/4.7.4/../../../../arm-none-eabi/lib/armv7e-m\libc.a(lib_a-makebuf.o)
 .ARM.attributes
                0x00001636       0x2e c:/dave-3.1.10/arm-gcc/bin/../lib/gcc/arm-none-eabi/4.7.4/../../../../arm-none-eabi/lib/armv7e-m\libc.a(lib_a-malloc.o)
 .ARM.attributes
                0x00001664       0x2e c:/dave-3.1.10/arm-gcc/bin/../lib/gcc/arm-none-eabi/4.7.4/../../../../arm-none-eabi/lib/armv7e-m\libc.a(lib_a-memcpy.o)
 .ARM.attributes
                0x00001692       0x2e c:/dave-3.1.10/arm-gcc/bin/../lib/gcc/arm-none-eabi/4.7.4/../../../../arm-none-eabi/lib/armv7e-m\libc.a(lib_a-memmove.o)
 .ARM.attributes
                0x000016c0       0x2e c:/dave-3.1.10/arm-gcc/bin/../lib/gcc/arm-none-eabi/4.7.4/../../../../arm-none-eabi/lib/armv7e-m\libc.a(lib_a-memset.o)
 .ARM.attributes
                0x000016ee       0x2e c:/dave-3.1.10/arm-gcc/bin/../lib/gcc/arm-none-eabi/4.7.4/../../../../arm-none-eabi/lib/armv7e-m\libc.a(lib_a-mktime.o)
 .ARM.attributes
                0x0000171c       0x2e c:/dave-3.1.10/arm-gcc/bin/../lib/gcc/arm-none-eabi/4.7.4/../../../../arm-none-eabi/lib/armv7e-m\libc.a(lib_a-mktm_r.o)
 .ARM.attributes
                0x0000174a       0x2e c:/dave-3.1.10/arm-gcc/bin/../lib/gcc/arm-none-eabi/4.7.4/../../../../arm-none-eabi/lib/armv7e-m\libc.a(lib_a-openr.o)
 .ARM.attributes
                0x00001778       0x2e c:/dave-3.1.10/arm-gcc/bin/../lib/gcc/arm-none-eabi/4.7.4/../../../../arm-none-eabi/lib/armv7e-m\libc.a(lib_a-reent.o)
 .ARM.attributes
                0x000017a6       0x2e c:/dave-3.1.10/arm-gcc/bin/../lib/gcc/arm-none-eabi/4.7.4/../../../../arm-none-eabi/lib/armv7e-m\libc.a(lib_a-refill.o)
 .ARM.attributes
                0x000017d4       0x2e c:/dave-3.1.10/arm-gcc/bin/../lib/gcc/arm-none-eabi/4.7.4/../../../../arm-none-eabi/lib/armv7e-m\libc.a(lib_a-stdio.o)
 .ARM.attributes
                0x00001802       0x2e c:/dave-3.1.10/arm-gcc/bin/../lib/gcc/arm-none-eabi/4.7.4/../../../../arm-none-eabi/lib/armv7e-m\libc.a(lib_a-strchr.o)
 .ARM.attributes
                0x00001830       0x2e c:/dave-3.1.10/arm-gcc/bin/../lib/gcc/arm-none-eabi/4.7.4/../../../../arm-none-eabi/lib/armv7e-m\libc.a(lib_a-strcmp.o)
 .ARM.attributes
                0x0000185e       0x2e c:/dave-3.1.10/arm-gcc/bin/../lib/gcc/arm-none-eabi/4.7.4/../../../../arm-none-eabi/lib/armv7e-m\libc.a(lib_a-strcpy.o)
 .ARM.attributes
                0x0000188c       0x2e c:/dave-3.1.10/arm-gcc/bin/../lib/gcc/arm-none-eabi/4.7.4/../../../../arm-none-eabi/lib/armv7e-m\libc.a(lib_a-strlen.o)
 .ARM.attributes
                0x000018ba       0x2e c:/dave-3.1.10/arm-gcc/bin/../lib/gcc/arm-none-eabi/4.7.4/../../../../arm-none-eabi/lib/armv7e-m\libc.a(lib_a-strncmp.o)
 .ARM.attributes
                0x000018e8       0x2e c:/dave-3.1.10/arm-gcc/bin/../lib/gcc/arm-none-eabi/4.7.4/../../../../arm-none-eabi/lib/armv7e-m\libc.a(lib_a-strstr.o)
 .ARM.attributes
                0x00001916       0x2e c:/dave-3.1.10/arm-gcc/bin/../lib/gcc/arm-none-eabi/4.7.4/../../../../arm-none-eabi/lib/armv7e-m\libc.a(lib_a-sysstat.o)
 .ARM.attributes
                0x00001944       0x2e c:/dave-3.1.10/arm-gcc/bin/../lib/gcc/arm-none-eabi/4.7.4/../../../../arm-none-eabi/lib/armv7e-m\libc.a(lib_a-tzlock.o)
 .ARM.attributes
                0x00001972       0x2e c:/dave-3.1.10/arm-gcc/bin/../lib/gcc/arm-none-eabi/4.7.4/../../../../arm-none-eabi/lib/armv7e-m\libc.a(lib_a-tzvars.o)
 .ARM.attributes
                0x000019a0       0x2e c:/dave-3.1.10/arm-gcc/bin/../lib/gcc/arm-none-eabi/4.7.4/../../../../arm-none-eabi/lib/armv7e-m\libc.a(lib_a-closer.o)
 .ARM.attributes
                0x000019ce       0x2e c:/dave-3.1.10/arm-gcc/bin/../lib/gcc/arm-none-eabi/4.7.4/../../../../arm-none-eabi/lib/armv7e-m\libc.a(lib_a-div.o)
 .ARM.attributes
                0x000019fc       0x2e c:/dave-3.1.10/arm-gcc/bin/../lib/gcc/arm-none-eabi/4.7.4/../../../../arm-none-eabi/lib/armv7e-m\libc.a(lib_a-flags.o)
 .ARM.attributes
                0x00001a2a       0x2e c:/dave-3.1.10/arm-gcc/bin/../lib/gcc/arm-none-eabi/4.7.4/../../../../arm-none-eabi/lib/armv7e-m\libc.a(lib_a-gettzinfo.o)
 .ARM.attributes
                0x00001a58       0x2e c:/dave-3.1.10/arm-gcc/bin/../lib/gcc/arm-none-eabi/4.7.4/../../../../arm-none-eabi/lib/armv7e-m\libc.a(lib_a-isattyr.o)
 .ARM.attributes
                0x00001a86       0x2e c:/dave-3.1.10/arm-gcc/bin/../lib/gcc/arm-none-eabi/4.7.4/../../../../arm-none-eabi/lib/armv7e-m\libc.a(lib_a-lseekr.o)
 .ARM.attributes
                0x00001ab4       0x2e c:/dave-3.1.10/arm-gcc/bin/../lib/gcc/arm-none-eabi/4.7.4/../../../../arm-none-eabi/lib/armv7e-m\libc.a(lib_a-memchr.o)
 .ARM.attributes
                0x00001ae2       0x2e c:/dave-3.1.10/arm-gcc/bin/../lib/gcc/arm-none-eabi/4.7.4/../../../../arm-none-eabi/lib/armv7e-m\libc.a(lib_a-memcmp.o)
 .ARM.attributes
                0x00001b10       0x2e c:/dave-3.1.10/arm-gcc/bin/../lib/gcc/arm-none-eabi/4.7.4/../../../../arm-none-eabi/lib/armv7e-m\libc.a(lib_a-statr.o)
 .ARM.attributes
                0x00001b3e       0x39 C:\DAVE-3.1.10\eclipse\/../CMSIS/Infineon/Lib\libxmclibcstubs.a(System_LibcStubs.o)
OUTPUT(XMC4500_RK_HTTPserver.elf elf32-littlearm)
