   1              		.syntax unified
   2              		.cpu cortex-m4
   3              		.eabi_attribute 27, 3
   4              		.fpu fpv4-sp-d16
   5              		.eabi_attribute 20, 1
   6              		.eabi_attribute 21, 1
   7              		.eabi_attribute 23, 3
   8              		.eabi_attribute 24, 1
   9              		.eabi_attribute 25, 1
  10              		.eabi_attribute 26, 1
  11              		.eabi_attribute 30, 6
  12              		.eabi_attribute 34, 1
  13              		.eabi_attribute 18, 4
  14              		.thumb
  15              		.file	"tcp.c"
  16              		.text
  17              	.Ltext0:
  18              		.cfi_sections	.debug_frame
  19              		.global	tcp_state_str
  20              		.section	.rodata
  21              		.align	2
  22              	.LC0:
  23 0000 434C4F53 		.ascii	"CLOSED\000"
  23      454400
  24 0007 00       		.align	2
  25              	.LC1:
  26 0008 4C495354 		.ascii	"LISTEN\000"
  26      454E00
  27 000f 00       		.align	2
  28              	.LC2:
  29 0010 53594E5F 		.ascii	"SYN_SENT\000"
  29      53454E54 
  29      00
  30 0019 000000   		.align	2
  31              	.LC3:
  32 001c 53594E5F 		.ascii	"SYN_RCVD\000"
  32      52435644 
  32      00
  33 0025 000000   		.align	2
  34              	.LC4:
  35 0028 45535441 		.ascii	"ESTABLISHED\000"
  35      424C4953 
  35      48454400 
  36              		.align	2
  37              	.LC5:
  38 0034 46494E5F 		.ascii	"FIN_WAIT_1\000"
  38      57414954 
  38      5F3100
  39 003f 00       		.align	2
  40              	.LC6:
  41 0040 46494E5F 		.ascii	"FIN_WAIT_2\000"
  41      57414954 
  41      5F3200
  42 004b 00       		.align	2
  43              	.LC7:
  44 004c 434C4F53 		.ascii	"CLOSE_WAIT\000"
  44      455F5741 
  44      495400
  45 0057 00       		.align	2
  46              	.LC8:
  47 0058 434C4F53 		.ascii	"CLOSING\000"
  47      494E4700 
  48              		.align	2
  49              	.LC9:
  50 0060 4C415354 		.ascii	"LAST_ACK\000"
  50      5F41434B 
  50      00
  51 0069 000000   		.align	2
  52              	.LC10:
  53 006c 54494D45 		.ascii	"TIME_WAIT\000"
  53      5F574149 
  53      5400
  54              		.data
  55              		.align	2
  58              	tcp_state_str:
  59 0000 00000000 		.word	.LC0
  60 0004 08000000 		.word	.LC1
  61 0008 10000000 		.word	.LC2
  62 000c 1C000000 		.word	.LC3
  63 0010 28000000 		.word	.LC4
  64 0014 34000000 		.word	.LC5
  65 0018 40000000 		.word	.LC6
  66 001c 4C000000 		.word	.LC7
  67 0020 58000000 		.word	.LC8
  68 0024 60000000 		.word	.LC9
  69 0028 6C000000 		.word	.LC10
  70              		.comm	tcp_ticks,4,4
  71              		.global	tcp_backoff
  72              		.section	.rodata
  73 0076 0000     		.align	2
  76              	tcp_backoff:
  77 0078 01       		.byte	1
  78 0079 02       		.byte	2
  79 007a 03       		.byte	3
  80 007b 04       		.byte	4
  81 007c 05       		.byte	5
  82 007d 06       		.byte	6
  83 007e 07       		.byte	7
  84 007f 07       		.byte	7
  85 0080 07       		.byte	7
  86 0081 07       		.byte	7
  87 0082 07       		.byte	7
  88 0083 07       		.byte	7
  89 0084 07       		.byte	7
  90              		.global	tcp_persist_backoff
  91 0085 000000   		.align	2
  94              	tcp_persist_backoff:
  95 0088 03       		.byte	3
  96 0089 06       		.byte	6
  97 008a 0C       		.byte	12
  98 008b 18       		.byte	24
  99 008c 30       		.byte	48
 100 008d 60       		.byte	96
 101 008e 78       		.byte	120
 102              		.comm	tcp_bound_pcbs,4,4
 103              		.comm	tcp_listen_pcbs,4,4
 104              		.comm	tcp_active_pcbs,4,4
 105              		.comm	tcp_tw_pcbs,4,4
 106              		.comm	tcp_tmp_pcb,4,4
 107 008f 00       		.bss
 108              	tcp_timer:
 109 0000 00       		.space	1
 110              		.section	.text.tcp_tmr,"ax",%progbits
 111              		.align	2
 112              		.global	tcp_tmr
 113              		.thumb
 114              		.thumb_func
 116              	tcp_tmr:
 117              	.LFB0:
 118              		.file 1 "../Dave/Generated/src/ETH004/01_lwIP_Stack/src/core/tcp.c"
   1:../Dave/Generated/src/ETH004/01_lwIP_Stack/src/core/tcp.c **** /**
   2:../Dave/Generated/src/ETH004/01_lwIP_Stack/src/core/tcp.c ****  * @file
   3:../Dave/Generated/src/ETH004/01_lwIP_Stack/src/core/tcp.c ****  * Transmission Control Protocol for IP
   4:../Dave/Generated/src/ETH004/01_lwIP_Stack/src/core/tcp.c ****  *
   5:../Dave/Generated/src/ETH004/01_lwIP_Stack/src/core/tcp.c ****  * This file contains common functions for the TCP implementation, such as functinos
   6:../Dave/Generated/src/ETH004/01_lwIP_Stack/src/core/tcp.c ****  * for manipulating the data structures and the TCP timer functions. TCP functions
   7:../Dave/Generated/src/ETH004/01_lwIP_Stack/src/core/tcp.c ****  * related to input and output is found in tcp_in.c and tcp_out.c respectively.
   8:../Dave/Generated/src/ETH004/01_lwIP_Stack/src/core/tcp.c ****  *
   9:../Dave/Generated/src/ETH004/01_lwIP_Stack/src/core/tcp.c ****  */
  10:../Dave/Generated/src/ETH004/01_lwIP_Stack/src/core/tcp.c **** 
  11:../Dave/Generated/src/ETH004/01_lwIP_Stack/src/core/tcp.c **** /*
  12:../Dave/Generated/src/ETH004/01_lwIP_Stack/src/core/tcp.c ****  * Copyright (c) 2001-2004 Swedish Institute of Computer Science.
  13:../Dave/Generated/src/ETH004/01_lwIP_Stack/src/core/tcp.c ****  * All rights reserved. 
  14:../Dave/Generated/src/ETH004/01_lwIP_Stack/src/core/tcp.c ****  * 
  15:../Dave/Generated/src/ETH004/01_lwIP_Stack/src/core/tcp.c ****  * Redistribution and use in source and binary forms, with or without modification, 
  16:../Dave/Generated/src/ETH004/01_lwIP_Stack/src/core/tcp.c ****  * are permitted provided that the following conditions are met:
  17:../Dave/Generated/src/ETH004/01_lwIP_Stack/src/core/tcp.c ****  *
  18:../Dave/Generated/src/ETH004/01_lwIP_Stack/src/core/tcp.c ****  * 1. Redistributions of source code must retain the above copyright notice,
  19:../Dave/Generated/src/ETH004/01_lwIP_Stack/src/core/tcp.c ****  *    this list of conditions and the following disclaimer.
  20:../Dave/Generated/src/ETH004/01_lwIP_Stack/src/core/tcp.c ****  * 2. Redistributions in binary form must reproduce the above copyright notice,
  21:../Dave/Generated/src/ETH004/01_lwIP_Stack/src/core/tcp.c ****  *    this list of conditions and the following disclaimer in the documentation
  22:../Dave/Generated/src/ETH004/01_lwIP_Stack/src/core/tcp.c ****  *    and/or other materials provided with the distribution.
  23:../Dave/Generated/src/ETH004/01_lwIP_Stack/src/core/tcp.c ****  * 3. The name of the author may not be used to endorse or promote products
  24:../Dave/Generated/src/ETH004/01_lwIP_Stack/src/core/tcp.c ****  *    derived from this software without specific prior written permission. 
  25:../Dave/Generated/src/ETH004/01_lwIP_Stack/src/core/tcp.c ****  *
  26:../Dave/Generated/src/ETH004/01_lwIP_Stack/src/core/tcp.c ****  * THIS SOFTWARE IS PROVIDED BY THE AUTHOR ``AS IS'' AND ANY EXPRESS OR IMPLIED 
  27:../Dave/Generated/src/ETH004/01_lwIP_Stack/src/core/tcp.c ****  * WARRANTIES, INCLUDING, BUT NOT LIMITED TO, THE IMPLIED WARRANTIES OF 
  28:../Dave/Generated/src/ETH004/01_lwIP_Stack/src/core/tcp.c ****  * MERCHANTABILITY AND FITNESS FOR A PARTICULAR PURPOSE ARE DISCLAIMED. IN NO EVENT 
  29:../Dave/Generated/src/ETH004/01_lwIP_Stack/src/core/tcp.c ****  * SHALL THE AUTHOR BE LIABLE FOR ANY DIRECT, INDIRECT, INCIDENTAL, SPECIAL, 
  30:../Dave/Generated/src/ETH004/01_lwIP_Stack/src/core/tcp.c ****  * EXEMPLARY, OR CONSEQUENTIAL DAMAGES (INCLUDING, BUT NOT LIMITED TO, PROCUREMENT 
  31:../Dave/Generated/src/ETH004/01_lwIP_Stack/src/core/tcp.c ****  * OF SUBSTITUTE GOODS OR SERVICES; LOSS OF USE, DATA, OR PROFITS; OR BUSINESS 
  32:../Dave/Generated/src/ETH004/01_lwIP_Stack/src/core/tcp.c ****  * INTERRUPTION) HOWEVER CAUSED AND ON ANY THEORY OF LIABILITY, WHETHER IN 
  33:../Dave/Generated/src/ETH004/01_lwIP_Stack/src/core/tcp.c ****  * CONTRACT, STRICT LIABILITY, OR TORT (INCLUDING NEGLIGENCE OR OTHERWISE) ARISING 
  34:../Dave/Generated/src/ETH004/01_lwIP_Stack/src/core/tcp.c ****  * IN ANY WAY OUT OF THE USE OF THIS SOFTWARE, EVEN IF ADVISED OF THE POSSIBILITY 
  35:../Dave/Generated/src/ETH004/01_lwIP_Stack/src/core/tcp.c ****  * OF SUCH DAMAGE.
  36:../Dave/Generated/src/ETH004/01_lwIP_Stack/src/core/tcp.c ****  *
  37:../Dave/Generated/src/ETH004/01_lwIP_Stack/src/core/tcp.c ****  * This file is part of the lwIP TCP/IP stack.
  38:../Dave/Generated/src/ETH004/01_lwIP_Stack/src/core/tcp.c ****  * 
  39:../Dave/Generated/src/ETH004/01_lwIP_Stack/src/core/tcp.c ****  * Author: Adam Dunkels <adam@sics.se>
  40:../Dave/Generated/src/ETH004/01_lwIP_Stack/src/core/tcp.c ****  *
  41:../Dave/Generated/src/ETH004/01_lwIP_Stack/src/core/tcp.c ****  */
  42:../Dave/Generated/src/ETH004/01_lwIP_Stack/src/core/tcp.c **** 
  43:../Dave/Generated/src/ETH004/01_lwIP_Stack/src/core/tcp.c **** #include "lwip/opt.h"
  44:../Dave/Generated/src/ETH004/01_lwIP_Stack/src/core/tcp.c **** 
  45:../Dave/Generated/src/ETH004/01_lwIP_Stack/src/core/tcp.c **** #if LWIP_TCP /* don't build if not configured for use in lwipopts.h */
  46:../Dave/Generated/src/ETH004/01_lwIP_Stack/src/core/tcp.c **** 
  47:../Dave/Generated/src/ETH004/01_lwIP_Stack/src/core/tcp.c **** #include "lwip/def.h"
  48:../Dave/Generated/src/ETH004/01_lwIP_Stack/src/core/tcp.c **** #include "lwip/mem.h"
  49:../Dave/Generated/src/ETH004/01_lwIP_Stack/src/core/tcp.c **** #include "lwip/memp.h"
  50:../Dave/Generated/src/ETH004/01_lwIP_Stack/src/core/tcp.c **** #include "lwip/snmp.h"
  51:../Dave/Generated/src/ETH004/01_lwIP_Stack/src/core/tcp.c **** #include "lwip/tcp.h"
  52:../Dave/Generated/src/ETH004/01_lwIP_Stack/src/core/tcp.c **** #include "lwip/debug.h"
  53:../Dave/Generated/src/ETH004/01_lwIP_Stack/src/core/tcp.c **** #include "lwip/stats.h"
  54:../Dave/Generated/src/ETH004/01_lwIP_Stack/src/core/tcp.c **** 
  55:../Dave/Generated/src/ETH004/01_lwIP_Stack/src/core/tcp.c **** #include <string.h>
  56:../Dave/Generated/src/ETH004/01_lwIP_Stack/src/core/tcp.c **** 
  57:../Dave/Generated/src/ETH004/01_lwIP_Stack/src/core/tcp.c **** const char *tcp_state_str[] = {
  58:../Dave/Generated/src/ETH004/01_lwIP_Stack/src/core/tcp.c ****   "CLOSED",      
  59:../Dave/Generated/src/ETH004/01_lwIP_Stack/src/core/tcp.c ****   "LISTEN",      
  60:../Dave/Generated/src/ETH004/01_lwIP_Stack/src/core/tcp.c ****   "SYN_SENT",    
  61:../Dave/Generated/src/ETH004/01_lwIP_Stack/src/core/tcp.c ****   "SYN_RCVD",    
  62:../Dave/Generated/src/ETH004/01_lwIP_Stack/src/core/tcp.c ****   "ESTABLISHED", 
  63:../Dave/Generated/src/ETH004/01_lwIP_Stack/src/core/tcp.c ****   "FIN_WAIT_1",  
  64:../Dave/Generated/src/ETH004/01_lwIP_Stack/src/core/tcp.c ****   "FIN_WAIT_2",  
  65:../Dave/Generated/src/ETH004/01_lwIP_Stack/src/core/tcp.c ****   "CLOSE_WAIT",  
  66:../Dave/Generated/src/ETH004/01_lwIP_Stack/src/core/tcp.c ****   "CLOSING",     
  67:../Dave/Generated/src/ETH004/01_lwIP_Stack/src/core/tcp.c ****   "LAST_ACK",    
  68:../Dave/Generated/src/ETH004/01_lwIP_Stack/src/core/tcp.c ****   "TIME_WAIT"   
  69:../Dave/Generated/src/ETH004/01_lwIP_Stack/src/core/tcp.c **** };
  70:../Dave/Generated/src/ETH004/01_lwIP_Stack/src/core/tcp.c **** 
  71:../Dave/Generated/src/ETH004/01_lwIP_Stack/src/core/tcp.c **** /* Incremented every coarse grained timer shot (typically every 500 ms). */
  72:../Dave/Generated/src/ETH004/01_lwIP_Stack/src/core/tcp.c **** u32_t tcp_ticks;
  73:../Dave/Generated/src/ETH004/01_lwIP_Stack/src/core/tcp.c **** const u8_t tcp_backoff[13] =
  74:../Dave/Generated/src/ETH004/01_lwIP_Stack/src/core/tcp.c ****     { 1, 2, 3, 4, 5, 6, 7, 7, 7, 7, 7, 7, 7};
  75:../Dave/Generated/src/ETH004/01_lwIP_Stack/src/core/tcp.c ****  /* Times per slowtmr hits */
  76:../Dave/Generated/src/ETH004/01_lwIP_Stack/src/core/tcp.c **** const u8_t tcp_persist_backoff[7] = { 3, 6, 12, 24, 48, 96, 120 };
  77:../Dave/Generated/src/ETH004/01_lwIP_Stack/src/core/tcp.c **** 
  78:../Dave/Generated/src/ETH004/01_lwIP_Stack/src/core/tcp.c **** /* The TCP PCB lists. */
  79:../Dave/Generated/src/ETH004/01_lwIP_Stack/src/core/tcp.c **** 
  80:../Dave/Generated/src/ETH004/01_lwIP_Stack/src/core/tcp.c **** /** List of all TCP PCBs bound but not yet (connected || listening) */
  81:../Dave/Generated/src/ETH004/01_lwIP_Stack/src/core/tcp.c **** struct tcp_pcb *tcp_bound_pcbs;  
  82:../Dave/Generated/src/ETH004/01_lwIP_Stack/src/core/tcp.c **** /** List of all TCP PCBs in LISTEN state */
  83:../Dave/Generated/src/ETH004/01_lwIP_Stack/src/core/tcp.c **** union tcp_listen_pcbs_t tcp_listen_pcbs;
  84:../Dave/Generated/src/ETH004/01_lwIP_Stack/src/core/tcp.c **** /** List of all TCP PCBs that are in a state in which
  85:../Dave/Generated/src/ETH004/01_lwIP_Stack/src/core/tcp.c ****  * they accept or send data. */
  86:../Dave/Generated/src/ETH004/01_lwIP_Stack/src/core/tcp.c **** struct tcp_pcb *tcp_active_pcbs;  
  87:../Dave/Generated/src/ETH004/01_lwIP_Stack/src/core/tcp.c **** /** List of all TCP PCBs in TIME-WAIT state */
  88:../Dave/Generated/src/ETH004/01_lwIP_Stack/src/core/tcp.c **** struct tcp_pcb *tcp_tw_pcbs;
  89:../Dave/Generated/src/ETH004/01_lwIP_Stack/src/core/tcp.c **** 
  90:../Dave/Generated/src/ETH004/01_lwIP_Stack/src/core/tcp.c **** struct tcp_pcb *tcp_tmp_pcb;
  91:../Dave/Generated/src/ETH004/01_lwIP_Stack/src/core/tcp.c **** 
  92:../Dave/Generated/src/ETH004/01_lwIP_Stack/src/core/tcp.c **** static u8_t tcp_timer;
  93:../Dave/Generated/src/ETH004/01_lwIP_Stack/src/core/tcp.c **** static u16_t tcp_new_port(void);
  94:../Dave/Generated/src/ETH004/01_lwIP_Stack/src/core/tcp.c **** 
  95:../Dave/Generated/src/ETH004/01_lwIP_Stack/src/core/tcp.c **** /**
  96:../Dave/Generated/src/ETH004/01_lwIP_Stack/src/core/tcp.c ****  * Called periodically to dispatch TCP timers.
  97:../Dave/Generated/src/ETH004/01_lwIP_Stack/src/core/tcp.c ****  *
  98:../Dave/Generated/src/ETH004/01_lwIP_Stack/src/core/tcp.c ****  */
  99:../Dave/Generated/src/ETH004/01_lwIP_Stack/src/core/tcp.c **** void
 100:../Dave/Generated/src/ETH004/01_lwIP_Stack/src/core/tcp.c **** tcp_tmr(void)
 101:../Dave/Generated/src/ETH004/01_lwIP_Stack/src/core/tcp.c **** {
 119              		.loc 1 101 0
 120              		.cfi_startproc
 121              		@ args = 0, pretend = 0, frame = 0
 122              		@ frame_needed = 1, uses_anonymous_args = 0
 123 0000 80B5     		push	{r7, lr}
 124              	.LCFI0:
 125              		.cfi_def_cfa_offset 8
 126              		.cfi_offset 7, -8
 127              		.cfi_offset 14, -4
 128 0002 00AF     		add	r7, sp, #0
 129              	.LCFI1:
 130              		.cfi_def_cfa_register 7
 102:../Dave/Generated/src/ETH004/01_lwIP_Stack/src/core/tcp.c ****   /* Call tcp_fasttmr() every 250 ms */
 103:../Dave/Generated/src/ETH004/01_lwIP_Stack/src/core/tcp.c ****   tcp_fasttmr();
 131              		.loc 1 103 0
 132 0004 FFF7FEFF 		bl	tcp_fasttmr
 104:../Dave/Generated/src/ETH004/01_lwIP_Stack/src/core/tcp.c **** 
 105:../Dave/Generated/src/ETH004/01_lwIP_Stack/src/core/tcp.c ****   if (++tcp_timer & 1) {
 133              		.loc 1 105 0
 134 0008 40F20003 		movw	r3, #:lower16:tcp_timer
 135 000c C0F20003 		movt	r3, #:upper16:tcp_timer
 136 0010 1B78     		ldrb	r3, [r3, #0]	@ zero_extendqisi2
 137 0012 03F10103 		add	r3, r3, #1
 138 0016 DAB2     		uxtb	r2, r3
 139 0018 40F20003 		movw	r3, #:lower16:tcp_timer
 140 001c C0F20003 		movt	r3, #:upper16:tcp_timer
 141 0020 1A70     		strb	r2, [r3, #0]
 142 0022 40F20003 		movw	r3, #:lower16:tcp_timer
 143 0026 C0F20003 		movt	r3, #:upper16:tcp_timer
 144 002a 1B78     		ldrb	r3, [r3, #0]	@ zero_extendqisi2
 145 002c 03F00103 		and	r3, r3, #1
 146 0030 002B     		cmp	r3, #0
 147 0032 01D0     		beq	.L1
 106:../Dave/Generated/src/ETH004/01_lwIP_Stack/src/core/tcp.c ****     /* Call tcp_tmr() every 500 ms, i.e., every other timer
 107:../Dave/Generated/src/ETH004/01_lwIP_Stack/src/core/tcp.c ****        tcp_tmr() is called. */
 108:../Dave/Generated/src/ETH004/01_lwIP_Stack/src/core/tcp.c ****     tcp_slowtmr();
 148              		.loc 1 108 0
 149 0034 FFF7FEFF 		bl	tcp_slowtmr
 150              	.L1:
 109:../Dave/Generated/src/ETH004/01_lwIP_Stack/src/core/tcp.c ****   }
 110:../Dave/Generated/src/ETH004/01_lwIP_Stack/src/core/tcp.c **** }
 151              		.loc 1 110 0
 152 0038 80BD     		pop	{r7, pc}
 153              		.cfi_endproc
 154              	.LFE0:
 156 003a 00BF     		.section	.text.tcp_close,"ax",%progbits
 157              		.align	2
 158              		.global	tcp_close
 159              		.thumb
 160              		.thumb_func
 162              	tcp_close:
 163              	.LFB1:
 111:../Dave/Generated/src/ETH004/01_lwIP_Stack/src/core/tcp.c **** 
 112:../Dave/Generated/src/ETH004/01_lwIP_Stack/src/core/tcp.c **** /**
 113:../Dave/Generated/src/ETH004/01_lwIP_Stack/src/core/tcp.c ****  * Closes the connection held by the PCB.
 114:../Dave/Generated/src/ETH004/01_lwIP_Stack/src/core/tcp.c ****  *
 115:../Dave/Generated/src/ETH004/01_lwIP_Stack/src/core/tcp.c ****  * Listening pcbs are freed and may not be referenced any more.
 116:../Dave/Generated/src/ETH004/01_lwIP_Stack/src/core/tcp.c ****  * Connection pcbs are freed if not yet connected and may not be referenced
 117:../Dave/Generated/src/ETH004/01_lwIP_Stack/src/core/tcp.c ****  * any more. If a connection is established (at least SYN received or in
 118:../Dave/Generated/src/ETH004/01_lwIP_Stack/src/core/tcp.c ****  * a closing state), the connection is closed, and put in a closing state.
 119:../Dave/Generated/src/ETH004/01_lwIP_Stack/src/core/tcp.c ****  * The pcb is then automatically freed in tcp_slowtmr(). It is therefore
 120:../Dave/Generated/src/ETH004/01_lwIP_Stack/src/core/tcp.c ****  * unsafe to reference it.
 121:../Dave/Generated/src/ETH004/01_lwIP_Stack/src/core/tcp.c ****  *
 122:../Dave/Generated/src/ETH004/01_lwIP_Stack/src/core/tcp.c ****  * @param pcb the tcp_pcb to close
 123:../Dave/Generated/src/ETH004/01_lwIP_Stack/src/core/tcp.c ****  * @return ERR_OK if connection has been closed
 124:../Dave/Generated/src/ETH004/01_lwIP_Stack/src/core/tcp.c ****  *         another err_t if closing failed and pcb is not freed
 125:../Dave/Generated/src/ETH004/01_lwIP_Stack/src/core/tcp.c ****  */
 126:../Dave/Generated/src/ETH004/01_lwIP_Stack/src/core/tcp.c **** err_t
 127:../Dave/Generated/src/ETH004/01_lwIP_Stack/src/core/tcp.c **** tcp_close(struct tcp_pcb *pcb)
 128:../Dave/Generated/src/ETH004/01_lwIP_Stack/src/core/tcp.c **** {
 164              		.loc 1 128 0
 165              		.cfi_startproc
 166              		@ args = 0, pretend = 0, frame = 16
 167              		@ frame_needed = 1, uses_anonymous_args = 0
 168 0000 80B5     		push	{r7, lr}
 169              	.LCFI2:
 170              		.cfi_def_cfa_offset 8
 171              		.cfi_offset 7, -8
 172              		.cfi_offset 14, -4
 173 0002 84B0     		sub	sp, sp, #16
 174              	.LCFI3:
 175              		.cfi_def_cfa_offset 24
 176 0004 00AF     		add	r7, sp, #0
 177              	.LCFI4:
 178              		.cfi_def_cfa_register 7
 179 0006 7860     		str	r0, [r7, #4]
 129:../Dave/Generated/src/ETH004/01_lwIP_Stack/src/core/tcp.c ****   err_t err;
 130:../Dave/Generated/src/ETH004/01_lwIP_Stack/src/core/tcp.c **** 
 131:../Dave/Generated/src/ETH004/01_lwIP_Stack/src/core/tcp.c **** #if TCP_DEBUG
 132:../Dave/Generated/src/ETH004/01_lwIP_Stack/src/core/tcp.c ****   LWIP_DEBUGF(TCP_DEBUG, ("tcp_close: closing in "));
 133:../Dave/Generated/src/ETH004/01_lwIP_Stack/src/core/tcp.c ****   tcp_debug_print_state(pcb->state);
 134:../Dave/Generated/src/ETH004/01_lwIP_Stack/src/core/tcp.c **** #endif /* TCP_DEBUG */
 135:../Dave/Generated/src/ETH004/01_lwIP_Stack/src/core/tcp.c **** 
 136:../Dave/Generated/src/ETH004/01_lwIP_Stack/src/core/tcp.c ****   switch (pcb->state) {
 180              		.loc 1 136 0
 181 0008 7B68     		ldr	r3, [r7, #4]
 182 000a 1B7C     		ldrb	r3, [r3, #16]	@ zero_extendqisi2
 183 000c 072B     		cmp	r3, #7
 184 000e 00F2B680 		bhi	.L4
 185 0012 01A2     		adr	r2, .L11
 186 0014 52F823F0 		ldr	pc, [r2, r3, lsl #2]
 187              		.align	2
 188              	.L11:
 189 0018 39000000 		.word	.L5+1
 190 001c DB000000 		.word	.L6+1
 191 0020 FD000000 		.word	.L7+1
 192 0024 1F010000 		.word	.L8+1
 193 0028 3F010000 		.word	.L9+1
 194 002c 7F010000 		.word	.L4+1
 195 0030 7F010000 		.word	.L4+1
 196 0034 5F010000 		.word	.L10+1
 197              	.L5:
 137:../Dave/Generated/src/ETH004/01_lwIP_Stack/src/core/tcp.c ****   case CLOSED:
 138:../Dave/Generated/src/ETH004/01_lwIP_Stack/src/core/tcp.c ****     /* Closing a pcb in the CLOSED state might seem erroneous,
 139:../Dave/Generated/src/ETH004/01_lwIP_Stack/src/core/tcp.c ****      * however, it is in this state once allocated and as yet unused
 140:../Dave/Generated/src/ETH004/01_lwIP_Stack/src/core/tcp.c ****      * and the user needs some way to free it should the need arise.
 141:../Dave/Generated/src/ETH004/01_lwIP_Stack/src/core/tcp.c ****      * Calling tcp_close() with a pcb that has already been closed, (i.e. twice)
 142:../Dave/Generated/src/ETH004/01_lwIP_Stack/src/core/tcp.c ****      * or for a pcb that has been used and then entered the CLOSED state 
 143:../Dave/Generated/src/ETH004/01_lwIP_Stack/src/core/tcp.c ****      * is erroneous, but this should never happen as the pcb has in those cases
 144:../Dave/Generated/src/ETH004/01_lwIP_Stack/src/core/tcp.c ****      * been freed, and so any remaining handles are bogus. */
 145:../Dave/Generated/src/ETH004/01_lwIP_Stack/src/core/tcp.c ****     err = ERR_OK;
 198              		.loc 1 145 0
 199 0038 4FF00003 		mov	r3, #0
 200 003c FB73     		strb	r3, [r7, #15]
 146:../Dave/Generated/src/ETH004/01_lwIP_Stack/src/core/tcp.c ****     TCP_RMV(&tcp_bound_pcbs, pcb);
 201              		.loc 1 146 0
 202 003e 40F20003 		movw	r3, #:lower16:tcp_bound_pcbs
 203 0042 C0F20003 		movt	r3, #:upper16:tcp_bound_pcbs
 204 0046 1A68     		ldr	r2, [r3, #0]
 205 0048 7B68     		ldr	r3, [r7, #4]
 206 004a 9A42     		cmp	r2, r3
 207 004c 0BD1     		bne	.L12
 208              		.loc 1 146 0 is_stmt 0 discriminator 1
 209 004e 40F20003 		movw	r3, #:lower16:tcp_bound_pcbs
 210 0052 C0F20003 		movt	r3, #:upper16:tcp_bound_pcbs
 211 0056 1B68     		ldr	r3, [r3, #0]
 212 0058 DA68     		ldr	r2, [r3, #12]
 213 005a 40F20003 		movw	r3, #:lower16:tcp_bound_pcbs
 214 005e C0F20003 		movt	r3, #:upper16:tcp_bound_pcbs
 215 0062 1A60     		str	r2, [r3, #0]
 216 0064 2EE0     		b	.L13
 217              	.L12:
 218              		.loc 1 146 0 discriminator 2
 219 0066 40F20003 		movw	r3, #:lower16:tcp_bound_pcbs
 220 006a C0F20003 		movt	r3, #:upper16:tcp_bound_pcbs
 221 006e 1A68     		ldr	r2, [r3, #0]
 222 0070 40F20003 		movw	r3, #:lower16:tcp_tmp_pcb
 223 0074 C0F20003 		movt	r3, #:upper16:tcp_tmp_pcb
 224 0078 1A60     		str	r2, [r3, #0]
 225 007a 1CE0     		b	.L14
 226              	.L16:
 227              		.loc 1 146 0 discriminator 7
 228 007c 40F20003 		movw	r3, #:lower16:tcp_tmp_pcb
 229 0080 C0F20003 		movt	r3, #:upper16:tcp_tmp_pcb
 230 0084 1B68     		ldr	r3, [r3, #0]
 231 0086 DA68     		ldr	r2, [r3, #12]
 232 0088 7B68     		ldr	r3, [r7, #4]
 233 008a 9A42     		cmp	r2, r3
 234 008c 08D1     		bne	.L15
 235              		.loc 1 146 0 discriminator 4
 236 008e 40F20003 		movw	r3, #:lower16:tcp_tmp_pcb
 237 0092 C0F20003 		movt	r3, #:upper16:tcp_tmp_pcb
 238 0096 1B68     		ldr	r3, [r3, #0]
 239 0098 7A68     		ldr	r2, [r7, #4]
 240 009a D268     		ldr	r2, [r2, #12]
 241 009c DA60     		str	r2, [r3, #12]
 242 009e 11E0     		b	.L13
 243              	.L15:
 244              		.loc 1 146 0 discriminator 5
 245 00a0 40F20003 		movw	r3, #:lower16:tcp_tmp_pcb
 246 00a4 C0F20003 		movt	r3, #:upper16:tcp_tmp_pcb
 247 00a8 1B68     		ldr	r3, [r3, #0]
 248 00aa DA68     		ldr	r2, [r3, #12]
 249 00ac 40F20003 		movw	r3, #:lower16:tcp_tmp_pcb
 250 00b0 C0F20003 		movt	r3, #:upper16:tcp_tmp_pcb
 251 00b4 1A60     		str	r2, [r3, #0]
 252              	.L14:
 253              		.loc 1 146 0 discriminator 3
 254 00b6 40F20003 		movw	r3, #:lower16:tcp_tmp_pcb
 255 00ba C0F20003 		movt	r3, #:upper16:tcp_tmp_pcb
 256 00be 1B68     		ldr	r3, [r3, #0]
 257 00c0 002B     		cmp	r3, #0
 258 00c2 DBD1     		bne	.L16
 259              	.L13:
 260              		.loc 1 146 0 discriminator 6
 261 00c4 7B68     		ldr	r3, [r7, #4]
 262 00c6 4FF00002 		mov	r2, #0
 263 00ca DA60     		str	r2, [r3, #12]
 147:../Dave/Generated/src/ETH004/01_lwIP_Stack/src/core/tcp.c ****     memp_free(MEMP_TCP_PCB, pcb);
 264              		.loc 1 147 0 is_stmt 1 discriminator 6
 265 00cc 7868     		ldr	r0, [r7, #4]
 266 00ce FFF7FEFF 		bl	mem_free
 148:../Dave/Generated/src/ETH004/01_lwIP_Stack/src/core/tcp.c ****     pcb = NULL;
 267              		.loc 1 148 0 discriminator 6
 268 00d2 4FF00003 		mov	r3, #0
 269 00d6 7B60     		str	r3, [r7, #4]
 149:../Dave/Generated/src/ETH004/01_lwIP_Stack/src/core/tcp.c ****     break;
 270              		.loc 1 149 0 discriminator 6
 271 00d8 5DE0     		b	.L17
 272              	.L6:
 150:../Dave/Generated/src/ETH004/01_lwIP_Stack/src/core/tcp.c ****   case LISTEN:
 151:../Dave/Generated/src/ETH004/01_lwIP_Stack/src/core/tcp.c ****     err = ERR_OK;
 273              		.loc 1 151 0
 274 00da 4FF00003 		mov	r3, #0
 275 00de FB73     		strb	r3, [r7, #15]
 152:../Dave/Generated/src/ETH004/01_lwIP_Stack/src/core/tcp.c ****     tcp_pcb_remove((struct tcp_pcb **)&tcp_listen_pcbs.pcbs, pcb);
 276              		.loc 1 152 0
 277 00e0 40F20000 		movw	r0, #:lower16:tcp_listen_pcbs
 278 00e4 C0F20000 		movt	r0, #:upper16:tcp_listen_pcbs
 279 00e8 7968     		ldr	r1, [r7, #4]
 280 00ea FFF7FEFF 		bl	tcp_pcb_remove
 153:../Dave/Generated/src/ETH004/01_lwIP_Stack/src/core/tcp.c ****     memp_free(MEMP_TCP_PCB_LISTEN, pcb);
 281              		.loc 1 153 0
 282 00ee 7868     		ldr	r0, [r7, #4]
 283 00f0 FFF7FEFF 		bl	mem_free
 154:../Dave/Generated/src/ETH004/01_lwIP_Stack/src/core/tcp.c ****     pcb = NULL;
 284              		.loc 1 154 0
 285 00f4 4FF00003 		mov	r3, #0
 286 00f8 7B60     		str	r3, [r7, #4]
 155:../Dave/Generated/src/ETH004/01_lwIP_Stack/src/core/tcp.c ****     break;
 287              		.loc 1 155 0
 288 00fa 4CE0     		b	.L17
 289              	.L7:
 156:../Dave/Generated/src/ETH004/01_lwIP_Stack/src/core/tcp.c ****   case SYN_SENT:
 157:../Dave/Generated/src/ETH004/01_lwIP_Stack/src/core/tcp.c ****     err = ERR_OK;
 290              		.loc 1 157 0
 291 00fc 4FF00003 		mov	r3, #0
 292 0100 FB73     		strb	r3, [r7, #15]
 158:../Dave/Generated/src/ETH004/01_lwIP_Stack/src/core/tcp.c ****     tcp_pcb_remove(&tcp_active_pcbs, pcb);
 293              		.loc 1 158 0
 294 0102 40F20000 		movw	r0, #:lower16:tcp_active_pcbs
 295 0106 C0F20000 		movt	r0, #:upper16:tcp_active_pcbs
 296 010a 7968     		ldr	r1, [r7, #4]
 297 010c FFF7FEFF 		bl	tcp_pcb_remove
 159:../Dave/Generated/src/ETH004/01_lwIP_Stack/src/core/tcp.c ****     memp_free(MEMP_TCP_PCB, pcb);
 298              		.loc 1 159 0
 299 0110 7868     		ldr	r0, [r7, #4]
 300 0112 FFF7FEFF 		bl	mem_free
 160:../Dave/Generated/src/ETH004/01_lwIP_Stack/src/core/tcp.c ****     pcb = NULL;
 301              		.loc 1 160 0
 302 0116 4FF00003 		mov	r3, #0
 303 011a 7B60     		str	r3, [r7, #4]
 161:../Dave/Generated/src/ETH004/01_lwIP_Stack/src/core/tcp.c ****     snmp_inc_tcpattemptfails();
 162:../Dave/Generated/src/ETH004/01_lwIP_Stack/src/core/tcp.c ****     break;
 304              		.loc 1 162 0
 305 011c 3BE0     		b	.L17
 306              	.L8:
 163:../Dave/Generated/src/ETH004/01_lwIP_Stack/src/core/tcp.c ****   case SYN_RCVD:
 164:../Dave/Generated/src/ETH004/01_lwIP_Stack/src/core/tcp.c ****     err = tcp_send_ctrl(pcb, TCP_FIN);
 307              		.loc 1 164 0
 308 011e 7868     		ldr	r0, [r7, #4]
 309 0120 4FF00101 		mov	r1, #1
 310 0124 FFF7FEFF 		bl	tcp_send_ctrl
 311 0128 0346     		mov	r3, r0
 312 012a FB73     		strb	r3, [r7, #15]
 165:../Dave/Generated/src/ETH004/01_lwIP_Stack/src/core/tcp.c ****     if (err == ERR_OK) {
 313              		.loc 1 165 0
 314 012c 97F90F30 		ldrsb	r3, [r7, #15]
 315 0130 002B     		cmp	r3, #0
 316 0132 2BD1     		bne	.L23
 166:../Dave/Generated/src/ETH004/01_lwIP_Stack/src/core/tcp.c ****       snmp_inc_tcpattemptfails();
 167:../Dave/Generated/src/ETH004/01_lwIP_Stack/src/core/tcp.c ****       pcb->state = FIN_WAIT_1;
 317              		.loc 1 167 0
 318 0134 7B68     		ldr	r3, [r7, #4]
 319 0136 4FF00502 		mov	r2, #5
 320 013a 1A74     		strb	r2, [r3, #16]
 168:../Dave/Generated/src/ETH004/01_lwIP_Stack/src/core/tcp.c ****     }
 169:../Dave/Generated/src/ETH004/01_lwIP_Stack/src/core/tcp.c ****     break;
 321              		.loc 1 169 0
 322 013c 26E0     		b	.L23
 323              	.L9:
 170:../Dave/Generated/src/ETH004/01_lwIP_Stack/src/core/tcp.c ****   case ESTABLISHED:
 171:../Dave/Generated/src/ETH004/01_lwIP_Stack/src/core/tcp.c ****     err = tcp_send_ctrl(pcb, TCP_FIN);
 324              		.loc 1 171 0
 325 013e 7868     		ldr	r0, [r7, #4]
 326 0140 4FF00101 		mov	r1, #1
 327 0144 FFF7FEFF 		bl	tcp_send_ctrl
 328 0148 0346     		mov	r3, r0
 329 014a FB73     		strb	r3, [r7, #15]
 172:../Dave/Generated/src/ETH004/01_lwIP_Stack/src/core/tcp.c ****     if (err == ERR_OK) {
 330              		.loc 1 172 0
 331 014c 97F90F30 		ldrsb	r3, [r7, #15]
 332 0150 002B     		cmp	r3, #0
 333 0152 1DD1     		bne	.L24
 173:../Dave/Generated/src/ETH004/01_lwIP_Stack/src/core/tcp.c ****       snmp_inc_tcpestabresets();
 174:../Dave/Generated/src/ETH004/01_lwIP_Stack/src/core/tcp.c ****       pcb->state = FIN_WAIT_1;
 334              		.loc 1 174 0
 335 0154 7B68     		ldr	r3, [r7, #4]
 336 0156 4FF00502 		mov	r2, #5
 337 015a 1A74     		strb	r2, [r3, #16]
 175:../Dave/Generated/src/ETH004/01_lwIP_Stack/src/core/tcp.c ****     }
 176:../Dave/Generated/src/ETH004/01_lwIP_Stack/src/core/tcp.c ****     break;
 338              		.loc 1 176 0
 339 015c 18E0     		b	.L24
 340              	.L10:
 177:../Dave/Generated/src/ETH004/01_lwIP_Stack/src/core/tcp.c ****   case CLOSE_WAIT:
 178:../Dave/Generated/src/ETH004/01_lwIP_Stack/src/core/tcp.c ****     err = tcp_send_ctrl(pcb, TCP_FIN);
 341              		.loc 1 178 0
 342 015e 7868     		ldr	r0, [r7, #4]
 343 0160 4FF00101 		mov	r1, #1
 344 0164 FFF7FEFF 		bl	tcp_send_ctrl
 345 0168 0346     		mov	r3, r0
 346 016a FB73     		strb	r3, [r7, #15]
 179:../Dave/Generated/src/ETH004/01_lwIP_Stack/src/core/tcp.c ****     if (err == ERR_OK) {
 347              		.loc 1 179 0
 348 016c 97F90F30 		ldrsb	r3, [r7, #15]
 349 0170 002B     		cmp	r3, #0
 350 0172 0FD1     		bne	.L25
 180:../Dave/Generated/src/ETH004/01_lwIP_Stack/src/core/tcp.c ****       snmp_inc_tcpestabresets();
 181:../Dave/Generated/src/ETH004/01_lwIP_Stack/src/core/tcp.c ****       pcb->state = LAST_ACK;
 351              		.loc 1 181 0
 352 0174 7B68     		ldr	r3, [r7, #4]
 353 0176 4FF00902 		mov	r2, #9
 354 017a 1A74     		strb	r2, [r3, #16]
 182:../Dave/Generated/src/ETH004/01_lwIP_Stack/src/core/tcp.c ****     }
 183:../Dave/Generated/src/ETH004/01_lwIP_Stack/src/core/tcp.c ****     break;
 355              		.loc 1 183 0
 356 017c 0AE0     		b	.L25
 357              	.L4:
 184:../Dave/Generated/src/ETH004/01_lwIP_Stack/src/core/tcp.c ****   default:
 185:../Dave/Generated/src/ETH004/01_lwIP_Stack/src/core/tcp.c ****     /* Has already been closed, do nothing. */
 186:../Dave/Generated/src/ETH004/01_lwIP_Stack/src/core/tcp.c ****     err = ERR_OK;
 358              		.loc 1 186 0
 359 017e 4FF00003 		mov	r3, #0
 360 0182 FB73     		strb	r3, [r7, #15]
 187:../Dave/Generated/src/ETH004/01_lwIP_Stack/src/core/tcp.c ****     pcb = NULL;
 361              		.loc 1 187 0
 362 0184 4FF00003 		mov	r3, #0
 363 0188 7B60     		str	r3, [r7, #4]
 188:../Dave/Generated/src/ETH004/01_lwIP_Stack/src/core/tcp.c ****     break;
 364              		.loc 1 188 0
 365 018a 04E0     		b	.L17
 366              	.L23:
 169:../Dave/Generated/src/ETH004/01_lwIP_Stack/src/core/tcp.c ****     break;
 367              		.loc 1 169 0
 368 018c 00BF     		nop
 369 018e 02E0     		b	.L17
 370              	.L24:
 176:../Dave/Generated/src/ETH004/01_lwIP_Stack/src/core/tcp.c ****     break;
 371              		.loc 1 176 0
 372 0190 00BF     		nop
 373 0192 00E0     		b	.L17
 374              	.L25:
 183:../Dave/Generated/src/ETH004/01_lwIP_Stack/src/core/tcp.c ****     break;
 375              		.loc 1 183 0
 376 0194 00BF     		nop
 377              	.L17:
 189:../Dave/Generated/src/ETH004/01_lwIP_Stack/src/core/tcp.c ****   }
 190:../Dave/Generated/src/ETH004/01_lwIP_Stack/src/core/tcp.c **** 
 191:../Dave/Generated/src/ETH004/01_lwIP_Stack/src/core/tcp.c ****   if (pcb != NULL && err == ERR_OK) {
 378              		.loc 1 191 0
 379 0196 7B68     		ldr	r3, [r7, #4]
 380 0198 002B     		cmp	r3, #0
 381 019a 06D0     		beq	.L21
 382              		.loc 1 191 0 is_stmt 0 discriminator 1
 383 019c 97F90F30 		ldrsb	r3, [r7, #15]
 384 01a0 002B     		cmp	r3, #0
 385 01a2 02D1     		bne	.L21
 192:../Dave/Generated/src/ETH004/01_lwIP_Stack/src/core/tcp.c ****     /* To ensure all data has been sent when tcp_close returns, we have
 193:../Dave/Generated/src/ETH004/01_lwIP_Stack/src/core/tcp.c ****        to make sure tcp_output doesn't fail.
 194:../Dave/Generated/src/ETH004/01_lwIP_Stack/src/core/tcp.c ****        Since we don't really have to ensure all data has been sent when tcp_close
 195:../Dave/Generated/src/ETH004/01_lwIP_Stack/src/core/tcp.c ****        returns (unsent data is sent from tcp timer functions, also), we don't care
 196:../Dave/Generated/src/ETH004/01_lwIP_Stack/src/core/tcp.c ****        for the return value of tcp_output for now. */
 197:../Dave/Generated/src/ETH004/01_lwIP_Stack/src/core/tcp.c ****     /* @todo: When implementing SO_LINGER, this must be changed somehow:
 198:../Dave/Generated/src/ETH004/01_lwIP_Stack/src/core/tcp.c ****        If SOF_LINGER is set, the data should be sent when tcp_close returns. */
 199:../Dave/Generated/src/ETH004/01_lwIP_Stack/src/core/tcp.c ****     tcp_output(pcb);
 386              		.loc 1 199 0 is_stmt 1
 387 01a4 7868     		ldr	r0, [r7, #4]
 388 01a6 FFF7FEFF 		bl	tcp_output
 389              	.L21:
 200:../Dave/Generated/src/ETH004/01_lwIP_Stack/src/core/tcp.c ****   }
 201:../Dave/Generated/src/ETH004/01_lwIP_Stack/src/core/tcp.c ****   return err;
 390              		.loc 1 201 0
 391 01aa FB7B     		ldrb	r3, [r7, #15]	@ zero_extendqisi2
 392 01ac 5BB2     		sxtb	r3, r3
 202:../Dave/Generated/src/ETH004/01_lwIP_Stack/src/core/tcp.c **** }
 393              		.loc 1 202 0
 394 01ae 1846     		mov	r0, r3
 395 01b0 07F11007 		add	r7, r7, #16
 396 01b4 BD46     		mov	sp, r7
 397 01b6 80BD     		pop	{r7, pc}
 398              		.cfi_endproc
 399              	.LFE1:
 401              		.section	.text.tcp_abandon,"ax",%progbits
 402              		.align	2
 403              		.global	tcp_abandon
 404              		.thumb
 405              		.thumb_func
 407              	tcp_abandon:
 408              	.LFB2:
 203:../Dave/Generated/src/ETH004/01_lwIP_Stack/src/core/tcp.c **** 
 204:../Dave/Generated/src/ETH004/01_lwIP_Stack/src/core/tcp.c **** /**
 205:../Dave/Generated/src/ETH004/01_lwIP_Stack/src/core/tcp.c ****  * Abandons a connection and optionally sends a RST to the remote
 206:../Dave/Generated/src/ETH004/01_lwIP_Stack/src/core/tcp.c ****  * host.  Deletes the local protocol control block. This is done when
 207:../Dave/Generated/src/ETH004/01_lwIP_Stack/src/core/tcp.c ****  * a connection is killed because of shortage of memory.
 208:../Dave/Generated/src/ETH004/01_lwIP_Stack/src/core/tcp.c ****  *
 209:../Dave/Generated/src/ETH004/01_lwIP_Stack/src/core/tcp.c ****  * @param pcb the tcp_pcb to abort
 210:../Dave/Generated/src/ETH004/01_lwIP_Stack/src/core/tcp.c ****  * @param reset boolean to indicate whether a reset should be sent
 211:../Dave/Generated/src/ETH004/01_lwIP_Stack/src/core/tcp.c ****  */
 212:../Dave/Generated/src/ETH004/01_lwIP_Stack/src/core/tcp.c **** void
 213:../Dave/Generated/src/ETH004/01_lwIP_Stack/src/core/tcp.c **** tcp_abandon(struct tcp_pcb *pcb, int reset)
 214:../Dave/Generated/src/ETH004/01_lwIP_Stack/src/core/tcp.c **** {
 409              		.loc 1 214 0
 410              		.cfi_startproc
 411              		@ args = 0, pretend = 0, frame = 40
 412              		@ frame_needed = 1, uses_anonymous_args = 0
 413 0000 80B5     		push	{r7, lr}
 414              	.LCFI5:
 415              		.cfi_def_cfa_offset 8
 416              		.cfi_offset 7, -8
 417              		.cfi_offset 14, -4
 418 0002 8CB0     		sub	sp, sp, #48
 419              	.LCFI6:
 420              		.cfi_def_cfa_offset 56
 421 0004 02AF     		add	r7, sp, #8
 422              	.LCFI7:
 423              		.cfi_def_cfa 7, 48
 424 0006 7860     		str	r0, [r7, #4]
 425 0008 3960     		str	r1, [r7, #0]
 215:../Dave/Generated/src/ETH004/01_lwIP_Stack/src/core/tcp.c ****   u32_t seqno, ackno;
 216:../Dave/Generated/src/ETH004/01_lwIP_Stack/src/core/tcp.c ****   u16_t remote_port, local_port;
 217:../Dave/Generated/src/ETH004/01_lwIP_Stack/src/core/tcp.c ****   struct ip_addr remote_ip, local_ip;
 218:../Dave/Generated/src/ETH004/01_lwIP_Stack/src/core/tcp.c **** #if LWIP_CALLBACK_API  
 219:../Dave/Generated/src/ETH004/01_lwIP_Stack/src/core/tcp.c ****   void (* errf)(void *arg, err_t err);
 220:../Dave/Generated/src/ETH004/01_lwIP_Stack/src/core/tcp.c **** #endif /* LWIP_CALLBACK_API */
 221:../Dave/Generated/src/ETH004/01_lwIP_Stack/src/core/tcp.c ****   void *errf_arg;
 222:../Dave/Generated/src/ETH004/01_lwIP_Stack/src/core/tcp.c **** 
 223:../Dave/Generated/src/ETH004/01_lwIP_Stack/src/core/tcp.c ****   
 224:../Dave/Generated/src/ETH004/01_lwIP_Stack/src/core/tcp.c ****   /* Figure out on which TCP PCB list we are, and remove us. If we
 225:../Dave/Generated/src/ETH004/01_lwIP_Stack/src/core/tcp.c ****      are in an active state, call the receive function associated with
 226:../Dave/Generated/src/ETH004/01_lwIP_Stack/src/core/tcp.c ****      the PCB with a NULL argument, and send an RST to the remote end. */
 227:../Dave/Generated/src/ETH004/01_lwIP_Stack/src/core/tcp.c ****   if (pcb->state == TIME_WAIT) {
 426              		.loc 1 227 0
 427 000a 7B68     		ldr	r3, [r7, #4]
 428 000c 1B7C     		ldrb	r3, [r3, #16]	@ zero_extendqisi2
 429 000e 0A2B     		cmp	r3, #10
 430 0010 0AD1     		bne	.L27
 228:../Dave/Generated/src/ETH004/01_lwIP_Stack/src/core/tcp.c ****     tcp_pcb_remove(&tcp_tw_pcbs, pcb);
 431              		.loc 1 228 0
 432 0012 40F20000 		movw	r0, #:lower16:tcp_tw_pcbs
 433 0016 C0F20000 		movt	r0, #:upper16:tcp_tw_pcbs
 434 001a 7968     		ldr	r1, [r7, #4]
 435 001c FFF7FEFF 		bl	tcp_pcb_remove
 229:../Dave/Generated/src/ETH004/01_lwIP_Stack/src/core/tcp.c ****     memp_free(MEMP_TCP_PCB, pcb);
 436              		.loc 1 229 0
 437 0020 7868     		ldr	r0, [r7, #4]
 438 0022 FFF7FEFF 		bl	mem_free
 439 0026 59E0     		b	.L26
 440              	.L27:
 230:../Dave/Generated/src/ETH004/01_lwIP_Stack/src/core/tcp.c ****   } else {
 231:../Dave/Generated/src/ETH004/01_lwIP_Stack/src/core/tcp.c ****     seqno = pcb->snd_nxt;
 441              		.loc 1 231 0
 442 0028 7B68     		ldr	r3, [r7, #4]
 443 002a 9B6D     		ldr	r3, [r3, #88]
 444 002c 7B62     		str	r3, [r7, #36]
 232:../Dave/Generated/src/ETH004/01_lwIP_Stack/src/core/tcp.c ****     ackno = pcb->rcv_nxt;
 445              		.loc 1 232 0
 446 002e 7B68     		ldr	r3, [r7, #4]
 447 0030 5B6A     		ldr	r3, [r3, #36]
 448 0032 3B62     		str	r3, [r7, #32]
 233:../Dave/Generated/src/ETH004/01_lwIP_Stack/src/core/tcp.c ****     ip_addr_set(&local_ip, &(pcb->local_ip));
 449              		.loc 1 233 0
 450 0034 7B68     		ldr	r3, [r7, #4]
 451 0036 002B     		cmp	r3, #0
 452 0038 02D0     		beq	.L29
 453              		.loc 1 233 0 is_stmt 0 discriminator 1
 454 003a 7B68     		ldr	r3, [r7, #4]
 455 003c 1B68     		ldr	r3, [r3, #0]
 456 003e 01E0     		b	.L30
 457              	.L29:
 458              		.loc 1 233 0 discriminator 2
 459 0040 4FF00003 		mov	r3, #0
 460              	.L30:
 461              		.loc 1 233 0 discriminator 3
 462 0044 FB60     		str	r3, [r7, #12]
 234:../Dave/Generated/src/ETH004/01_lwIP_Stack/src/core/tcp.c ****     ip_addr_set(&remote_ip, &(pcb->remote_ip));
 463              		.loc 1 234 0 is_stmt 1 discriminator 3
 464 0046 7B68     		ldr	r3, [r7, #4]
 465 0048 03F10403 		add	r3, r3, #4
 466 004c 002B     		cmp	r3, #0
 467 004e 02D0     		beq	.L31
 468              		.loc 1 234 0 is_stmt 0 discriminator 1
 469 0050 7B68     		ldr	r3, [r7, #4]
 470 0052 5B68     		ldr	r3, [r3, #4]
 471 0054 01E0     		b	.L32
 472              	.L31:
 473              		.loc 1 234 0 discriminator 2
 474 0056 4FF00003 		mov	r3, #0
 475              	.L32:
 476              		.loc 1 234 0 discriminator 3
 477 005a 3B61     		str	r3, [r7, #16]
 235:../Dave/Generated/src/ETH004/01_lwIP_Stack/src/core/tcp.c ****     local_port = pcb->local_port;
 478              		.loc 1 235 0 is_stmt 1 discriminator 3
 479 005c 7B68     		ldr	r3, [r7, #4]
 480 005e 1B8B     		ldrh	r3, [r3, #24]	@ movhi
 481 0060 FB83     		strh	r3, [r7, #30]	@ movhi
 236:../Dave/Generated/src/ETH004/01_lwIP_Stack/src/core/tcp.c ****     remote_port = pcb->remote_port;
 482              		.loc 1 236 0 discriminator 3
 483 0062 7B68     		ldr	r3, [r7, #4]
 484 0064 1B8C     		ldrh	r3, [r3, #32]	@ movhi
 485 0066 BB83     		strh	r3, [r7, #28]	@ movhi
 237:../Dave/Generated/src/ETH004/01_lwIP_Stack/src/core/tcp.c **** #if LWIP_CALLBACK_API
 238:../Dave/Generated/src/ETH004/01_lwIP_Stack/src/core/tcp.c ****     errf = pcb->errf;
 486              		.loc 1 238 0 discriminator 3
 487 0068 7B68     		ldr	r3, [r7, #4]
 488 006a D3F89030 		ldr	r3, [r3, #144]
 489 006e BB61     		str	r3, [r7, #24]
 239:../Dave/Generated/src/ETH004/01_lwIP_Stack/src/core/tcp.c **** #endif /* LWIP_CALLBACK_API */
 240:../Dave/Generated/src/ETH004/01_lwIP_Stack/src/core/tcp.c ****     errf_arg = pcb->callback_arg;
 490              		.loc 1 240 0 discriminator 3
 491 0070 7B68     		ldr	r3, [r7, #4]
 492 0072 5B69     		ldr	r3, [r3, #20]
 493 0074 7B61     		str	r3, [r7, #20]
 241:../Dave/Generated/src/ETH004/01_lwIP_Stack/src/core/tcp.c ****     tcp_pcb_remove(&tcp_active_pcbs, pcb);
 494              		.loc 1 241 0 discriminator 3
 495 0076 40F20000 		movw	r0, #:lower16:tcp_active_pcbs
 496 007a C0F20000 		movt	r0, #:upper16:tcp_active_pcbs
 497 007e 7968     		ldr	r1, [r7, #4]
 498 0080 FFF7FEFF 		bl	tcp_pcb_remove
 242:../Dave/Generated/src/ETH004/01_lwIP_Stack/src/core/tcp.c ****     if (pcb->unacked != NULL) {
 499              		.loc 1 242 0 discriminator 3
 500 0084 7B68     		ldr	r3, [r7, #4]
 501 0086 9B6F     		ldr	r3, [r3, #120]
 502 0088 002B     		cmp	r3, #0
 503 008a 04D0     		beq	.L33
 243:../Dave/Generated/src/ETH004/01_lwIP_Stack/src/core/tcp.c ****       tcp_segs_free(pcb->unacked);
 504              		.loc 1 243 0
 505 008c 7B68     		ldr	r3, [r7, #4]
 506 008e 9B6F     		ldr	r3, [r3, #120]
 507 0090 1846     		mov	r0, r3
 508 0092 FFF7FEFF 		bl	tcp_segs_free
 509              	.L33:
 244:../Dave/Generated/src/ETH004/01_lwIP_Stack/src/core/tcp.c ****     }
 245:../Dave/Generated/src/ETH004/01_lwIP_Stack/src/core/tcp.c ****     if (pcb->unsent != NULL) {
 510              		.loc 1 245 0
 511 0096 7B68     		ldr	r3, [r7, #4]
 512 0098 5B6F     		ldr	r3, [r3, #116]
 513 009a 002B     		cmp	r3, #0
 514 009c 04D0     		beq	.L34
 246:../Dave/Generated/src/ETH004/01_lwIP_Stack/src/core/tcp.c ****       tcp_segs_free(pcb->unsent);
 515              		.loc 1 246 0
 516 009e 7B68     		ldr	r3, [r7, #4]
 517 00a0 5B6F     		ldr	r3, [r3, #116]
 518 00a2 1846     		mov	r0, r3
 519 00a4 FFF7FEFF 		bl	tcp_segs_free
 520              	.L34:
 247:../Dave/Generated/src/ETH004/01_lwIP_Stack/src/core/tcp.c ****     }
 248:../Dave/Generated/src/ETH004/01_lwIP_Stack/src/core/tcp.c **** #if TCP_QUEUE_OOSEQ    
 249:../Dave/Generated/src/ETH004/01_lwIP_Stack/src/core/tcp.c ****     if (pcb->ooseq != NULL) {
 250:../Dave/Generated/src/ETH004/01_lwIP_Stack/src/core/tcp.c ****       tcp_segs_free(pcb->ooseq);
 251:../Dave/Generated/src/ETH004/01_lwIP_Stack/src/core/tcp.c ****     }
 252:../Dave/Generated/src/ETH004/01_lwIP_Stack/src/core/tcp.c **** #endif /* TCP_QUEUE_OOSEQ */
 253:../Dave/Generated/src/ETH004/01_lwIP_Stack/src/core/tcp.c ****     memp_free(MEMP_TCP_PCB, pcb);
 521              		.loc 1 253 0
 522 00a8 7868     		ldr	r0, [r7, #4]
 523 00aa FFF7FEFF 		bl	mem_free
 254:../Dave/Generated/src/ETH004/01_lwIP_Stack/src/core/tcp.c ****     TCP_EVENT_ERR(errf, errf_arg, ERR_ABRT);
 524              		.loc 1 254 0
 525 00ae BB69     		ldr	r3, [r7, #24]
 526 00b0 002B     		cmp	r3, #0
 527 00b2 04D0     		beq	.L35
 528              		.loc 1 254 0 is_stmt 0 discriminator 1
 529 00b4 BB69     		ldr	r3, [r7, #24]
 530 00b6 7869     		ldr	r0, [r7, #20]
 531 00b8 6FF00401 		mvn	r1, #4
 532 00bc 9847     		blx	r3
 533              	.L35:
 255:../Dave/Generated/src/ETH004/01_lwIP_Stack/src/core/tcp.c ****     if (reset) {
 534              		.loc 1 255 0 is_stmt 1
 535 00be 3B68     		ldr	r3, [r7, #0]
 536 00c0 002B     		cmp	r3, #0
 537 00c2 0BD0     		beq	.L26
 256:../Dave/Generated/src/ETH004/01_lwIP_Stack/src/core/tcp.c ****       LWIP_DEBUGF(TCP_RST_DEBUG, ("tcp_abandon: sending RST\n"));
 257:../Dave/Generated/src/ETH004/01_lwIP_Stack/src/core/tcp.c ****       tcp_rst(seqno, ackno, &local_ip, &remote_ip, local_port, remote_port);
 538              		.loc 1 257 0
 539 00c4 07F10C02 		add	r2, r7, #12
 540 00c8 07F11003 		add	r3, r7, #16
 541 00cc F98B     		ldrh	r1, [r7, #30]
 542 00ce 0091     		str	r1, [sp, #0]
 543 00d0 B98B     		ldrh	r1, [r7, #28]
 544 00d2 0191     		str	r1, [sp, #4]
 545 00d4 786A     		ldr	r0, [r7, #36]
 546 00d6 396A     		ldr	r1, [r7, #32]
 547 00d8 FFF7FEFF 		bl	tcp_rst
 548              	.L26:
 258:../Dave/Generated/src/ETH004/01_lwIP_Stack/src/core/tcp.c ****     }
 259:../Dave/Generated/src/ETH004/01_lwIP_Stack/src/core/tcp.c ****   }
 260:../Dave/Generated/src/ETH004/01_lwIP_Stack/src/core/tcp.c **** }
 549              		.loc 1 260 0
 550 00dc 07F12807 		add	r7, r7, #40
 551 00e0 BD46     		mov	sp, r7
 552 00e2 80BD     		pop	{r7, pc}
 553              		.cfi_endproc
 554              	.LFE2:
 556              		.section	.text.tcp_bind,"ax",%progbits
 557              		.align	2
 558              		.global	tcp_bind
 559              		.thumb
 560              		.thumb_func
 562              	tcp_bind:
 563              	.LFB3:
 261:../Dave/Generated/src/ETH004/01_lwIP_Stack/src/core/tcp.c **** 
 262:../Dave/Generated/src/ETH004/01_lwIP_Stack/src/core/tcp.c **** /**
 263:../Dave/Generated/src/ETH004/01_lwIP_Stack/src/core/tcp.c ****  * Binds the connection to a local portnumber and IP address. If the
 264:../Dave/Generated/src/ETH004/01_lwIP_Stack/src/core/tcp.c ****  * IP address is not given (i.e., ipaddr == NULL), the IP address of
 265:../Dave/Generated/src/ETH004/01_lwIP_Stack/src/core/tcp.c ****  * the outgoing network interface is used instead.
 266:../Dave/Generated/src/ETH004/01_lwIP_Stack/src/core/tcp.c ****  *
 267:../Dave/Generated/src/ETH004/01_lwIP_Stack/src/core/tcp.c ****  * @param pcb the tcp_pcb to bind (no check is done whether this pcb is
 268:../Dave/Generated/src/ETH004/01_lwIP_Stack/src/core/tcp.c ****  *        already bound!)
 269:../Dave/Generated/src/ETH004/01_lwIP_Stack/src/core/tcp.c ****  * @param ipaddr the local ip address to bind to (use IP_ADDR_ANY to bind
 270:../Dave/Generated/src/ETH004/01_lwIP_Stack/src/core/tcp.c ****  *        to any local address
 271:../Dave/Generated/src/ETH004/01_lwIP_Stack/src/core/tcp.c ****  * @param port the local port to bind to
 272:../Dave/Generated/src/ETH004/01_lwIP_Stack/src/core/tcp.c ****  * @return ERR_USE if the port is already in use
 273:../Dave/Generated/src/ETH004/01_lwIP_Stack/src/core/tcp.c ****  *         ERR_OK if bound
 274:../Dave/Generated/src/ETH004/01_lwIP_Stack/src/core/tcp.c ****  */
 275:../Dave/Generated/src/ETH004/01_lwIP_Stack/src/core/tcp.c **** err_t
 276:../Dave/Generated/src/ETH004/01_lwIP_Stack/src/core/tcp.c **** tcp_bind(struct tcp_pcb *pcb, struct ip_addr *ipaddr, u16_t port)
 277:../Dave/Generated/src/ETH004/01_lwIP_Stack/src/core/tcp.c **** {
 564              		.loc 1 277 0
 565              		.cfi_startproc
 566              		@ args = 0, pretend = 0, frame = 24
 567              		@ frame_needed = 1, uses_anonymous_args = 0
 568 0000 80B5     		push	{r7, lr}
 569              	.LCFI8:
 570              		.cfi_def_cfa_offset 8
 571              		.cfi_offset 7, -8
 572              		.cfi_offset 14, -4
 573 0002 86B0     		sub	sp, sp, #24
 574              	.LCFI9:
 575              		.cfi_def_cfa_offset 32
 576 0004 00AF     		add	r7, sp, #0
 577              	.LCFI10:
 578              		.cfi_def_cfa_register 7
 579 0006 F860     		str	r0, [r7, #12]
 580 0008 B960     		str	r1, [r7, #8]
 581 000a 1346     		mov	r3, r2
 582 000c FB80     		strh	r3, [r7, #6]	@ movhi
 278:../Dave/Generated/src/ETH004/01_lwIP_Stack/src/core/tcp.c ****   struct tcp_pcb *cpcb;
 279:../Dave/Generated/src/ETH004/01_lwIP_Stack/src/core/tcp.c **** 
 280:../Dave/Generated/src/ETH004/01_lwIP_Stack/src/core/tcp.c ****   LWIP_ERROR("tcp_bind: can only bind in state CLOSED", pcb->state == CLOSED, return ERR_ISCONN);
 583              		.loc 1 280 0
 584 000e FB68     		ldr	r3, [r7, #12]
 585 0010 1B7C     		ldrb	r3, [r3, #16]	@ zero_extendqisi2
 586 0012 002B     		cmp	r3, #0
 587 0014 02D0     		beq	.L37
 588              		.loc 1 280 0 is_stmt 0 discriminator 3
 589 0016 4FF0F303 		mov	r3, #243
 590 001a B9E0     		b	.L38
 591              	.L37:
 281:../Dave/Generated/src/ETH004/01_lwIP_Stack/src/core/tcp.c **** 
 282:../Dave/Generated/src/ETH004/01_lwIP_Stack/src/core/tcp.c ****   if (port == 0) {
 592              		.loc 1 282 0 is_stmt 1
 593 001c FB88     		ldrh	r3, [r7, #6]
 594 001e 002B     		cmp	r3, #0
 595 0020 03D1     		bne	.L39
 283:../Dave/Generated/src/ETH004/01_lwIP_Stack/src/core/tcp.c ****     port = tcp_new_port();
 596              		.loc 1 283 0
 597 0022 FFF7FEFF 		bl	tcp_new_port
 598 0026 0346     		mov	r3, r0
 599 0028 FB80     		strh	r3, [r7, #6]	@ movhi
 600              	.L39:
 284:../Dave/Generated/src/ETH004/01_lwIP_Stack/src/core/tcp.c ****   }
 285:../Dave/Generated/src/ETH004/01_lwIP_Stack/src/core/tcp.c ****   /* Check if the address already is in use. */
 286:../Dave/Generated/src/ETH004/01_lwIP_Stack/src/core/tcp.c ****   /* Check the listen pcbs. */
 287:../Dave/Generated/src/ETH004/01_lwIP_Stack/src/core/tcp.c ****   for(cpcb = (struct tcp_pcb *)tcp_listen_pcbs.pcbs;
 601              		.loc 1 287 0
 602 002a 40F20003 		movw	r3, #:lower16:tcp_listen_pcbs
 603 002e C0F20003 		movt	r3, #:upper16:tcp_listen_pcbs
 604 0032 1B68     		ldr	r3, [r3, #0]
 605 0034 7B61     		str	r3, [r7, #20]
 606 0036 1EE0     		b	.L40
 607              	.L43:
 288:../Dave/Generated/src/ETH004/01_lwIP_Stack/src/core/tcp.c ****       cpcb != NULL; cpcb = cpcb->next) {
 289:../Dave/Generated/src/ETH004/01_lwIP_Stack/src/core/tcp.c ****     if (cpcb->local_port == port) {
 608              		.loc 1 289 0
 609 0038 7B69     		ldr	r3, [r7, #20]
 610 003a 1B8B     		ldrh	r3, [r3, #24]
 611 003c FA88     		ldrh	r2, [r7, #6]
 612 003e 9A42     		cmp	r2, r3
 613 0040 16D1     		bne	.L41
 290:../Dave/Generated/src/ETH004/01_lwIP_Stack/src/core/tcp.c ****       if (ip_addr_isany(&(cpcb->local_ip)) ||
 614              		.loc 1 290 0
 615 0042 7B69     		ldr	r3, [r7, #20]
 616 0044 002B     		cmp	r3, #0
 617 0046 10D0     		beq	.L42
 618              		.loc 1 290 0 is_stmt 0 discriminator 1
 619 0048 7B69     		ldr	r3, [r7, #20]
 620 004a 1B68     		ldr	r3, [r3, #0]
 621 004c 002B     		cmp	r3, #0
 622 004e 0CD0     		beq	.L42
 623 0050 BB68     		ldr	r3, [r7, #8]
 624 0052 002B     		cmp	r3, #0
 625 0054 09D0     		beq	.L42
 291:../Dave/Generated/src/ETH004/01_lwIP_Stack/src/core/tcp.c ****           ip_addr_isany(ipaddr) ||
 626              		.loc 1 291 0 is_stmt 1
 627 0056 BB68     		ldr	r3, [r7, #8]
 628 0058 1B68     		ldr	r3, [r3, #0]	@ unaligned
 629 005a 002B     		cmp	r3, #0
 630 005c 05D0     		beq	.L42
 292:../Dave/Generated/src/ETH004/01_lwIP_Stack/src/core/tcp.c ****           ip_addr_cmp(&(cpcb->local_ip), ipaddr)) {
 631              		.loc 1 292 0 discriminator 1
 632 005e 7B69     		ldr	r3, [r7, #20]
 633 0060 1A68     		ldr	r2, [r3, #0]
 634 0062 BB68     		ldr	r3, [r7, #8]
 635 0064 1B68     		ldr	r3, [r3, #0]	@ unaligned
 291:../Dave/Generated/src/ETH004/01_lwIP_Stack/src/core/tcp.c ****           ip_addr_isany(ipaddr) ||
 636              		.loc 1 291 0 discriminator 1
 637 0066 9A42     		cmp	r2, r3
 638 0068 02D1     		bne	.L41
 639              	.L42:
 293:../Dave/Generated/src/ETH004/01_lwIP_Stack/src/core/tcp.c ****         return ERR_USE;
 640              		.loc 1 293 0
 641 006a 4FF0F503 		mov	r3, #245
 642 006e 8FE0     		b	.L38
 643              	.L41:
 288:../Dave/Generated/src/ETH004/01_lwIP_Stack/src/core/tcp.c ****       cpcb != NULL; cpcb = cpcb->next) {
 644              		.loc 1 288 0
 645 0070 7B69     		ldr	r3, [r7, #20]
 646 0072 DB68     		ldr	r3, [r3, #12]
 647 0074 7B61     		str	r3, [r7, #20]
 648              	.L40:
 287:../Dave/Generated/src/ETH004/01_lwIP_Stack/src/core/tcp.c ****   for(cpcb = (struct tcp_pcb *)tcp_listen_pcbs.pcbs;
 649              		.loc 1 287 0 discriminator 1
 650 0076 7B69     		ldr	r3, [r7, #20]
 651 0078 002B     		cmp	r3, #0
 652 007a DDD1     		bne	.L43
 294:../Dave/Generated/src/ETH004/01_lwIP_Stack/src/core/tcp.c ****       }
 295:../Dave/Generated/src/ETH004/01_lwIP_Stack/src/core/tcp.c ****     }
 296:../Dave/Generated/src/ETH004/01_lwIP_Stack/src/core/tcp.c ****   }
 297:../Dave/Generated/src/ETH004/01_lwIP_Stack/src/core/tcp.c ****   /* Check the connected pcbs. */
 298:../Dave/Generated/src/ETH004/01_lwIP_Stack/src/core/tcp.c ****   for(cpcb = tcp_active_pcbs;
 653              		.loc 1 298 0
 654 007c 40F20003 		movw	r3, #:lower16:tcp_active_pcbs
 655 0080 C0F20003 		movt	r3, #:upper16:tcp_active_pcbs
 656 0084 1B68     		ldr	r3, [r3, #0]
 657 0086 7B61     		str	r3, [r7, #20]
 658 0088 1EE0     		b	.L44
 659              	.L47:
 299:../Dave/Generated/src/ETH004/01_lwIP_Stack/src/core/tcp.c ****       cpcb != NULL; cpcb = cpcb->next) {
 300:../Dave/Generated/src/ETH004/01_lwIP_Stack/src/core/tcp.c ****     if (cpcb->local_port == port) {
 660              		.loc 1 300 0
 661 008a 7B69     		ldr	r3, [r7, #20]
 662 008c 1B8B     		ldrh	r3, [r3, #24]
 663 008e FA88     		ldrh	r2, [r7, #6]
 664 0090 9A42     		cmp	r2, r3
 665 0092 16D1     		bne	.L45
 301:../Dave/Generated/src/ETH004/01_lwIP_Stack/src/core/tcp.c ****       if (ip_addr_isany(&(cpcb->local_ip)) ||
 666              		.loc 1 301 0
 667 0094 7B69     		ldr	r3, [r7, #20]
 668 0096 002B     		cmp	r3, #0
 669 0098 10D0     		beq	.L46
 670              		.loc 1 301 0 is_stmt 0 discriminator 1
 671 009a 7B69     		ldr	r3, [r7, #20]
 672 009c 1B68     		ldr	r3, [r3, #0]
 673 009e 002B     		cmp	r3, #0
 674 00a0 0CD0     		beq	.L46
 675 00a2 BB68     		ldr	r3, [r7, #8]
 676 00a4 002B     		cmp	r3, #0
 677 00a6 09D0     		beq	.L46
 302:../Dave/Generated/src/ETH004/01_lwIP_Stack/src/core/tcp.c ****           ip_addr_isany(ipaddr) ||
 678              		.loc 1 302 0 is_stmt 1
 679 00a8 BB68     		ldr	r3, [r7, #8]
 680 00aa 1B68     		ldr	r3, [r3, #0]	@ unaligned
 681 00ac 002B     		cmp	r3, #0
 682 00ae 05D0     		beq	.L46
 303:../Dave/Generated/src/ETH004/01_lwIP_Stack/src/core/tcp.c ****           ip_addr_cmp(&(cpcb->local_ip), ipaddr)) {
 683              		.loc 1 303 0 discriminator 1
 684 00b0 7B69     		ldr	r3, [r7, #20]
 685 00b2 1A68     		ldr	r2, [r3, #0]
 686 00b4 BB68     		ldr	r3, [r7, #8]
 687 00b6 1B68     		ldr	r3, [r3, #0]	@ unaligned
 302:../Dave/Generated/src/ETH004/01_lwIP_Stack/src/core/tcp.c ****           ip_addr_isany(ipaddr) ||
 688              		.loc 1 302 0 discriminator 1
 689 00b8 9A42     		cmp	r2, r3
 690 00ba 02D1     		bne	.L45
 691              	.L46:
 304:../Dave/Generated/src/ETH004/01_lwIP_Stack/src/core/tcp.c ****         return ERR_USE;
 692              		.loc 1 304 0
 693 00bc 4FF0F503 		mov	r3, #245
 694 00c0 66E0     		b	.L38
 695              	.L45:
 299:../Dave/Generated/src/ETH004/01_lwIP_Stack/src/core/tcp.c ****       cpcb != NULL; cpcb = cpcb->next) {
 696              		.loc 1 299 0
 697 00c2 7B69     		ldr	r3, [r7, #20]
 698 00c4 DB68     		ldr	r3, [r3, #12]
 699 00c6 7B61     		str	r3, [r7, #20]
 700              	.L44:
 298:../Dave/Generated/src/ETH004/01_lwIP_Stack/src/core/tcp.c ****   for(cpcb = tcp_active_pcbs;
 701              		.loc 1 298 0 discriminator 1
 702 00c8 7B69     		ldr	r3, [r7, #20]
 703 00ca 002B     		cmp	r3, #0
 704 00cc DDD1     		bne	.L47
 305:../Dave/Generated/src/ETH004/01_lwIP_Stack/src/core/tcp.c ****       }
 306:../Dave/Generated/src/ETH004/01_lwIP_Stack/src/core/tcp.c ****     }
 307:../Dave/Generated/src/ETH004/01_lwIP_Stack/src/core/tcp.c ****   }
 308:../Dave/Generated/src/ETH004/01_lwIP_Stack/src/core/tcp.c ****   /* Check the bound, not yet connected pcbs. */
 309:../Dave/Generated/src/ETH004/01_lwIP_Stack/src/core/tcp.c ****   for(cpcb = tcp_bound_pcbs; cpcb != NULL; cpcb = cpcb->next) {
 705              		.loc 1 309 0
 706 00ce 40F20003 		movw	r3, #:lower16:tcp_bound_pcbs
 707 00d2 C0F20003 		movt	r3, #:upper16:tcp_bound_pcbs
 708 00d6 1B68     		ldr	r3, [r3, #0]
 709 00d8 7B61     		str	r3, [r7, #20]
 710 00da 1EE0     		b	.L48
 711              	.L51:
 310:../Dave/Generated/src/ETH004/01_lwIP_Stack/src/core/tcp.c ****     if (cpcb->local_port == port) {
 712              		.loc 1 310 0
 713 00dc 7B69     		ldr	r3, [r7, #20]
 714 00de 1B8B     		ldrh	r3, [r3, #24]
 715 00e0 FA88     		ldrh	r2, [r7, #6]
 716 00e2 9A42     		cmp	r2, r3
 717 00e4 16D1     		bne	.L49
 311:../Dave/Generated/src/ETH004/01_lwIP_Stack/src/core/tcp.c ****       if (ip_addr_isany(&(cpcb->local_ip)) ||
 718              		.loc 1 311 0
 719 00e6 7B69     		ldr	r3, [r7, #20]
 720 00e8 002B     		cmp	r3, #0
 721 00ea 10D0     		beq	.L50
 722              		.loc 1 311 0 is_stmt 0 discriminator 1
 723 00ec 7B69     		ldr	r3, [r7, #20]
 724 00ee 1B68     		ldr	r3, [r3, #0]
 725 00f0 002B     		cmp	r3, #0
 726 00f2 0CD0     		beq	.L50
 727 00f4 BB68     		ldr	r3, [r7, #8]
 728 00f6 002B     		cmp	r3, #0
 729 00f8 09D0     		beq	.L50
 312:../Dave/Generated/src/ETH004/01_lwIP_Stack/src/core/tcp.c ****           ip_addr_isany(ipaddr) ||
 730              		.loc 1 312 0 is_stmt 1
 731 00fa BB68     		ldr	r3, [r7, #8]
 732 00fc 1B68     		ldr	r3, [r3, #0]	@ unaligned
 733 00fe 002B     		cmp	r3, #0
 734 0100 05D0     		beq	.L50
 313:../Dave/Generated/src/ETH004/01_lwIP_Stack/src/core/tcp.c ****           ip_addr_cmp(&(cpcb->local_ip), ipaddr)) {
 735              		.loc 1 313 0 discriminator 1
 736 0102 7B69     		ldr	r3, [r7, #20]
 737 0104 1A68     		ldr	r2, [r3, #0]
 738 0106 BB68     		ldr	r3, [r7, #8]
 739 0108 1B68     		ldr	r3, [r3, #0]	@ unaligned
 312:../Dave/Generated/src/ETH004/01_lwIP_Stack/src/core/tcp.c ****           ip_addr_isany(ipaddr) ||
 740              		.loc 1 312 0 discriminator 1
 741 010a 9A42     		cmp	r2, r3
 742 010c 02D1     		bne	.L49
 743              	.L50:
 314:../Dave/Generated/src/ETH004/01_lwIP_Stack/src/core/tcp.c ****         return ERR_USE;
 744              		.loc 1 314 0
 745 010e 4FF0F503 		mov	r3, #245
 746 0112 3DE0     		b	.L38
 747              	.L49:
 309:../Dave/Generated/src/ETH004/01_lwIP_Stack/src/core/tcp.c ****   for(cpcb = tcp_bound_pcbs; cpcb != NULL; cpcb = cpcb->next) {
 748              		.loc 1 309 0
 749 0114 7B69     		ldr	r3, [r7, #20]
 750 0116 DB68     		ldr	r3, [r3, #12]
 751 0118 7B61     		str	r3, [r7, #20]
 752              	.L48:
 309:../Dave/Generated/src/ETH004/01_lwIP_Stack/src/core/tcp.c ****   for(cpcb = tcp_bound_pcbs; cpcb != NULL; cpcb = cpcb->next) {
 753              		.loc 1 309 0 is_stmt 0 discriminator 1
 754 011a 7B69     		ldr	r3, [r7, #20]
 755 011c 002B     		cmp	r3, #0
 756 011e DDD1     		bne	.L51
 315:../Dave/Generated/src/ETH004/01_lwIP_Stack/src/core/tcp.c ****       }
 316:../Dave/Generated/src/ETH004/01_lwIP_Stack/src/core/tcp.c ****     }
 317:../Dave/Generated/src/ETH004/01_lwIP_Stack/src/core/tcp.c ****   }
 318:../Dave/Generated/src/ETH004/01_lwIP_Stack/src/core/tcp.c ****   /* @todo: until SO_REUSEADDR is implemented (see task #6995 on savannah),
 319:../Dave/Generated/src/ETH004/01_lwIP_Stack/src/core/tcp.c ****    * we have to check the pcbs in TIME-WAIT state, also: */
 320:../Dave/Generated/src/ETH004/01_lwIP_Stack/src/core/tcp.c ****   for(cpcb = tcp_tw_pcbs; cpcb != NULL; cpcb = cpcb->next) {
 757              		.loc 1 320 0 is_stmt 1
 758 0120 40F20003 		movw	r3, #:lower16:tcp_tw_pcbs
 759 0124 C0F20003 		movt	r3, #:upper16:tcp_tw_pcbs
 760 0128 1B68     		ldr	r3, [r3, #0]
 761 012a 7B61     		str	r3, [r7, #20]
 762 012c 10E0     		b	.L52
 763              	.L54:
 321:../Dave/Generated/src/ETH004/01_lwIP_Stack/src/core/tcp.c ****     if (cpcb->local_port == port) {
 764              		.loc 1 321 0
 765 012e 7B69     		ldr	r3, [r7, #20]
 766 0130 1B8B     		ldrh	r3, [r3, #24]
 767 0132 FA88     		ldrh	r2, [r7, #6]
 768 0134 9A42     		cmp	r2, r3
 769 0136 08D1     		bne	.L53
 322:../Dave/Generated/src/ETH004/01_lwIP_Stack/src/core/tcp.c ****       if (ip_addr_cmp(&(cpcb->local_ip), ipaddr)) {
 770              		.loc 1 322 0
 771 0138 7B69     		ldr	r3, [r7, #20]
 772 013a 1A68     		ldr	r2, [r3, #0]
 773 013c BB68     		ldr	r3, [r7, #8]
 774 013e 1B68     		ldr	r3, [r3, #0]	@ unaligned
 775 0140 9A42     		cmp	r2, r3
 776 0142 02D1     		bne	.L53
 323:../Dave/Generated/src/ETH004/01_lwIP_Stack/src/core/tcp.c ****         return ERR_USE;
 777              		.loc 1 323 0
 778 0144 4FF0F503 		mov	r3, #245
 779 0148 22E0     		b	.L38
 780              	.L53:
 320:../Dave/Generated/src/ETH004/01_lwIP_Stack/src/core/tcp.c ****   for(cpcb = tcp_tw_pcbs; cpcb != NULL; cpcb = cpcb->next) {
 781              		.loc 1 320 0
 782 014a 7B69     		ldr	r3, [r7, #20]
 783 014c DB68     		ldr	r3, [r3, #12]
 784 014e 7B61     		str	r3, [r7, #20]
 785              	.L52:
 320:../Dave/Generated/src/ETH004/01_lwIP_Stack/src/core/tcp.c ****   for(cpcb = tcp_tw_pcbs; cpcb != NULL; cpcb = cpcb->next) {
 786              		.loc 1 320 0 is_stmt 0 discriminator 1
 787 0150 7B69     		ldr	r3, [r7, #20]
 788 0152 002B     		cmp	r3, #0
 789 0154 EBD1     		bne	.L54
 324:../Dave/Generated/src/ETH004/01_lwIP_Stack/src/core/tcp.c ****       }
 325:../Dave/Generated/src/ETH004/01_lwIP_Stack/src/core/tcp.c ****     }
 326:../Dave/Generated/src/ETH004/01_lwIP_Stack/src/core/tcp.c ****   }
 327:../Dave/Generated/src/ETH004/01_lwIP_Stack/src/core/tcp.c **** 
 328:../Dave/Generated/src/ETH004/01_lwIP_Stack/src/core/tcp.c ****   if (!ip_addr_isany(ipaddr)) {
 790              		.loc 1 328 0 is_stmt 1
 791 0156 BB68     		ldr	r3, [r7, #8]
 792 0158 002B     		cmp	r3, #0
 793 015a 07D0     		beq	.L55
 794              		.loc 1 328 0 is_stmt 0 discriminator 1
 795 015c BB68     		ldr	r3, [r7, #8]
 796 015e 1B68     		ldr	r3, [r3, #0]	@ unaligned
 797 0160 002B     		cmp	r3, #0
 798 0162 03D0     		beq	.L55
 329:../Dave/Generated/src/ETH004/01_lwIP_Stack/src/core/tcp.c ****     pcb->local_ip = *ipaddr;
 799              		.loc 1 329 0 is_stmt 1
 800 0164 FB68     		ldr	r3, [r7, #12]
 801 0166 BA68     		ldr	r2, [r7, #8]
 802 0168 1068     		ldr	r0, [r2, #0]	@ unaligned
 803 016a 1860     		str	r0, [r3, #0]	@ unaligned
 804              	.L55:
 330:../Dave/Generated/src/ETH004/01_lwIP_Stack/src/core/tcp.c ****   }
 331:../Dave/Generated/src/ETH004/01_lwIP_Stack/src/core/tcp.c ****   pcb->local_port = port;
 805              		.loc 1 331 0
 806 016c FB68     		ldr	r3, [r7, #12]
 807 016e FA88     		ldrh	r2, [r7, #6]	@ movhi
 808 0170 1A83     		strh	r2, [r3, #24]	@ movhi
 332:../Dave/Generated/src/ETH004/01_lwIP_Stack/src/core/tcp.c ****   TCP_REG(&tcp_bound_pcbs, pcb);
 809              		.loc 1 332 0
 810 0172 40F20003 		movw	r3, #:lower16:tcp_bound_pcbs
 811 0176 C0F20003 		movt	r3, #:upper16:tcp_bound_pcbs
 812 017a 1A68     		ldr	r2, [r3, #0]
 813 017c FB68     		ldr	r3, [r7, #12]
 814 017e DA60     		str	r2, [r3, #12]
 815 0180 40F20003 		movw	r3, #:lower16:tcp_bound_pcbs
 816 0184 C0F20003 		movt	r3, #:upper16:tcp_bound_pcbs
 817 0188 FA68     		ldr	r2, [r7, #12]
 818 018a 1A60     		str	r2, [r3, #0]
 333:../Dave/Generated/src/ETH004/01_lwIP_Stack/src/core/tcp.c ****   LWIP_DEBUGF(TCP_DEBUG, ("tcp_bind: bind to port %"U16_F"\n", port));
 334:../Dave/Generated/src/ETH004/01_lwIP_Stack/src/core/tcp.c ****   return ERR_OK;
 819              		.loc 1 334 0
 820 018c 4FF00003 		mov	r3, #0
 821              	.L38:
 822 0190 5BB2     		sxtb	r3, r3
 335:../Dave/Generated/src/ETH004/01_lwIP_Stack/src/core/tcp.c **** }
 823              		.loc 1 335 0
 824 0192 1846     		mov	r0, r3
 825 0194 07F11807 		add	r7, r7, #24
 826 0198 BD46     		mov	sp, r7
 827 019a 80BD     		pop	{r7, pc}
 828              		.cfi_endproc
 829              	.LFE3:
 831              		.section	.text.tcp_accept_null,"ax",%progbits
 832              		.align	2
 833              		.thumb
 834              		.thumb_func
 836              	tcp_accept_null:
 837              	.LFB4:
 336:../Dave/Generated/src/ETH004/01_lwIP_Stack/src/core/tcp.c **** #if LWIP_CALLBACK_API
 337:../Dave/Generated/src/ETH004/01_lwIP_Stack/src/core/tcp.c **** /**
 338:../Dave/Generated/src/ETH004/01_lwIP_Stack/src/core/tcp.c ****  * Default accept callback if no accept callback is specified by the user.
 339:../Dave/Generated/src/ETH004/01_lwIP_Stack/src/core/tcp.c ****  */
 340:../Dave/Generated/src/ETH004/01_lwIP_Stack/src/core/tcp.c **** static err_t
 341:../Dave/Generated/src/ETH004/01_lwIP_Stack/src/core/tcp.c **** tcp_accept_null(void *arg, struct tcp_pcb *pcb, err_t err)
 342:../Dave/Generated/src/ETH004/01_lwIP_Stack/src/core/tcp.c **** {
 838              		.loc 1 342 0
 839              		.cfi_startproc
 840              		@ args = 0, pretend = 0, frame = 16
 841              		@ frame_needed = 1, uses_anonymous_args = 0
 842              		@ link register save eliminated.
 843 0000 80B4     		push	{r7}
 844              	.LCFI11:
 845              		.cfi_def_cfa_offset 4
 846              		.cfi_offset 7, -4
 847 0002 85B0     		sub	sp, sp, #20
 848              	.LCFI12:
 849              		.cfi_def_cfa_offset 24
 850 0004 00AF     		add	r7, sp, #0
 851              	.LCFI13:
 852              		.cfi_def_cfa_register 7
 853 0006 F860     		str	r0, [r7, #12]
 854 0008 B960     		str	r1, [r7, #8]
 855 000a 1346     		mov	r3, r2
 856 000c FB71     		strb	r3, [r7, #7]
 343:../Dave/Generated/src/ETH004/01_lwIP_Stack/src/core/tcp.c ****   LWIP_UNUSED_ARG(arg);
 344:../Dave/Generated/src/ETH004/01_lwIP_Stack/src/core/tcp.c ****   LWIP_UNUSED_ARG(pcb);
 345:../Dave/Generated/src/ETH004/01_lwIP_Stack/src/core/tcp.c ****   LWIP_UNUSED_ARG(err);
 346:../Dave/Generated/src/ETH004/01_lwIP_Stack/src/core/tcp.c **** 
 347:../Dave/Generated/src/ETH004/01_lwIP_Stack/src/core/tcp.c ****   return ERR_ABRT;
 857              		.loc 1 347 0
 858 000e 4FF0FB03 		mov	r3, #251
 859 0012 5BB2     		sxtb	r3, r3
 348:../Dave/Generated/src/ETH004/01_lwIP_Stack/src/core/tcp.c **** }
 860              		.loc 1 348 0
 861 0014 1846     		mov	r0, r3
 862 0016 07F11407 		add	r7, r7, #20
 863 001a BD46     		mov	sp, r7
 864 001c 80BC     		pop	{r7}
 865 001e 7047     		bx	lr
 866              		.cfi_endproc
 867              	.LFE4:
 869              		.section	.text.tcp_listen_with_backlog,"ax",%progbits
 870              		.align	2
 871              		.global	tcp_listen_with_backlog
 872              		.thumb
 873              		.thumb_func
 875              	tcp_listen_with_backlog:
 876              	.LFB5:
 349:../Dave/Generated/src/ETH004/01_lwIP_Stack/src/core/tcp.c **** #endif /* LWIP_CALLBACK_API */
 350:../Dave/Generated/src/ETH004/01_lwIP_Stack/src/core/tcp.c **** 
 351:../Dave/Generated/src/ETH004/01_lwIP_Stack/src/core/tcp.c **** /**
 352:../Dave/Generated/src/ETH004/01_lwIP_Stack/src/core/tcp.c ****  * Set the state of the connection to be LISTEN, which means that it
 353:../Dave/Generated/src/ETH004/01_lwIP_Stack/src/core/tcp.c ****  * is able to accept incoming connections. The protocol control block
 354:../Dave/Generated/src/ETH004/01_lwIP_Stack/src/core/tcp.c ****  * is reallocated in order to consume less memory. Setting the
 355:../Dave/Generated/src/ETH004/01_lwIP_Stack/src/core/tcp.c ****  * connection to LISTEN is an irreversible process.
 356:../Dave/Generated/src/ETH004/01_lwIP_Stack/src/core/tcp.c ****  *
 357:../Dave/Generated/src/ETH004/01_lwIP_Stack/src/core/tcp.c ****  * @param pcb the original tcp_pcb
 358:../Dave/Generated/src/ETH004/01_lwIP_Stack/src/core/tcp.c ****  * @param backlog the incoming connections queue limit
 359:../Dave/Generated/src/ETH004/01_lwIP_Stack/src/core/tcp.c ****  * @return tcp_pcb used for listening, consumes less memory.
 360:../Dave/Generated/src/ETH004/01_lwIP_Stack/src/core/tcp.c ****  *
 361:../Dave/Generated/src/ETH004/01_lwIP_Stack/src/core/tcp.c ****  * @note The original tcp_pcb is freed. This function therefore has to be
 362:../Dave/Generated/src/ETH004/01_lwIP_Stack/src/core/tcp.c ****  *       called like this:
 363:../Dave/Generated/src/ETH004/01_lwIP_Stack/src/core/tcp.c ****  *             tpcb = tcp_listen(tpcb);
 364:../Dave/Generated/src/ETH004/01_lwIP_Stack/src/core/tcp.c ****  */
 365:../Dave/Generated/src/ETH004/01_lwIP_Stack/src/core/tcp.c **** struct tcp_pcb *
 366:../Dave/Generated/src/ETH004/01_lwIP_Stack/src/core/tcp.c **** tcp_listen_with_backlog(struct tcp_pcb *pcb, u8_t backlog)
 367:../Dave/Generated/src/ETH004/01_lwIP_Stack/src/core/tcp.c **** {
 877              		.loc 1 367 0
 878              		.cfi_startproc
 879              		@ args = 0, pretend = 0, frame = 16
 880              		@ frame_needed = 1, uses_anonymous_args = 0
 881 0000 80B5     		push	{r7, lr}
 882              	.LCFI14:
 883              		.cfi_def_cfa_offset 8
 884              		.cfi_offset 7, -8
 885              		.cfi_offset 14, -4
 886 0002 84B0     		sub	sp, sp, #16
 887              	.LCFI15:
 888              		.cfi_def_cfa_offset 24
 889 0004 00AF     		add	r7, sp, #0
 890              	.LCFI16:
 891              		.cfi_def_cfa_register 7
 892 0006 7860     		str	r0, [r7, #4]
 893 0008 0B46     		mov	r3, r1
 894 000a FB70     		strb	r3, [r7, #3]
 368:../Dave/Generated/src/ETH004/01_lwIP_Stack/src/core/tcp.c ****   struct tcp_pcb_listen *lpcb;
 369:../Dave/Generated/src/ETH004/01_lwIP_Stack/src/core/tcp.c **** 
 370:../Dave/Generated/src/ETH004/01_lwIP_Stack/src/core/tcp.c ****   LWIP_UNUSED_ARG(backlog);
 371:../Dave/Generated/src/ETH004/01_lwIP_Stack/src/core/tcp.c ****   LWIP_ERROR("tcp_listen: pcb already connected", pcb->state == CLOSED, return NULL);
 895              		.loc 1 371 0
 896 000c 7B68     		ldr	r3, [r7, #4]
 897 000e 1B7C     		ldrb	r3, [r3, #16]	@ zero_extendqisi2
 898 0010 002B     		cmp	r3, #0
 899 0012 02D0     		beq	.L59
 900              		.loc 1 371 0 is_stmt 0 discriminator 3
 901 0014 4FF00003 		mov	r3, #0
 902 0018 9BE0     		b	.L60
 903              	.L59:
 372:../Dave/Generated/src/ETH004/01_lwIP_Stack/src/core/tcp.c **** 
 373:../Dave/Generated/src/ETH004/01_lwIP_Stack/src/core/tcp.c ****   /* already listening? */
 374:../Dave/Generated/src/ETH004/01_lwIP_Stack/src/core/tcp.c ****   if (pcb->state == LISTEN) {
 904              		.loc 1 374 0 is_stmt 1
 905 001a 7B68     		ldr	r3, [r7, #4]
 906 001c 1B7C     		ldrb	r3, [r3, #16]	@ zero_extendqisi2
 907 001e 012B     		cmp	r3, #1
 908 0020 01D1     		bne	.L61
 375:../Dave/Generated/src/ETH004/01_lwIP_Stack/src/core/tcp.c ****     return pcb;
 909              		.loc 1 375 0
 910 0022 7B68     		ldr	r3, [r7, #4]
 911 0024 95E0     		b	.L60
 912              	.L61:
 376:../Dave/Generated/src/ETH004/01_lwIP_Stack/src/core/tcp.c ****   }
 377:../Dave/Generated/src/ETH004/01_lwIP_Stack/src/core/tcp.c ****   lpcb = memp_malloc(MEMP_TCP_PCB_LISTEN);
 913              		.loc 1 377 0
 914 0026 40F20003 		movw	r3, #:lower16:memp_sizes
 915 002a C0F20003 		movt	r3, #:upper16:memp_sizes
 916 002e DB88     		ldrh	r3, [r3, #6]
 917 0030 1846     		mov	r0, r3
 918 0032 FFF7FEFF 		bl	mem_malloc
 919 0036 F860     		str	r0, [r7, #12]
 378:../Dave/Generated/src/ETH004/01_lwIP_Stack/src/core/tcp.c ****   if (lpcb == NULL) {
 920              		.loc 1 378 0
 921 0038 FB68     		ldr	r3, [r7, #12]
 922 003a 002B     		cmp	r3, #0
 923 003c 02D1     		bne	.L62
 379:../Dave/Generated/src/ETH004/01_lwIP_Stack/src/core/tcp.c ****     return NULL;
 924              		.loc 1 379 0
 925 003e 4FF00003 		mov	r3, #0
 926 0042 86E0     		b	.L60
 927              	.L62:
 380:../Dave/Generated/src/ETH004/01_lwIP_Stack/src/core/tcp.c ****   }
 381:../Dave/Generated/src/ETH004/01_lwIP_Stack/src/core/tcp.c ****   lpcb->callback_arg = pcb->callback_arg;
 928              		.loc 1 381 0
 929 0044 7B68     		ldr	r3, [r7, #4]
 930 0046 5A69     		ldr	r2, [r3, #20]
 931 0048 FB68     		ldr	r3, [r7, #12]
 932 004a 5A61     		str	r2, [r3, #20]
 382:../Dave/Generated/src/ETH004/01_lwIP_Stack/src/core/tcp.c ****   lpcb->local_port = pcb->local_port;
 933              		.loc 1 382 0
 934 004c 7B68     		ldr	r3, [r7, #4]
 935 004e 1A8B     		ldrh	r2, [r3, #24]
 936 0050 FB68     		ldr	r3, [r7, #12]
 937 0052 1A83     		strh	r2, [r3, #24]	@ movhi
 383:../Dave/Generated/src/ETH004/01_lwIP_Stack/src/core/tcp.c ****   lpcb->state = LISTEN;
 938              		.loc 1 383 0
 939 0054 FB68     		ldr	r3, [r7, #12]
 940 0056 4FF00102 		mov	r2, #1
 941 005a 1A74     		strb	r2, [r3, #16]
 384:../Dave/Generated/src/ETH004/01_lwIP_Stack/src/core/tcp.c ****   lpcb->so_options = pcb->so_options;
 942              		.loc 1 384 0
 943 005c 7B68     		ldr	r3, [r7, #4]
 944 005e 1A89     		ldrh	r2, [r3, #8]
 945 0060 FB68     		ldr	r3, [r7, #12]
 946 0062 1A81     		strh	r2, [r3, #8]	@ movhi
 385:../Dave/Generated/src/ETH004/01_lwIP_Stack/src/core/tcp.c ****   lpcb->so_options |= SOF_ACCEPTCONN;
 947              		.loc 1 385 0
 948 0064 FB68     		ldr	r3, [r7, #12]
 949 0066 1B89     		ldrh	r3, [r3, #8]
 950 0068 43F00203 		orr	r3, r3, #2
 951 006c 9AB2     		uxth	r2, r3
 952 006e FB68     		ldr	r3, [r7, #12]
 953 0070 1A81     		strh	r2, [r3, #8]	@ movhi
 386:../Dave/Generated/src/ETH004/01_lwIP_Stack/src/core/tcp.c ****   lpcb->ttl = pcb->ttl;
 954              		.loc 1 386 0
 955 0072 7B68     		ldr	r3, [r7, #4]
 956 0074 DA7A     		ldrb	r2, [r3, #11]	@ zero_extendqisi2
 957 0076 FB68     		ldr	r3, [r7, #12]
 958 0078 DA72     		strb	r2, [r3, #11]
 387:../Dave/Generated/src/ETH004/01_lwIP_Stack/src/core/tcp.c ****   lpcb->tos = pcb->tos;
 959              		.loc 1 387 0
 960 007a 7B68     		ldr	r3, [r7, #4]
 961 007c 9A7A     		ldrb	r2, [r3, #10]	@ zero_extendqisi2
 962 007e FB68     		ldr	r3, [r7, #12]
 963 0080 9A72     		strb	r2, [r3, #10]
 388:../Dave/Generated/src/ETH004/01_lwIP_Stack/src/core/tcp.c ****   ip_addr_set(&lpcb->local_ip, &pcb->local_ip);
 964              		.loc 1 388 0
 965 0082 7B68     		ldr	r3, [r7, #4]
 966 0084 002B     		cmp	r3, #0
 967 0086 02D0     		beq	.L63
 968              		.loc 1 388 0 is_stmt 0 discriminator 1
 969 0088 7B68     		ldr	r3, [r7, #4]
 970 008a 1B68     		ldr	r3, [r3, #0]
 971 008c 01E0     		b	.L64
 972              	.L63:
 973              		.loc 1 388 0 discriminator 2
 974 008e 4FF00003 		mov	r3, #0
 975              	.L64:
 976              		.loc 1 388 0 discriminator 3
 977 0092 FA68     		ldr	r2, [r7, #12]
 978 0094 1360     		str	r3, [r2, #0]
 389:../Dave/Generated/src/ETH004/01_lwIP_Stack/src/core/tcp.c ****   TCP_RMV(&tcp_bound_pcbs, pcb);
 979              		.loc 1 389 0 is_stmt 1 discriminator 3
 980 0096 40F20003 		movw	r3, #:lower16:tcp_bound_pcbs
 981 009a C0F20003 		movt	r3, #:upper16:tcp_bound_pcbs
 982 009e 1A68     		ldr	r2, [r3, #0]
 983 00a0 7B68     		ldr	r3, [r7, #4]
 984 00a2 9A42     		cmp	r2, r3
 985 00a4 0BD1     		bne	.L65
 986              		.loc 1 389 0 is_stmt 0 discriminator 1
 987 00a6 40F20003 		movw	r3, #:lower16:tcp_bound_pcbs
 988 00aa C0F20003 		movt	r3, #:upper16:tcp_bound_pcbs
 989 00ae 1B68     		ldr	r3, [r3, #0]
 990 00b0 DA68     		ldr	r2, [r3, #12]
 991 00b2 40F20003 		movw	r3, #:lower16:tcp_bound_pcbs
 992 00b6 C0F20003 		movt	r3, #:upper16:tcp_bound_pcbs
 993 00ba 1A60     		str	r2, [r3, #0]
 994 00bc 2EE0     		b	.L66
 995              	.L65:
 996              		.loc 1 389 0 discriminator 2
 997 00be 40F20003 		movw	r3, #:lower16:tcp_bound_pcbs
 998 00c2 C0F20003 		movt	r3, #:upper16:tcp_bound_pcbs
 999 00c6 1A68     		ldr	r2, [r3, #0]
 1000 00c8 40F20003 		movw	r3, #:lower16:tcp_tmp_pcb
 1001 00cc C0F20003 		movt	r3, #:upper16:tcp_tmp_pcb
 1002 00d0 1A60     		str	r2, [r3, #0]
 1003 00d2 1CE0     		b	.L67
 1004              	.L69:
 1005              		.loc 1 389 0 discriminator 7
 1006 00d4 40F20003 		movw	r3, #:lower16:tcp_tmp_pcb
 1007 00d8 C0F20003 		movt	r3, #:upper16:tcp_tmp_pcb
 1008 00dc 1B68     		ldr	r3, [r3, #0]
 1009 00de DA68     		ldr	r2, [r3, #12]
 1010 00e0 7B68     		ldr	r3, [r7, #4]
 1011 00e2 9A42     		cmp	r2, r3
 1012 00e4 08D1     		bne	.L68
 1013              		.loc 1 389 0 discriminator 4
 1014 00e6 40F20003 		movw	r3, #:lower16:tcp_tmp_pcb
 1015 00ea C0F20003 		movt	r3, #:upper16:tcp_tmp_pcb
 1016 00ee 1B68     		ldr	r3, [r3, #0]
 1017 00f0 7A68     		ldr	r2, [r7, #4]
 1018 00f2 D268     		ldr	r2, [r2, #12]
 1019 00f4 DA60     		str	r2, [r3, #12]
 1020 00f6 11E0     		b	.L66
 1021              	.L68:
 1022              		.loc 1 389 0 discriminator 5
 1023 00f8 40F20003 		movw	r3, #:lower16:tcp_tmp_pcb
 1024 00fc C0F20003 		movt	r3, #:upper16:tcp_tmp_pcb
 1025 0100 1B68     		ldr	r3, [r3, #0]
 1026 0102 DA68     		ldr	r2, [r3, #12]
 1027 0104 40F20003 		movw	r3, #:lower16:tcp_tmp_pcb
 1028 0108 C0F20003 		movt	r3, #:upper16:tcp_tmp_pcb
 1029 010c 1A60     		str	r2, [r3, #0]
 1030              	.L67:
 1031              		.loc 1 389 0 discriminator 3
 1032 010e 40F20003 		movw	r3, #:lower16:tcp_tmp_pcb
 1033 0112 C0F20003 		movt	r3, #:upper16:tcp_tmp_pcb
 1034 0116 1B68     		ldr	r3, [r3, #0]
 1035 0118 002B     		cmp	r3, #0
 1036 011a DBD1     		bne	.L69
 1037              	.L66:
 1038              		.loc 1 389 0 discriminator 6
 1039 011c 7B68     		ldr	r3, [r7, #4]
 1040 011e 4FF00002 		mov	r2, #0
 1041 0122 DA60     		str	r2, [r3, #12]
 390:../Dave/Generated/src/ETH004/01_lwIP_Stack/src/core/tcp.c ****   memp_free(MEMP_TCP_PCB, pcb);
 1042              		.loc 1 390 0 is_stmt 1 discriminator 6
 1043 0124 7868     		ldr	r0, [r7, #4]
 1044 0126 FFF7FEFF 		bl	mem_free
 391:../Dave/Generated/src/ETH004/01_lwIP_Stack/src/core/tcp.c **** #if LWIP_CALLBACK_API
 392:../Dave/Generated/src/ETH004/01_lwIP_Stack/src/core/tcp.c ****   lpcb->accept = tcp_accept_null;
 1045              		.loc 1 392 0 discriminator 6
 1046 012a FA68     		ldr	r2, [r7, #12]
 1047 012c 40F20003 		movw	r3, #:lower16:tcp_accept_null
 1048 0130 C0F20003 		movt	r3, #:upper16:tcp_accept_null
 1049 0134 D361     		str	r3, [r2, #28]
 393:../Dave/Generated/src/ETH004/01_lwIP_Stack/src/core/tcp.c **** #endif /* LWIP_CALLBACK_API */
 394:../Dave/Generated/src/ETH004/01_lwIP_Stack/src/core/tcp.c **** #if TCP_LISTEN_BACKLOG
 395:../Dave/Generated/src/ETH004/01_lwIP_Stack/src/core/tcp.c ****   lpcb->accepts_pending = 0;
 396:../Dave/Generated/src/ETH004/01_lwIP_Stack/src/core/tcp.c ****   lpcb->backlog = (backlog ? backlog : 1);
 397:../Dave/Generated/src/ETH004/01_lwIP_Stack/src/core/tcp.c **** #endif /* TCP_LISTEN_BACKLOG */
 398:../Dave/Generated/src/ETH004/01_lwIP_Stack/src/core/tcp.c ****   TCP_REG(&tcp_listen_pcbs.listen_pcbs, lpcb);
 1050              		.loc 1 398 0 discriminator 6
 1051 0136 40F20003 		movw	r3, #:lower16:tcp_listen_pcbs
 1052 013a C0F20003 		movt	r3, #:upper16:tcp_listen_pcbs
 1053 013e 1A68     		ldr	r2, [r3, #0]
 1054 0140 FB68     		ldr	r3, [r7, #12]
 1055 0142 DA60     		str	r2, [r3, #12]
 1056 0144 40F20003 		movw	r3, #:lower16:tcp_listen_pcbs
 1057 0148 C0F20003 		movt	r3, #:upper16:tcp_listen_pcbs
 1058 014c FA68     		ldr	r2, [r7, #12]
 1059 014e 1A60     		str	r2, [r3, #0]
 399:../Dave/Generated/src/ETH004/01_lwIP_Stack/src/core/tcp.c ****   return (struct tcp_pcb *)lpcb;
 1060              		.loc 1 399 0 discriminator 6
 1061 0150 FB68     		ldr	r3, [r7, #12]
 1062              	.L60:
 400:../Dave/Generated/src/ETH004/01_lwIP_Stack/src/core/tcp.c **** }
 1063              		.loc 1 400 0
 1064 0152 1846     		mov	r0, r3
 1065 0154 07F11007 		add	r7, r7, #16
 1066 0158 BD46     		mov	sp, r7
 1067 015a 80BD     		pop	{r7, pc}
 1068              		.cfi_endproc
 1069              	.LFE5:
 1071              		.section	.text.tcp_update_rcv_ann_wnd,"ax",%progbits
 1072              		.align	2
 1073              		.global	tcp_update_rcv_ann_wnd
 1074              		.thumb
 1075              		.thumb_func
 1077              	tcp_update_rcv_ann_wnd:
 1078              	.LFB6:
 401:../Dave/Generated/src/ETH004/01_lwIP_Stack/src/core/tcp.c **** 
 402:../Dave/Generated/src/ETH004/01_lwIP_Stack/src/core/tcp.c **** /** 
 403:../Dave/Generated/src/ETH004/01_lwIP_Stack/src/core/tcp.c ****  * Update the state that tracks the available window space to advertise.
 404:../Dave/Generated/src/ETH004/01_lwIP_Stack/src/core/tcp.c ****  *
 405:../Dave/Generated/src/ETH004/01_lwIP_Stack/src/core/tcp.c ****  * Returns how much extra window would be advertised if we sent an
 406:../Dave/Generated/src/ETH004/01_lwIP_Stack/src/core/tcp.c ****  * update now.
 407:../Dave/Generated/src/ETH004/01_lwIP_Stack/src/core/tcp.c ****  */
 408:../Dave/Generated/src/ETH004/01_lwIP_Stack/src/core/tcp.c **** u32_t tcp_update_rcv_ann_wnd(struct tcp_pcb *pcb)
 409:../Dave/Generated/src/ETH004/01_lwIP_Stack/src/core/tcp.c **** {
 1079              		.loc 1 409 0
 1080              		.cfi_startproc
 1081              		@ args = 0, pretend = 0, frame = 16
 1082              		@ frame_needed = 1, uses_anonymous_args = 0
 1083              		@ link register save eliminated.
 1084 0000 80B4     		push	{r7}
 1085              	.LCFI17:
 1086              		.cfi_def_cfa_offset 4
 1087              		.cfi_offset 7, -4
 1088 0002 85B0     		sub	sp, sp, #20
 1089              	.LCFI18:
 1090              		.cfi_def_cfa_offset 24
 1091 0004 00AF     		add	r7, sp, #0
 1092              	.LCFI19:
 1093              		.cfi_def_cfa_register 7
 1094 0006 7860     		str	r0, [r7, #4]
 410:../Dave/Generated/src/ETH004/01_lwIP_Stack/src/core/tcp.c ****   u32_t new_right_edge = pcb->rcv_nxt + pcb->rcv_wnd;
 1095              		.loc 1 410 0
 1096 0008 7B68     		ldr	r3, [r7, #4]
 1097 000a 5A6A     		ldr	r2, [r3, #36]
 1098 000c 7B68     		ldr	r3, [r7, #4]
 1099 000e 1B8D     		ldrh	r3, [r3, #40]
 1100 0010 D318     		adds	r3, r2, r3
 1101 0012 FB60     		str	r3, [r7, #12]
 411:../Dave/Generated/src/ETH004/01_lwIP_Stack/src/core/tcp.c **** 
 412:../Dave/Generated/src/ETH004/01_lwIP_Stack/src/core/tcp.c ****   if (TCP_SEQ_GEQ(new_right_edge, pcb->rcv_ann_right_edge + LWIP_MIN((TCP_WND / 2), pcb->mss))) {
 1102              		.loc 1 412 0
 1103 0014 7B68     		ldr	r3, [r7, #4]
 1104 0016 DA6A     		ldr	r2, [r3, #44]
 1105 0018 7B68     		ldr	r3, [r7, #4]
 1106 001a 198F     		ldrh	r1, [r3, #56]
 1107 001c 40F2A653 		movw	r3, #1446
 1108 0020 9942     		cmp	r1, r3
 1109 0022 02D8     		bhi	.L71
 1110              		.loc 1 412 0 is_stmt 0 discriminator 1
 1111 0024 7B68     		ldr	r3, [r7, #4]
 1112 0026 1B8F     		ldrh	r3, [r3, #56]
 1113 0028 01E0     		b	.L72
 1114              	.L71:
 1115              		.loc 1 412 0 discriminator 2
 1116 002a 40F2A653 		movw	r3, #1446
 1117              	.L72:
 1118              		.loc 1 412 0 discriminator 3
 1119 002e D318     		adds	r3, r2, r3
 1120 0030 FA68     		ldr	r2, [r7, #12]
 1121 0032 D31A     		subs	r3, r2, r3
 1122 0034 002B     		cmp	r3, #0
 1123 0036 08DB     		blt	.L73
 413:../Dave/Generated/src/ETH004/01_lwIP_Stack/src/core/tcp.c ****     /* we can advertise more window */
 414:../Dave/Generated/src/ETH004/01_lwIP_Stack/src/core/tcp.c ****     pcb->rcv_ann_wnd = pcb->rcv_wnd;
 1124              		.loc 1 414 0 is_stmt 1
 1125 0038 7B68     		ldr	r3, [r7, #4]
 1126 003a 1A8D     		ldrh	r2, [r3, #40]
 1127 003c 7B68     		ldr	r3, [r7, #4]
 1128 003e 5A85     		strh	r2, [r3, #42]	@ movhi
 415:../Dave/Generated/src/ETH004/01_lwIP_Stack/src/core/tcp.c ****     return new_right_edge - pcb->rcv_ann_right_edge;
 1129              		.loc 1 415 0
 1130 0040 7B68     		ldr	r3, [r7, #4]
 1131 0042 DB6A     		ldr	r3, [r3, #44]
 1132 0044 FA68     		ldr	r2, [r7, #12]
 1133 0046 D31A     		subs	r3, r2, r3
 1134 0048 17E0     		b	.L74
 1135              	.L73:
 416:../Dave/Generated/src/ETH004/01_lwIP_Stack/src/core/tcp.c ****   } else {
 417:../Dave/Generated/src/ETH004/01_lwIP_Stack/src/core/tcp.c ****     if (TCP_SEQ_GT(pcb->rcv_nxt, pcb->rcv_ann_right_edge)) {
 1136              		.loc 1 417 0
 1137 004a 7B68     		ldr	r3, [r7, #4]
 1138 004c 5A6A     		ldr	r2, [r3, #36]
 1139 004e 7B68     		ldr	r3, [r7, #4]
 1140 0050 DB6A     		ldr	r3, [r3, #44]
 1141 0052 D31A     		subs	r3, r2, r3
 1142 0054 002B     		cmp	r3, #0
 1143 0056 04DD     		ble	.L75
 418:../Dave/Generated/src/ETH004/01_lwIP_Stack/src/core/tcp.c ****       /* Can happen due to other end sending out of advertised window,
 419:../Dave/Generated/src/ETH004/01_lwIP_Stack/src/core/tcp.c ****        * but within actual available (but not yet advertised) window */
 420:../Dave/Generated/src/ETH004/01_lwIP_Stack/src/core/tcp.c ****       pcb->rcv_ann_wnd = 0;
 1144              		.loc 1 420 0
 1145 0058 7B68     		ldr	r3, [r7, #4]
 1146 005a 4FF00002 		mov	r2, #0
 1147 005e 5A85     		strh	r2, [r3, #42]	@ movhi
 1148 0060 09E0     		b	.L76
 1149              	.L75:
 421:../Dave/Generated/src/ETH004/01_lwIP_Stack/src/core/tcp.c ****     } else {
 422:../Dave/Generated/src/ETH004/01_lwIP_Stack/src/core/tcp.c ****       /* keep the right edge of window constant */
 423:../Dave/Generated/src/ETH004/01_lwIP_Stack/src/core/tcp.c ****       pcb->rcv_ann_wnd = pcb->rcv_ann_right_edge - pcb->rcv_nxt;
 1150              		.loc 1 423 0
 1151 0062 7B68     		ldr	r3, [r7, #4]
 1152 0064 DB6A     		ldr	r3, [r3, #44]
 1153 0066 9AB2     		uxth	r2, r3
 1154 0068 7B68     		ldr	r3, [r7, #4]
 1155 006a 5B6A     		ldr	r3, [r3, #36]
 1156 006c 9BB2     		uxth	r3, r3
 1157 006e D31A     		subs	r3, r2, r3
 1158 0070 9AB2     		uxth	r2, r3
 1159 0072 7B68     		ldr	r3, [r7, #4]
 1160 0074 5A85     		strh	r2, [r3, #42]	@ movhi
 1161              	.L76:
 424:../Dave/Generated/src/ETH004/01_lwIP_Stack/src/core/tcp.c ****     }
 425:../Dave/Generated/src/ETH004/01_lwIP_Stack/src/core/tcp.c ****     return 0;
 1162              		.loc 1 425 0
 1163 0076 4FF00003 		mov	r3, #0
 1164              	.L74:
 426:../Dave/Generated/src/ETH004/01_lwIP_Stack/src/core/tcp.c ****   }
 427:../Dave/Generated/src/ETH004/01_lwIP_Stack/src/core/tcp.c **** }
 1165              		.loc 1 427 0
 1166 007a 1846     		mov	r0, r3
 1167 007c 07F11407 		add	r7, r7, #20
 1168 0080 BD46     		mov	sp, r7
 1169 0082 80BC     		pop	{r7}
 1170 0084 7047     		bx	lr
 1171              		.cfi_endproc
 1172              	.LFE6:
 1174 0086 00BF     		.section	.text.tcp_recved,"ax",%progbits
 1175              		.align	2
 1176              		.global	tcp_recved
 1177              		.thumb
 1178              		.thumb_func
 1180              	tcp_recved:
 1181              	.LFB7:
 428:../Dave/Generated/src/ETH004/01_lwIP_Stack/src/core/tcp.c **** 
 429:../Dave/Generated/src/ETH004/01_lwIP_Stack/src/core/tcp.c **** /**
 430:../Dave/Generated/src/ETH004/01_lwIP_Stack/src/core/tcp.c ****  * This function should be called by the application when it has
 431:../Dave/Generated/src/ETH004/01_lwIP_Stack/src/core/tcp.c ****  * processed the data. The purpose is to advertise a larger window
 432:../Dave/Generated/src/ETH004/01_lwIP_Stack/src/core/tcp.c ****  * when the data has been processed.
 433:../Dave/Generated/src/ETH004/01_lwIP_Stack/src/core/tcp.c ****  *
 434:../Dave/Generated/src/ETH004/01_lwIP_Stack/src/core/tcp.c ****  * @param pcb the tcp_pcb for which data is read
 435:../Dave/Generated/src/ETH004/01_lwIP_Stack/src/core/tcp.c ****  * @param len the amount of bytes that have been read by the application
 436:../Dave/Generated/src/ETH004/01_lwIP_Stack/src/core/tcp.c ****  */
 437:../Dave/Generated/src/ETH004/01_lwIP_Stack/src/core/tcp.c **** void
 438:../Dave/Generated/src/ETH004/01_lwIP_Stack/src/core/tcp.c **** tcp_recved(struct tcp_pcb *pcb, u16_t len)
 439:../Dave/Generated/src/ETH004/01_lwIP_Stack/src/core/tcp.c **** {
 1182              		.loc 1 439 0
 1183              		.cfi_startproc
 1184              		@ args = 0, pretend = 0, frame = 16
 1185              		@ frame_needed = 1, uses_anonymous_args = 0
 1186 0000 80B5     		push	{r7, lr}
 1187              	.LCFI20:
 1188              		.cfi_def_cfa_offset 8
 1189              		.cfi_offset 7, -8
 1190              		.cfi_offset 14, -4
 1191 0002 84B0     		sub	sp, sp, #16
 1192              	.LCFI21:
 1193              		.cfi_def_cfa_offset 24
 1194 0004 00AF     		add	r7, sp, #0
 1195              	.LCFI22:
 1196              		.cfi_def_cfa_register 7
 1197 0006 7860     		str	r0, [r7, #4]
 1198 0008 0B46     		mov	r3, r1
 1199 000a 7B80     		strh	r3, [r7, #2]	@ movhi
 440:../Dave/Generated/src/ETH004/01_lwIP_Stack/src/core/tcp.c ****   int wnd_inflation;
 441:../Dave/Generated/src/ETH004/01_lwIP_Stack/src/core/tcp.c **** 
 442:../Dave/Generated/src/ETH004/01_lwIP_Stack/src/core/tcp.c ****   LWIP_ASSERT("tcp_recved: len would wrap rcv_wnd\n",
 443:../Dave/Generated/src/ETH004/01_lwIP_Stack/src/core/tcp.c ****               len <= 0xffff - pcb->rcv_wnd );
 444:../Dave/Generated/src/ETH004/01_lwIP_Stack/src/core/tcp.c **** 
 445:../Dave/Generated/src/ETH004/01_lwIP_Stack/src/core/tcp.c ****   pcb->rcv_wnd += len;
 1200              		.loc 1 445 0
 1201 000c 7B68     		ldr	r3, [r7, #4]
 1202 000e 1A8D     		ldrh	r2, [r3, #40]
 1203 0010 7B88     		ldrh	r3, [r7, #2]	@ movhi
 1204 0012 D318     		adds	r3, r2, r3
 1205 0014 9AB2     		uxth	r2, r3
 1206 0016 7B68     		ldr	r3, [r7, #4]
 1207 0018 1A85     		strh	r2, [r3, #40]	@ movhi
 446:../Dave/Generated/src/ETH004/01_lwIP_Stack/src/core/tcp.c ****   if (pcb->rcv_wnd > TCP_WND)
 1208              		.loc 1 446 0
 1209 001a 7B68     		ldr	r3, [r7, #4]
 1210 001c 1A8D     		ldrh	r2, [r3, #40]
 1211 001e 40F64C33 		movw	r3, #2892
 1212 0022 9A42     		cmp	r2, r3
 1213 0024 03D9     		bls	.L78
 447:../Dave/Generated/src/ETH004/01_lwIP_Stack/src/core/tcp.c ****     pcb->rcv_wnd = TCP_WND;
 1214              		.loc 1 447 0
 1215 0026 7B68     		ldr	r3, [r7, #4]
 1216 0028 40F64C32 		movw	r2, #2892
 1217 002c 1A85     		strh	r2, [r3, #40]	@ movhi
 1218              	.L78:
 448:../Dave/Generated/src/ETH004/01_lwIP_Stack/src/core/tcp.c **** 
 449:../Dave/Generated/src/ETH004/01_lwIP_Stack/src/core/tcp.c ****   wnd_inflation = tcp_update_rcv_ann_wnd(pcb);
 1219              		.loc 1 449 0
 1220 002e 7868     		ldr	r0, [r7, #4]
 1221 0030 FFF7FEFF 		bl	tcp_update_rcv_ann_wnd
 1222 0034 0346     		mov	r3, r0
 1223 0036 FB60     		str	r3, [r7, #12]
 450:../Dave/Generated/src/ETH004/01_lwIP_Stack/src/core/tcp.c **** 
 451:../Dave/Generated/src/ETH004/01_lwIP_Stack/src/core/tcp.c ****   /* If the change in the right edge of window is significant (default
 452:../Dave/Generated/src/ETH004/01_lwIP_Stack/src/core/tcp.c ****    * watermark is TCP_WND/2), then send an explicit update now.
 453:../Dave/Generated/src/ETH004/01_lwIP_Stack/src/core/tcp.c ****    * Otherwise wait for a packet to be sent in the normal course of
 454:../Dave/Generated/src/ETH004/01_lwIP_Stack/src/core/tcp.c ****    * events (or more window to be available later) */
 455:../Dave/Generated/src/ETH004/01_lwIP_Stack/src/core/tcp.c ****   if (wnd_inflation >= TCP_WND_UPDATE_THRESHOLD) 
 1224              		.loc 1 455 0
 1225 0038 FA68     		ldr	r2, [r7, #12]
 1226 003a 40F2D223 		movw	r3, #722
 1227 003e 9A42     		cmp	r2, r3
 1228 0040 0BDD     		ble	.L77
 456:../Dave/Generated/src/ETH004/01_lwIP_Stack/src/core/tcp.c ****     tcp_ack_now(pcb);
 1229              		.loc 1 456 0
 1230 0042 7B68     		ldr	r3, [r7, #4]
 1231 0044 93F82230 		ldrb	r3, [r3, #34]	@ zero_extendqisi2
 1232 0048 43F00203 		orr	r3, r3, #2
 1233 004c DAB2     		uxtb	r2, r3
 1234 004e 7B68     		ldr	r3, [r7, #4]
 1235 0050 83F82220 		strb	r2, [r3, #34]
 1236 0054 7868     		ldr	r0, [r7, #4]
 1237 0056 FFF7FEFF 		bl	tcp_output
 1238              	.L77:
 457:../Dave/Generated/src/ETH004/01_lwIP_Stack/src/core/tcp.c **** 
 458:../Dave/Generated/src/ETH004/01_lwIP_Stack/src/core/tcp.c ****   LWIP_DEBUGF(TCP_DEBUG, ("tcp_recved: recveived %"U16_F" bytes, wnd %"U16_F" (%"U16_F").\n",
 459:../Dave/Generated/src/ETH004/01_lwIP_Stack/src/core/tcp.c ****          len, pcb->rcv_wnd, TCP_WND - pcb->rcv_wnd));
 460:../Dave/Generated/src/ETH004/01_lwIP_Stack/src/core/tcp.c **** }
 1239              		.loc 1 460 0
 1240 005a 07F11007 		add	r7, r7, #16
 1241 005e BD46     		mov	sp, r7
 1242 0060 80BD     		pop	{r7, pc}
 1243              		.cfi_endproc
 1244              	.LFE7:
 1246 0062 00BF     		.section	.text.tcp_new_port,"ax",%progbits
 1247              		.align	2
 1248              		.thumb
 1249              		.thumb_func
 1251              	tcp_new_port:
 1252              	.LFB8:
 461:../Dave/Generated/src/ETH004/01_lwIP_Stack/src/core/tcp.c **** 
 462:../Dave/Generated/src/ETH004/01_lwIP_Stack/src/core/tcp.c **** /**
 463:../Dave/Generated/src/ETH004/01_lwIP_Stack/src/core/tcp.c ****  * A nastly hack featuring 'goto' statements that allocates a
 464:../Dave/Generated/src/ETH004/01_lwIP_Stack/src/core/tcp.c ****  * new TCP local port.
 465:../Dave/Generated/src/ETH004/01_lwIP_Stack/src/core/tcp.c ****  *
 466:../Dave/Generated/src/ETH004/01_lwIP_Stack/src/core/tcp.c ****  * @return a new (free) local TCP port number
 467:../Dave/Generated/src/ETH004/01_lwIP_Stack/src/core/tcp.c ****  */
 468:../Dave/Generated/src/ETH004/01_lwIP_Stack/src/core/tcp.c **** static u16_t
 469:../Dave/Generated/src/ETH004/01_lwIP_Stack/src/core/tcp.c **** tcp_new_port(void)
 470:../Dave/Generated/src/ETH004/01_lwIP_Stack/src/core/tcp.c **** {
 1253              		.loc 1 470 0
 1254              		.cfi_startproc
 1255              		@ args = 0, pretend = 0, frame = 8
 1256              		@ frame_needed = 1, uses_anonymous_args = 0
 1257              		@ link register save eliminated.
 1258 0000 80B4     		push	{r7}
 1259              	.LCFI23:
 1260              		.cfi_def_cfa_offset 4
 1261              		.cfi_offset 7, -4
 1262 0002 83B0     		sub	sp, sp, #12
 1263              	.LCFI24:
 1264              		.cfi_def_cfa_offset 16
 1265 0004 00AF     		add	r7, sp, #0
 1266              	.LCFI25:
 1267              		.cfi_def_cfa_register 7
 1268 0006 04E0     		b	.L81
 1269              	.L93:
 471:../Dave/Generated/src/ETH004/01_lwIP_Stack/src/core/tcp.c ****   struct tcp_pcb *pcb;
 472:../Dave/Generated/src/ETH004/01_lwIP_Stack/src/core/tcp.c **** #ifndef TCP_LOCAL_PORT_RANGE_START
 473:../Dave/Generated/src/ETH004/01_lwIP_Stack/src/core/tcp.c **** #define TCP_LOCAL_PORT_RANGE_START 4096
 474:../Dave/Generated/src/ETH004/01_lwIP_Stack/src/core/tcp.c **** #define TCP_LOCAL_PORT_RANGE_END   0x7fff
 475:../Dave/Generated/src/ETH004/01_lwIP_Stack/src/core/tcp.c **** #endif
 476:../Dave/Generated/src/ETH004/01_lwIP_Stack/src/core/tcp.c ****   static u16_t port = TCP_LOCAL_PORT_RANGE_START;
 477:../Dave/Generated/src/ETH004/01_lwIP_Stack/src/core/tcp.c ****   
 478:../Dave/Generated/src/ETH004/01_lwIP_Stack/src/core/tcp.c ****  again:
 479:../Dave/Generated/src/ETH004/01_lwIP_Stack/src/core/tcp.c ****   if (++port > TCP_LOCAL_PORT_RANGE_END) {
 480:../Dave/Generated/src/ETH004/01_lwIP_Stack/src/core/tcp.c ****     port = TCP_LOCAL_PORT_RANGE_START;
 481:../Dave/Generated/src/ETH004/01_lwIP_Stack/src/core/tcp.c ****   }
 482:../Dave/Generated/src/ETH004/01_lwIP_Stack/src/core/tcp.c ****   
 483:../Dave/Generated/src/ETH004/01_lwIP_Stack/src/core/tcp.c ****   for(pcb = tcp_active_pcbs; pcb != NULL; pcb = pcb->next) {
 484:../Dave/Generated/src/ETH004/01_lwIP_Stack/src/core/tcp.c ****     if (pcb->local_port == port) {
 485:../Dave/Generated/src/ETH004/01_lwIP_Stack/src/core/tcp.c ****       goto again;
 1270              		.loc 1 485 0
 1271 0008 00BF     		nop
 1272 000a 02E0     		b	.L81
 1273              	.L94:
 486:../Dave/Generated/src/ETH004/01_lwIP_Stack/src/core/tcp.c ****     }
 487:../Dave/Generated/src/ETH004/01_lwIP_Stack/src/core/tcp.c ****   }
 488:../Dave/Generated/src/ETH004/01_lwIP_Stack/src/core/tcp.c ****   for(pcb = tcp_tw_pcbs; pcb != NULL; pcb = pcb->next) {
 489:../Dave/Generated/src/ETH004/01_lwIP_Stack/src/core/tcp.c ****     if (pcb->local_port == port) {
 490:../Dave/Generated/src/ETH004/01_lwIP_Stack/src/core/tcp.c ****       goto again;
 1274              		.loc 1 490 0
 1275 000c 00BF     		nop
 1276 000e 00E0     		b	.L81
 1277              	.L95:
 491:../Dave/Generated/src/ETH004/01_lwIP_Stack/src/core/tcp.c ****     }
 492:../Dave/Generated/src/ETH004/01_lwIP_Stack/src/core/tcp.c ****   }
 493:../Dave/Generated/src/ETH004/01_lwIP_Stack/src/core/tcp.c ****   for(pcb = (struct tcp_pcb *)tcp_listen_pcbs.pcbs; pcb != NULL; pcb = pcb->next) {
 494:../Dave/Generated/src/ETH004/01_lwIP_Stack/src/core/tcp.c ****     if (pcb->local_port == port) {
 495:../Dave/Generated/src/ETH004/01_lwIP_Stack/src/core/tcp.c ****       goto again;
 1278              		.loc 1 495 0
 1279 0010 00BF     		nop
 1280              	.L81:
 479:../Dave/Generated/src/ETH004/01_lwIP_Stack/src/core/tcp.c ****   if (++port > TCP_LOCAL_PORT_RANGE_END) {
 1281              		.loc 1 479 0
 1282 0012 40F20003 		movw	r3, #:lower16:port.5104
 1283 0016 C0F20003 		movt	r3, #:upper16:port.5104
 1284 001a 1B88     		ldrh	r3, [r3, #0]
 1285 001c 03F10103 		add	r3, r3, #1
 1286 0020 9AB2     		uxth	r2, r3
 1287 0022 40F20003 		movw	r3, #:lower16:port.5104
 1288 0026 C0F20003 		movt	r3, #:upper16:port.5104
 1289 002a 1A80     		strh	r2, [r3, #0]	@ movhi
 1290 002c 40F20003 		movw	r3, #:lower16:port.5104
 1291 0030 C0F20003 		movt	r3, #:upper16:port.5104
 1292 0034 1B88     		ldrh	r3, [r3, #0]
 1293 0036 9BB2     		uxth	r3, r3
 1294 0038 1BB2     		sxth	r3, r3
 1295 003a 002B     		cmp	r3, #0
 1296 003c 06DA     		bge	.L82
 480:../Dave/Generated/src/ETH004/01_lwIP_Stack/src/core/tcp.c ****     port = TCP_LOCAL_PORT_RANGE_START;
 1297              		.loc 1 480 0
 1298 003e 40F20003 		movw	r3, #:lower16:port.5104
 1299 0042 C0F20003 		movt	r3, #:upper16:port.5104
 1300 0046 4FF48052 		mov	r2, #4096
 1301 004a 1A80     		strh	r2, [r3, #0]	@ movhi
 1302              	.L82:
 483:../Dave/Generated/src/ETH004/01_lwIP_Stack/src/core/tcp.c ****   for(pcb = tcp_active_pcbs; pcb != NULL; pcb = pcb->next) {
 1303              		.loc 1 483 0
 1304 004c 40F20003 		movw	r3, #:lower16:tcp_active_pcbs
 1305 0050 C0F20003 		movt	r3, #:upper16:tcp_active_pcbs
 1306 0054 1B68     		ldr	r3, [r3, #0]
 1307 0056 7B60     		str	r3, [r7, #4]
 1308 0058 0BE0     		b	.L83
 1309              	.L85:
 484:../Dave/Generated/src/ETH004/01_lwIP_Stack/src/core/tcp.c ****     if (pcb->local_port == port) {
 1310              		.loc 1 484 0
 1311 005a 7B68     		ldr	r3, [r7, #4]
 1312 005c 1A8B     		ldrh	r2, [r3, #24]
 1313 005e 40F20003 		movw	r3, #:lower16:port.5104
 1314 0062 C0F20003 		movt	r3, #:upper16:port.5104
 1315 0066 1B88     		ldrh	r3, [r3, #0]
 1316 0068 9A42     		cmp	r2, r3
 1317 006a CDD0     		beq	.L93
 1318              	.L84:
 483:../Dave/Generated/src/ETH004/01_lwIP_Stack/src/core/tcp.c ****   for(pcb = tcp_active_pcbs; pcb != NULL; pcb = pcb->next) {
 1319              		.loc 1 483 0
 1320 006c 7B68     		ldr	r3, [r7, #4]
 1321 006e DB68     		ldr	r3, [r3, #12]
 1322 0070 7B60     		str	r3, [r7, #4]
 1323              	.L83:
 483:../Dave/Generated/src/ETH004/01_lwIP_Stack/src/core/tcp.c ****   for(pcb = tcp_active_pcbs; pcb != NULL; pcb = pcb->next) {
 1324              		.loc 1 483 0 is_stmt 0 discriminator 1
 1325 0072 7B68     		ldr	r3, [r7, #4]
 1326 0074 002B     		cmp	r3, #0
 1327 0076 F0D1     		bne	.L85
 488:../Dave/Generated/src/ETH004/01_lwIP_Stack/src/core/tcp.c ****   for(pcb = tcp_tw_pcbs; pcb != NULL; pcb = pcb->next) {
 1328              		.loc 1 488 0 is_stmt 1
 1329 0078 40F20003 		movw	r3, #:lower16:tcp_tw_pcbs
 1330 007c C0F20003 		movt	r3, #:upper16:tcp_tw_pcbs
 1331 0080 1B68     		ldr	r3, [r3, #0]
 1332 0082 7B60     		str	r3, [r7, #4]
 1333 0084 0BE0     		b	.L86
 1334              	.L88:
 489:../Dave/Generated/src/ETH004/01_lwIP_Stack/src/core/tcp.c ****     if (pcb->local_port == port) {
 1335              		.loc 1 489 0
 1336 0086 7B68     		ldr	r3, [r7, #4]
 1337 0088 1A8B     		ldrh	r2, [r3, #24]
 1338 008a 40F20003 		movw	r3, #:lower16:port.5104
 1339 008e C0F20003 		movt	r3, #:upper16:port.5104
 1340 0092 1B88     		ldrh	r3, [r3, #0]
 1341 0094 9A42     		cmp	r2, r3
 1342 0096 B9D0     		beq	.L94
 1343              	.L87:
 488:../Dave/Generated/src/ETH004/01_lwIP_Stack/src/core/tcp.c ****   for(pcb = tcp_tw_pcbs; pcb != NULL; pcb = pcb->next) {
 1344              		.loc 1 488 0
 1345 0098 7B68     		ldr	r3, [r7, #4]
 1346 009a DB68     		ldr	r3, [r3, #12]
 1347 009c 7B60     		str	r3, [r7, #4]
 1348              	.L86:
 488:../Dave/Generated/src/ETH004/01_lwIP_Stack/src/core/tcp.c ****   for(pcb = tcp_tw_pcbs; pcb != NULL; pcb = pcb->next) {
 1349              		.loc 1 488 0 is_stmt 0 discriminator 1
 1350 009e 7B68     		ldr	r3, [r7, #4]
 1351 00a0 002B     		cmp	r3, #0
 1352 00a2 F0D1     		bne	.L88
 493:../Dave/Generated/src/ETH004/01_lwIP_Stack/src/core/tcp.c ****   for(pcb = (struct tcp_pcb *)tcp_listen_pcbs.pcbs; pcb != NULL; pcb = pcb->next) {
 1353              		.loc 1 493 0 is_stmt 1
 1354 00a4 40F20003 		movw	r3, #:lower16:tcp_listen_pcbs
 1355 00a8 C0F20003 		movt	r3, #:upper16:tcp_listen_pcbs
 1356 00ac 1B68     		ldr	r3, [r3, #0]
 1357 00ae 7B60     		str	r3, [r7, #4]
 1358 00b0 0BE0     		b	.L89
 1359              	.L91:
 494:../Dave/Generated/src/ETH004/01_lwIP_Stack/src/core/tcp.c ****     if (pcb->local_port == port) {
 1360              		.loc 1 494 0
 1361 00b2 7B68     		ldr	r3, [r7, #4]
 1362 00b4 1A8B     		ldrh	r2, [r3, #24]
 1363 00b6 40F20003 		movw	r3, #:lower16:port.5104
 1364 00ba C0F20003 		movt	r3, #:upper16:port.5104
 1365 00be 1B88     		ldrh	r3, [r3, #0]
 1366 00c0 9A42     		cmp	r2, r3
 1367 00c2 A5D0     		beq	.L95
 1368              	.L90:
 493:../Dave/Generated/src/ETH004/01_lwIP_Stack/src/core/tcp.c ****   for(pcb = (struct tcp_pcb *)tcp_listen_pcbs.pcbs; pcb != NULL; pcb = pcb->next) {
 1369              		.loc 1 493 0
 1370 00c4 7B68     		ldr	r3, [r7, #4]
 1371 00c6 DB68     		ldr	r3, [r3, #12]
 1372 00c8 7B60     		str	r3, [r7, #4]
 1373              	.L89:
 493:../Dave/Generated/src/ETH004/01_lwIP_Stack/src/core/tcp.c ****   for(pcb = (struct tcp_pcb *)tcp_listen_pcbs.pcbs; pcb != NULL; pcb = pcb->next) {
 1374              		.loc 1 493 0 is_stmt 0 discriminator 1
 1375 00ca 7B68     		ldr	r3, [r7, #4]
 1376 00cc 002B     		cmp	r3, #0
 1377 00ce F0D1     		bne	.L91
 496:../Dave/Generated/src/ETH004/01_lwIP_Stack/src/core/tcp.c ****     }
 497:../Dave/Generated/src/ETH004/01_lwIP_Stack/src/core/tcp.c ****   }
 498:../Dave/Generated/src/ETH004/01_lwIP_Stack/src/core/tcp.c ****   return port;
 1378              		.loc 1 498 0 is_stmt 1
 1379 00d0 40F20003 		movw	r3, #:lower16:port.5104
 1380 00d4 C0F20003 		movt	r3, #:upper16:port.5104
 1381 00d8 1B88     		ldrh	r3, [r3, #0]
 499:../Dave/Generated/src/ETH004/01_lwIP_Stack/src/core/tcp.c **** }
 1382              		.loc 1 499 0
 1383 00da 1846     		mov	r0, r3
 1384 00dc 07F10C07 		add	r7, r7, #12
 1385 00e0 BD46     		mov	sp, r7
 1386 00e2 80BC     		pop	{r7}
 1387 00e4 7047     		bx	lr
 1388              		.cfi_endproc
 1389              	.LFE8:
 1391 00e6 00BF     		.section	.text.tcp_connect,"ax",%progbits
 1392              		.align	2
 1393              		.global	tcp_connect
 1394              		.thumb
 1395              		.thumb_func
 1397              	tcp_connect:
 1398              	.LFB9:
 500:../Dave/Generated/src/ETH004/01_lwIP_Stack/src/core/tcp.c **** 
 501:../Dave/Generated/src/ETH004/01_lwIP_Stack/src/core/tcp.c **** /**
 502:../Dave/Generated/src/ETH004/01_lwIP_Stack/src/core/tcp.c ****  * Connects to another host. The function given as the "connected"
 503:../Dave/Generated/src/ETH004/01_lwIP_Stack/src/core/tcp.c ****  * argument will be called when the connection has been established.
 504:../Dave/Generated/src/ETH004/01_lwIP_Stack/src/core/tcp.c ****  *
 505:../Dave/Generated/src/ETH004/01_lwIP_Stack/src/core/tcp.c ****  * @param pcb the tcp_pcb used to establish the connection
 506:../Dave/Generated/src/ETH004/01_lwIP_Stack/src/core/tcp.c ****  * @param ipaddr the remote ip address to connect to
 507:../Dave/Generated/src/ETH004/01_lwIP_Stack/src/core/tcp.c ****  * @param port the remote tcp port to connect to
 508:../Dave/Generated/src/ETH004/01_lwIP_Stack/src/core/tcp.c ****  * @param connected callback function to call when connected (or on error)
 509:../Dave/Generated/src/ETH004/01_lwIP_Stack/src/core/tcp.c ****  * @return ERR_VAL if invalid arguments are given
 510:../Dave/Generated/src/ETH004/01_lwIP_Stack/src/core/tcp.c ****  *         ERR_OK if connect request has been sent
 511:../Dave/Generated/src/ETH004/01_lwIP_Stack/src/core/tcp.c ****  *         other err_t values if connect request couldn't be sent
 512:../Dave/Generated/src/ETH004/01_lwIP_Stack/src/core/tcp.c ****  */
 513:../Dave/Generated/src/ETH004/01_lwIP_Stack/src/core/tcp.c **** err_t
 514:../Dave/Generated/src/ETH004/01_lwIP_Stack/src/core/tcp.c **** tcp_connect(struct tcp_pcb *pcb, struct ip_addr *ipaddr, u16_t port,
 515:../Dave/Generated/src/ETH004/01_lwIP_Stack/src/core/tcp.c ****       err_t (* connected)(void *arg, struct tcp_pcb *tpcb, err_t err))
 516:../Dave/Generated/src/ETH004/01_lwIP_Stack/src/core/tcp.c **** {
 1399              		.loc 1 516 0
 1400              		.cfi_startproc
 1401              		@ args = 0, pretend = 0, frame = 24
 1402              		@ frame_needed = 1, uses_anonymous_args = 0
 1403 0000 80B5     		push	{r7, lr}
 1404              	.LCFI26:
 1405              		.cfi_def_cfa_offset 8
 1406              		.cfi_offset 7, -8
 1407              		.cfi_offset 14, -4
 1408 0002 88B0     		sub	sp, sp, #32
 1409              	.LCFI27:
 1410              		.cfi_def_cfa_offset 40
 1411 0004 02AF     		add	r7, sp, #8
 1412              	.LCFI28:
 1413              		.cfi_def_cfa 7, 32
 1414 0006 F860     		str	r0, [r7, #12]
 1415 0008 B960     		str	r1, [r7, #8]
 1416 000a 3B60     		str	r3, [r7, #0]
 1417 000c 1346     		mov	r3, r2	@ movhi
 1418 000e FB80     		strh	r3, [r7, #6]	@ movhi
 517:../Dave/Generated/src/ETH004/01_lwIP_Stack/src/core/tcp.c ****   err_t ret;
 518:../Dave/Generated/src/ETH004/01_lwIP_Stack/src/core/tcp.c ****   u32_t iss;
 519:../Dave/Generated/src/ETH004/01_lwIP_Stack/src/core/tcp.c **** 
 520:../Dave/Generated/src/ETH004/01_lwIP_Stack/src/core/tcp.c ****   LWIP_ERROR("tcp_connect: can only connected from state CLOSED", pcb->state == CLOSED, return ERR_
 1419              		.loc 1 520 0
 1420 0010 FB68     		ldr	r3, [r7, #12]
 1421 0012 1B7C     		ldrb	r3, [r3, #16]	@ zero_extendqisi2
 1422 0014 002B     		cmp	r3, #0
 1423 0016 02D0     		beq	.L97
 1424              		.loc 1 520 0 is_stmt 0 discriminator 3
 1425 0018 4FF0F303 		mov	r3, #243
 1426 001c D2E0     		b	.L98
 1427              	.L97:
 521:../Dave/Generated/src/ETH004/01_lwIP_Stack/src/core/tcp.c **** 
 522:../Dave/Generated/src/ETH004/01_lwIP_Stack/src/core/tcp.c ****   LWIP_DEBUGF(TCP_DEBUG, ("tcp_connect to port %"U16_F"\n", port));
 523:../Dave/Generated/src/ETH004/01_lwIP_Stack/src/core/tcp.c ****   if (ipaddr != NULL) {
 1428              		.loc 1 523 0 is_stmt 1
 1429 001e BB68     		ldr	r3, [r7, #8]
 1430 0020 002B     		cmp	r3, #0
 1431 0022 0DD0     		beq	.L99
 524:../Dave/Generated/src/ETH004/01_lwIP_Stack/src/core/tcp.c ****     pcb->remote_ip = *ipaddr;
 1432              		.loc 1 524 0
 1433 0024 FB68     		ldr	r3, [r7, #12]
 1434 0026 BA68     		ldr	r2, [r7, #8]
 1435 0028 03F10403 		add	r3, r3, #4
 1436 002c 1068     		ldr	r0, [r2, #0]	@ unaligned
 1437 002e 1860     		str	r0, [r3, #0]	@ unaligned
 525:../Dave/Generated/src/ETH004/01_lwIP_Stack/src/core/tcp.c ****   } else {
 526:../Dave/Generated/src/ETH004/01_lwIP_Stack/src/core/tcp.c ****     return ERR_VAL;
 527:../Dave/Generated/src/ETH004/01_lwIP_Stack/src/core/tcp.c ****   }
 528:../Dave/Generated/src/ETH004/01_lwIP_Stack/src/core/tcp.c ****   pcb->remote_port = port;
 1438              		.loc 1 528 0
 1439 0030 FB68     		ldr	r3, [r7, #12]
 1440 0032 FA88     		ldrh	r2, [r7, #6]	@ movhi
 1441 0034 1A84     		strh	r2, [r3, #32]	@ movhi
 529:../Dave/Generated/src/ETH004/01_lwIP_Stack/src/core/tcp.c ****   if (pcb->local_port == 0) {
 1442              		.loc 1 529 0
 1443 0036 FB68     		ldr	r3, [r7, #12]
 1444 0038 1B8B     		ldrh	r3, [r3, #24]
 1445 003a 002B     		cmp	r3, #0
 1446 003c 03D0     		beq	.L100
 1447 003e 08E0     		b	.L101
 1448              	.L99:
 526:../Dave/Generated/src/ETH004/01_lwIP_Stack/src/core/tcp.c ****     return ERR_VAL;
 1449              		.loc 1 526 0
 1450 0040 4FF0F703 		mov	r3, #247
 1451 0044 BEE0     		b	.L98
 1452              	.L100:
 530:../Dave/Generated/src/ETH004/01_lwIP_Stack/src/core/tcp.c ****     pcb->local_port = tcp_new_port();
 1453              		.loc 1 530 0
 1454 0046 FFF7FEFF 		bl	tcp_new_port
 1455 004a 0346     		mov	r3, r0
 1456 004c 1A46     		mov	r2, r3
 1457 004e FB68     		ldr	r3, [r7, #12]
 1458 0050 1A83     		strh	r2, [r3, #24]	@ movhi
 1459              	.L101:
 531:../Dave/Generated/src/ETH004/01_lwIP_Stack/src/core/tcp.c ****   }
 532:../Dave/Generated/src/ETH004/01_lwIP_Stack/src/core/tcp.c ****   iss = tcp_next_iss();
 1460              		.loc 1 532 0
 1461 0052 FFF7FEFF 		bl	tcp_next_iss
 1462 0056 7861     		str	r0, [r7, #20]
 533:../Dave/Generated/src/ETH004/01_lwIP_Stack/src/core/tcp.c ****   pcb->rcv_nxt = 0;
 1463              		.loc 1 533 0
 1464 0058 FB68     		ldr	r3, [r7, #12]
 1465 005a 4FF00002 		mov	r2, #0
 1466 005e 5A62     		str	r2, [r3, #36]
 534:../Dave/Generated/src/ETH004/01_lwIP_Stack/src/core/tcp.c ****   pcb->snd_nxt = iss;
 1467              		.loc 1 534 0
 1468 0060 FB68     		ldr	r3, [r7, #12]
 1469 0062 7A69     		ldr	r2, [r7, #20]
 1470 0064 9A65     		str	r2, [r3, #88]
 535:../Dave/Generated/src/ETH004/01_lwIP_Stack/src/core/tcp.c ****   pcb->lastack = iss - 1;
 1471              		.loc 1 535 0
 1472 0066 7B69     		ldr	r3, [r7, #20]
 1473 0068 03F1FF32 		add	r2, r3, #-1
 1474 006c FB68     		ldr	r3, [r7, #12]
 1475 006e DA64     		str	r2, [r3, #76]
 536:../Dave/Generated/src/ETH004/01_lwIP_Stack/src/core/tcp.c ****   pcb->snd_lbb = iss - 1;
 1476              		.loc 1 536 0
 1477 0070 7B69     		ldr	r3, [r7, #20]
 1478 0072 03F1FF32 		add	r2, r3, #-1
 1479 0076 FB68     		ldr	r3, [r7, #12]
 1480 0078 9A66     		str	r2, [r3, #104]
 537:../Dave/Generated/src/ETH004/01_lwIP_Stack/src/core/tcp.c ****   pcb->rcv_wnd = TCP_WND;
 1481              		.loc 1 537 0
 1482 007a FB68     		ldr	r3, [r7, #12]
 1483 007c 40F64C32 		movw	r2, #2892
 1484 0080 1A85     		strh	r2, [r3, #40]	@ movhi
 538:../Dave/Generated/src/ETH004/01_lwIP_Stack/src/core/tcp.c ****   pcb->rcv_ann_wnd = TCP_WND;
 1485              		.loc 1 538 0
 1486 0082 FB68     		ldr	r3, [r7, #12]
 1487 0084 40F64C32 		movw	r2, #2892
 1488 0088 5A85     		strh	r2, [r3, #42]	@ movhi
 539:../Dave/Generated/src/ETH004/01_lwIP_Stack/src/core/tcp.c ****   pcb->rcv_ann_right_edge = pcb->rcv_nxt;
 1489              		.loc 1 539 0
 1490 008a FB68     		ldr	r3, [r7, #12]
 1491 008c 5A6A     		ldr	r2, [r3, #36]
 1492 008e FB68     		ldr	r3, [r7, #12]
 1493 0090 DA62     		str	r2, [r3, #44]
 540:../Dave/Generated/src/ETH004/01_lwIP_Stack/src/core/tcp.c ****   pcb->snd_wnd = TCP_WND;
 1494              		.loc 1 540 0
 1495 0092 FB68     		ldr	r3, [r7, #12]
 1496 0094 40F64C32 		movw	r2, #2892
 1497 0098 A3F85C20 		strh	r2, [r3, #92]	@ movhi
 541:../Dave/Generated/src/ETH004/01_lwIP_Stack/src/core/tcp.c ****   /* As initial send MSS, we use TCP_MSS but limit it to 536.
 542:../Dave/Generated/src/ETH004/01_lwIP_Stack/src/core/tcp.c ****      The send MSS is updated when an MSS option is received. */
 543:../Dave/Generated/src/ETH004/01_lwIP_Stack/src/core/tcp.c ****   pcb->mss = (TCP_MSS > 536) ? 536 : TCP_MSS;
 1498              		.loc 1 543 0
 1499 009c FB68     		ldr	r3, [r7, #12]
 1500 009e 4FF40672 		mov	r2, #536
 1501 00a2 1A87     		strh	r2, [r3, #56]	@ movhi
 544:../Dave/Generated/src/ETH004/01_lwIP_Stack/src/core/tcp.c **** #if TCP_CALCULATE_EFF_SEND_MSS
 545:../Dave/Generated/src/ETH004/01_lwIP_Stack/src/core/tcp.c ****   pcb->mss = tcp_eff_send_mss(pcb->mss, ipaddr);
 1502              		.loc 1 545 0
 1503 00a4 FB68     		ldr	r3, [r7, #12]
 1504 00a6 1B8F     		ldrh	r3, [r3, #56]
 1505 00a8 1846     		mov	r0, r3
 1506 00aa B968     		ldr	r1, [r7, #8]
 1507 00ac FFF7FEFF 		bl	tcp_eff_send_mss
 1508 00b0 0346     		mov	r3, r0
 1509 00b2 1A46     		mov	r2, r3
 1510 00b4 FB68     		ldr	r3, [r7, #12]
 1511 00b6 1A87     		strh	r2, [r3, #56]	@ movhi
 546:../Dave/Generated/src/ETH004/01_lwIP_Stack/src/core/tcp.c **** #endif /* TCP_CALCULATE_EFF_SEND_MSS */
 547:../Dave/Generated/src/ETH004/01_lwIP_Stack/src/core/tcp.c ****   pcb->cwnd = 1;
 1512              		.loc 1 547 0
 1513 00b8 FB68     		ldr	r3, [r7, #12]
 1514 00ba 4FF00102 		mov	r2, #1
 1515 00be A3F85220 		strh	r2, [r3, #82]	@ movhi
 548:../Dave/Generated/src/ETH004/01_lwIP_Stack/src/core/tcp.c ****   pcb->ssthresh = pcb->mss * 10;
 1516              		.loc 1 548 0
 1517 00c2 FB68     		ldr	r3, [r7, #12]
 1518 00c4 1B8F     		ldrh	r3, [r3, #56]
 1519 00c6 1A46     		mov	r2, r3	@ movhi
 1520 00c8 4FEA8202 		lsl	r2, r2, #2
 1521 00cc D318     		adds	r3, r2, r3
 1522 00ce 4FEA4303 		lsl	r3, r3, #1
 1523 00d2 9AB2     		uxth	r2, r3
 1524 00d4 FB68     		ldr	r3, [r7, #12]
 1525 00d6 A3F85420 		strh	r2, [r3, #84]	@ movhi
 549:../Dave/Generated/src/ETH004/01_lwIP_Stack/src/core/tcp.c ****   pcb->state = SYN_SENT;
 1526              		.loc 1 549 0
 1527 00da FB68     		ldr	r3, [r7, #12]
 1528 00dc 4FF00202 		mov	r2, #2
 1529 00e0 1A74     		strb	r2, [r3, #16]
 550:../Dave/Generated/src/ETH004/01_lwIP_Stack/src/core/tcp.c **** #if LWIP_CALLBACK_API  
 551:../Dave/Generated/src/ETH004/01_lwIP_Stack/src/core/tcp.c ****   pcb->connected = connected;
 1530              		.loc 1 551 0
 1531 00e2 FB68     		ldr	r3, [r7, #12]
 1532 00e4 3A68     		ldr	r2, [r7, #0]
 1533 00e6 C3F88820 		str	r2, [r3, #136]
 552:../Dave/Generated/src/ETH004/01_lwIP_Stack/src/core/tcp.c **** #endif /* LWIP_CALLBACK_API */
 553:../Dave/Generated/src/ETH004/01_lwIP_Stack/src/core/tcp.c ****   TCP_RMV(&tcp_bound_pcbs, pcb);
 1534              		.loc 1 553 0
 1535 00ea 40F20003 		movw	r3, #:lower16:tcp_bound_pcbs
 1536 00ee C0F20003 		movt	r3, #:upper16:tcp_bound_pcbs
 1537 00f2 1A68     		ldr	r2, [r3, #0]
 1538 00f4 FB68     		ldr	r3, [r7, #12]
 1539 00f6 9A42     		cmp	r2, r3
 1540 00f8 0BD1     		bne	.L102
 1541              		.loc 1 553 0 is_stmt 0 discriminator 1
 1542 00fa 40F20003 		movw	r3, #:lower16:tcp_bound_pcbs
 1543 00fe C0F20003 		movt	r3, #:upper16:tcp_bound_pcbs
 1544 0102 1B68     		ldr	r3, [r3, #0]
 1545 0104 DA68     		ldr	r2, [r3, #12]
 1546 0106 40F20003 		movw	r3, #:lower16:tcp_bound_pcbs
 1547 010a C0F20003 		movt	r3, #:upper16:tcp_bound_pcbs
 1548 010e 1A60     		str	r2, [r3, #0]
 1549 0110 2EE0     		b	.L103
 1550              	.L102:
 1551              		.loc 1 553 0 discriminator 2
 1552 0112 40F20003 		movw	r3, #:lower16:tcp_bound_pcbs
 1553 0116 C0F20003 		movt	r3, #:upper16:tcp_bound_pcbs
 1554 011a 1A68     		ldr	r2, [r3, #0]
 1555 011c 40F20003 		movw	r3, #:lower16:tcp_tmp_pcb
 1556 0120 C0F20003 		movt	r3, #:upper16:tcp_tmp_pcb
 1557 0124 1A60     		str	r2, [r3, #0]
 1558 0126 1CE0     		b	.L104
 1559              	.L106:
 1560              		.loc 1 553 0 discriminator 7
 1561 0128 40F20003 		movw	r3, #:lower16:tcp_tmp_pcb
 1562 012c C0F20003 		movt	r3, #:upper16:tcp_tmp_pcb
 1563 0130 1B68     		ldr	r3, [r3, #0]
 1564 0132 DA68     		ldr	r2, [r3, #12]
 1565 0134 FB68     		ldr	r3, [r7, #12]
 1566 0136 9A42     		cmp	r2, r3
 1567 0138 08D1     		bne	.L105
 1568              		.loc 1 553 0 discriminator 4
 1569 013a 40F20003 		movw	r3, #:lower16:tcp_tmp_pcb
 1570 013e C0F20003 		movt	r3, #:upper16:tcp_tmp_pcb
 1571 0142 1B68     		ldr	r3, [r3, #0]
 1572 0144 FA68     		ldr	r2, [r7, #12]
 1573 0146 D268     		ldr	r2, [r2, #12]
 1574 0148 DA60     		str	r2, [r3, #12]
 1575 014a 11E0     		b	.L103
 1576              	.L105:
 1577              		.loc 1 553 0 discriminator 5
 1578 014c 40F20003 		movw	r3, #:lower16:tcp_tmp_pcb
 1579 0150 C0F20003 		movt	r3, #:upper16:tcp_tmp_pcb
 1580 0154 1B68     		ldr	r3, [r3, #0]
 1581 0156 DA68     		ldr	r2, [r3, #12]
 1582 0158 40F20003 		movw	r3, #:lower16:tcp_tmp_pcb
 1583 015c C0F20003 		movt	r3, #:upper16:tcp_tmp_pcb
 1584 0160 1A60     		str	r2, [r3, #0]
 1585              	.L104:
 1586              		.loc 1 553 0 discriminator 3
 1587 0162 40F20003 		movw	r3, #:lower16:tcp_tmp_pcb
 1588 0166 C0F20003 		movt	r3, #:upper16:tcp_tmp_pcb
 1589 016a 1B68     		ldr	r3, [r3, #0]
 1590 016c 002B     		cmp	r3, #0
 1591 016e DBD1     		bne	.L106
 1592              	.L103:
 1593              		.loc 1 553 0 discriminator 6
 1594 0170 FB68     		ldr	r3, [r7, #12]
 1595 0172 4FF00002 		mov	r2, #0
 1596 0176 DA60     		str	r2, [r3, #12]
 554:../Dave/Generated/src/ETH004/01_lwIP_Stack/src/core/tcp.c ****   TCP_REG(&tcp_active_pcbs, pcb);
 1597              		.loc 1 554 0 is_stmt 1 discriminator 6
 1598 0178 40F20003 		movw	r3, #:lower16:tcp_active_pcbs
 1599 017c C0F20003 		movt	r3, #:upper16:tcp_active_pcbs
 1600 0180 1A68     		ldr	r2, [r3, #0]
 1601 0182 FB68     		ldr	r3, [r7, #12]
 1602 0184 DA60     		str	r2, [r3, #12]
 1603 0186 40F20003 		movw	r3, #:lower16:tcp_active_pcbs
 1604 018a C0F20003 		movt	r3, #:upper16:tcp_active_pcbs
 1605 018e FA68     		ldr	r2, [r7, #12]
 1606 0190 1A60     		str	r2, [r3, #0]
 555:../Dave/Generated/src/ETH004/01_lwIP_Stack/src/core/tcp.c **** 
 556:../Dave/Generated/src/ETH004/01_lwIP_Stack/src/core/tcp.c ****   snmp_inc_tcpactiveopens();
 557:../Dave/Generated/src/ETH004/01_lwIP_Stack/src/core/tcp.c ****   
 558:../Dave/Generated/src/ETH004/01_lwIP_Stack/src/core/tcp.c ****   ret = tcp_enqueue(pcb, NULL, 0, TCP_SYN, 0, TF_SEG_OPTS_MSS
 1607              		.loc 1 558 0 discriminator 6
 1608 0192 4FF00003 		mov	r3, #0
 1609 0196 0093     		str	r3, [sp, #0]
 1610 0198 4FF00103 		mov	r3, #1
 1611 019c 0193     		str	r3, [sp, #4]
 1612 019e F868     		ldr	r0, [r7, #12]
 1613 01a0 4FF00001 		mov	r1, #0
 1614 01a4 4FF00002 		mov	r2, #0
 1615 01a8 4FF00203 		mov	r3, #2
 1616 01ac FFF7FEFF 		bl	tcp_enqueue
 1617 01b0 0346     		mov	r3, r0
 1618 01b2 FB74     		strb	r3, [r7, #19]
 559:../Dave/Generated/src/ETH004/01_lwIP_Stack/src/core/tcp.c **** #if LWIP_TCP_TIMESTAMPS
 560:../Dave/Generated/src/ETH004/01_lwIP_Stack/src/core/tcp.c ****                     | TF_SEG_OPTS_TS
 561:../Dave/Generated/src/ETH004/01_lwIP_Stack/src/core/tcp.c **** #endif
 562:../Dave/Generated/src/ETH004/01_lwIP_Stack/src/core/tcp.c ****                     );
 563:../Dave/Generated/src/ETH004/01_lwIP_Stack/src/core/tcp.c ****   if (ret == ERR_OK) { 
 1619              		.loc 1 563 0 discriminator 6
 1620 01b4 97F91330 		ldrsb	r3, [r7, #19]
 1621 01b8 002B     		cmp	r3, #0
 1622 01ba 02D1     		bne	.L107
 564:../Dave/Generated/src/ETH004/01_lwIP_Stack/src/core/tcp.c ****     tcp_output(pcb);
 1623              		.loc 1 564 0
 1624 01bc F868     		ldr	r0, [r7, #12]
 1625 01be FFF7FEFF 		bl	tcp_output
 1626              	.L107:
 565:../Dave/Generated/src/ETH004/01_lwIP_Stack/src/core/tcp.c ****   }
 566:../Dave/Generated/src/ETH004/01_lwIP_Stack/src/core/tcp.c ****   return ret;
 1627              		.loc 1 566 0
 1628 01c2 FB7C     		ldrb	r3, [r7, #19]	@ zero_extendqisi2
 1629              	.L98:
 1630 01c4 5BB2     		sxtb	r3, r3
 567:../Dave/Generated/src/ETH004/01_lwIP_Stack/src/core/tcp.c **** } 
 1631              		.loc 1 567 0
 1632 01c6 1846     		mov	r0, r3
 1633 01c8 07F11807 		add	r7, r7, #24
 1634 01cc BD46     		mov	sp, r7
 1635 01ce 80BD     		pop	{r7, pc}
 1636              		.cfi_endproc
 1637              	.LFE9:
 1639              		.section	.text.tcp_slowtmr,"ax",%progbits
 1640              		.align	2
 1641              		.global	tcp_slowtmr
 1642              		.thumb
 1643              		.thumb_func
 1645              	tcp_slowtmr:
 1646              	.LFB10:
 568:../Dave/Generated/src/ETH004/01_lwIP_Stack/src/core/tcp.c **** 
 569:../Dave/Generated/src/ETH004/01_lwIP_Stack/src/core/tcp.c **** /**
 570:../Dave/Generated/src/ETH004/01_lwIP_Stack/src/core/tcp.c ****  * Called every 500 ms and implements the retransmission timer and the timer that
 571:../Dave/Generated/src/ETH004/01_lwIP_Stack/src/core/tcp.c ****  * removes PCBs that have been in TIME-WAIT for enough time. It also increments
 572:../Dave/Generated/src/ETH004/01_lwIP_Stack/src/core/tcp.c ****  * various timers such as the inactivity timer in each PCB.
 573:../Dave/Generated/src/ETH004/01_lwIP_Stack/src/core/tcp.c ****  *
 574:../Dave/Generated/src/ETH004/01_lwIP_Stack/src/core/tcp.c ****  * Automatically called from tcp_tmr().
 575:../Dave/Generated/src/ETH004/01_lwIP_Stack/src/core/tcp.c ****  */
 576:../Dave/Generated/src/ETH004/01_lwIP_Stack/src/core/tcp.c **** void
 577:../Dave/Generated/src/ETH004/01_lwIP_Stack/src/core/tcp.c **** tcp_slowtmr(void)
 578:../Dave/Generated/src/ETH004/01_lwIP_Stack/src/core/tcp.c **** {
 1647              		.loc 1 578 0
 1648              		.cfi_startproc
 1649              		@ args = 0, pretend = 0, frame = 24
 1650              		@ frame_needed = 1, uses_anonymous_args = 0
 1651 0000 B0B5     		push	{r4, r5, r7, lr}
 1652              	.LCFI29:
 1653              		.cfi_def_cfa_offset 16
 1654              		.cfi_offset 4, -16
 1655              		.cfi_offset 5, -12
 1656              		.cfi_offset 7, -8
 1657              		.cfi_offset 14, -4
 1658 0002 88B0     		sub	sp, sp, #32
 1659              	.LCFI30:
 1660              		.cfi_def_cfa_offset 48
 1661 0004 02AF     		add	r7, sp, #8
 1662              	.LCFI31:
 1663              		.cfi_def_cfa 7, 40
 579:../Dave/Generated/src/ETH004/01_lwIP_Stack/src/core/tcp.c ****   struct tcp_pcb *pcb, *pcb2, *prev;
 580:../Dave/Generated/src/ETH004/01_lwIP_Stack/src/core/tcp.c ****   u16_t eff_wnd;
 581:../Dave/Generated/src/ETH004/01_lwIP_Stack/src/core/tcp.c ****   u8_t pcb_remove;      /* flag if a PCB should be removed */
 582:../Dave/Generated/src/ETH004/01_lwIP_Stack/src/core/tcp.c ****   u8_t pcb_reset;       /* flag if a RST should be sent when removing */
 583:../Dave/Generated/src/ETH004/01_lwIP_Stack/src/core/tcp.c ****   err_t err;
 584:../Dave/Generated/src/ETH004/01_lwIP_Stack/src/core/tcp.c **** 
 585:../Dave/Generated/src/ETH004/01_lwIP_Stack/src/core/tcp.c ****   err = ERR_OK;
 1664              		.loc 1 585 0
 1665 0006 4FF00003 		mov	r3, #0
 1666 000a 7B73     		strb	r3, [r7, #13]
 586:../Dave/Generated/src/ETH004/01_lwIP_Stack/src/core/tcp.c **** 
 587:../Dave/Generated/src/ETH004/01_lwIP_Stack/src/core/tcp.c ****   ++tcp_ticks;
 1667              		.loc 1 587 0
 1668 000c 40F20003 		movw	r3, #:lower16:tcp_ticks
 1669 0010 C0F20003 		movt	r3, #:upper16:tcp_ticks
 1670 0014 1B68     		ldr	r3, [r3, #0]
 1671 0016 03F10102 		add	r2, r3, #1
 1672 001a 40F20003 		movw	r3, #:lower16:tcp_ticks
 1673 001e C0F20003 		movt	r3, #:upper16:tcp_ticks
 1674 0022 1A60     		str	r2, [r3, #0]
 588:../Dave/Generated/src/ETH004/01_lwIP_Stack/src/core/tcp.c **** 
 589:../Dave/Generated/src/ETH004/01_lwIP_Stack/src/core/tcp.c ****   /* Steps through all of the active PCBs. */
 590:../Dave/Generated/src/ETH004/01_lwIP_Stack/src/core/tcp.c ****   prev = NULL;
 1675              		.loc 1 590 0
 1676 0024 4FF00003 		mov	r3, #0
 1677 0028 3B61     		str	r3, [r7, #16]
 591:../Dave/Generated/src/ETH004/01_lwIP_Stack/src/core/tcp.c ****   pcb = tcp_active_pcbs;
 1678              		.loc 1 591 0
 1679 002a 40F20003 		movw	r3, #:lower16:tcp_active_pcbs
 1680 002e C0F20003 		movt	r3, #:upper16:tcp_active_pcbs
 1681 0032 1B68     		ldr	r3, [r3, #0]
 1682 0034 7B61     		str	r3, [r7, #20]
 592:../Dave/Generated/src/ETH004/01_lwIP_Stack/src/core/tcp.c ****   if (pcb == NULL) {
 593:../Dave/Generated/src/ETH004/01_lwIP_Stack/src/core/tcp.c ****     LWIP_DEBUGF(TCP_DEBUG, ("tcp_slowtmr: no active pcbs\n"));
 594:../Dave/Generated/src/ETH004/01_lwIP_Stack/src/core/tcp.c ****   }
 595:../Dave/Generated/src/ETH004/01_lwIP_Stack/src/core/tcp.c ****   while (pcb != NULL) {
 1683              		.loc 1 595 0
 1684 0036 BBE1     		b	.L109
 1685              	.L132:
 596:../Dave/Generated/src/ETH004/01_lwIP_Stack/src/core/tcp.c ****     LWIP_DEBUGF(TCP_DEBUG, ("tcp_slowtmr: processing active pcb\n"));
 597:../Dave/Generated/src/ETH004/01_lwIP_Stack/src/core/tcp.c ****     LWIP_ASSERT("tcp_slowtmr: active pcb->state != CLOSED\n", pcb->state != CLOSED);
 598:../Dave/Generated/src/ETH004/01_lwIP_Stack/src/core/tcp.c ****     LWIP_ASSERT("tcp_slowtmr: active pcb->state != LISTEN\n", pcb->state != LISTEN);
 599:../Dave/Generated/src/ETH004/01_lwIP_Stack/src/core/tcp.c ****     LWIP_ASSERT("tcp_slowtmr: active pcb->state != TIME-WAIT\n", pcb->state != TIME_WAIT);
 600:../Dave/Generated/src/ETH004/01_lwIP_Stack/src/core/tcp.c **** 
 601:../Dave/Generated/src/ETH004/01_lwIP_Stack/src/core/tcp.c ****     pcb_remove = 0;
 1686              		.loc 1 601 0
 1687 0038 4FF00003 		mov	r3, #0
 1688 003c FB73     		strb	r3, [r7, #15]
 602:../Dave/Generated/src/ETH004/01_lwIP_Stack/src/core/tcp.c ****     pcb_reset = 0;
 1689              		.loc 1 602 0
 1690 003e 4FF00003 		mov	r3, #0
 1691 0042 BB73     		strb	r3, [r7, #14]
 603:../Dave/Generated/src/ETH004/01_lwIP_Stack/src/core/tcp.c **** 
 604:../Dave/Generated/src/ETH004/01_lwIP_Stack/src/core/tcp.c ****     if (pcb->state == SYN_SENT && pcb->nrtx == TCP_SYNMAXRTX) {
 1692              		.loc 1 604 0
 1693 0044 7B69     		ldr	r3, [r7, #20]
 1694 0046 1B7C     		ldrb	r3, [r3, #16]	@ zero_extendqisi2
 1695 0048 022B     		cmp	r3, #2
 1696 004a 09D1     		bne	.L110
 1697              		.loc 1 604 0 is_stmt 0 discriminator 1
 1698 004c 7B69     		ldr	r3, [r7, #20]
 1699 004e 93F84A30 		ldrb	r3, [r3, #74]	@ zero_extendqisi2
 1700 0052 062B     		cmp	r3, #6
 1701 0054 04D1     		bne	.L110
 605:../Dave/Generated/src/ETH004/01_lwIP_Stack/src/core/tcp.c ****       ++pcb_remove;
 1702              		.loc 1 605 0 is_stmt 1
 1703 0056 FB7B     		ldrb	r3, [r7, #15]
 1704 0058 03F10103 		add	r3, r3, #1
 1705 005c FB73     		strb	r3, [r7, #15]
 1706 005e A1E0     		b	.L111
 1707              	.L110:
 606:../Dave/Generated/src/ETH004/01_lwIP_Stack/src/core/tcp.c ****       LWIP_DEBUGF(TCP_DEBUG, ("tcp_slowtmr: max SYN retries reached\n"));
 607:../Dave/Generated/src/ETH004/01_lwIP_Stack/src/core/tcp.c ****     }
 608:../Dave/Generated/src/ETH004/01_lwIP_Stack/src/core/tcp.c ****     else if (pcb->nrtx == TCP_MAXRTX) {
 1708              		.loc 1 608 0
 1709 0060 7B69     		ldr	r3, [r7, #20]
 1710 0062 93F84A30 		ldrb	r3, [r3, #74]	@ zero_extendqisi2
 1711 0066 0C2B     		cmp	r3, #12
 1712 0068 04D1     		bne	.L112
 609:../Dave/Generated/src/ETH004/01_lwIP_Stack/src/core/tcp.c ****       ++pcb_remove;
 1713              		.loc 1 609 0
 1714 006a FB7B     		ldrb	r3, [r7, #15]
 1715 006c 03F10103 		add	r3, r3, #1
 1716 0070 FB73     		strb	r3, [r7, #15]
 1717 0072 97E0     		b	.L111
 1718              	.L112:
 610:../Dave/Generated/src/ETH004/01_lwIP_Stack/src/core/tcp.c ****       LWIP_DEBUGF(TCP_DEBUG, ("tcp_slowtmr: max DATA retries reached\n"));
 611:../Dave/Generated/src/ETH004/01_lwIP_Stack/src/core/tcp.c ****     } else {
 612:../Dave/Generated/src/ETH004/01_lwIP_Stack/src/core/tcp.c ****       if (pcb->persist_backoff > 0) {
 1719              		.loc 1 612 0
 1720 0074 7B69     		ldr	r3, [r7, #20]
 1721 0076 93F89C30 		ldrb	r3, [r3, #156]	@ zero_extendqisi2
 1722 007a 002B     		cmp	r3, #0
 1723 007c 2DD0     		beq	.L113
 613:../Dave/Generated/src/ETH004/01_lwIP_Stack/src/core/tcp.c ****         /* If snd_wnd is zero, use persist timer to send 1 byte probes
 614:../Dave/Generated/src/ETH004/01_lwIP_Stack/src/core/tcp.c ****          * instead of using the standard retransmission mechanism. */
 615:../Dave/Generated/src/ETH004/01_lwIP_Stack/src/core/tcp.c ****         pcb->persist_cnt++;
 1724              		.loc 1 615 0
 1725 007e 7B69     		ldr	r3, [r7, #20]
 1726 0080 D3F89830 		ldr	r3, [r3, #152]
 1727 0084 03F10102 		add	r2, r3, #1
 1728 0088 7B69     		ldr	r3, [r7, #20]
 1729 008a C3F89820 		str	r2, [r3, #152]
 616:../Dave/Generated/src/ETH004/01_lwIP_Stack/src/core/tcp.c ****         if (pcb->persist_cnt >= tcp_persist_backoff[pcb->persist_backoff-1]) {
 1730              		.loc 1 616 0
 1731 008e 7B69     		ldr	r3, [r7, #20]
 1732 0090 D3F89820 		ldr	r2, [r3, #152]
 1733 0094 7B69     		ldr	r3, [r7, #20]
 1734 0096 93F89C30 		ldrb	r3, [r3, #156]	@ zero_extendqisi2
 1735 009a 03F1FF31 		add	r1, r3, #-1
 1736 009e 40F20003 		movw	r3, #:lower16:tcp_persist_backoff
 1737 00a2 C0F20003 		movt	r3, #:upper16:tcp_persist_backoff
 1738 00a6 5B5C     		ldrb	r3, [r3, r1]	@ zero_extendqisi2
 1739 00a8 9A42     		cmp	r2, r3
 1740 00aa 7BD3     		bcc	.L111
 617:../Dave/Generated/src/ETH004/01_lwIP_Stack/src/core/tcp.c ****           pcb->persist_cnt = 0;
 1741              		.loc 1 617 0
 1742 00ac 7B69     		ldr	r3, [r7, #20]
 1743 00ae 4FF00002 		mov	r2, #0
 1744 00b2 C3F89820 		str	r2, [r3, #152]
 618:../Dave/Generated/src/ETH004/01_lwIP_Stack/src/core/tcp.c ****           if (pcb->persist_backoff < sizeof(tcp_persist_backoff)) {
 1745              		.loc 1 618 0
 1746 00b6 7B69     		ldr	r3, [r7, #20]
 1747 00b8 93F89C30 		ldrb	r3, [r3, #156]	@ zero_extendqisi2
 1748 00bc 062B     		cmp	r3, #6
 1749 00be 08D8     		bhi	.L114
 619:../Dave/Generated/src/ETH004/01_lwIP_Stack/src/core/tcp.c ****             pcb->persist_backoff++;
 1750              		.loc 1 619 0
 1751 00c0 7B69     		ldr	r3, [r7, #20]
 1752 00c2 93F89C30 		ldrb	r3, [r3, #156]	@ zero_extendqisi2
 1753 00c6 03F10103 		add	r3, r3, #1
 1754 00ca DAB2     		uxtb	r2, r3
 1755 00cc 7B69     		ldr	r3, [r7, #20]
 1756 00ce 83F89C20 		strb	r2, [r3, #156]
 1757              	.L114:
 620:../Dave/Generated/src/ETH004/01_lwIP_Stack/src/core/tcp.c ****           }
 621:../Dave/Generated/src/ETH004/01_lwIP_Stack/src/core/tcp.c ****           tcp_zero_window_probe(pcb);
 1758              		.loc 1 621 0
 1759 00d2 7869     		ldr	r0, [r7, #20]
 1760 00d4 FFF7FEFF 		bl	tcp_zero_window_probe
 1761 00d8 64E0     		b	.L111
 1762              	.L113:
 622:../Dave/Generated/src/ETH004/01_lwIP_Stack/src/core/tcp.c ****         }
 623:../Dave/Generated/src/ETH004/01_lwIP_Stack/src/core/tcp.c ****       } else {
 624:../Dave/Generated/src/ETH004/01_lwIP_Stack/src/core/tcp.c ****         /* Increase the retransmission timer if it is running */
 625:../Dave/Generated/src/ETH004/01_lwIP_Stack/src/core/tcp.c ****         if(pcb->rtime >= 0)
 1763              		.loc 1 625 0
 1764 00da 7B69     		ldr	r3, [r7, #20]
 1765 00dc DB8E     		ldrh	r3, [r3, #54]
 1766 00de 1BB2     		sxth	r3, r3
 1767 00e0 002B     		cmp	r3, #0
 1768 00e2 06DB     		blt	.L115
 626:../Dave/Generated/src/ETH004/01_lwIP_Stack/src/core/tcp.c ****           ++pcb->rtime;
 1769              		.loc 1 626 0
 1770 00e4 7B69     		ldr	r3, [r7, #20]
 1771 00e6 DB8E     		ldrh	r3, [r3, #54]
 1772 00e8 03F10103 		add	r3, r3, #1
 1773 00ec 9AB2     		uxth	r2, r3
 1774 00ee 7B69     		ldr	r3, [r7, #20]
 1775 00f0 DA86     		strh	r2, [r3, #54]	@ movhi
 1776              	.L115:
 627:../Dave/Generated/src/ETH004/01_lwIP_Stack/src/core/tcp.c **** 
 628:../Dave/Generated/src/ETH004/01_lwIP_Stack/src/core/tcp.c ****         if (pcb->unacked != NULL && pcb->rtime >= pcb->rto) {
 1777              		.loc 1 628 0
 1778 00f2 7B69     		ldr	r3, [r7, #20]
 1779 00f4 9B6F     		ldr	r3, [r3, #120]
 1780 00f6 002B     		cmp	r3, #0
 1781 00f8 54D0     		beq	.L111
 1782              		.loc 1 628 0 is_stmt 0 discriminator 1
 1783 00fa 7B69     		ldr	r3, [r7, #20]
 1784 00fc DA8E     		ldrh	r2, [r3, #54]
 1785 00fe 7B69     		ldr	r3, [r7, #20]
 1786 0100 B3F84830 		ldrh	r3, [r3, #72]
 1787 0104 12B2     		sxth	r2, r2
 1788 0106 1BB2     		sxth	r3, r3
 1789 0108 9A42     		cmp	r2, r3
 1790 010a 4BDB     		blt	.L111
 629:../Dave/Generated/src/ETH004/01_lwIP_Stack/src/core/tcp.c ****           /* Time for a retransmission. */
 630:../Dave/Generated/src/ETH004/01_lwIP_Stack/src/core/tcp.c ****           LWIP_DEBUGF(TCP_RTO_DEBUG, ("tcp_slowtmr: rtime %"S16_F
 631:../Dave/Generated/src/ETH004/01_lwIP_Stack/src/core/tcp.c ****                                       " pcb->rto %"S16_F"\n",
 632:../Dave/Generated/src/ETH004/01_lwIP_Stack/src/core/tcp.c ****                                       pcb->rtime, pcb->rto));
 633:../Dave/Generated/src/ETH004/01_lwIP_Stack/src/core/tcp.c **** 
 634:../Dave/Generated/src/ETH004/01_lwIP_Stack/src/core/tcp.c ****           /* Double retransmission time-out unless we are trying to
 635:../Dave/Generated/src/ETH004/01_lwIP_Stack/src/core/tcp.c ****            * connect to somebody (i.e., we are in SYN_SENT). */
 636:../Dave/Generated/src/ETH004/01_lwIP_Stack/src/core/tcp.c ****           if (pcb->state != SYN_SENT) {
 1791              		.loc 1 636 0 is_stmt 1
 1792 010c 7B69     		ldr	r3, [r7, #20]
 1793 010e 1B7C     		ldrb	r3, [r3, #16]	@ zero_extendqisi2
 1794 0110 022B     		cmp	r3, #2
 1795 0112 1BD0     		beq	.L116
 637:../Dave/Generated/src/ETH004/01_lwIP_Stack/src/core/tcp.c ****             pcb->rto = ((pcb->sa >> 3) + pcb->sv) << tcp_backoff[pcb->nrtx];
 1796              		.loc 1 637 0
 1797 0114 7B69     		ldr	r3, [r7, #20]
 1798 0116 B3F84430 		ldrh	r3, [r3, #68]
 1799 011a 1BB2     		sxth	r3, r3
 1800 011c 4FEAE303 		asr	r3, r3, #3
 1801 0120 9BB2     		uxth	r3, r3
 1802 0122 1AB2     		sxth	r2, r3
 1803 0124 7B69     		ldr	r3, [r7, #20]
 1804 0126 B3F84630 		ldrh	r3, [r3, #70]
 1805 012a 1BB2     		sxth	r3, r3
 1806 012c D218     		adds	r2, r2, r3
 1807 012e 7B69     		ldr	r3, [r7, #20]
 1808 0130 93F84A30 		ldrb	r3, [r3, #74]	@ zero_extendqisi2
 1809 0134 1946     		mov	r1, r3
 1810 0136 40F20003 		movw	r3, #:lower16:tcp_backoff
 1811 013a C0F20003 		movt	r3, #:upper16:tcp_backoff
 1812 013e 5B5C     		ldrb	r3, [r3, r1]	@ zero_extendqisi2
 1813 0140 02FA03F3 		lsl	r3, r2, r3
 1814 0144 9AB2     		uxth	r2, r3
 1815 0146 7B69     		ldr	r3, [r7, #20]
 1816 0148 A3F84820 		strh	r2, [r3, #72]	@ movhi
 1817              	.L116:
 638:../Dave/Generated/src/ETH004/01_lwIP_Stack/src/core/tcp.c ****           }
 639:../Dave/Generated/src/ETH004/01_lwIP_Stack/src/core/tcp.c **** 
 640:../Dave/Generated/src/ETH004/01_lwIP_Stack/src/core/tcp.c ****           /* Reset the retransmission timer. */
 641:../Dave/Generated/src/ETH004/01_lwIP_Stack/src/core/tcp.c ****           pcb->rtime = 0;
 1818              		.loc 1 641 0
 1819 014c 7B69     		ldr	r3, [r7, #20]
 1820 014e 4FF00002 		mov	r2, #0
 1821 0152 DA86     		strh	r2, [r3, #54]	@ movhi
 642:../Dave/Generated/src/ETH004/01_lwIP_Stack/src/core/tcp.c **** 
 643:../Dave/Generated/src/ETH004/01_lwIP_Stack/src/core/tcp.c ****           /* Reduce congestion window and ssthresh. */
 644:../Dave/Generated/src/ETH004/01_lwIP_Stack/src/core/tcp.c ****           eff_wnd = LWIP_MIN(pcb->cwnd, pcb->snd_wnd);
 1822              		.loc 1 644 0
 1823 0154 7B69     		ldr	r3, [r7, #20]
 1824 0156 B3F85C20 		ldrh	r2, [r3, #92]
 1825 015a 7B69     		ldr	r3, [r7, #20]
 1826 015c B3F85230 		ldrh	r3, [r3, #82]
 1827 0160 9A42     		cmp	r2, r3
 1828 0162 38BF     		it	cc
 1829 0164 1346     		movcc	r3, r2
 1830 0166 7B81     		strh	r3, [r7, #10]	@ movhi
 645:../Dave/Generated/src/ETH004/01_lwIP_Stack/src/core/tcp.c ****           pcb->ssthresh = eff_wnd >> 1;
 1831              		.loc 1 645 0
 1832 0168 7B89     		ldrh	r3, [r7, #10]
 1833 016a 4FEA5303 		lsr	r3, r3, #1
 1834 016e 9AB2     		uxth	r2, r3
 1835 0170 7B69     		ldr	r3, [r7, #20]
 1836 0172 A3F85420 		strh	r2, [r3, #84]	@ movhi
 646:../Dave/Generated/src/ETH004/01_lwIP_Stack/src/core/tcp.c ****           if (pcb->ssthresh < pcb->mss) {
 1837              		.loc 1 646 0
 1838 0176 7B69     		ldr	r3, [r7, #20]
 1839 0178 B3F85420 		ldrh	r2, [r3, #84]
 1840 017c 7B69     		ldr	r3, [r7, #20]
 1841 017e 1B8F     		ldrh	r3, [r3, #56]
 1842 0180 9A42     		cmp	r2, r3
 1843 0182 07D2     		bcs	.L117
 647:../Dave/Generated/src/ETH004/01_lwIP_Stack/src/core/tcp.c ****             pcb->ssthresh = pcb->mss * 2;
 1844              		.loc 1 647 0
 1845 0184 7B69     		ldr	r3, [r7, #20]
 1846 0186 1B8F     		ldrh	r3, [r3, #56]
 1847 0188 4FEA4303 		lsl	r3, r3, #1
 1848 018c 9AB2     		uxth	r2, r3
 1849 018e 7B69     		ldr	r3, [r7, #20]
 1850 0190 A3F85420 		strh	r2, [r3, #84]	@ movhi
 1851              	.L117:
 648:../Dave/Generated/src/ETH004/01_lwIP_Stack/src/core/tcp.c ****           }
 649:../Dave/Generated/src/ETH004/01_lwIP_Stack/src/core/tcp.c ****           pcb->cwnd = pcb->mss;
 1852              		.loc 1 649 0
 1853 0194 7B69     		ldr	r3, [r7, #20]
 1854 0196 1A8F     		ldrh	r2, [r3, #56]
 1855 0198 7B69     		ldr	r3, [r7, #20]
 1856 019a A3F85220 		strh	r2, [r3, #82]	@ movhi
 650:../Dave/Generated/src/ETH004/01_lwIP_Stack/src/core/tcp.c ****           LWIP_DEBUGF(TCP_CWND_DEBUG, ("tcp_slowtmr: cwnd %"U16_F
 651:../Dave/Generated/src/ETH004/01_lwIP_Stack/src/core/tcp.c ****                                        " ssthresh %"U16_F"\n",
 652:../Dave/Generated/src/ETH004/01_lwIP_Stack/src/core/tcp.c ****                                        pcb->cwnd, pcb->ssthresh));
 653:../Dave/Generated/src/ETH004/01_lwIP_Stack/src/core/tcp.c ****  
 654:../Dave/Generated/src/ETH004/01_lwIP_Stack/src/core/tcp.c ****           /* The following needs to be called AFTER cwnd is set to one
 655:../Dave/Generated/src/ETH004/01_lwIP_Stack/src/core/tcp.c ****              mss - STJ */
 656:../Dave/Generated/src/ETH004/01_lwIP_Stack/src/core/tcp.c ****           tcp_rexmit_rto(pcb);
 1857              		.loc 1 656 0
 1858 019e 7869     		ldr	r0, [r7, #20]
 1859 01a0 FFF7FEFF 		bl	tcp_rexmit_rto
 1860              	.L111:
 657:../Dave/Generated/src/ETH004/01_lwIP_Stack/src/core/tcp.c ****         }
 658:../Dave/Generated/src/ETH004/01_lwIP_Stack/src/core/tcp.c ****       }
 659:../Dave/Generated/src/ETH004/01_lwIP_Stack/src/core/tcp.c ****     }
 660:../Dave/Generated/src/ETH004/01_lwIP_Stack/src/core/tcp.c ****     /* Check if this PCB has stayed too long in FIN-WAIT-2 */
 661:../Dave/Generated/src/ETH004/01_lwIP_Stack/src/core/tcp.c ****     if (pcb->state == FIN_WAIT_2) {
 1861              		.loc 1 661 0
 1862 01a4 7B69     		ldr	r3, [r7, #20]
 1863 01a6 1B7C     		ldrb	r3, [r3, #16]	@ zero_extendqisi2
 1864 01a8 062B     		cmp	r3, #6
 1865 01aa 0DD1     		bne	.L118
 662:../Dave/Generated/src/ETH004/01_lwIP_Stack/src/core/tcp.c ****       if ((u32_t)(tcp_ticks - pcb->tmr) >
 1866              		.loc 1 662 0
 1867 01ac 40F20003 		movw	r3, #:lower16:tcp_ticks
 1868 01b0 C0F20003 		movt	r3, #:upper16:tcp_ticks
 1869 01b4 1A68     		ldr	r2, [r3, #0]
 1870 01b6 7B69     		ldr	r3, [r7, #20]
 1871 01b8 1B6B     		ldr	r3, [r3, #48]
 1872 01ba D31A     		subs	r3, r2, r3
 1873 01bc 282B     		cmp	r3, #40
 1874 01be 03D9     		bls	.L118
 663:../Dave/Generated/src/ETH004/01_lwIP_Stack/src/core/tcp.c ****           TCP_FIN_WAIT_TIMEOUT / TCP_SLOW_INTERVAL) {
 664:../Dave/Generated/src/ETH004/01_lwIP_Stack/src/core/tcp.c ****         ++pcb_remove;
 1875              		.loc 1 664 0
 1876 01c0 FB7B     		ldrb	r3, [r7, #15]
 1877 01c2 03F10103 		add	r3, r3, #1
 1878 01c6 FB73     		strb	r3, [r7, #15]
 1879              	.L118:
 665:../Dave/Generated/src/ETH004/01_lwIP_Stack/src/core/tcp.c ****         LWIP_DEBUGF(TCP_DEBUG, ("tcp_slowtmr: removing pcb stuck in FIN-WAIT-2\n"));
 666:../Dave/Generated/src/ETH004/01_lwIP_Stack/src/core/tcp.c ****       }
 667:../Dave/Generated/src/ETH004/01_lwIP_Stack/src/core/tcp.c ****     }
 668:../Dave/Generated/src/ETH004/01_lwIP_Stack/src/core/tcp.c **** 
 669:../Dave/Generated/src/ETH004/01_lwIP_Stack/src/core/tcp.c ****     /* Check if KEEPALIVE should be sent */
 670:../Dave/Generated/src/ETH004/01_lwIP_Stack/src/core/tcp.c ****     if((pcb->so_options & SOF_KEEPALIVE) && 
 1880              		.loc 1 670 0
 1881 01c8 7B69     		ldr	r3, [r7, #20]
 1882 01ca 1B89     		ldrh	r3, [r3, #8]
 1883 01cc 03F00803 		and	r3, r3, #8
 1884 01d0 002B     		cmp	r3, #0
 1885 01d2 55D0     		beq	.L119
 671:../Dave/Generated/src/ETH004/01_lwIP_Stack/src/core/tcp.c ****        ((pcb->state == ESTABLISHED) || 
 1886              		.loc 1 671 0 discriminator 1
 1887 01d4 7B69     		ldr	r3, [r7, #20]
 1888 01d6 1B7C     		ldrb	r3, [r3, #16]	@ zero_extendqisi2
 670:../Dave/Generated/src/ETH004/01_lwIP_Stack/src/core/tcp.c ****     if((pcb->so_options & SOF_KEEPALIVE) && 
 1889              		.loc 1 670 0 discriminator 1
 1890 01d8 042B     		cmp	r3, #4
 1891 01da 03D0     		beq	.L120
 672:../Dave/Generated/src/ETH004/01_lwIP_Stack/src/core/tcp.c ****         (pcb->state == CLOSE_WAIT))) {
 1892              		.loc 1 672 0
 1893 01dc 7B69     		ldr	r3, [r7, #20]
 1894 01de 1B7C     		ldrb	r3, [r3, #16]	@ zero_extendqisi2
 671:../Dave/Generated/src/ETH004/01_lwIP_Stack/src/core/tcp.c ****        ((pcb->state == ESTABLISHED) || 
 1895              		.loc 1 671 0
 1896 01e0 072B     		cmp	r3, #7
 1897 01e2 4DD1     		bne	.L119
 1898              	.L120:
 673:../Dave/Generated/src/ETH004/01_lwIP_Stack/src/core/tcp.c **** #if LWIP_TCP_KEEPALIVE
 674:../Dave/Generated/src/ETH004/01_lwIP_Stack/src/core/tcp.c ****       if((u32_t)(tcp_ticks - pcb->tmr) > 
 675:../Dave/Generated/src/ETH004/01_lwIP_Stack/src/core/tcp.c ****          (pcb->keep_idle + (pcb->keep_cnt*pcb->keep_intvl))
 676:../Dave/Generated/src/ETH004/01_lwIP_Stack/src/core/tcp.c ****          / TCP_SLOW_INTERVAL)
 677:../Dave/Generated/src/ETH004/01_lwIP_Stack/src/core/tcp.c **** #else      
 678:../Dave/Generated/src/ETH004/01_lwIP_Stack/src/core/tcp.c ****       if((u32_t)(tcp_ticks - pcb->tmr) > 
 1899              		.loc 1 678 0
 1900 01e4 40F20003 		movw	r3, #:lower16:tcp_ticks
 1901 01e8 C0F20003 		movt	r3, #:upper16:tcp_ticks
 1902 01ec 1A68     		ldr	r2, [r3, #0]
 1903 01ee 7B69     		ldr	r3, [r7, #20]
 1904 01f0 1B6B     		ldr	r3, [r3, #48]
 1905 01f2 D11A     		subs	r1, r2, r3
 679:../Dave/Generated/src/ETH004/01_lwIP_Stack/src/core/tcp.c ****          (pcb->keep_idle + TCP_MAXIDLE) / TCP_SLOW_INTERVAL)
 1906              		.loc 1 679 0
 1907 01f4 7B69     		ldr	r3, [r7, #20]
 1908 01f6 D3F89430 		ldr	r3, [r3, #148]
 1909 01fa 03F52422 		add	r2, r3, #671744
 1910 01fe 02F6B842 		addw	r2, r2, #3256
 1911 0202 44F6D353 		movw	r3, #19923
 1912 0206 C1F26203 		movt	r3, 4194
 1913 020a A3FB0203 		umull	r0, r3, r3, r2
 1914 020e 4FEA5313 		lsr	r3, r3, #5
 678:../Dave/Generated/src/ETH004/01_lwIP_Stack/src/core/tcp.c ****       if((u32_t)(tcp_ticks - pcb->tmr) > 
 1915              		.loc 1 678 0
 1916 0212 9942     		cmp	r1, r3
 1917 0214 08D9     		bls	.L121
 680:../Dave/Generated/src/ETH004/01_lwIP_Stack/src/core/tcp.c **** #endif /* LWIP_TCP_KEEPALIVE */
 681:../Dave/Generated/src/ETH004/01_lwIP_Stack/src/core/tcp.c ****       {
 682:../Dave/Generated/src/ETH004/01_lwIP_Stack/src/core/tcp.c ****         LWIP_DEBUGF(TCP_DEBUG, ("tcp_slowtmr: KEEPALIVE timeout. Aborting connection to %"U16_F".%"
 683:../Dave/Generated/src/ETH004/01_lwIP_Stack/src/core/tcp.c ****                                 ip4_addr1(&pcb->remote_ip), ip4_addr2(&pcb->remote_ip),
 684:../Dave/Generated/src/ETH004/01_lwIP_Stack/src/core/tcp.c ****                                 ip4_addr3(&pcb->remote_ip), ip4_addr4(&pcb->remote_ip)));
 685:../Dave/Generated/src/ETH004/01_lwIP_Stack/src/core/tcp.c ****         
 686:../Dave/Generated/src/ETH004/01_lwIP_Stack/src/core/tcp.c ****         ++pcb_remove;
 1918              		.loc 1 686 0
 1919 0216 FB7B     		ldrb	r3, [r7, #15]
 1920 0218 03F10103 		add	r3, r3, #1
 1921 021c FB73     		strb	r3, [r7, #15]
 687:../Dave/Generated/src/ETH004/01_lwIP_Stack/src/core/tcp.c ****         ++pcb_reset;
 1922              		.loc 1 687 0
 1923 021e BB7B     		ldrb	r3, [r7, #14]
 1924 0220 03F10103 		add	r3, r3, #1
 1925 0224 BB73     		strb	r3, [r7, #14]
 1926 0226 2BE0     		b	.L119
 1927              	.L121:
 688:../Dave/Generated/src/ETH004/01_lwIP_Stack/src/core/tcp.c ****       }
 689:../Dave/Generated/src/ETH004/01_lwIP_Stack/src/core/tcp.c **** #if LWIP_TCP_KEEPALIVE
 690:../Dave/Generated/src/ETH004/01_lwIP_Stack/src/core/tcp.c ****       else if((u32_t)(tcp_ticks - pcb->tmr) > 
 691:../Dave/Generated/src/ETH004/01_lwIP_Stack/src/core/tcp.c ****               (pcb->keep_idle + pcb->keep_cnt_sent * pcb->keep_intvl)
 692:../Dave/Generated/src/ETH004/01_lwIP_Stack/src/core/tcp.c ****               / TCP_SLOW_INTERVAL)
 693:../Dave/Generated/src/ETH004/01_lwIP_Stack/src/core/tcp.c **** #else
 694:../Dave/Generated/src/ETH004/01_lwIP_Stack/src/core/tcp.c ****       else if((u32_t)(tcp_ticks - pcb->tmr) > 
 1928              		.loc 1 694 0
 1929 0228 40F20003 		movw	r3, #:lower16:tcp_ticks
 1930 022c C0F20003 		movt	r3, #:upper16:tcp_ticks
 1931 0230 1A68     		ldr	r2, [r3, #0]
 1932 0232 7B69     		ldr	r3, [r7, #20]
 1933 0234 1B6B     		ldr	r3, [r3, #48]
 1934 0236 D21A     		subs	r2, r2, r3
 695:../Dave/Generated/src/ETH004/01_lwIP_Stack/src/core/tcp.c ****               (pcb->keep_idle + pcb->keep_cnt_sent * TCP_KEEPINTVL_DEFAULT) 
 1935              		.loc 1 695 0
 1936 0238 7B69     		ldr	r3, [r7, #20]
 1937 023a D3F89410 		ldr	r1, [r3, #148]
 1938 023e 7B69     		ldr	r3, [r7, #20]
 1939 0240 93F89D30 		ldrb	r3, [r3, #157]	@ zero_extendqisi2
 1940 0244 1846     		mov	r0, r3
 1941 0246 42F2F843 		movw	r3, #9464
 1942 024a C0F20103 		movt	r3, 1
 1943 024e 03FB00F3 		mul	r3, r3, r0
 1944 0252 C918     		adds	r1, r1, r3
 696:../Dave/Generated/src/ETH004/01_lwIP_Stack/src/core/tcp.c ****               / TCP_SLOW_INTERVAL)
 1945              		.loc 1 696 0
 1946 0254 44F6D353 		movw	r3, #19923
 1947 0258 C1F26203 		movt	r3, 4194
 1948 025c A3FB0103 		umull	r0, r3, r3, r1
 1949 0260 4FEA5313 		lsr	r3, r3, #5
 694:../Dave/Generated/src/ETH004/01_lwIP_Stack/src/core/tcp.c ****       else if((u32_t)(tcp_ticks - pcb->tmr) > 
 1950              		.loc 1 694 0
 1951 0264 9A42     		cmp	r2, r3
 1952 0266 0BD9     		bls	.L119
 697:../Dave/Generated/src/ETH004/01_lwIP_Stack/src/core/tcp.c **** #endif /* LWIP_TCP_KEEPALIVE */
 698:../Dave/Generated/src/ETH004/01_lwIP_Stack/src/core/tcp.c ****       {
 699:../Dave/Generated/src/ETH004/01_lwIP_Stack/src/core/tcp.c ****         tcp_keepalive(pcb);
 1953              		.loc 1 699 0
 1954 0268 7869     		ldr	r0, [r7, #20]
 1955 026a FFF7FEFF 		bl	tcp_keepalive
 700:../Dave/Generated/src/ETH004/01_lwIP_Stack/src/core/tcp.c ****         pcb->keep_cnt_sent++;
 1956              		.loc 1 700 0
 1957 026e 7B69     		ldr	r3, [r7, #20]
 1958 0270 93F89D30 		ldrb	r3, [r3, #157]	@ zero_extendqisi2
 1959 0274 03F10103 		add	r3, r3, #1
 1960 0278 DAB2     		uxtb	r2, r3
 1961 027a 7B69     		ldr	r3, [r7, #20]
 1962 027c 83F89D20 		strb	r2, [r3, #157]
 1963              	.L119:
 701:../Dave/Generated/src/ETH004/01_lwIP_Stack/src/core/tcp.c ****       }
 702:../Dave/Generated/src/ETH004/01_lwIP_Stack/src/core/tcp.c ****     }
 703:../Dave/Generated/src/ETH004/01_lwIP_Stack/src/core/tcp.c **** 
 704:../Dave/Generated/src/ETH004/01_lwIP_Stack/src/core/tcp.c ****     /* If this PCB has queued out of sequence data, but has been
 705:../Dave/Generated/src/ETH004/01_lwIP_Stack/src/core/tcp.c ****        inactive for too long, will drop the data (it will eventually
 706:../Dave/Generated/src/ETH004/01_lwIP_Stack/src/core/tcp.c ****        be retransmitted). */
 707:../Dave/Generated/src/ETH004/01_lwIP_Stack/src/core/tcp.c **** #if TCP_QUEUE_OOSEQ    
 708:../Dave/Generated/src/ETH004/01_lwIP_Stack/src/core/tcp.c ****     if (pcb->ooseq != NULL &&
 709:../Dave/Generated/src/ETH004/01_lwIP_Stack/src/core/tcp.c ****         (u32_t)tcp_ticks - pcb->tmr >= pcb->rto * TCP_OOSEQ_TIMEOUT) {
 710:../Dave/Generated/src/ETH004/01_lwIP_Stack/src/core/tcp.c ****       tcp_segs_free(pcb->ooseq);
 711:../Dave/Generated/src/ETH004/01_lwIP_Stack/src/core/tcp.c ****       pcb->ooseq = NULL;
 712:../Dave/Generated/src/ETH004/01_lwIP_Stack/src/core/tcp.c ****       LWIP_DEBUGF(TCP_CWND_DEBUG, ("tcp_slowtmr: dropping OOSEQ queued data\n"));
 713:../Dave/Generated/src/ETH004/01_lwIP_Stack/src/core/tcp.c ****     }
 714:../Dave/Generated/src/ETH004/01_lwIP_Stack/src/core/tcp.c **** #endif /* TCP_QUEUE_OOSEQ */
 715:../Dave/Generated/src/ETH004/01_lwIP_Stack/src/core/tcp.c **** 
 716:../Dave/Generated/src/ETH004/01_lwIP_Stack/src/core/tcp.c ****     /* Check if this PCB has stayed too long in SYN-RCVD */
 717:../Dave/Generated/src/ETH004/01_lwIP_Stack/src/core/tcp.c ****     if (pcb->state == SYN_RCVD) {
 1964              		.loc 1 717 0
 1965 0280 7B69     		ldr	r3, [r7, #20]
 1966 0282 1B7C     		ldrb	r3, [r3, #16]	@ zero_extendqisi2
 1967 0284 032B     		cmp	r3, #3
 1968 0286 0DD1     		bne	.L122
 718:../Dave/Generated/src/ETH004/01_lwIP_Stack/src/core/tcp.c ****       if ((u32_t)(tcp_ticks - pcb->tmr) >
 1969              		.loc 1 718 0
 1970 0288 40F20003 		movw	r3, #:lower16:tcp_ticks
 1971 028c C0F20003 		movt	r3, #:upper16:tcp_ticks
 1972 0290 1A68     		ldr	r2, [r3, #0]
 1973 0292 7B69     		ldr	r3, [r7, #20]
 1974 0294 1B6B     		ldr	r3, [r3, #48]
 1975 0296 D31A     		subs	r3, r2, r3
 1976 0298 282B     		cmp	r3, #40
 1977 029a 03D9     		bls	.L122
 719:../Dave/Generated/src/ETH004/01_lwIP_Stack/src/core/tcp.c ****           TCP_SYN_RCVD_TIMEOUT / TCP_SLOW_INTERVAL) {
 720:../Dave/Generated/src/ETH004/01_lwIP_Stack/src/core/tcp.c ****         ++pcb_remove;
 1978              		.loc 1 720 0
 1979 029c FB7B     		ldrb	r3, [r7, #15]
 1980 029e 03F10103 		add	r3, r3, #1
 1981 02a2 FB73     		strb	r3, [r7, #15]
 1982              	.L122:
 721:../Dave/Generated/src/ETH004/01_lwIP_Stack/src/core/tcp.c ****         LWIP_DEBUGF(TCP_DEBUG, ("tcp_slowtmr: removing pcb stuck in SYN-RCVD\n"));
 722:../Dave/Generated/src/ETH004/01_lwIP_Stack/src/core/tcp.c ****       }
 723:../Dave/Generated/src/ETH004/01_lwIP_Stack/src/core/tcp.c ****     }
 724:../Dave/Generated/src/ETH004/01_lwIP_Stack/src/core/tcp.c **** 
 725:../Dave/Generated/src/ETH004/01_lwIP_Stack/src/core/tcp.c ****     /* Check if this PCB has stayed too long in LAST-ACK */
 726:../Dave/Generated/src/ETH004/01_lwIP_Stack/src/core/tcp.c ****     if (pcb->state == LAST_ACK) {
 1983              		.loc 1 726 0
 1984 02a4 7B69     		ldr	r3, [r7, #20]
 1985 02a6 1B7C     		ldrb	r3, [r3, #16]	@ zero_extendqisi2
 1986 02a8 092B     		cmp	r3, #9
 1987 02aa 0DD1     		bne	.L123
 727:../Dave/Generated/src/ETH004/01_lwIP_Stack/src/core/tcp.c ****       if ((u32_t)(tcp_ticks - pcb->tmr) > 2 * TCP_MSL / TCP_SLOW_INTERVAL) {
 1988              		.loc 1 727 0
 1989 02ac 40F20003 		movw	r3, #:lower16:tcp_ticks
 1990 02b0 C0F20003 		movt	r3, #:upper16:tcp_ticks
 1991 02b4 1A68     		ldr	r2, [r3, #0]
 1992 02b6 7B69     		ldr	r3, [r7, #20]
 1993 02b8 1B6B     		ldr	r3, [r3, #48]
 1994 02ba D31A     		subs	r3, r2, r3
 1995 02bc F02B     		cmp	r3, #240
 1996 02be 03D9     		bls	.L123
 728:../Dave/Generated/src/ETH004/01_lwIP_Stack/src/core/tcp.c ****         ++pcb_remove;
 1997              		.loc 1 728 0
 1998 02c0 FB7B     		ldrb	r3, [r7, #15]
 1999 02c2 03F10103 		add	r3, r3, #1
 2000 02c6 FB73     		strb	r3, [r7, #15]
 2001              	.L123:
 729:../Dave/Generated/src/ETH004/01_lwIP_Stack/src/core/tcp.c ****         LWIP_DEBUGF(TCP_DEBUG, ("tcp_slowtmr: removing pcb stuck in LAST-ACK\n"));
 730:../Dave/Generated/src/ETH004/01_lwIP_Stack/src/core/tcp.c ****       }
 731:../Dave/Generated/src/ETH004/01_lwIP_Stack/src/core/tcp.c ****     }
 732:../Dave/Generated/src/ETH004/01_lwIP_Stack/src/core/tcp.c **** 
 733:../Dave/Generated/src/ETH004/01_lwIP_Stack/src/core/tcp.c ****     /* If the PCB should be removed, do it. */
 734:../Dave/Generated/src/ETH004/01_lwIP_Stack/src/core/tcp.c ****     if (pcb_remove) {
 2002              		.loc 1 734 0
 2003 02c8 FB7B     		ldrb	r3, [r7, #15]	@ zero_extendqisi2
 2004 02ca 002B     		cmp	r3, #0
 2005 02cc 3BD0     		beq	.L124
 735:../Dave/Generated/src/ETH004/01_lwIP_Stack/src/core/tcp.c ****       tcp_pcb_purge(pcb);      
 2006              		.loc 1 735 0
 2007 02ce 7869     		ldr	r0, [r7, #20]
 2008 02d0 FFF7FEFF 		bl	tcp_pcb_purge
 736:../Dave/Generated/src/ETH004/01_lwIP_Stack/src/core/tcp.c ****       /* Remove PCB from tcp_active_pcbs list. */
 737:../Dave/Generated/src/ETH004/01_lwIP_Stack/src/core/tcp.c ****       if (prev != NULL) {
 2009              		.loc 1 737 0
 2010 02d4 3B69     		ldr	r3, [r7, #16]
 2011 02d6 002B     		cmp	r3, #0
 2012 02d8 04D0     		beq	.L125
 738:../Dave/Generated/src/ETH004/01_lwIP_Stack/src/core/tcp.c ****         LWIP_ASSERT("tcp_slowtmr: middle tcp != tcp_active_pcbs", pcb != tcp_active_pcbs);
 739:../Dave/Generated/src/ETH004/01_lwIP_Stack/src/core/tcp.c ****         prev->next = pcb->next;
 2013              		.loc 1 739 0
 2014 02da 7B69     		ldr	r3, [r7, #20]
 2015 02dc DA68     		ldr	r2, [r3, #12]
 2016 02de 3B69     		ldr	r3, [r7, #16]
 2017 02e0 DA60     		str	r2, [r3, #12]
 2018 02e2 06E0     		b	.L126
 2019              	.L125:
 740:../Dave/Generated/src/ETH004/01_lwIP_Stack/src/core/tcp.c ****       } else {
 741:../Dave/Generated/src/ETH004/01_lwIP_Stack/src/core/tcp.c ****         /* This PCB was the first. */
 742:../Dave/Generated/src/ETH004/01_lwIP_Stack/src/core/tcp.c ****         LWIP_ASSERT("tcp_slowtmr: first pcb == tcp_active_pcbs", tcp_active_pcbs == pcb);
 743:../Dave/Generated/src/ETH004/01_lwIP_Stack/src/core/tcp.c ****         tcp_active_pcbs = pcb->next;
 2020              		.loc 1 743 0
 2021 02e4 7B69     		ldr	r3, [r7, #20]
 2022 02e6 DA68     		ldr	r2, [r3, #12]
 2023 02e8 40F20003 		movw	r3, #:lower16:tcp_active_pcbs
 2024 02ec C0F20003 		movt	r3, #:upper16:tcp_active_pcbs
 2025 02f0 1A60     		str	r2, [r3, #0]
 2026              	.L126:
 744:../Dave/Generated/src/ETH004/01_lwIP_Stack/src/core/tcp.c ****       }
 745:../Dave/Generated/src/ETH004/01_lwIP_Stack/src/core/tcp.c **** 
 746:../Dave/Generated/src/ETH004/01_lwIP_Stack/src/core/tcp.c ****       TCP_EVENT_ERR(pcb->errf, pcb->callback_arg, ERR_ABRT);
 2027              		.loc 1 746 0
 2028 02f2 7B69     		ldr	r3, [r7, #20]
 2029 02f4 D3F89030 		ldr	r3, [r3, #144]
 2030 02f8 002B     		cmp	r3, #0
 2031 02fa 08D0     		beq	.L127
 2032              		.loc 1 746 0 is_stmt 0 discriminator 1
 2033 02fc 7B69     		ldr	r3, [r7, #20]
 2034 02fe D3F89030 		ldr	r3, [r3, #144]
 2035 0302 7A69     		ldr	r2, [r7, #20]
 2036 0304 5269     		ldr	r2, [r2, #20]
 2037 0306 1046     		mov	r0, r2
 2038 0308 6FF00401 		mvn	r1, #4
 2039 030c 9847     		blx	r3
 2040              	.L127:
 747:../Dave/Generated/src/ETH004/01_lwIP_Stack/src/core/tcp.c ****       if (pcb_reset) {
 2041              		.loc 1 747 0 is_stmt 1
 2042 030e BB7B     		ldrb	r3, [r7, #14]	@ zero_extendqisi2
 2043 0310 002B     		cmp	r3, #0
 2044 0312 0FD0     		beq	.L128
 748:../Dave/Generated/src/ETH004/01_lwIP_Stack/src/core/tcp.c ****         tcp_rst(pcb->snd_nxt, pcb->rcv_nxt, &pcb->local_ip, &pcb->remote_ip,
 2045              		.loc 1 748 0
 2046 0314 7B69     		ldr	r3, [r7, #20]
 2047 0316 986D     		ldr	r0, [r3, #88]
 2048 0318 7B69     		ldr	r3, [r7, #20]
 2049 031a 596A     		ldr	r1, [r3, #36]
 2050 031c 7A69     		ldr	r2, [r7, #20]
 2051 031e 7B69     		ldr	r3, [r7, #20]
 2052 0320 03F10403 		add	r3, r3, #4
 749:../Dave/Generated/src/ETH004/01_lwIP_Stack/src/core/tcp.c ****           pcb->local_port, pcb->remote_port);
 2053              		.loc 1 749 0
 2054 0324 7C69     		ldr	r4, [r7, #20]
 748:../Dave/Generated/src/ETH004/01_lwIP_Stack/src/core/tcp.c ****         tcp_rst(pcb->snd_nxt, pcb->rcv_nxt, &pcb->local_ip, &pcb->remote_ip,
 2055              		.loc 1 748 0
 2056 0326 258B     		ldrh	r5, [r4, #24]
 2057              		.loc 1 749 0
 2058 0328 7C69     		ldr	r4, [r7, #20]
 748:../Dave/Generated/src/ETH004/01_lwIP_Stack/src/core/tcp.c ****         tcp_rst(pcb->snd_nxt, pcb->rcv_nxt, &pcb->local_ip, &pcb->remote_ip,
 2059              		.loc 1 748 0
 2060 032a 248C     		ldrh	r4, [r4, #32]
 2061 032c 0095     		str	r5, [sp, #0]
 2062 032e 0194     		str	r4, [sp, #4]
 2063 0330 FFF7FEFF 		bl	tcp_rst
 2064              	.L128:
 750:../Dave/Generated/src/ETH004/01_lwIP_Stack/src/core/tcp.c ****       }
 751:../Dave/Generated/src/ETH004/01_lwIP_Stack/src/core/tcp.c **** 
 752:../Dave/Generated/src/ETH004/01_lwIP_Stack/src/core/tcp.c ****       pcb2 = pcb->next;
 2065              		.loc 1 752 0
 2066 0334 7B69     		ldr	r3, [r7, #20]
 2067 0336 DB68     		ldr	r3, [r3, #12]
 2068 0338 7B60     		str	r3, [r7, #4]
 753:../Dave/Generated/src/ETH004/01_lwIP_Stack/src/core/tcp.c ****       memp_free(MEMP_TCP_PCB, pcb);
 2069              		.loc 1 753 0
 2070 033a 7869     		ldr	r0, [r7, #20]
 2071 033c FFF7FEFF 		bl	mem_free
 754:../Dave/Generated/src/ETH004/01_lwIP_Stack/src/core/tcp.c ****       pcb = pcb2;
 2072              		.loc 1 754 0
 2073 0340 7B68     		ldr	r3, [r7, #4]
 2074 0342 7B61     		str	r3, [r7, #20]
 2075 0344 34E0     		b	.L109
 2076              	.L124:
 755:../Dave/Generated/src/ETH004/01_lwIP_Stack/src/core/tcp.c ****     } else {
 756:../Dave/Generated/src/ETH004/01_lwIP_Stack/src/core/tcp.c **** 
 757:../Dave/Generated/src/ETH004/01_lwIP_Stack/src/core/tcp.c ****       /* We check if we should poll the connection. */
 758:../Dave/Generated/src/ETH004/01_lwIP_Stack/src/core/tcp.c ****       ++pcb->polltmr;
 2077              		.loc 1 758 0
 2078 0346 7B69     		ldr	r3, [r7, #20]
 2079 0348 93F83430 		ldrb	r3, [r3, #52]	@ zero_extendqisi2
 2080 034c 03F10103 		add	r3, r3, #1
 2081 0350 DAB2     		uxtb	r2, r3
 2082 0352 7B69     		ldr	r3, [r7, #20]
 2083 0354 83F83420 		strb	r2, [r3, #52]
 759:../Dave/Generated/src/ETH004/01_lwIP_Stack/src/core/tcp.c ****       if (pcb->polltmr >= pcb->pollinterval) {
 2084              		.loc 1 759 0
 2085 0358 7B69     		ldr	r3, [r7, #20]
 2086 035a 93F83420 		ldrb	r2, [r3, #52]	@ zero_extendqisi2
 2087 035e 7B69     		ldr	r3, [r7, #20]
 2088 0360 93F83530 		ldrb	r3, [r3, #53]	@ zero_extendqisi2
 2089 0364 9A42     		cmp	r2, r3
 2090 0366 1ED3     		bcc	.L129
 760:../Dave/Generated/src/ETH004/01_lwIP_Stack/src/core/tcp.c ****         pcb->polltmr = 0;
 2091              		.loc 1 760 0
 2092 0368 7B69     		ldr	r3, [r7, #20]
 2093 036a 4FF00002 		mov	r2, #0
 2094 036e 83F83420 		strb	r2, [r3, #52]
 761:../Dave/Generated/src/ETH004/01_lwIP_Stack/src/core/tcp.c ****         LWIP_DEBUGF(TCP_DEBUG, ("tcp_slowtmr: polling application\n"));
 762:../Dave/Generated/src/ETH004/01_lwIP_Stack/src/core/tcp.c ****         TCP_EVENT_POLL(pcb, err);
 2095              		.loc 1 762 0
 2096 0372 7B69     		ldr	r3, [r7, #20]
 2097 0374 D3F88C30 		ldr	r3, [r3, #140]
 2098 0378 002B     		cmp	r3, #0
 2099 037a 0AD0     		beq	.L130
 2100              		.loc 1 762 0 is_stmt 0 discriminator 1
 2101 037c 7B69     		ldr	r3, [r7, #20]
 2102 037e D3F88C30 		ldr	r3, [r3, #140]
 2103 0382 7A69     		ldr	r2, [r7, #20]
 2104 0384 5269     		ldr	r2, [r2, #20]
 2105 0386 1046     		mov	r0, r2
 2106 0388 7969     		ldr	r1, [r7, #20]
 2107 038a 9847     		blx	r3
 2108 038c 0346     		mov	r3, r0
 2109 038e 7B73     		strb	r3, [r7, #13]
 2110 0390 02E0     		b	.L131
 2111              	.L130:
 2112              		.loc 1 762 0 discriminator 2
 2113 0392 4FF00003 		mov	r3, #0
 2114 0396 7B73     		strb	r3, [r7, #13]
 2115              	.L131:
 763:../Dave/Generated/src/ETH004/01_lwIP_Stack/src/core/tcp.c ****         if (err == ERR_OK) {
 2116              		.loc 1 763 0 is_stmt 1
 2117 0398 97F90D30 		ldrsb	r3, [r7, #13]
 2118 039c 002B     		cmp	r3, #0
 2119 039e 02D1     		bne	.L129
 764:../Dave/Generated/src/ETH004/01_lwIP_Stack/src/core/tcp.c ****           tcp_output(pcb);
 2120              		.loc 1 764 0
 2121 03a0 7869     		ldr	r0, [r7, #20]
 2122 03a2 FFF7FEFF 		bl	tcp_output
 2123              	.L129:
 765:../Dave/Generated/src/ETH004/01_lwIP_Stack/src/core/tcp.c ****         }
 766:../Dave/Generated/src/ETH004/01_lwIP_Stack/src/core/tcp.c ****       }
 767:../Dave/Generated/src/ETH004/01_lwIP_Stack/src/core/tcp.c ****       
 768:../Dave/Generated/src/ETH004/01_lwIP_Stack/src/core/tcp.c ****       prev = pcb;
 2124              		.loc 1 768 0
 2125 03a6 7B69     		ldr	r3, [r7, #20]
 2126 03a8 3B61     		str	r3, [r7, #16]
 769:../Dave/Generated/src/ETH004/01_lwIP_Stack/src/core/tcp.c ****       pcb = pcb->next;
 2127              		.loc 1 769 0
 2128 03aa 7B69     		ldr	r3, [r7, #20]
 2129 03ac DB68     		ldr	r3, [r3, #12]
 2130 03ae 7B61     		str	r3, [r7, #20]
 2131              	.L109:
 595:../Dave/Generated/src/ETH004/01_lwIP_Stack/src/core/tcp.c ****   while (pcb != NULL) {
 2132              		.loc 1 595 0 discriminator 1
 2133 03b0 7B69     		ldr	r3, [r7, #20]
 2134 03b2 002B     		cmp	r3, #0
 2135 03b4 7FF440AE 		bne	.L132
 770:../Dave/Generated/src/ETH004/01_lwIP_Stack/src/core/tcp.c ****     }
 771:../Dave/Generated/src/ETH004/01_lwIP_Stack/src/core/tcp.c ****   }
 772:../Dave/Generated/src/ETH004/01_lwIP_Stack/src/core/tcp.c **** 
 773:../Dave/Generated/src/ETH004/01_lwIP_Stack/src/core/tcp.c ****   
 774:../Dave/Generated/src/ETH004/01_lwIP_Stack/src/core/tcp.c ****   /* Steps through all of the TIME-WAIT PCBs. */
 775:../Dave/Generated/src/ETH004/01_lwIP_Stack/src/core/tcp.c ****   prev = NULL;    
 2136              		.loc 1 775 0
 2137 03b8 4FF00003 		mov	r3, #0
 2138 03bc 3B61     		str	r3, [r7, #16]
 776:../Dave/Generated/src/ETH004/01_lwIP_Stack/src/core/tcp.c ****   pcb = tcp_tw_pcbs;
 2139              		.loc 1 776 0
 2140 03be 40F20003 		movw	r3, #:lower16:tcp_tw_pcbs
 2141 03c2 C0F20003 		movt	r3, #:upper16:tcp_tw_pcbs
 2142 03c6 1B68     		ldr	r3, [r3, #0]
 2143 03c8 7B61     		str	r3, [r7, #20]
 777:../Dave/Generated/src/ETH004/01_lwIP_Stack/src/core/tcp.c ****   while (pcb != NULL) {
 2144              		.loc 1 777 0
 2145 03ca 33E0     		b	.L133
 2146              	.L138:
 778:../Dave/Generated/src/ETH004/01_lwIP_Stack/src/core/tcp.c ****     LWIP_ASSERT("tcp_slowtmr: TIME-WAIT pcb->state == TIME-WAIT", pcb->state == TIME_WAIT);
 779:../Dave/Generated/src/ETH004/01_lwIP_Stack/src/core/tcp.c ****     pcb_remove = 0;
 2147              		.loc 1 779 0
 2148 03cc 4FF00003 		mov	r3, #0
 2149 03d0 FB73     		strb	r3, [r7, #15]
 780:../Dave/Generated/src/ETH004/01_lwIP_Stack/src/core/tcp.c **** 
 781:../Dave/Generated/src/ETH004/01_lwIP_Stack/src/core/tcp.c ****     /* Check if this PCB has stayed long enough in TIME-WAIT */
 782:../Dave/Generated/src/ETH004/01_lwIP_Stack/src/core/tcp.c ****     if ((u32_t)(tcp_ticks - pcb->tmr) > 2 * TCP_MSL / TCP_SLOW_INTERVAL) {
 2150              		.loc 1 782 0
 2151 03d2 40F20003 		movw	r3, #:lower16:tcp_ticks
 2152 03d6 C0F20003 		movt	r3, #:upper16:tcp_ticks
 2153 03da 1A68     		ldr	r2, [r3, #0]
 2154 03dc 7B69     		ldr	r3, [r7, #20]
 2155 03de 1B6B     		ldr	r3, [r3, #48]
 2156 03e0 D31A     		subs	r3, r2, r3
 2157 03e2 F02B     		cmp	r3, #240
 2158 03e4 03D9     		bls	.L134
 783:../Dave/Generated/src/ETH004/01_lwIP_Stack/src/core/tcp.c ****       ++pcb_remove;
 2159              		.loc 1 783 0
 2160 03e6 FB7B     		ldrb	r3, [r7, #15]
 2161 03e8 03F10103 		add	r3, r3, #1
 2162 03ec FB73     		strb	r3, [r7, #15]
 2163              	.L134:
 784:../Dave/Generated/src/ETH004/01_lwIP_Stack/src/core/tcp.c ****     }
 785:../Dave/Generated/src/ETH004/01_lwIP_Stack/src/core/tcp.c ****     
 786:../Dave/Generated/src/ETH004/01_lwIP_Stack/src/core/tcp.c **** 
 787:../Dave/Generated/src/ETH004/01_lwIP_Stack/src/core/tcp.c **** 
 788:../Dave/Generated/src/ETH004/01_lwIP_Stack/src/core/tcp.c ****     /* If the PCB should be removed, do it. */
 789:../Dave/Generated/src/ETH004/01_lwIP_Stack/src/core/tcp.c ****     if (pcb_remove) {
 2164              		.loc 1 789 0
 2165 03ee FB7B     		ldrb	r3, [r7, #15]	@ zero_extendqisi2
 2166 03f0 002B     		cmp	r3, #0
 2167 03f2 1AD0     		beq	.L135
 790:../Dave/Generated/src/ETH004/01_lwIP_Stack/src/core/tcp.c ****       tcp_pcb_purge(pcb);      
 2168              		.loc 1 790 0
 2169 03f4 7869     		ldr	r0, [r7, #20]
 2170 03f6 FFF7FEFF 		bl	tcp_pcb_purge
 791:../Dave/Generated/src/ETH004/01_lwIP_Stack/src/core/tcp.c ****       /* Remove PCB from tcp_tw_pcbs list. */
 792:../Dave/Generated/src/ETH004/01_lwIP_Stack/src/core/tcp.c ****       if (prev != NULL) {
 2171              		.loc 1 792 0
 2172 03fa 3B69     		ldr	r3, [r7, #16]
 2173 03fc 002B     		cmp	r3, #0
 2174 03fe 04D0     		beq	.L136
 793:../Dave/Generated/src/ETH004/01_lwIP_Stack/src/core/tcp.c ****         LWIP_ASSERT("tcp_slowtmr: middle tcp != tcp_tw_pcbs", pcb != tcp_tw_pcbs);
 794:../Dave/Generated/src/ETH004/01_lwIP_Stack/src/core/tcp.c ****         prev->next = pcb->next;
 2175              		.loc 1 794 0
 2176 0400 7B69     		ldr	r3, [r7, #20]
 2177 0402 DA68     		ldr	r2, [r3, #12]
 2178 0404 3B69     		ldr	r3, [r7, #16]
 2179 0406 DA60     		str	r2, [r3, #12]
 2180 0408 06E0     		b	.L137
 2181              	.L136:
 795:../Dave/Generated/src/ETH004/01_lwIP_Stack/src/core/tcp.c ****       } else {
 796:../Dave/Generated/src/ETH004/01_lwIP_Stack/src/core/tcp.c ****         /* This PCB was the first. */
 797:../Dave/Generated/src/ETH004/01_lwIP_Stack/src/core/tcp.c ****         LWIP_ASSERT("tcp_slowtmr: first pcb == tcp_tw_pcbs", tcp_tw_pcbs == pcb);
 798:../Dave/Generated/src/ETH004/01_lwIP_Stack/src/core/tcp.c ****         tcp_tw_pcbs = pcb->next;
 2182              		.loc 1 798 0
 2183 040a 7B69     		ldr	r3, [r7, #20]
 2184 040c DA68     		ldr	r2, [r3, #12]
 2185 040e 40F20003 		movw	r3, #:lower16:tcp_tw_pcbs
 2186 0412 C0F20003 		movt	r3, #:upper16:tcp_tw_pcbs
 2187 0416 1A60     		str	r2, [r3, #0]
 2188              	.L137:
 799:../Dave/Generated/src/ETH004/01_lwIP_Stack/src/core/tcp.c ****       }
 800:../Dave/Generated/src/ETH004/01_lwIP_Stack/src/core/tcp.c ****       pcb2 = pcb->next;
 2189              		.loc 1 800 0
 2190 0418 7B69     		ldr	r3, [r7, #20]
 2191 041a DB68     		ldr	r3, [r3, #12]
 2192 041c 7B60     		str	r3, [r7, #4]
 801:../Dave/Generated/src/ETH004/01_lwIP_Stack/src/core/tcp.c ****       memp_free(MEMP_TCP_PCB, pcb);
 2193              		.loc 1 801 0
 2194 041e 7869     		ldr	r0, [r7, #20]
 2195 0420 FFF7FEFF 		bl	mem_free
 802:../Dave/Generated/src/ETH004/01_lwIP_Stack/src/core/tcp.c ****       pcb = pcb2;
 2196              		.loc 1 802 0
 2197 0424 7B68     		ldr	r3, [r7, #4]
 2198 0426 7B61     		str	r3, [r7, #20]
 2199 0428 04E0     		b	.L133
 2200              	.L135:
 803:../Dave/Generated/src/ETH004/01_lwIP_Stack/src/core/tcp.c ****     } else {
 804:../Dave/Generated/src/ETH004/01_lwIP_Stack/src/core/tcp.c ****       prev = pcb;
 2201              		.loc 1 804 0
 2202 042a 7B69     		ldr	r3, [r7, #20]
 2203 042c 3B61     		str	r3, [r7, #16]
 805:../Dave/Generated/src/ETH004/01_lwIP_Stack/src/core/tcp.c ****       pcb = pcb->next;
 2204              		.loc 1 805 0
 2205 042e 7B69     		ldr	r3, [r7, #20]
 2206 0430 DB68     		ldr	r3, [r3, #12]
 2207 0432 7B61     		str	r3, [r7, #20]
 2208              	.L133:
 777:../Dave/Generated/src/ETH004/01_lwIP_Stack/src/core/tcp.c ****   while (pcb != NULL) {
 2209              		.loc 1 777 0 discriminator 1
 2210 0434 7B69     		ldr	r3, [r7, #20]
 2211 0436 002B     		cmp	r3, #0
 2212 0438 C8D1     		bne	.L138
 806:../Dave/Generated/src/ETH004/01_lwIP_Stack/src/core/tcp.c ****     }
 807:../Dave/Generated/src/ETH004/01_lwIP_Stack/src/core/tcp.c ****   }
 808:../Dave/Generated/src/ETH004/01_lwIP_Stack/src/core/tcp.c **** }
 2213              		.loc 1 808 0
 2214 043a 07F11807 		add	r7, r7, #24
 2215 043e BD46     		mov	sp, r7
 2216 0440 B0BD     		pop	{r4, r5, r7, pc}
 2217              		.cfi_endproc
 2218              	.LFE10:
 2220 0442 00BF     		.section	.text.tcp_fasttmr,"ax",%progbits
 2221              		.align	2
 2222              		.global	tcp_fasttmr
 2223              		.thumb
 2224              		.thumb_func
 2226              	tcp_fasttmr:
 2227              	.LFB11:
 809:../Dave/Generated/src/ETH004/01_lwIP_Stack/src/core/tcp.c **** 
 810:../Dave/Generated/src/ETH004/01_lwIP_Stack/src/core/tcp.c **** /**
 811:../Dave/Generated/src/ETH004/01_lwIP_Stack/src/core/tcp.c ****  * Is called every TCP_FAST_INTERVAL (250 ms) and process data previously
 812:../Dave/Generated/src/ETH004/01_lwIP_Stack/src/core/tcp.c ****  * "refused" by upper layer (application) and sends delayed ACKs.
 813:../Dave/Generated/src/ETH004/01_lwIP_Stack/src/core/tcp.c ****  *
 814:../Dave/Generated/src/ETH004/01_lwIP_Stack/src/core/tcp.c ****  * Automatically called from tcp_tmr().
 815:../Dave/Generated/src/ETH004/01_lwIP_Stack/src/core/tcp.c ****  */
 816:../Dave/Generated/src/ETH004/01_lwIP_Stack/src/core/tcp.c **** void
 817:../Dave/Generated/src/ETH004/01_lwIP_Stack/src/core/tcp.c **** tcp_fasttmr(void)
 818:../Dave/Generated/src/ETH004/01_lwIP_Stack/src/core/tcp.c **** {
 2228              		.loc 1 818 0
 2229              		.cfi_startproc
 2230              		@ args = 0, pretend = 0, frame = 8
 2231              		@ frame_needed = 1, uses_anonymous_args = 0
 2232 0000 90B5     		push	{r4, r7, lr}
 2233              	.LCFI32:
 2234              		.cfi_def_cfa_offset 12
 2235              		.cfi_offset 4, -12
 2236              		.cfi_offset 7, -8
 2237              		.cfi_offset 14, -4
 2238 0002 83B0     		sub	sp, sp, #12
 2239              	.LCFI33:
 2240              		.cfi_def_cfa_offset 24
 2241 0004 00AF     		add	r7, sp, #0
 2242              	.LCFI34:
 2243              		.cfi_def_cfa_register 7
 819:../Dave/Generated/src/ETH004/01_lwIP_Stack/src/core/tcp.c ****   struct tcp_pcb *pcb;
 820:../Dave/Generated/src/ETH004/01_lwIP_Stack/src/core/tcp.c **** 
 821:../Dave/Generated/src/ETH004/01_lwIP_Stack/src/core/tcp.c ****   for(pcb = tcp_active_pcbs; pcb != NULL; pcb = pcb->next) {
 2244              		.loc 1 821 0
 2245 0006 40F20003 		movw	r3, #:lower16:tcp_active_pcbs
 2246 000a C0F20003 		movt	r3, #:upper16:tcp_active_pcbs
 2247 000e 1B68     		ldr	r3, [r3, #0]
 2248 0010 7B60     		str	r3, [r7, #4]
 2249 0012 4BE0     		b	.L140
 2250              	.L145:
 822:../Dave/Generated/src/ETH004/01_lwIP_Stack/src/core/tcp.c ****     /* If there is data which was previously "refused" by upper layer */
 823:../Dave/Generated/src/ETH004/01_lwIP_Stack/src/core/tcp.c ****     if (pcb->refused_data != NULL) {
 2251              		.loc 1 823 0
 2252 0014 7B68     		ldr	r3, [r7, #4]
 2253 0016 DB6F     		ldr	r3, [r3, #124]
 2254 0018 002B     		cmp	r3, #0
 2255 001a 28D0     		beq	.L141
 2256              	.LBB2:
 824:../Dave/Generated/src/ETH004/01_lwIP_Stack/src/core/tcp.c ****       /* Notify again application with data previously received. */
 825:../Dave/Generated/src/ETH004/01_lwIP_Stack/src/core/tcp.c ****       err_t err;
 826:../Dave/Generated/src/ETH004/01_lwIP_Stack/src/core/tcp.c ****       LWIP_DEBUGF(TCP_INPUT_DEBUG, ("tcp_fasttmr: notify kept packet\n"));
 827:../Dave/Generated/src/ETH004/01_lwIP_Stack/src/core/tcp.c ****       TCP_EVENT_RECV(pcb, pcb->refused_data, ERR_OK, err);
 2257              		.loc 1 827 0
 2258 001c 7B68     		ldr	r3, [r7, #4]
 2259 001e D3F88430 		ldr	r3, [r3, #132]
 2260 0022 002B     		cmp	r3, #0
 2261 0024 0FD0     		beq	.L142
 2262              		.loc 1 827 0 is_stmt 0 discriminator 1
 2263 0026 7B68     		ldr	r3, [r7, #4]
 2264 0028 D3F88440 		ldr	r4, [r3, #132]
 2265 002c 7B68     		ldr	r3, [r7, #4]
 2266 002e 5A69     		ldr	r2, [r3, #20]
 2267 0030 7B68     		ldr	r3, [r7, #4]
 2268 0032 DB6F     		ldr	r3, [r3, #124]
 2269 0034 1046     		mov	r0, r2
 2270 0036 7968     		ldr	r1, [r7, #4]
 2271 0038 1A46     		mov	r2, r3
 2272 003a 4FF00003 		mov	r3, #0
 2273 003e A047     		blx	r4
 2274 0040 0346     		mov	r3, r0
 2275 0042 FB70     		strb	r3, [r7, #3]
 2276 0044 0BE0     		b	.L143
 2277              	.L142:
 2278              		.loc 1 827 0 discriminator 2
 2279 0046 7B68     		ldr	r3, [r7, #4]
 2280 0048 DB6F     		ldr	r3, [r3, #124]
 2281 004a 4FF00000 		mov	r0, #0
 2282 004e 7968     		ldr	r1, [r7, #4]
 2283 0050 1A46     		mov	r2, r3
 2284 0052 4FF00003 		mov	r3, #0
 2285 0056 FFF7FEFF 		bl	tcp_recv_null
 2286 005a 0346     		mov	r3, r0
 2287 005c FB70     		strb	r3, [r7, #3]
 2288              	.L143:
 828:../Dave/Generated/src/ETH004/01_lwIP_Stack/src/core/tcp.c ****       if (err == ERR_OK) {
 2289              		.loc 1 828 0 is_stmt 1
 2290 005e 97F90330 		ldrsb	r3, [r7, #3]
 2291 0062 002B     		cmp	r3, #0
 2292 0064 03D1     		bne	.L141
 829:../Dave/Generated/src/ETH004/01_lwIP_Stack/src/core/tcp.c ****         pcb->refused_data = NULL;
 2293              		.loc 1 829 0
 2294 0066 7B68     		ldr	r3, [r7, #4]
 2295 0068 4FF00002 		mov	r2, #0
 2296 006c DA67     		str	r2, [r3, #124]
 2297              	.L141:
 2298              	.LBE2:
 830:../Dave/Generated/src/ETH004/01_lwIP_Stack/src/core/tcp.c ****       }
 831:../Dave/Generated/src/ETH004/01_lwIP_Stack/src/core/tcp.c ****     }
 832:../Dave/Generated/src/ETH004/01_lwIP_Stack/src/core/tcp.c **** 
 833:../Dave/Generated/src/ETH004/01_lwIP_Stack/src/core/tcp.c ****     /* send delayed ACKs */  
 834:../Dave/Generated/src/ETH004/01_lwIP_Stack/src/core/tcp.c ****     if (pcb->flags & TF_ACK_DELAY) {
 2299              		.loc 1 834 0
 2300 006e 7B68     		ldr	r3, [r7, #4]
 2301 0070 93F82230 		ldrb	r3, [r3, #34]	@ zero_extendqisi2
 2302 0074 03F00103 		and	r3, r3, #1
 2303 0078 002B     		cmp	r3, #0
 2304 007a 14D0     		beq	.L144
 835:../Dave/Generated/src/ETH004/01_lwIP_Stack/src/core/tcp.c ****       LWIP_DEBUGF(TCP_DEBUG, ("tcp_fasttmr: delayed ACK\n"));
 836:../Dave/Generated/src/ETH004/01_lwIP_Stack/src/core/tcp.c ****       tcp_ack_now(pcb);
 2305              		.loc 1 836 0
 2306 007c 7B68     		ldr	r3, [r7, #4]
 2307 007e 93F82230 		ldrb	r3, [r3, #34]	@ zero_extendqisi2
 2308 0082 43F00203 		orr	r3, r3, #2
 2309 0086 DAB2     		uxtb	r2, r3
 2310 0088 7B68     		ldr	r3, [r7, #4]
 2311 008a 83F82220 		strb	r2, [r3, #34]
 2312 008e 7868     		ldr	r0, [r7, #4]
 2313 0090 FFF7FEFF 		bl	tcp_output
 837:../Dave/Generated/src/ETH004/01_lwIP_Stack/src/core/tcp.c ****       pcb->flags &= ~(TF_ACK_DELAY | TF_ACK_NOW);
 2314              		.loc 1 837 0
 2315 0094 7B68     		ldr	r3, [r7, #4]
 2316 0096 93F82230 		ldrb	r3, [r3, #34]	@ zero_extendqisi2
 2317 009a 23F00303 		bic	r3, r3, #3
 2318 009e DAB2     		uxtb	r2, r3
 2319 00a0 7B68     		ldr	r3, [r7, #4]
 2320 00a2 83F82220 		strb	r2, [r3, #34]
 2321              	.L144:
 821:../Dave/Generated/src/ETH004/01_lwIP_Stack/src/core/tcp.c ****   for(pcb = tcp_active_pcbs; pcb != NULL; pcb = pcb->next) {
 2322              		.loc 1 821 0
 2323 00a6 7B68     		ldr	r3, [r7, #4]
 2324 00a8 DB68     		ldr	r3, [r3, #12]
 2325 00aa 7B60     		str	r3, [r7, #4]
 2326              	.L140:
 821:../Dave/Generated/src/ETH004/01_lwIP_Stack/src/core/tcp.c ****   for(pcb = tcp_active_pcbs; pcb != NULL; pcb = pcb->next) {
 2327              		.loc 1 821 0 is_stmt 0 discriminator 1
 2328 00ac 7B68     		ldr	r3, [r7, #4]
 2329 00ae 002B     		cmp	r3, #0
 2330 00b0 B0D1     		bne	.L145
 838:../Dave/Generated/src/ETH004/01_lwIP_Stack/src/core/tcp.c ****     }
 839:../Dave/Generated/src/ETH004/01_lwIP_Stack/src/core/tcp.c ****   }
 840:../Dave/Generated/src/ETH004/01_lwIP_Stack/src/core/tcp.c **** }
 2331              		.loc 1 840 0 is_stmt 1
 2332 00b2 07F10C07 		add	r7, r7, #12
 2333 00b6 BD46     		mov	sp, r7
 2334 00b8 90BD     		pop	{r4, r7, pc}
 2335              		.cfi_endproc
 2336              	.LFE11:
 2338 00ba 00BF     		.section	.text.tcp_segs_free,"ax",%progbits
 2339              		.align	2
 2340              		.global	tcp_segs_free
 2341              		.thumb
 2342              		.thumb_func
 2344              	tcp_segs_free:
 2345              	.LFB12:
 841:../Dave/Generated/src/ETH004/01_lwIP_Stack/src/core/tcp.c **** 
 842:../Dave/Generated/src/ETH004/01_lwIP_Stack/src/core/tcp.c **** /**
 843:../Dave/Generated/src/ETH004/01_lwIP_Stack/src/core/tcp.c ****  * Deallocates a list of TCP segments (tcp_seg structures).
 844:../Dave/Generated/src/ETH004/01_lwIP_Stack/src/core/tcp.c ****  *
 845:../Dave/Generated/src/ETH004/01_lwIP_Stack/src/core/tcp.c ****  * @param seg tcp_seg list of TCP segments to free
 846:../Dave/Generated/src/ETH004/01_lwIP_Stack/src/core/tcp.c ****  * @return the number of pbufs that were deallocated
 847:../Dave/Generated/src/ETH004/01_lwIP_Stack/src/core/tcp.c ****  */
 848:../Dave/Generated/src/ETH004/01_lwIP_Stack/src/core/tcp.c **** u8_t
 849:../Dave/Generated/src/ETH004/01_lwIP_Stack/src/core/tcp.c **** tcp_segs_free(struct tcp_seg *seg)
 850:../Dave/Generated/src/ETH004/01_lwIP_Stack/src/core/tcp.c **** {
 2346              		.loc 1 850 0
 2347              		.cfi_startproc
 2348              		@ args = 0, pretend = 0, frame = 16
 2349              		@ frame_needed = 1, uses_anonymous_args = 0
 2350 0000 80B5     		push	{r7, lr}
 2351              	.LCFI35:
 2352              		.cfi_def_cfa_offset 8
 2353              		.cfi_offset 7, -8
 2354              		.cfi_offset 14, -4
 2355 0002 84B0     		sub	sp, sp, #16
 2356              	.LCFI36:
 2357              		.cfi_def_cfa_offset 24
 2358 0004 00AF     		add	r7, sp, #0
 2359              	.LCFI37:
 2360              		.cfi_def_cfa_register 7
 2361 0006 7860     		str	r0, [r7, #4]
 851:../Dave/Generated/src/ETH004/01_lwIP_Stack/src/core/tcp.c ****   u8_t count = 0;
 2362              		.loc 1 851 0
 2363 0008 4FF00003 		mov	r3, #0
 2364 000c FB73     		strb	r3, [r7, #15]
 852:../Dave/Generated/src/ETH004/01_lwIP_Stack/src/core/tcp.c ****   struct tcp_seg *next;
 853:../Dave/Generated/src/ETH004/01_lwIP_Stack/src/core/tcp.c ****   while (seg != NULL) {
 2365              		.loc 1 853 0
 2366 000e 0CE0     		b	.L147
 2367              	.L148:
 854:../Dave/Generated/src/ETH004/01_lwIP_Stack/src/core/tcp.c ****     next = seg->next;
 2368              		.loc 1 854 0
 2369 0010 7B68     		ldr	r3, [r7, #4]
 2370 0012 1B68     		ldr	r3, [r3, #0]
 2371 0014 BB60     		str	r3, [r7, #8]
 855:../Dave/Generated/src/ETH004/01_lwIP_Stack/src/core/tcp.c ****     count += tcp_seg_free(seg);
 2372              		.loc 1 855 0
 2373 0016 7868     		ldr	r0, [r7, #4]
 2374 0018 FFF7FEFF 		bl	tcp_seg_free
 2375 001c 0346     		mov	r3, r0
 2376 001e 1A46     		mov	r2, r3
 2377 0020 FB7B     		ldrb	r3, [r7, #15]
 2378 0022 D318     		adds	r3, r2, r3
 2379 0024 FB73     		strb	r3, [r7, #15]
 856:../Dave/Generated/src/ETH004/01_lwIP_Stack/src/core/tcp.c ****     seg = next;
 2380              		.loc 1 856 0
 2381 0026 BB68     		ldr	r3, [r7, #8]
 2382 0028 7B60     		str	r3, [r7, #4]
 2383              	.L147:
 853:../Dave/Generated/src/ETH004/01_lwIP_Stack/src/core/tcp.c ****   while (seg != NULL) {
 2384              		.loc 1 853 0 discriminator 1
 2385 002a 7B68     		ldr	r3, [r7, #4]
 2386 002c 002B     		cmp	r3, #0
 2387 002e EFD1     		bne	.L148
 857:../Dave/Generated/src/ETH004/01_lwIP_Stack/src/core/tcp.c ****   }
 858:../Dave/Generated/src/ETH004/01_lwIP_Stack/src/core/tcp.c ****   return count;
 2388              		.loc 1 858 0
 2389 0030 FB7B     		ldrb	r3, [r7, #15]	@ zero_extendqisi2
 859:../Dave/Generated/src/ETH004/01_lwIP_Stack/src/core/tcp.c **** }
 2390              		.loc 1 859 0
 2391 0032 1846     		mov	r0, r3
 2392 0034 07F11007 		add	r7, r7, #16
 2393 0038 BD46     		mov	sp, r7
 2394 003a 80BD     		pop	{r7, pc}
 2395              		.cfi_endproc
 2396              	.LFE12:
 2398              		.section	.text.tcp_seg_free,"ax",%progbits
 2399              		.align	2
 2400              		.global	tcp_seg_free
 2401              		.thumb
 2402              		.thumb_func
 2404              	tcp_seg_free:
 2405              	.LFB13:
 860:../Dave/Generated/src/ETH004/01_lwIP_Stack/src/core/tcp.c **** 
 861:../Dave/Generated/src/ETH004/01_lwIP_Stack/src/core/tcp.c **** /**
 862:../Dave/Generated/src/ETH004/01_lwIP_Stack/src/core/tcp.c ****  * Frees a TCP segment (tcp_seg structure).
 863:../Dave/Generated/src/ETH004/01_lwIP_Stack/src/core/tcp.c ****  *
 864:../Dave/Generated/src/ETH004/01_lwIP_Stack/src/core/tcp.c ****  * @param seg single tcp_seg to free
 865:../Dave/Generated/src/ETH004/01_lwIP_Stack/src/core/tcp.c ****  * @return the number of pbufs that were deallocated
 866:../Dave/Generated/src/ETH004/01_lwIP_Stack/src/core/tcp.c ****  */
 867:../Dave/Generated/src/ETH004/01_lwIP_Stack/src/core/tcp.c **** u8_t
 868:../Dave/Generated/src/ETH004/01_lwIP_Stack/src/core/tcp.c **** tcp_seg_free(struct tcp_seg *seg)
 869:../Dave/Generated/src/ETH004/01_lwIP_Stack/src/core/tcp.c **** {
 2406              		.loc 1 869 0
 2407              		.cfi_startproc
 2408              		@ args = 0, pretend = 0, frame = 16
 2409              		@ frame_needed = 1, uses_anonymous_args = 0
 2410 0000 80B5     		push	{r7, lr}
 2411              	.LCFI38:
 2412              		.cfi_def_cfa_offset 8
 2413              		.cfi_offset 7, -8
 2414              		.cfi_offset 14, -4
 2415 0002 84B0     		sub	sp, sp, #16
 2416              	.LCFI39:
 2417              		.cfi_def_cfa_offset 24
 2418 0004 00AF     		add	r7, sp, #0
 2419              	.LCFI40:
 2420              		.cfi_def_cfa_register 7
 2421 0006 7860     		str	r0, [r7, #4]
 870:../Dave/Generated/src/ETH004/01_lwIP_Stack/src/core/tcp.c ****   u8_t count = 0;
 2422              		.loc 1 870 0
 2423 0008 4FF00003 		mov	r3, #0
 2424 000c FB73     		strb	r3, [r7, #15]
 871:../Dave/Generated/src/ETH004/01_lwIP_Stack/src/core/tcp.c ****   
 872:../Dave/Generated/src/ETH004/01_lwIP_Stack/src/core/tcp.c ****   if (seg != NULL) {
 2425              		.loc 1 872 0
 2426 000e 7B68     		ldr	r3, [r7, #4]
 2427 0010 002B     		cmp	r3, #0
 2428 0012 0DD0     		beq	.L151
 873:../Dave/Generated/src/ETH004/01_lwIP_Stack/src/core/tcp.c ****     if (seg->p != NULL) {
 2429              		.loc 1 873 0
 2430 0014 7B68     		ldr	r3, [r7, #4]
 2431 0016 5B68     		ldr	r3, [r3, #4]
 2432 0018 002B     		cmp	r3, #0
 2433 001a 06D0     		beq	.L152
 874:../Dave/Generated/src/ETH004/01_lwIP_Stack/src/core/tcp.c ****       count = pbuf_free(seg->p);
 2434              		.loc 1 874 0
 2435 001c 7B68     		ldr	r3, [r7, #4]
 2436 001e 5B68     		ldr	r3, [r3, #4]
 2437 0020 1846     		mov	r0, r3
 2438 0022 FFF7FEFF 		bl	pbuf_free
 2439 0026 0346     		mov	r3, r0
 2440 0028 FB73     		strb	r3, [r7, #15]
 2441              	.L152:
 875:../Dave/Generated/src/ETH004/01_lwIP_Stack/src/core/tcp.c **** #if TCP_DEBUG
 876:../Dave/Generated/src/ETH004/01_lwIP_Stack/src/core/tcp.c ****       seg->p = NULL;
 877:../Dave/Generated/src/ETH004/01_lwIP_Stack/src/core/tcp.c **** #endif /* TCP_DEBUG */
 878:../Dave/Generated/src/ETH004/01_lwIP_Stack/src/core/tcp.c ****     }
 879:../Dave/Generated/src/ETH004/01_lwIP_Stack/src/core/tcp.c ****     memp_free(MEMP_TCP_SEG, seg);
 2442              		.loc 1 879 0
 2443 002a 7868     		ldr	r0, [r7, #4]
 2444 002c FFF7FEFF 		bl	mem_free
 2445              	.L151:
 880:../Dave/Generated/src/ETH004/01_lwIP_Stack/src/core/tcp.c ****   }
 881:../Dave/Generated/src/ETH004/01_lwIP_Stack/src/core/tcp.c ****   return count;
 2446              		.loc 1 881 0
 2447 0030 FB7B     		ldrb	r3, [r7, #15]	@ zero_extendqisi2
 882:../Dave/Generated/src/ETH004/01_lwIP_Stack/src/core/tcp.c **** }
 2448              		.loc 1 882 0
 2449 0032 1846     		mov	r0, r3
 2450 0034 07F11007 		add	r7, r7, #16
 2451 0038 BD46     		mov	sp, r7
 2452 003a 80BD     		pop	{r7, pc}
 2453              		.cfi_endproc
 2454              	.LFE13:
 2456              		.section	.text.tcp_setprio,"ax",%progbits
 2457              		.align	2
 2458              		.global	tcp_setprio
 2459              		.thumb
 2460              		.thumb_func
 2462              	tcp_setprio:
 2463              	.LFB14:
 883:../Dave/Generated/src/ETH004/01_lwIP_Stack/src/core/tcp.c **** 
 884:../Dave/Generated/src/ETH004/01_lwIP_Stack/src/core/tcp.c **** /**
 885:../Dave/Generated/src/ETH004/01_lwIP_Stack/src/core/tcp.c ****  * Sets the priority of a connection.
 886:../Dave/Generated/src/ETH004/01_lwIP_Stack/src/core/tcp.c ****  *
 887:../Dave/Generated/src/ETH004/01_lwIP_Stack/src/core/tcp.c ****  * @param pcb the tcp_pcb to manipulate
 888:../Dave/Generated/src/ETH004/01_lwIP_Stack/src/core/tcp.c ****  * @param prio new priority
 889:../Dave/Generated/src/ETH004/01_lwIP_Stack/src/core/tcp.c ****  */
 890:../Dave/Generated/src/ETH004/01_lwIP_Stack/src/core/tcp.c **** void
 891:../Dave/Generated/src/ETH004/01_lwIP_Stack/src/core/tcp.c **** tcp_setprio(struct tcp_pcb *pcb, u8_t prio)
 892:../Dave/Generated/src/ETH004/01_lwIP_Stack/src/core/tcp.c **** {
 2464              		.loc 1 892 0
 2465              		.cfi_startproc
 2466              		@ args = 0, pretend = 0, frame = 8
 2467              		@ frame_needed = 1, uses_anonymous_args = 0
 2468              		@ link register save eliminated.
 2469 0000 80B4     		push	{r7}
 2470              	.LCFI41:
 2471              		.cfi_def_cfa_offset 4
 2472              		.cfi_offset 7, -4
 2473 0002 83B0     		sub	sp, sp, #12
 2474              	.LCFI42:
 2475              		.cfi_def_cfa_offset 16
 2476 0004 00AF     		add	r7, sp, #0
 2477              	.LCFI43:
 2478              		.cfi_def_cfa_register 7
 2479 0006 7860     		str	r0, [r7, #4]
 2480 0008 0B46     		mov	r3, r1
 2481 000a FB70     		strb	r3, [r7, #3]
 893:../Dave/Generated/src/ETH004/01_lwIP_Stack/src/core/tcp.c ****   pcb->prio = prio;
 2482              		.loc 1 893 0
 2483 000c 7B68     		ldr	r3, [r7, #4]
 2484 000e FA78     		ldrb	r2, [r7, #3]
 2485 0010 5A74     		strb	r2, [r3, #17]
 894:../Dave/Generated/src/ETH004/01_lwIP_Stack/src/core/tcp.c **** }
 2486              		.loc 1 894 0
 2487 0012 07F10C07 		add	r7, r7, #12
 2488 0016 BD46     		mov	sp, r7
 2489 0018 80BC     		pop	{r7}
 2490 001a 7047     		bx	lr
 2491              		.cfi_endproc
 2492              	.LFE14:
 2494              		.section	.text.tcp_recv_null,"ax",%progbits
 2495              		.align	2
 2496              		.global	tcp_recv_null
 2497              		.thumb
 2498              		.thumb_func
 2500              	tcp_recv_null:
 2501              	.LFB15:
 895:../Dave/Generated/src/ETH004/01_lwIP_Stack/src/core/tcp.c **** #if TCP_QUEUE_OOSEQ
 896:../Dave/Generated/src/ETH004/01_lwIP_Stack/src/core/tcp.c **** 
 897:../Dave/Generated/src/ETH004/01_lwIP_Stack/src/core/tcp.c **** /**
 898:../Dave/Generated/src/ETH004/01_lwIP_Stack/src/core/tcp.c ****  * Returns a copy of the given TCP segment.
 899:../Dave/Generated/src/ETH004/01_lwIP_Stack/src/core/tcp.c ****  * The pbuf and data are not copied, only the pointers
 900:../Dave/Generated/src/ETH004/01_lwIP_Stack/src/core/tcp.c ****  *
 901:../Dave/Generated/src/ETH004/01_lwIP_Stack/src/core/tcp.c ****  * @param seg the old tcp_seg
 902:../Dave/Generated/src/ETH004/01_lwIP_Stack/src/core/tcp.c ****  * @return a copy of seg
 903:../Dave/Generated/src/ETH004/01_lwIP_Stack/src/core/tcp.c ****  */ 
 904:../Dave/Generated/src/ETH004/01_lwIP_Stack/src/core/tcp.c **** struct tcp_seg *
 905:../Dave/Generated/src/ETH004/01_lwIP_Stack/src/core/tcp.c **** tcp_seg_copy(struct tcp_seg *seg)
 906:../Dave/Generated/src/ETH004/01_lwIP_Stack/src/core/tcp.c **** {
 907:../Dave/Generated/src/ETH004/01_lwIP_Stack/src/core/tcp.c ****   struct tcp_seg *cseg;
 908:../Dave/Generated/src/ETH004/01_lwIP_Stack/src/core/tcp.c **** 
 909:../Dave/Generated/src/ETH004/01_lwIP_Stack/src/core/tcp.c ****   cseg = memp_malloc(MEMP_TCP_SEG);
 910:../Dave/Generated/src/ETH004/01_lwIP_Stack/src/core/tcp.c ****   if (cseg == NULL) {
 911:../Dave/Generated/src/ETH004/01_lwIP_Stack/src/core/tcp.c ****     return NULL;
 912:../Dave/Generated/src/ETH004/01_lwIP_Stack/src/core/tcp.c ****   }
 913:../Dave/Generated/src/ETH004/01_lwIP_Stack/src/core/tcp.c ****   SMEMCPY((u8_t *)cseg, (const u8_t *)seg, sizeof(struct tcp_seg)); 
 914:../Dave/Generated/src/ETH004/01_lwIP_Stack/src/core/tcp.c ****   pbuf_ref(cseg->p);
 915:../Dave/Generated/src/ETH004/01_lwIP_Stack/src/core/tcp.c ****   return cseg;
 916:../Dave/Generated/src/ETH004/01_lwIP_Stack/src/core/tcp.c **** }
 917:../Dave/Generated/src/ETH004/01_lwIP_Stack/src/core/tcp.c **** #endif
 918:../Dave/Generated/src/ETH004/01_lwIP_Stack/src/core/tcp.c **** 
 919:../Dave/Generated/src/ETH004/01_lwIP_Stack/src/core/tcp.c **** #if LWIP_CALLBACK_API
 920:../Dave/Generated/src/ETH004/01_lwIP_Stack/src/core/tcp.c **** /**
 921:../Dave/Generated/src/ETH004/01_lwIP_Stack/src/core/tcp.c ****  * Default receive callback that is called if the user didn't register
 922:../Dave/Generated/src/ETH004/01_lwIP_Stack/src/core/tcp.c ****  * a recv callback for the pcb.
 923:../Dave/Generated/src/ETH004/01_lwIP_Stack/src/core/tcp.c ****  */
 924:../Dave/Generated/src/ETH004/01_lwIP_Stack/src/core/tcp.c **** err_t
 925:../Dave/Generated/src/ETH004/01_lwIP_Stack/src/core/tcp.c **** tcp_recv_null(void *arg, struct tcp_pcb *pcb, struct pbuf *p, err_t err)
 926:../Dave/Generated/src/ETH004/01_lwIP_Stack/src/core/tcp.c **** {
 2502              		.loc 1 926 0
 2503              		.cfi_startproc
 2504              		@ args = 0, pretend = 0, frame = 16
 2505              		@ frame_needed = 1, uses_anonymous_args = 0
 2506 0000 80B5     		push	{r7, lr}
 2507              	.LCFI44:
 2508              		.cfi_def_cfa_offset 8
 2509              		.cfi_offset 7, -8
 2510              		.cfi_offset 14, -4
 2511 0002 84B0     		sub	sp, sp, #16
 2512              	.LCFI45:
 2513              		.cfi_def_cfa_offset 24
 2514 0004 00AF     		add	r7, sp, #0
 2515              	.LCFI46:
 2516              		.cfi_def_cfa_register 7
 2517 0006 F860     		str	r0, [r7, #12]
 2518 0008 B960     		str	r1, [r7, #8]
 2519 000a 7A60     		str	r2, [r7, #4]
 2520 000c FB70     		strb	r3, [r7, #3]
 927:../Dave/Generated/src/ETH004/01_lwIP_Stack/src/core/tcp.c ****   LWIP_UNUSED_ARG(arg);
 928:../Dave/Generated/src/ETH004/01_lwIP_Stack/src/core/tcp.c ****   if (p != NULL) {
 2521              		.loc 1 928 0
 2522 000e 7B68     		ldr	r3, [r7, #4]
 2523 0010 002B     		cmp	r3, #0
 2524 0012 09D0     		beq	.L156
 929:../Dave/Generated/src/ETH004/01_lwIP_Stack/src/core/tcp.c ****     tcp_recved(pcb, p->tot_len);
 2525              		.loc 1 929 0
 2526 0014 7B68     		ldr	r3, [r7, #4]
 2527 0016 1B89     		ldrh	r3, [r3, #8]
 2528 0018 B868     		ldr	r0, [r7, #8]
 2529 001a 1946     		mov	r1, r3
 2530 001c FFF7FEFF 		bl	tcp_recved
 930:../Dave/Generated/src/ETH004/01_lwIP_Stack/src/core/tcp.c ****     pbuf_free(p);
 2531              		.loc 1 930 0
 2532 0020 7868     		ldr	r0, [r7, #4]
 2533 0022 FFF7FEFF 		bl	pbuf_free
 2534 0026 08E0     		b	.L157
 2535              	.L156:
 931:../Dave/Generated/src/ETH004/01_lwIP_Stack/src/core/tcp.c ****   } else if (err == ERR_OK) {
 2536              		.loc 1 931 0
 2537 0028 97F90330 		ldrsb	r3, [r7, #3]
 2538 002c 002B     		cmp	r3, #0
 2539 002e 04D1     		bne	.L157
 932:../Dave/Generated/src/ETH004/01_lwIP_Stack/src/core/tcp.c ****     return tcp_close(pcb);
 2540              		.loc 1 932 0
 2541 0030 B868     		ldr	r0, [r7, #8]
 2542 0032 FFF7FEFF 		bl	tcp_close
 2543 0036 0346     		mov	r3, r0
 2544 0038 01E0     		b	.L158
 2545              	.L157:
 933:../Dave/Generated/src/ETH004/01_lwIP_Stack/src/core/tcp.c ****   }
 934:../Dave/Generated/src/ETH004/01_lwIP_Stack/src/core/tcp.c ****   return ERR_OK;
 2546              		.loc 1 934 0
 2547 003a 4FF00003 		mov	r3, #0
 2548              	.L158:
 2549 003e 5BB2     		sxtb	r3, r3
 935:../Dave/Generated/src/ETH004/01_lwIP_Stack/src/core/tcp.c **** }
 2550              		.loc 1 935 0
 2551 0040 1846     		mov	r0, r3
 2552 0042 07F11007 		add	r7, r7, #16
 2553 0046 BD46     		mov	sp, r7
 2554 0048 80BD     		pop	{r7, pc}
 2555              		.cfi_endproc
 2556              	.LFE15:
 2558 004a 00BF     		.section	.text.tcp_kill_prio,"ax",%progbits
 2559              		.align	2
 2560              		.thumb
 2561              		.thumb_func
 2563              	tcp_kill_prio:
 2564              	.LFB16:
 936:../Dave/Generated/src/ETH004/01_lwIP_Stack/src/core/tcp.c **** #endif /* LWIP_CALLBACK_API */
 937:../Dave/Generated/src/ETH004/01_lwIP_Stack/src/core/tcp.c **** 
 938:../Dave/Generated/src/ETH004/01_lwIP_Stack/src/core/tcp.c **** /**
 939:../Dave/Generated/src/ETH004/01_lwIP_Stack/src/core/tcp.c ****  * Kills the oldest active connection that has lower priority than prio.
 940:../Dave/Generated/src/ETH004/01_lwIP_Stack/src/core/tcp.c ****  *
 941:../Dave/Generated/src/ETH004/01_lwIP_Stack/src/core/tcp.c ****  * @param prio minimum priority
 942:../Dave/Generated/src/ETH004/01_lwIP_Stack/src/core/tcp.c ****  */
 943:../Dave/Generated/src/ETH004/01_lwIP_Stack/src/core/tcp.c **** static void
 944:../Dave/Generated/src/ETH004/01_lwIP_Stack/src/core/tcp.c **** tcp_kill_prio(u8_t prio)
 945:../Dave/Generated/src/ETH004/01_lwIP_Stack/src/core/tcp.c **** {
 2565              		.loc 1 945 0
 2566              		.cfi_startproc
 2567              		@ args = 0, pretend = 0, frame = 24
 2568              		@ frame_needed = 1, uses_anonymous_args = 0
 2569 0000 80B5     		push	{r7, lr}
 2570              	.LCFI47:
 2571              		.cfi_def_cfa_offset 8
 2572              		.cfi_offset 7, -8
 2573              		.cfi_offset 14, -4
 2574 0002 86B0     		sub	sp, sp, #24
 2575              	.LCFI48:
 2576              		.cfi_def_cfa_offset 32
 2577 0004 00AF     		add	r7, sp, #0
 2578              	.LCFI49:
 2579              		.cfi_def_cfa_register 7
 2580 0006 0346     		mov	r3, r0
 2581 0008 FB71     		strb	r3, [r7, #7]
 946:../Dave/Generated/src/ETH004/01_lwIP_Stack/src/core/tcp.c ****   struct tcp_pcb *pcb, *inactive;
 947:../Dave/Generated/src/ETH004/01_lwIP_Stack/src/core/tcp.c ****   u32_t inactivity;
 948:../Dave/Generated/src/ETH004/01_lwIP_Stack/src/core/tcp.c ****   u8_t mprio;
 949:../Dave/Generated/src/ETH004/01_lwIP_Stack/src/core/tcp.c **** 
 950:../Dave/Generated/src/ETH004/01_lwIP_Stack/src/core/tcp.c **** 
 951:../Dave/Generated/src/ETH004/01_lwIP_Stack/src/core/tcp.c ****   mprio = TCP_PRIO_MAX;
 2582              		.loc 1 951 0
 2583 000a 4FF07F03 		mov	r3, #127
 2584 000e FB72     		strb	r3, [r7, #11]
 952:../Dave/Generated/src/ETH004/01_lwIP_Stack/src/core/tcp.c ****   
 953:../Dave/Generated/src/ETH004/01_lwIP_Stack/src/core/tcp.c ****   /* We kill the oldest active connection that has lower priority than prio. */
 954:../Dave/Generated/src/ETH004/01_lwIP_Stack/src/core/tcp.c ****   inactivity = 0;
 2585              		.loc 1 954 0
 2586 0010 4FF00003 		mov	r3, #0
 2587 0014 FB60     		str	r3, [r7, #12]
 955:../Dave/Generated/src/ETH004/01_lwIP_Stack/src/core/tcp.c ****   inactive = NULL;
 2588              		.loc 1 955 0
 2589 0016 4FF00003 		mov	r3, #0
 2590 001a 3B61     		str	r3, [r7, #16]
 956:../Dave/Generated/src/ETH004/01_lwIP_Stack/src/core/tcp.c ****   for(pcb = tcp_active_pcbs; pcb != NULL; pcb = pcb->next) {
 2591              		.loc 1 956 0
 2592 001c 40F20003 		movw	r3, #:lower16:tcp_active_pcbs
 2593 0020 C0F20003 		movt	r3, #:upper16:tcp_active_pcbs
 2594 0024 1B68     		ldr	r3, [r3, #0]
 2595 0026 7B61     		str	r3, [r7, #20]
 2596 0028 25E0     		b	.L160
 2597              	.L162:
 957:../Dave/Generated/src/ETH004/01_lwIP_Stack/src/core/tcp.c ****     if (pcb->prio <= prio &&
 2598              		.loc 1 957 0
 2599 002a 7B69     		ldr	r3, [r7, #20]
 2600 002c 5B7C     		ldrb	r3, [r3, #17]	@ zero_extendqisi2
 2601 002e FA79     		ldrb	r2, [r7, #7]	@ zero_extendqisi2
 2602 0030 9A42     		cmp	r2, r3
 2603 0032 1DD3     		bcc	.L161
 958:../Dave/Generated/src/ETH004/01_lwIP_Stack/src/core/tcp.c ****        pcb->prio <= mprio &&
 2604              		.loc 1 958 0 discriminator 1
 2605 0034 7B69     		ldr	r3, [r7, #20]
 2606 0036 5B7C     		ldrb	r3, [r3, #17]	@ zero_extendqisi2
 957:../Dave/Generated/src/ETH004/01_lwIP_Stack/src/core/tcp.c ****     if (pcb->prio <= prio &&
 2607              		.loc 1 957 0 discriminator 1
 2608 0038 FA7A     		ldrb	r2, [r7, #11]	@ zero_extendqisi2
 2609 003a 9A42     		cmp	r2, r3
 2610 003c 18D3     		bcc	.L161
 959:../Dave/Generated/src/ETH004/01_lwIP_Stack/src/core/tcp.c ****        (u32_t)(tcp_ticks - pcb->tmr) >= inactivity) {
 2611              		.loc 1 959 0
 2612 003e 40F20003 		movw	r3, #:lower16:tcp_ticks
 2613 0042 C0F20003 		movt	r3, #:upper16:tcp_ticks
 2614 0046 1A68     		ldr	r2, [r3, #0]
 2615 0048 7B69     		ldr	r3, [r7, #20]
 2616 004a 1B6B     		ldr	r3, [r3, #48]
 2617 004c D21A     		subs	r2, r2, r3
 958:../Dave/Generated/src/ETH004/01_lwIP_Stack/src/core/tcp.c ****        pcb->prio <= mprio &&
 2618              		.loc 1 958 0
 2619 004e FB68     		ldr	r3, [r7, #12]
 2620 0050 9A42     		cmp	r2, r3
 2621 0052 0DD3     		bcc	.L161
 960:../Dave/Generated/src/ETH004/01_lwIP_Stack/src/core/tcp.c ****       inactivity = tcp_ticks - pcb->tmr;
 2622              		.loc 1 960 0
 2623 0054 40F20003 		movw	r3, #:lower16:tcp_ticks
 2624 0058 C0F20003 		movt	r3, #:upper16:tcp_ticks
 2625 005c 1A68     		ldr	r2, [r3, #0]
 2626 005e 7B69     		ldr	r3, [r7, #20]
 2627 0060 1B6B     		ldr	r3, [r3, #48]
 2628 0062 D31A     		subs	r3, r2, r3
 2629 0064 FB60     		str	r3, [r7, #12]
 961:../Dave/Generated/src/ETH004/01_lwIP_Stack/src/core/tcp.c ****       inactive = pcb;
 2630              		.loc 1 961 0
 2631 0066 7B69     		ldr	r3, [r7, #20]
 2632 0068 3B61     		str	r3, [r7, #16]
 962:../Dave/Generated/src/ETH004/01_lwIP_Stack/src/core/tcp.c ****       mprio = pcb->prio;
 2633              		.loc 1 962 0
 2634 006a 7B69     		ldr	r3, [r7, #20]
 2635 006c 5B7C     		ldrb	r3, [r3, #17]
 2636 006e FB72     		strb	r3, [r7, #11]
 2637              	.L161:
 956:../Dave/Generated/src/ETH004/01_lwIP_Stack/src/core/tcp.c ****   for(pcb = tcp_active_pcbs; pcb != NULL; pcb = pcb->next) {
 2638              		.loc 1 956 0
 2639 0070 7B69     		ldr	r3, [r7, #20]
 2640 0072 DB68     		ldr	r3, [r3, #12]
 2641 0074 7B61     		str	r3, [r7, #20]
 2642              	.L160:
 956:../Dave/Generated/src/ETH004/01_lwIP_Stack/src/core/tcp.c ****   for(pcb = tcp_active_pcbs; pcb != NULL; pcb = pcb->next) {
 2643              		.loc 1 956 0 is_stmt 0 discriminator 1
 2644 0076 7B69     		ldr	r3, [r7, #20]
 2645 0078 002B     		cmp	r3, #0
 2646 007a D6D1     		bne	.L162
 963:../Dave/Generated/src/ETH004/01_lwIP_Stack/src/core/tcp.c ****     }
 964:../Dave/Generated/src/ETH004/01_lwIP_Stack/src/core/tcp.c ****   }
 965:../Dave/Generated/src/ETH004/01_lwIP_Stack/src/core/tcp.c ****   if (inactive != NULL) {
 2647              		.loc 1 965 0 is_stmt 1
 2648 007c 3B69     		ldr	r3, [r7, #16]
 2649 007e 002B     		cmp	r3, #0
 2650 0080 04D0     		beq	.L159
 966:../Dave/Generated/src/ETH004/01_lwIP_Stack/src/core/tcp.c ****     LWIP_DEBUGF(TCP_DEBUG, ("tcp_kill_prio: killing oldest PCB %p (%"S32_F")\n",
 967:../Dave/Generated/src/ETH004/01_lwIP_Stack/src/core/tcp.c ****            (void *)inactive, inactivity));
 968:../Dave/Generated/src/ETH004/01_lwIP_Stack/src/core/tcp.c ****     tcp_abort(inactive);
 2651              		.loc 1 968 0
 2652 0082 3869     		ldr	r0, [r7, #16]
 2653 0084 4FF00101 		mov	r1, #1
 2654 0088 FFF7FEFF 		bl	tcp_abandon
 2655              	.L159:
 969:../Dave/Generated/src/ETH004/01_lwIP_Stack/src/core/tcp.c ****   }      
 970:../Dave/Generated/src/ETH004/01_lwIP_Stack/src/core/tcp.c **** }
 2656              		.loc 1 970 0
 2657 008c 07F11807 		add	r7, r7, #24
 2658 0090 BD46     		mov	sp, r7
 2659 0092 80BD     		pop	{r7, pc}
 2660              		.cfi_endproc
 2661              	.LFE16:
 2663              		.section	.text.tcp_kill_timewait,"ax",%progbits
 2664              		.align	2
 2665              		.thumb
 2666              		.thumb_func
 2668              	tcp_kill_timewait:
 2669              	.LFB17:
 971:../Dave/Generated/src/ETH004/01_lwIP_Stack/src/core/tcp.c **** 
 972:../Dave/Generated/src/ETH004/01_lwIP_Stack/src/core/tcp.c **** /**
 973:../Dave/Generated/src/ETH004/01_lwIP_Stack/src/core/tcp.c ****  * Kills the oldest connection that is in TIME_WAIT state.
 974:../Dave/Generated/src/ETH004/01_lwIP_Stack/src/core/tcp.c ****  * Called from tcp_alloc() if no more connections are available.
 975:../Dave/Generated/src/ETH004/01_lwIP_Stack/src/core/tcp.c ****  */
 976:../Dave/Generated/src/ETH004/01_lwIP_Stack/src/core/tcp.c **** static void
 977:../Dave/Generated/src/ETH004/01_lwIP_Stack/src/core/tcp.c **** tcp_kill_timewait(void)
 978:../Dave/Generated/src/ETH004/01_lwIP_Stack/src/core/tcp.c **** {
 2670              		.loc 1 978 0
 2671              		.cfi_startproc
 2672              		@ args = 0, pretend = 0, frame = 16
 2673              		@ frame_needed = 1, uses_anonymous_args = 0
 2674 0000 80B5     		push	{r7, lr}
 2675              	.LCFI50:
 2676              		.cfi_def_cfa_offset 8
 2677              		.cfi_offset 7, -8
 2678              		.cfi_offset 14, -4
 2679 0002 84B0     		sub	sp, sp, #16
 2680              	.LCFI51:
 2681              		.cfi_def_cfa_offset 24
 2682 0004 00AF     		add	r7, sp, #0
 2683              	.LCFI52:
 2684              		.cfi_def_cfa_register 7
 979:../Dave/Generated/src/ETH004/01_lwIP_Stack/src/core/tcp.c ****   struct tcp_pcb *pcb, *inactive;
 980:../Dave/Generated/src/ETH004/01_lwIP_Stack/src/core/tcp.c ****   u32_t inactivity;
 981:../Dave/Generated/src/ETH004/01_lwIP_Stack/src/core/tcp.c **** 
 982:../Dave/Generated/src/ETH004/01_lwIP_Stack/src/core/tcp.c ****   inactivity = 0;
 2685              		.loc 1 982 0
 2686 0006 4FF00003 		mov	r3, #0
 2687 000a 7B60     		str	r3, [r7, #4]
 983:../Dave/Generated/src/ETH004/01_lwIP_Stack/src/core/tcp.c ****   inactive = NULL;
 2688              		.loc 1 983 0
 2689 000c 4FF00003 		mov	r3, #0
 2690 0010 BB60     		str	r3, [r7, #8]
 984:../Dave/Generated/src/ETH004/01_lwIP_Stack/src/core/tcp.c ****   /* Go through the list of TIME_WAIT pcbs and get the oldest pcb. */
 985:../Dave/Generated/src/ETH004/01_lwIP_Stack/src/core/tcp.c ****   for(pcb = tcp_tw_pcbs; pcb != NULL; pcb = pcb->next) {
 2691              		.loc 1 985 0
 2692 0012 40F20003 		movw	r3, #:lower16:tcp_tw_pcbs
 2693 0016 C0F20003 		movt	r3, #:upper16:tcp_tw_pcbs
 2694 001a 1B68     		ldr	r3, [r3, #0]
 2695 001c FB60     		str	r3, [r7, #12]
 2696 001e 18E0     		b	.L165
 2697              	.L167:
 986:../Dave/Generated/src/ETH004/01_lwIP_Stack/src/core/tcp.c ****     if ((u32_t)(tcp_ticks - pcb->tmr) >= inactivity) {
 2698              		.loc 1 986 0
 2699 0020 40F20003 		movw	r3, #:lower16:tcp_ticks
 2700 0024 C0F20003 		movt	r3, #:upper16:tcp_ticks
 2701 0028 1A68     		ldr	r2, [r3, #0]
 2702 002a FB68     		ldr	r3, [r7, #12]
 2703 002c 1B6B     		ldr	r3, [r3, #48]
 2704 002e D21A     		subs	r2, r2, r3
 2705 0030 7B68     		ldr	r3, [r7, #4]
 2706 0032 9A42     		cmp	r2, r3
 2707 0034 0AD3     		bcc	.L166
 987:../Dave/Generated/src/ETH004/01_lwIP_Stack/src/core/tcp.c ****       inactivity = tcp_ticks - pcb->tmr;
 2708              		.loc 1 987 0
 2709 0036 40F20003 		movw	r3, #:lower16:tcp_ticks
 2710 003a C0F20003 		movt	r3, #:upper16:tcp_ticks
 2711 003e 1A68     		ldr	r2, [r3, #0]
 2712 0040 FB68     		ldr	r3, [r7, #12]
 2713 0042 1B6B     		ldr	r3, [r3, #48]
 2714 0044 D31A     		subs	r3, r2, r3
 2715 0046 7B60     		str	r3, [r7, #4]
 988:../Dave/Generated/src/ETH004/01_lwIP_Stack/src/core/tcp.c ****       inactive = pcb;
 2716              		.loc 1 988 0
 2717 0048 FB68     		ldr	r3, [r7, #12]
 2718 004a BB60     		str	r3, [r7, #8]
 2719              	.L166:
 985:../Dave/Generated/src/ETH004/01_lwIP_Stack/src/core/tcp.c ****   for(pcb = tcp_tw_pcbs; pcb != NULL; pcb = pcb->next) {
 2720              		.loc 1 985 0
 2721 004c FB68     		ldr	r3, [r7, #12]
 2722 004e DB68     		ldr	r3, [r3, #12]
 2723 0050 FB60     		str	r3, [r7, #12]
 2724              	.L165:
 985:../Dave/Generated/src/ETH004/01_lwIP_Stack/src/core/tcp.c ****   for(pcb = tcp_tw_pcbs; pcb != NULL; pcb = pcb->next) {
 2725              		.loc 1 985 0 is_stmt 0 discriminator 1
 2726 0052 FB68     		ldr	r3, [r7, #12]
 2727 0054 002B     		cmp	r3, #0
 2728 0056 E3D1     		bne	.L167
 989:../Dave/Generated/src/ETH004/01_lwIP_Stack/src/core/tcp.c ****     }
 990:../Dave/Generated/src/ETH004/01_lwIP_Stack/src/core/tcp.c ****   }
 991:../Dave/Generated/src/ETH004/01_lwIP_Stack/src/core/tcp.c ****   if (inactive != NULL) {
 2729              		.loc 1 991 0 is_stmt 1
 2730 0058 BB68     		ldr	r3, [r7, #8]
 2731 005a 002B     		cmp	r3, #0
 2732 005c 04D0     		beq	.L164
 992:../Dave/Generated/src/ETH004/01_lwIP_Stack/src/core/tcp.c ****     LWIP_DEBUGF(TCP_DEBUG, ("tcp_kill_timewait: killing oldest TIME-WAIT PCB %p (%"S32_F")\n",
 993:../Dave/Generated/src/ETH004/01_lwIP_Stack/src/core/tcp.c ****            (void *)inactive, inactivity));
 994:../Dave/Generated/src/ETH004/01_lwIP_Stack/src/core/tcp.c ****     tcp_abort(inactive);
 2733              		.loc 1 994 0
 2734 005e B868     		ldr	r0, [r7, #8]
 2735 0060 4FF00101 		mov	r1, #1
 2736 0064 FFF7FEFF 		bl	tcp_abandon
 2737              	.L164:
 995:../Dave/Generated/src/ETH004/01_lwIP_Stack/src/core/tcp.c ****   }      
 996:../Dave/Generated/src/ETH004/01_lwIP_Stack/src/core/tcp.c **** }
 2738              		.loc 1 996 0
 2739 0068 07F11007 		add	r7, r7, #16
 2740 006c BD46     		mov	sp, r7
 2741 006e 80BD     		pop	{r7, pc}
 2742              		.cfi_endproc
 2743              	.LFE17:
 2745              		.section	.text.tcp_alloc,"ax",%progbits
 2746              		.align	2
 2747              		.global	tcp_alloc
 2748              		.thumb
 2749              		.thumb_func
 2751              	tcp_alloc:
 2752              	.LFB18:
 997:../Dave/Generated/src/ETH004/01_lwIP_Stack/src/core/tcp.c **** 
 998:../Dave/Generated/src/ETH004/01_lwIP_Stack/src/core/tcp.c **** /**
 999:../Dave/Generated/src/ETH004/01_lwIP_Stack/src/core/tcp.c ****  * Allocate a new tcp_pcb structure.
1000:../Dave/Generated/src/ETH004/01_lwIP_Stack/src/core/tcp.c ****  *
1001:../Dave/Generated/src/ETH004/01_lwIP_Stack/src/core/tcp.c ****  * @param prio priority for the new pcb
1002:../Dave/Generated/src/ETH004/01_lwIP_Stack/src/core/tcp.c ****  * @return a new tcp_pcb that initially is in state CLOSED
1003:../Dave/Generated/src/ETH004/01_lwIP_Stack/src/core/tcp.c ****  */
1004:../Dave/Generated/src/ETH004/01_lwIP_Stack/src/core/tcp.c **** struct tcp_pcb *
1005:../Dave/Generated/src/ETH004/01_lwIP_Stack/src/core/tcp.c **** tcp_alloc(u8_t prio)
1006:../Dave/Generated/src/ETH004/01_lwIP_Stack/src/core/tcp.c **** {
 2753              		.loc 1 1006 0
 2754              		.cfi_startproc
 2755              		@ args = 0, pretend = 0, frame = 16
 2756              		@ frame_needed = 1, uses_anonymous_args = 0
 2757 0000 80B5     		push	{r7, lr}
 2758              	.LCFI53:
 2759              		.cfi_def_cfa_offset 8
 2760              		.cfi_offset 7, -8
 2761              		.cfi_offset 14, -4
 2762 0002 84B0     		sub	sp, sp, #16
 2763              	.LCFI54:
 2764              		.cfi_def_cfa_offset 24
 2765 0004 00AF     		add	r7, sp, #0
 2766              	.LCFI55:
 2767              		.cfi_def_cfa_register 7
 2768 0006 0346     		mov	r3, r0
 2769 0008 FB71     		strb	r3, [r7, #7]
1007:../Dave/Generated/src/ETH004/01_lwIP_Stack/src/core/tcp.c ****   struct tcp_pcb *pcb;
1008:../Dave/Generated/src/ETH004/01_lwIP_Stack/src/core/tcp.c ****   u32_t iss;
1009:../Dave/Generated/src/ETH004/01_lwIP_Stack/src/core/tcp.c ****   
1010:../Dave/Generated/src/ETH004/01_lwIP_Stack/src/core/tcp.c ****   pcb = memp_malloc(MEMP_TCP_PCB);
 2770              		.loc 1 1010 0
 2771 000a 40F20003 		movw	r3, #:lower16:memp_sizes
 2772 000e C0F20003 		movt	r3, #:upper16:memp_sizes
 2773 0012 9B88     		ldrh	r3, [r3, #4]
 2774 0014 1846     		mov	r0, r3
 2775 0016 FFF7FEFF 		bl	mem_malloc
 2776 001a F860     		str	r0, [r7, #12]
1011:../Dave/Generated/src/ETH004/01_lwIP_Stack/src/core/tcp.c ****   if (pcb == NULL) {
 2777              		.loc 1 1011 0
 2778 001c FB68     		ldr	r3, [r7, #12]
 2779 001e 002B     		cmp	r3, #0
 2780 0020 1AD1     		bne	.L170
1012:../Dave/Generated/src/ETH004/01_lwIP_Stack/src/core/tcp.c ****     /* Try killing oldest connection in TIME-WAIT. */
1013:../Dave/Generated/src/ETH004/01_lwIP_Stack/src/core/tcp.c ****     LWIP_DEBUGF(TCP_DEBUG, ("tcp_alloc: killing off oldest TIME-WAIT connection\n"));
1014:../Dave/Generated/src/ETH004/01_lwIP_Stack/src/core/tcp.c ****     tcp_kill_timewait();
 2781              		.loc 1 1014 0
 2782 0022 FFF7FEFF 		bl	tcp_kill_timewait
1015:../Dave/Generated/src/ETH004/01_lwIP_Stack/src/core/tcp.c ****     /* Try to allocate a tcp_pcb again. */
1016:../Dave/Generated/src/ETH004/01_lwIP_Stack/src/core/tcp.c ****     pcb = memp_malloc(MEMP_TCP_PCB);
 2783              		.loc 1 1016 0
 2784 0026 40F20003 		movw	r3, #:lower16:memp_sizes
 2785 002a C0F20003 		movt	r3, #:upper16:memp_sizes
 2786 002e 9B88     		ldrh	r3, [r3, #4]
 2787 0030 1846     		mov	r0, r3
 2788 0032 FFF7FEFF 		bl	mem_malloc
 2789 0036 F860     		str	r0, [r7, #12]
1017:../Dave/Generated/src/ETH004/01_lwIP_Stack/src/core/tcp.c ****     if (pcb == NULL) {
 2790              		.loc 1 1017 0
 2791 0038 FB68     		ldr	r3, [r7, #12]
 2792 003a 002B     		cmp	r3, #0
 2793 003c 0CD1     		bne	.L170
1018:../Dave/Generated/src/ETH004/01_lwIP_Stack/src/core/tcp.c ****       /* Try killing active connections with lower priority than the new one. */
1019:../Dave/Generated/src/ETH004/01_lwIP_Stack/src/core/tcp.c ****       LWIP_DEBUGF(TCP_DEBUG, ("tcp_alloc: killing connection with prio lower than %d\n", prio));
1020:../Dave/Generated/src/ETH004/01_lwIP_Stack/src/core/tcp.c ****       tcp_kill_prio(prio);
 2794              		.loc 1 1020 0
 2795 003e FB79     		ldrb	r3, [r7, #7]	@ zero_extendqisi2
 2796 0040 1846     		mov	r0, r3
 2797 0042 FFF7FEFF 		bl	tcp_kill_prio
1021:../Dave/Generated/src/ETH004/01_lwIP_Stack/src/core/tcp.c ****       /* Try to allocate a tcp_pcb again. */
1022:../Dave/Generated/src/ETH004/01_lwIP_Stack/src/core/tcp.c ****       pcb = memp_malloc(MEMP_TCP_PCB);
 2798              		.loc 1 1022 0
 2799 0046 40F20003 		movw	r3, #:lower16:memp_sizes
 2800 004a C0F20003 		movt	r3, #:upper16:memp_sizes
 2801 004e 9B88     		ldrh	r3, [r3, #4]
 2802 0050 1846     		mov	r0, r3
 2803 0052 FFF7FEFF 		bl	mem_malloc
 2804 0056 F860     		str	r0, [r7, #12]
 2805              	.L170:
1023:../Dave/Generated/src/ETH004/01_lwIP_Stack/src/core/tcp.c ****       if (pcb != NULL) {
1024:../Dave/Generated/src/ETH004/01_lwIP_Stack/src/core/tcp.c ****         /* adjust err stats: memp_malloc failed twice before */
1025:../Dave/Generated/src/ETH004/01_lwIP_Stack/src/core/tcp.c ****         MEMP_STATS_DEC(err, MEMP_TCP_PCB);
1026:../Dave/Generated/src/ETH004/01_lwIP_Stack/src/core/tcp.c ****       }
1027:../Dave/Generated/src/ETH004/01_lwIP_Stack/src/core/tcp.c ****     }
1028:../Dave/Generated/src/ETH004/01_lwIP_Stack/src/core/tcp.c ****     if (pcb != NULL) {
1029:../Dave/Generated/src/ETH004/01_lwIP_Stack/src/core/tcp.c ****       /* adjust err stats: timewait PCB was freed above */
1030:../Dave/Generated/src/ETH004/01_lwIP_Stack/src/core/tcp.c ****       MEMP_STATS_DEC(err, MEMP_TCP_PCB);
1031:../Dave/Generated/src/ETH004/01_lwIP_Stack/src/core/tcp.c ****     }
1032:../Dave/Generated/src/ETH004/01_lwIP_Stack/src/core/tcp.c ****   }
1033:../Dave/Generated/src/ETH004/01_lwIP_Stack/src/core/tcp.c ****   if (pcb != NULL) {
 2806              		.loc 1 1033 0
 2807 0058 FB68     		ldr	r3, [r7, #12]
 2808 005a 002B     		cmp	r3, #0
 2809 005c 6ED0     		beq	.L171
1034:../Dave/Generated/src/ETH004/01_lwIP_Stack/src/core/tcp.c ****     memset(pcb, 0, sizeof(struct tcp_pcb));
 2810              		.loc 1 1034 0
 2811 005e F868     		ldr	r0, [r7, #12]
 2812 0060 4FF00001 		mov	r1, #0
 2813 0064 4FF0A002 		mov	r2, #160
 2814 0068 FFF7FEFF 		bl	memset
1035:../Dave/Generated/src/ETH004/01_lwIP_Stack/src/core/tcp.c ****     pcb->prio = TCP_PRIO_NORMAL;
 2815              		.loc 1 1035 0
 2816 006c FB68     		ldr	r3, [r7, #12]
 2817 006e 4FF04002 		mov	r2, #64
 2818 0072 5A74     		strb	r2, [r3, #17]
1036:../Dave/Generated/src/ETH004/01_lwIP_Stack/src/core/tcp.c ****     pcb->snd_buf = TCP_SND_BUF;
 2819              		.loc 1 1036 0
 2820 0074 FB68     		ldr	r3, [r7, #12]
 2821 0076 40F64C32 		movw	r2, #2892
 2822 007a A3F86E20 		strh	r2, [r3, #110]	@ movhi
1037:../Dave/Generated/src/ETH004/01_lwIP_Stack/src/core/tcp.c ****     pcb->snd_queuelen = 0;
 2823              		.loc 1 1037 0
 2824 007e FB68     		ldr	r3, [r7, #12]
 2825 0080 4FF00002 		mov	r2, #0
 2826 0084 A3F87020 		strh	r2, [r3, #112]	@ movhi
1038:../Dave/Generated/src/ETH004/01_lwIP_Stack/src/core/tcp.c ****     pcb->rcv_wnd = TCP_WND;
 2827              		.loc 1 1038 0
 2828 0088 FB68     		ldr	r3, [r7, #12]
 2829 008a 40F64C32 		movw	r2, #2892
 2830 008e 1A85     		strh	r2, [r3, #40]	@ movhi
1039:../Dave/Generated/src/ETH004/01_lwIP_Stack/src/core/tcp.c ****     pcb->rcv_ann_wnd = TCP_WND;
 2831              		.loc 1 1039 0
 2832 0090 FB68     		ldr	r3, [r7, #12]
 2833 0092 40F64C32 		movw	r2, #2892
 2834 0096 5A85     		strh	r2, [r3, #42]	@ movhi
1040:../Dave/Generated/src/ETH004/01_lwIP_Stack/src/core/tcp.c ****     pcb->tos = 0;
 2835              		.loc 1 1040 0
 2836 0098 FB68     		ldr	r3, [r7, #12]
 2837 009a 4FF00002 		mov	r2, #0
 2838 009e 9A72     		strb	r2, [r3, #10]
1041:../Dave/Generated/src/ETH004/01_lwIP_Stack/src/core/tcp.c ****     pcb->ttl = TCP_TTL;
 2839              		.loc 1 1041 0
 2840 00a0 FB68     		ldr	r3, [r7, #12]
 2841 00a2 4FF0FF02 		mov	r2, #255
 2842 00a6 DA72     		strb	r2, [r3, #11]
1042:../Dave/Generated/src/ETH004/01_lwIP_Stack/src/core/tcp.c ****     /* As initial send MSS, we use TCP_MSS but limit it to 536.
1043:../Dave/Generated/src/ETH004/01_lwIP_Stack/src/core/tcp.c ****        The send MSS is updated when an MSS option is received. */
1044:../Dave/Generated/src/ETH004/01_lwIP_Stack/src/core/tcp.c ****     pcb->mss = (TCP_MSS > 536) ? 536 : TCP_MSS;
 2843              		.loc 1 1044 0
 2844 00a8 FB68     		ldr	r3, [r7, #12]
 2845 00aa 4FF40672 		mov	r2, #536
 2846 00ae 1A87     		strh	r2, [r3, #56]	@ movhi
1045:../Dave/Generated/src/ETH004/01_lwIP_Stack/src/core/tcp.c ****     pcb->rto = 3000 / TCP_SLOW_INTERVAL;
 2847              		.loc 1 1045 0
 2848 00b0 FB68     		ldr	r3, [r7, #12]
 2849 00b2 4FF00602 		mov	r2, #6
 2850 00b6 A3F84820 		strh	r2, [r3, #72]	@ movhi
1046:../Dave/Generated/src/ETH004/01_lwIP_Stack/src/core/tcp.c ****     pcb->sa = 0;
 2851              		.loc 1 1046 0
 2852 00ba FB68     		ldr	r3, [r7, #12]
 2853 00bc 4FF00002 		mov	r2, #0
 2854 00c0 A3F84420 		strh	r2, [r3, #68]	@ movhi
1047:../Dave/Generated/src/ETH004/01_lwIP_Stack/src/core/tcp.c ****     pcb->sv = 3000 / TCP_SLOW_INTERVAL;
 2855              		.loc 1 1047 0
 2856 00c4 FB68     		ldr	r3, [r7, #12]
 2857 00c6 4FF00602 		mov	r2, #6
 2858 00ca A3F84620 		strh	r2, [r3, #70]	@ movhi
1048:../Dave/Generated/src/ETH004/01_lwIP_Stack/src/core/tcp.c ****     pcb->rtime = -1;
 2859              		.loc 1 1048 0
 2860 00ce FB68     		ldr	r3, [r7, #12]
 2861 00d0 4FF6FF72 		movw	r2, #65535
 2862 00d4 DA86     		strh	r2, [r3, #54]	@ movhi
1049:../Dave/Generated/src/ETH004/01_lwIP_Stack/src/core/tcp.c ****     pcb->cwnd = 1;
 2863              		.loc 1 1049 0
 2864 00d6 FB68     		ldr	r3, [r7, #12]
 2865 00d8 4FF00102 		mov	r2, #1
 2866 00dc A3F85220 		strh	r2, [r3, #82]	@ movhi
1050:../Dave/Generated/src/ETH004/01_lwIP_Stack/src/core/tcp.c ****     iss = tcp_next_iss();
 2867              		.loc 1 1050 0
 2868 00e0 FFF7FEFF 		bl	tcp_next_iss
 2869 00e4 B860     		str	r0, [r7, #8]
1051:../Dave/Generated/src/ETH004/01_lwIP_Stack/src/core/tcp.c ****     pcb->snd_wl2 = iss;
 2870              		.loc 1 1051 0
 2871 00e6 FB68     		ldr	r3, [r7, #12]
 2872 00e8 BA68     		ldr	r2, [r7, #8]
 2873 00ea 5A66     		str	r2, [r3, #100]
1052:../Dave/Generated/src/ETH004/01_lwIP_Stack/src/core/tcp.c ****     pcb->snd_nxt = iss;
 2874              		.loc 1 1052 0
 2875 00ec FB68     		ldr	r3, [r7, #12]
 2876 00ee BA68     		ldr	r2, [r7, #8]
 2877 00f0 9A65     		str	r2, [r3, #88]
1053:../Dave/Generated/src/ETH004/01_lwIP_Stack/src/core/tcp.c ****     pcb->lastack = iss;
 2878              		.loc 1 1053 0
 2879 00f2 FB68     		ldr	r3, [r7, #12]
 2880 00f4 BA68     		ldr	r2, [r7, #8]
 2881 00f6 DA64     		str	r2, [r3, #76]
1054:../Dave/Generated/src/ETH004/01_lwIP_Stack/src/core/tcp.c ****     pcb->snd_lbb = iss;   
 2882              		.loc 1 1054 0
 2883 00f8 FB68     		ldr	r3, [r7, #12]
 2884 00fa BA68     		ldr	r2, [r7, #8]
 2885 00fc 9A66     		str	r2, [r3, #104]
1055:../Dave/Generated/src/ETH004/01_lwIP_Stack/src/core/tcp.c ****     pcb->tmr = tcp_ticks;
 2886              		.loc 1 1055 0
 2887 00fe 40F20003 		movw	r3, #:lower16:tcp_ticks
 2888 0102 C0F20003 		movt	r3, #:upper16:tcp_ticks
 2889 0106 1A68     		ldr	r2, [r3, #0]
 2890 0108 FB68     		ldr	r3, [r7, #12]
 2891 010a 1A63     		str	r2, [r3, #48]
1056:../Dave/Generated/src/ETH004/01_lwIP_Stack/src/core/tcp.c **** 
1057:../Dave/Generated/src/ETH004/01_lwIP_Stack/src/core/tcp.c ****     pcb->polltmr = 0;
 2892              		.loc 1 1057 0
 2893 010c FB68     		ldr	r3, [r7, #12]
 2894 010e 4FF00002 		mov	r2, #0
 2895 0112 83F83420 		strb	r2, [r3, #52]
1058:../Dave/Generated/src/ETH004/01_lwIP_Stack/src/core/tcp.c **** 
1059:../Dave/Generated/src/ETH004/01_lwIP_Stack/src/core/tcp.c **** #if LWIP_CALLBACK_API
1060:../Dave/Generated/src/ETH004/01_lwIP_Stack/src/core/tcp.c ****     pcb->recv = tcp_recv_null;
 2896              		.loc 1 1060 0
 2897 0116 FA68     		ldr	r2, [r7, #12]
 2898 0118 40F20003 		movw	r3, #:lower16:tcp_recv_null
 2899 011c C0F20003 		movt	r3, #:upper16:tcp_recv_null
 2900 0120 C2F88430 		str	r3, [r2, #132]
1061:../Dave/Generated/src/ETH004/01_lwIP_Stack/src/core/tcp.c **** #endif /* LWIP_CALLBACK_API */  
1062:../Dave/Generated/src/ETH004/01_lwIP_Stack/src/core/tcp.c ****     
1063:../Dave/Generated/src/ETH004/01_lwIP_Stack/src/core/tcp.c ****     /* Init KEEPALIVE timer */
1064:../Dave/Generated/src/ETH004/01_lwIP_Stack/src/core/tcp.c ****     pcb->keep_idle  = TCP_KEEPIDLE_DEFAULT;
 2901              		.loc 1 1064 0
 2902 0124 FA68     		ldr	r2, [r7, #12]
 2903 0126 4FF45D43 		mov	r3, #56576
 2904 012a C0F26D03 		movt	r3, 109
 2905 012e C2F89430 		str	r3, [r2, #148]
1065:../Dave/Generated/src/ETH004/01_lwIP_Stack/src/core/tcp.c ****     
1066:../Dave/Generated/src/ETH004/01_lwIP_Stack/src/core/tcp.c **** #if LWIP_TCP_KEEPALIVE
1067:../Dave/Generated/src/ETH004/01_lwIP_Stack/src/core/tcp.c ****     pcb->keep_intvl = TCP_KEEPINTVL_DEFAULT;
1068:../Dave/Generated/src/ETH004/01_lwIP_Stack/src/core/tcp.c ****     pcb->keep_cnt   = TCP_KEEPCNT_DEFAULT;
1069:../Dave/Generated/src/ETH004/01_lwIP_Stack/src/core/tcp.c **** #endif /* LWIP_TCP_KEEPALIVE */
1070:../Dave/Generated/src/ETH004/01_lwIP_Stack/src/core/tcp.c **** 
1071:../Dave/Generated/src/ETH004/01_lwIP_Stack/src/core/tcp.c ****     pcb->keep_cnt_sent = 0;
 2906              		.loc 1 1071 0
 2907 0132 FB68     		ldr	r3, [r7, #12]
 2908 0134 4FF00002 		mov	r2, #0
 2909 0138 83F89D20 		strb	r2, [r3, #157]
 2910              	.L171:
1072:../Dave/Generated/src/ETH004/01_lwIP_Stack/src/core/tcp.c ****   }
1073:../Dave/Generated/src/ETH004/01_lwIP_Stack/src/core/tcp.c ****   return pcb;
 2911              		.loc 1 1073 0
 2912 013c FB68     		ldr	r3, [r7, #12]
1074:../Dave/Generated/src/ETH004/01_lwIP_Stack/src/core/tcp.c **** }
 2913              		.loc 1 1074 0
 2914 013e 1846     		mov	r0, r3
 2915 0140 07F11007 		add	r7, r7, #16
 2916 0144 BD46     		mov	sp, r7
 2917 0146 80BD     		pop	{r7, pc}
 2918              		.cfi_endproc
 2919              	.LFE18:
 2921              		.section	.text.tcp_new,"ax",%progbits
 2922              		.align	2
 2923              		.global	tcp_new
 2924              		.thumb
 2925              		.thumb_func
 2927              	tcp_new:
 2928              	.LFB19:
1075:../Dave/Generated/src/ETH004/01_lwIP_Stack/src/core/tcp.c **** 
1076:../Dave/Generated/src/ETH004/01_lwIP_Stack/src/core/tcp.c **** /**
1077:../Dave/Generated/src/ETH004/01_lwIP_Stack/src/core/tcp.c ****  * Creates a new TCP protocol control block but doesn't place it on
1078:../Dave/Generated/src/ETH004/01_lwIP_Stack/src/core/tcp.c ****  * any of the TCP PCB lists.
1079:../Dave/Generated/src/ETH004/01_lwIP_Stack/src/core/tcp.c ****  * The pcb is not put on any list until binding using tcp_bind().
1080:../Dave/Generated/src/ETH004/01_lwIP_Stack/src/core/tcp.c ****  *
1081:../Dave/Generated/src/ETH004/01_lwIP_Stack/src/core/tcp.c ****  * @internal: Maybe there should be a idle TCP PCB list where these
1082:../Dave/Generated/src/ETH004/01_lwIP_Stack/src/core/tcp.c ****  * PCBs are put on. Port reservation using tcp_bind() is implemented but
1083:../Dave/Generated/src/ETH004/01_lwIP_Stack/src/core/tcp.c ****  * allocated pcbs that are not bound can't be killed automatically if wanting
1084:../Dave/Generated/src/ETH004/01_lwIP_Stack/src/core/tcp.c ****  * to allocate a pcb with higher prio (@see tcp_kill_prio())
1085:../Dave/Generated/src/ETH004/01_lwIP_Stack/src/core/tcp.c ****  *
1086:../Dave/Generated/src/ETH004/01_lwIP_Stack/src/core/tcp.c ****  * @return a new tcp_pcb that initially is in state CLOSED
1087:../Dave/Generated/src/ETH004/01_lwIP_Stack/src/core/tcp.c ****  */
1088:../Dave/Generated/src/ETH004/01_lwIP_Stack/src/core/tcp.c **** struct tcp_pcb *
1089:../Dave/Generated/src/ETH004/01_lwIP_Stack/src/core/tcp.c **** tcp_new(void)
1090:../Dave/Generated/src/ETH004/01_lwIP_Stack/src/core/tcp.c **** {
 2929              		.loc 1 1090 0
 2930              		.cfi_startproc
 2931              		@ args = 0, pretend = 0, frame = 0
 2932              		@ frame_needed = 1, uses_anonymous_args = 0
 2933 0000 80B5     		push	{r7, lr}
 2934              	.LCFI56:
 2935              		.cfi_def_cfa_offset 8
 2936              		.cfi_offset 7, -8
 2937              		.cfi_offset 14, -4
 2938 0002 00AF     		add	r7, sp, #0
 2939              	.LCFI57:
 2940              		.cfi_def_cfa_register 7
1091:../Dave/Generated/src/ETH004/01_lwIP_Stack/src/core/tcp.c ****   return tcp_alloc(TCP_PRIO_NORMAL);
 2941              		.loc 1 1091 0
 2942 0004 4FF04000 		mov	r0, #64
 2943 0008 FFF7FEFF 		bl	tcp_alloc
 2944 000c 0346     		mov	r3, r0
1092:../Dave/Generated/src/ETH004/01_lwIP_Stack/src/core/tcp.c **** }
 2945              		.loc 1 1092 0
 2946 000e 1846     		mov	r0, r3
 2947 0010 80BD     		pop	{r7, pc}
 2948              		.cfi_endproc
 2949              	.LFE19:
 2951 0012 00BF     		.section	.text.tcp_arg,"ax",%progbits
 2952              		.align	2
 2953              		.global	tcp_arg
 2954              		.thumb
 2955              		.thumb_func
 2957              	tcp_arg:
 2958              	.LFB20:
1093:../Dave/Generated/src/ETH004/01_lwIP_Stack/src/core/tcp.c **** 
1094:../Dave/Generated/src/ETH004/01_lwIP_Stack/src/core/tcp.c **** /**
1095:../Dave/Generated/src/ETH004/01_lwIP_Stack/src/core/tcp.c ****  * Used to specify the argument that should be passed callback
1096:../Dave/Generated/src/ETH004/01_lwIP_Stack/src/core/tcp.c ****  * functions.
1097:../Dave/Generated/src/ETH004/01_lwIP_Stack/src/core/tcp.c ****  *
1098:../Dave/Generated/src/ETH004/01_lwIP_Stack/src/core/tcp.c ****  * @param pcb tcp_pcb to set the callback argument
1099:../Dave/Generated/src/ETH004/01_lwIP_Stack/src/core/tcp.c ****  * @param arg void pointer argument to pass to callback functions
1100:../Dave/Generated/src/ETH004/01_lwIP_Stack/src/core/tcp.c ****  */ 
1101:../Dave/Generated/src/ETH004/01_lwIP_Stack/src/core/tcp.c **** void
1102:../Dave/Generated/src/ETH004/01_lwIP_Stack/src/core/tcp.c **** tcp_arg(struct tcp_pcb *pcb, void *arg)
1103:../Dave/Generated/src/ETH004/01_lwIP_Stack/src/core/tcp.c **** {  
 2959              		.loc 1 1103 0
 2960              		.cfi_startproc
 2961              		@ args = 0, pretend = 0, frame = 8
 2962              		@ frame_needed = 1, uses_anonymous_args = 0
 2963              		@ link register save eliminated.
 2964 0000 80B4     		push	{r7}
 2965              	.LCFI58:
 2966              		.cfi_def_cfa_offset 4
 2967              		.cfi_offset 7, -4
 2968 0002 83B0     		sub	sp, sp, #12
 2969              	.LCFI59:
 2970              		.cfi_def_cfa_offset 16
 2971 0004 00AF     		add	r7, sp, #0
 2972              	.LCFI60:
 2973              		.cfi_def_cfa_register 7
 2974 0006 7860     		str	r0, [r7, #4]
 2975 0008 3960     		str	r1, [r7, #0]
1104:../Dave/Generated/src/ETH004/01_lwIP_Stack/src/core/tcp.c ****   pcb->callback_arg = arg;
 2976              		.loc 1 1104 0
 2977 000a 7B68     		ldr	r3, [r7, #4]
 2978 000c 3A68     		ldr	r2, [r7, #0]
 2979 000e 5A61     		str	r2, [r3, #20]
1105:../Dave/Generated/src/ETH004/01_lwIP_Stack/src/core/tcp.c **** }
 2980              		.loc 1 1105 0
 2981 0010 07F10C07 		add	r7, r7, #12
 2982 0014 BD46     		mov	sp, r7
 2983 0016 80BC     		pop	{r7}
 2984 0018 7047     		bx	lr
 2985              		.cfi_endproc
 2986              	.LFE20:
 2988 001a 00BF     		.section	.text.tcp_recv,"ax",%progbits
 2989              		.align	2
 2990              		.global	tcp_recv
 2991              		.thumb
 2992              		.thumb_func
 2994              	tcp_recv:
 2995              	.LFB21:
1106:../Dave/Generated/src/ETH004/01_lwIP_Stack/src/core/tcp.c **** #if LWIP_CALLBACK_API
1107:../Dave/Generated/src/ETH004/01_lwIP_Stack/src/core/tcp.c **** 
1108:../Dave/Generated/src/ETH004/01_lwIP_Stack/src/core/tcp.c **** /**
1109:../Dave/Generated/src/ETH004/01_lwIP_Stack/src/core/tcp.c ****  * Used to specify the function that should be called when a TCP
1110:../Dave/Generated/src/ETH004/01_lwIP_Stack/src/core/tcp.c ****  * connection receives data.
1111:../Dave/Generated/src/ETH004/01_lwIP_Stack/src/core/tcp.c ****  *
1112:../Dave/Generated/src/ETH004/01_lwIP_Stack/src/core/tcp.c ****  * @param pcb tcp_pcb to set the recv callback
1113:../Dave/Generated/src/ETH004/01_lwIP_Stack/src/core/tcp.c ****  * @param recv callback function to call for this pcb when data is received
1114:../Dave/Generated/src/ETH004/01_lwIP_Stack/src/core/tcp.c ****  */ 
1115:../Dave/Generated/src/ETH004/01_lwIP_Stack/src/core/tcp.c **** void
1116:../Dave/Generated/src/ETH004/01_lwIP_Stack/src/core/tcp.c **** tcp_recv(struct tcp_pcb *pcb,
1117:../Dave/Generated/src/ETH004/01_lwIP_Stack/src/core/tcp.c ****    err_t (* recv)(void *arg, struct tcp_pcb *tpcb, struct pbuf *p, err_t err))
1118:../Dave/Generated/src/ETH004/01_lwIP_Stack/src/core/tcp.c **** {
 2996              		.loc 1 1118 0
 2997              		.cfi_startproc
 2998              		@ args = 0, pretend = 0, frame = 8
 2999              		@ frame_needed = 1, uses_anonymous_args = 0
 3000              		@ link register save eliminated.
 3001 0000 80B4     		push	{r7}
 3002              	.LCFI61:
 3003              		.cfi_def_cfa_offset 4
 3004              		.cfi_offset 7, -4
 3005 0002 83B0     		sub	sp, sp, #12
 3006              	.LCFI62:
 3007              		.cfi_def_cfa_offset 16
 3008 0004 00AF     		add	r7, sp, #0
 3009              	.LCFI63:
 3010              		.cfi_def_cfa_register 7
 3011 0006 7860     		str	r0, [r7, #4]
 3012 0008 3960     		str	r1, [r7, #0]
1119:../Dave/Generated/src/ETH004/01_lwIP_Stack/src/core/tcp.c ****   pcb->recv = recv;
 3013              		.loc 1 1119 0
 3014 000a 7B68     		ldr	r3, [r7, #4]
 3015 000c 3A68     		ldr	r2, [r7, #0]
 3016 000e C3F88420 		str	r2, [r3, #132]
1120:../Dave/Generated/src/ETH004/01_lwIP_Stack/src/core/tcp.c **** }
 3017              		.loc 1 1120 0
 3018 0012 07F10C07 		add	r7, r7, #12
 3019 0016 BD46     		mov	sp, r7
 3020 0018 80BC     		pop	{r7}
 3021 001a 7047     		bx	lr
 3022              		.cfi_endproc
 3023              	.LFE21:
 3025              		.section	.text.tcp_sent,"ax",%progbits
 3026              		.align	2
 3027              		.global	tcp_sent
 3028              		.thumb
 3029              		.thumb_func
 3031              	tcp_sent:
 3032              	.LFB22:
1121:../Dave/Generated/src/ETH004/01_lwIP_Stack/src/core/tcp.c **** 
1122:../Dave/Generated/src/ETH004/01_lwIP_Stack/src/core/tcp.c **** /**
1123:../Dave/Generated/src/ETH004/01_lwIP_Stack/src/core/tcp.c ****  * Used to specify the function that should be called when TCP data
1124:../Dave/Generated/src/ETH004/01_lwIP_Stack/src/core/tcp.c ****  * has been successfully delivered to the remote host.
1125:../Dave/Generated/src/ETH004/01_lwIP_Stack/src/core/tcp.c ****  *
1126:../Dave/Generated/src/ETH004/01_lwIP_Stack/src/core/tcp.c ****  * @param pcb tcp_pcb to set the sent callback
1127:../Dave/Generated/src/ETH004/01_lwIP_Stack/src/core/tcp.c ****  * @param sent callback function to call for this pcb when data is successfully sent
1128:../Dave/Generated/src/ETH004/01_lwIP_Stack/src/core/tcp.c ****  */ 
1129:../Dave/Generated/src/ETH004/01_lwIP_Stack/src/core/tcp.c **** void
1130:../Dave/Generated/src/ETH004/01_lwIP_Stack/src/core/tcp.c **** tcp_sent(struct tcp_pcb *pcb,
1131:../Dave/Generated/src/ETH004/01_lwIP_Stack/src/core/tcp.c ****    err_t (* sent)(void *arg, struct tcp_pcb *tpcb, u16_t len))
1132:../Dave/Generated/src/ETH004/01_lwIP_Stack/src/core/tcp.c **** {
 3033              		.loc 1 1132 0
 3034              		.cfi_startproc
 3035              		@ args = 0, pretend = 0, frame = 8
 3036              		@ frame_needed = 1, uses_anonymous_args = 0
 3037              		@ link register save eliminated.
 3038 0000 80B4     		push	{r7}
 3039              	.LCFI64:
 3040              		.cfi_def_cfa_offset 4
 3041              		.cfi_offset 7, -4
 3042 0002 83B0     		sub	sp, sp, #12
 3043              	.LCFI65:
 3044              		.cfi_def_cfa_offset 16
 3045 0004 00AF     		add	r7, sp, #0
 3046              	.LCFI66:
 3047              		.cfi_def_cfa_register 7
 3048 0006 7860     		str	r0, [r7, #4]
 3049 0008 3960     		str	r1, [r7, #0]
1133:../Dave/Generated/src/ETH004/01_lwIP_Stack/src/core/tcp.c ****   pcb->sent = sent;
 3050              		.loc 1 1133 0
 3051 000a 7B68     		ldr	r3, [r7, #4]
 3052 000c 3A68     		ldr	r2, [r7, #0]
 3053 000e C3F88020 		str	r2, [r3, #128]
1134:../Dave/Generated/src/ETH004/01_lwIP_Stack/src/core/tcp.c **** }
 3054              		.loc 1 1134 0
 3055 0012 07F10C07 		add	r7, r7, #12
 3056 0016 BD46     		mov	sp, r7
 3057 0018 80BC     		pop	{r7}
 3058 001a 7047     		bx	lr
 3059              		.cfi_endproc
 3060              	.LFE22:
 3062              		.section	.text.tcp_err,"ax",%progbits
 3063              		.align	2
 3064              		.global	tcp_err
 3065              		.thumb
 3066              		.thumb_func
 3068              	tcp_err:
 3069              	.LFB23:
1135:../Dave/Generated/src/ETH004/01_lwIP_Stack/src/core/tcp.c **** 
1136:../Dave/Generated/src/ETH004/01_lwIP_Stack/src/core/tcp.c **** /**
1137:../Dave/Generated/src/ETH004/01_lwIP_Stack/src/core/tcp.c ****  * Used to specify the function that should be called when a fatal error
1138:../Dave/Generated/src/ETH004/01_lwIP_Stack/src/core/tcp.c ****  * has occured on the connection.
1139:../Dave/Generated/src/ETH004/01_lwIP_Stack/src/core/tcp.c ****  *
1140:../Dave/Generated/src/ETH004/01_lwIP_Stack/src/core/tcp.c ****  * @param pcb tcp_pcb to set the err callback
1141:../Dave/Generated/src/ETH004/01_lwIP_Stack/src/core/tcp.c ****  * @param errf callback function to call for this pcb when a fatal error
1142:../Dave/Generated/src/ETH004/01_lwIP_Stack/src/core/tcp.c ****  *        has occured on the connection
1143:../Dave/Generated/src/ETH004/01_lwIP_Stack/src/core/tcp.c ****  */ 
1144:../Dave/Generated/src/ETH004/01_lwIP_Stack/src/core/tcp.c **** void
1145:../Dave/Generated/src/ETH004/01_lwIP_Stack/src/core/tcp.c **** tcp_err(struct tcp_pcb *pcb,
1146:../Dave/Generated/src/ETH004/01_lwIP_Stack/src/core/tcp.c ****    void (* errf)(void *arg, err_t err))
1147:../Dave/Generated/src/ETH004/01_lwIP_Stack/src/core/tcp.c **** {
 3070              		.loc 1 1147 0
 3071              		.cfi_startproc
 3072              		@ args = 0, pretend = 0, frame = 8
 3073              		@ frame_needed = 1, uses_anonymous_args = 0
 3074              		@ link register save eliminated.
 3075 0000 80B4     		push	{r7}
 3076              	.LCFI67:
 3077              		.cfi_def_cfa_offset 4
 3078              		.cfi_offset 7, -4
 3079 0002 83B0     		sub	sp, sp, #12
 3080              	.LCFI68:
 3081              		.cfi_def_cfa_offset 16
 3082 0004 00AF     		add	r7, sp, #0
 3083              	.LCFI69:
 3084              		.cfi_def_cfa_register 7
 3085 0006 7860     		str	r0, [r7, #4]
 3086 0008 3960     		str	r1, [r7, #0]
1148:../Dave/Generated/src/ETH004/01_lwIP_Stack/src/core/tcp.c ****   pcb->errf = errf;
 3087              		.loc 1 1148 0
 3088 000a 7B68     		ldr	r3, [r7, #4]
 3089 000c 3A68     		ldr	r2, [r7, #0]
 3090 000e C3F89020 		str	r2, [r3, #144]
1149:../Dave/Generated/src/ETH004/01_lwIP_Stack/src/core/tcp.c **** }
 3091              		.loc 1 1149 0
 3092 0012 07F10C07 		add	r7, r7, #12
 3093 0016 BD46     		mov	sp, r7
 3094 0018 80BC     		pop	{r7}
 3095 001a 7047     		bx	lr
 3096              		.cfi_endproc
 3097              	.LFE23:
 3099              		.section	.text.tcp_accept,"ax",%progbits
 3100              		.align	2
 3101              		.global	tcp_accept
 3102              		.thumb
 3103              		.thumb_func
 3105              	tcp_accept:
 3106              	.LFB24:
1150:../Dave/Generated/src/ETH004/01_lwIP_Stack/src/core/tcp.c **** 
1151:../Dave/Generated/src/ETH004/01_lwIP_Stack/src/core/tcp.c **** /**
1152:../Dave/Generated/src/ETH004/01_lwIP_Stack/src/core/tcp.c ****  * Used for specifying the function that should be called when a
1153:../Dave/Generated/src/ETH004/01_lwIP_Stack/src/core/tcp.c ****  * LISTENing connection has been connected to another host.
1154:../Dave/Generated/src/ETH004/01_lwIP_Stack/src/core/tcp.c ****  *
1155:../Dave/Generated/src/ETH004/01_lwIP_Stack/src/core/tcp.c ****  * @param pcb tcp_pcb to set the accept callback
1156:../Dave/Generated/src/ETH004/01_lwIP_Stack/src/core/tcp.c ****  * @param accept callback function to call for this pcb when LISTENing
1157:../Dave/Generated/src/ETH004/01_lwIP_Stack/src/core/tcp.c ****  *        connection has been connected to another host
1158:../Dave/Generated/src/ETH004/01_lwIP_Stack/src/core/tcp.c ****  */ 
1159:../Dave/Generated/src/ETH004/01_lwIP_Stack/src/core/tcp.c **** void
1160:../Dave/Generated/src/ETH004/01_lwIP_Stack/src/core/tcp.c **** tcp_accept(struct tcp_pcb *pcb,
1161:../Dave/Generated/src/ETH004/01_lwIP_Stack/src/core/tcp.c ****      err_t (* accept)(void *arg, struct tcp_pcb *newpcb, err_t err))
1162:../Dave/Generated/src/ETH004/01_lwIP_Stack/src/core/tcp.c **** {
 3107              		.loc 1 1162 0
 3108              		.cfi_startproc
 3109              		@ args = 0, pretend = 0, frame = 8
 3110              		@ frame_needed = 1, uses_anonymous_args = 0
 3111              		@ link register save eliminated.
 3112 0000 80B4     		push	{r7}
 3113              	.LCFI70:
 3114              		.cfi_def_cfa_offset 4
 3115              		.cfi_offset 7, -4
 3116 0002 83B0     		sub	sp, sp, #12
 3117              	.LCFI71:
 3118              		.cfi_def_cfa_offset 16
 3119 0004 00AF     		add	r7, sp, #0
 3120              	.LCFI72:
 3121              		.cfi_def_cfa_register 7
 3122 0006 7860     		str	r0, [r7, #4]
 3123 0008 3960     		str	r1, [r7, #0]
1163:../Dave/Generated/src/ETH004/01_lwIP_Stack/src/core/tcp.c ****   pcb->accept = accept;
 3124              		.loc 1 1163 0
 3125 000a 7B68     		ldr	r3, [r7, #4]
 3126 000c 3A68     		ldr	r2, [r7, #0]
 3127 000e DA61     		str	r2, [r3, #28]
1164:../Dave/Generated/src/ETH004/01_lwIP_Stack/src/core/tcp.c **** }
 3128              		.loc 1 1164 0
 3129 0010 07F10C07 		add	r7, r7, #12
 3130 0014 BD46     		mov	sp, r7
 3131 0016 80BC     		pop	{r7}
 3132 0018 7047     		bx	lr
 3133              		.cfi_endproc
 3134              	.LFE24:
 3136 001a 00BF     		.section	.text.tcp_poll,"ax",%progbits
 3137              		.align	2
 3138              		.global	tcp_poll
 3139              		.thumb
 3140              		.thumb_func
 3142              	tcp_poll:
 3143              	.LFB25:
1165:../Dave/Generated/src/ETH004/01_lwIP_Stack/src/core/tcp.c **** #endif /* LWIP_CALLBACK_API */
1166:../Dave/Generated/src/ETH004/01_lwIP_Stack/src/core/tcp.c **** 
1167:../Dave/Generated/src/ETH004/01_lwIP_Stack/src/core/tcp.c **** 
1168:../Dave/Generated/src/ETH004/01_lwIP_Stack/src/core/tcp.c **** /**
1169:../Dave/Generated/src/ETH004/01_lwIP_Stack/src/core/tcp.c ****  * Used to specify the function that should be called periodically
1170:../Dave/Generated/src/ETH004/01_lwIP_Stack/src/core/tcp.c ****  * from TCP. The interval is specified in terms of the TCP coarse
1171:../Dave/Generated/src/ETH004/01_lwIP_Stack/src/core/tcp.c ****  * timer interval, which is called twice a second.
1172:../Dave/Generated/src/ETH004/01_lwIP_Stack/src/core/tcp.c ****  *
1173:../Dave/Generated/src/ETH004/01_lwIP_Stack/src/core/tcp.c ****  */ 
1174:../Dave/Generated/src/ETH004/01_lwIP_Stack/src/core/tcp.c **** void
1175:../Dave/Generated/src/ETH004/01_lwIP_Stack/src/core/tcp.c **** tcp_poll(struct tcp_pcb *pcb,
1176:../Dave/Generated/src/ETH004/01_lwIP_Stack/src/core/tcp.c ****    err_t (* poll)(void *arg, struct tcp_pcb *tpcb), u8_t interval)
1177:../Dave/Generated/src/ETH004/01_lwIP_Stack/src/core/tcp.c **** {
 3144              		.loc 1 1177 0
 3145              		.cfi_startproc
 3146              		@ args = 0, pretend = 0, frame = 16
 3147              		@ frame_needed = 1, uses_anonymous_args = 0
 3148              		@ link register save eliminated.
 3149 0000 80B4     		push	{r7}
 3150              	.LCFI73:
 3151              		.cfi_def_cfa_offset 4
 3152              		.cfi_offset 7, -4
 3153 0002 85B0     		sub	sp, sp, #20
 3154              	.LCFI74:
 3155              		.cfi_def_cfa_offset 24
 3156 0004 00AF     		add	r7, sp, #0
 3157              	.LCFI75:
 3158              		.cfi_def_cfa_register 7
 3159 0006 F860     		str	r0, [r7, #12]
 3160 0008 B960     		str	r1, [r7, #8]
 3161 000a 1346     		mov	r3, r2
 3162 000c FB71     		strb	r3, [r7, #7]
1178:../Dave/Generated/src/ETH004/01_lwIP_Stack/src/core/tcp.c **** #if LWIP_CALLBACK_API
1179:../Dave/Generated/src/ETH004/01_lwIP_Stack/src/core/tcp.c ****   pcb->poll = poll;
 3163              		.loc 1 1179 0
 3164 000e FB68     		ldr	r3, [r7, #12]
 3165 0010 BA68     		ldr	r2, [r7, #8]
 3166 0012 C3F88C20 		str	r2, [r3, #140]
1180:../Dave/Generated/src/ETH004/01_lwIP_Stack/src/core/tcp.c **** #endif /* LWIP_CALLBACK_API */  
1181:../Dave/Generated/src/ETH004/01_lwIP_Stack/src/core/tcp.c ****   pcb->pollinterval = interval;
 3167              		.loc 1 1181 0
 3168 0016 FB68     		ldr	r3, [r7, #12]
 3169 0018 FA79     		ldrb	r2, [r7, #7]
 3170 001a 83F83520 		strb	r2, [r3, #53]
1182:../Dave/Generated/src/ETH004/01_lwIP_Stack/src/core/tcp.c **** }
 3171              		.loc 1 1182 0
 3172 001e 07F11407 		add	r7, r7, #20
 3173 0022 BD46     		mov	sp, r7
 3174 0024 80BC     		pop	{r7}
 3175 0026 7047     		bx	lr
 3176              		.cfi_endproc
 3177              	.LFE25:
 3179              		.section	.text.tcp_pcb_purge,"ax",%progbits
 3180              		.align	2
 3181              		.global	tcp_pcb_purge
 3182              		.thumb
 3183              		.thumb_func
 3185              	tcp_pcb_purge:
 3186              	.LFB26:
1183:../Dave/Generated/src/ETH004/01_lwIP_Stack/src/core/tcp.c **** 
1184:../Dave/Generated/src/ETH004/01_lwIP_Stack/src/core/tcp.c **** /**
1185:../Dave/Generated/src/ETH004/01_lwIP_Stack/src/core/tcp.c ****  * Purges a TCP PCB. Removes any buffered data and frees the buffer memory
1186:../Dave/Generated/src/ETH004/01_lwIP_Stack/src/core/tcp.c ****  * (pcb->ooseq, pcb->unsent and pcb->unacked are freed).
1187:../Dave/Generated/src/ETH004/01_lwIP_Stack/src/core/tcp.c ****  *
1188:../Dave/Generated/src/ETH004/01_lwIP_Stack/src/core/tcp.c ****  * @param pcb tcp_pcb to purge. The pcb itself is not deallocated!
1189:../Dave/Generated/src/ETH004/01_lwIP_Stack/src/core/tcp.c ****  */
1190:../Dave/Generated/src/ETH004/01_lwIP_Stack/src/core/tcp.c **** void
1191:../Dave/Generated/src/ETH004/01_lwIP_Stack/src/core/tcp.c **** tcp_pcb_purge(struct tcp_pcb *pcb)
1192:../Dave/Generated/src/ETH004/01_lwIP_Stack/src/core/tcp.c **** {
 3187              		.loc 1 1192 0
 3188              		.cfi_startproc
 3189              		@ args = 0, pretend = 0, frame = 8
 3190              		@ frame_needed = 1, uses_anonymous_args = 0
 3191 0000 80B5     		push	{r7, lr}
 3192              	.LCFI76:
 3193              		.cfi_def_cfa_offset 8
 3194              		.cfi_offset 7, -8
 3195              		.cfi_offset 14, -4
 3196 0002 82B0     		sub	sp, sp, #8
 3197              	.LCFI77:
 3198              		.cfi_def_cfa_offset 16
 3199 0004 00AF     		add	r7, sp, #0
 3200              	.LCFI78:
 3201              		.cfi_def_cfa_register 7
 3202 0006 7860     		str	r0, [r7, #4]
1193:../Dave/Generated/src/ETH004/01_lwIP_Stack/src/core/tcp.c ****   if (pcb->state != CLOSED &&
 3203              		.loc 1 1193 0
 3204 0008 7B68     		ldr	r3, [r7, #4]
 3205 000a 1B7C     		ldrb	r3, [r3, #16]	@ zero_extendqisi2
 3206 000c 002B     		cmp	r3, #0
 3207 000e 26D0     		beq	.L181
1194:../Dave/Generated/src/ETH004/01_lwIP_Stack/src/core/tcp.c ****      pcb->state != TIME_WAIT &&
 3208              		.loc 1 1194 0 discriminator 1
 3209 0010 7B68     		ldr	r3, [r7, #4]
 3210 0012 1B7C     		ldrb	r3, [r3, #16]	@ zero_extendqisi2
1193:../Dave/Generated/src/ETH004/01_lwIP_Stack/src/core/tcp.c ****   if (pcb->state != CLOSED &&
 3211              		.loc 1 1193 0 discriminator 1
 3212 0014 0A2B     		cmp	r3, #10
 3213 0016 22D0     		beq	.L181
1195:../Dave/Generated/src/ETH004/01_lwIP_Stack/src/core/tcp.c ****      pcb->state != LISTEN) {
 3214              		.loc 1 1195 0
 3215 0018 7B68     		ldr	r3, [r7, #4]
 3216 001a 1B7C     		ldrb	r3, [r3, #16]	@ zero_extendqisi2
1194:../Dave/Generated/src/ETH004/01_lwIP_Stack/src/core/tcp.c ****      pcb->state != TIME_WAIT &&
 3217              		.loc 1 1194 0
 3218 001c 012B     		cmp	r3, #1
 3219 001e 1ED0     		beq	.L181
1196:../Dave/Generated/src/ETH004/01_lwIP_Stack/src/core/tcp.c **** 
1197:../Dave/Generated/src/ETH004/01_lwIP_Stack/src/core/tcp.c ****     LWIP_DEBUGF(TCP_DEBUG, ("tcp_pcb_purge\n"));
1198:../Dave/Generated/src/ETH004/01_lwIP_Stack/src/core/tcp.c **** 
1199:../Dave/Generated/src/ETH004/01_lwIP_Stack/src/core/tcp.c **** #if TCP_LISTEN_BACKLOG
1200:../Dave/Generated/src/ETH004/01_lwIP_Stack/src/core/tcp.c ****     if (pcb->state == SYN_RCVD) {
1201:../Dave/Generated/src/ETH004/01_lwIP_Stack/src/core/tcp.c ****       /* Need to find the corresponding listen_pcb and decrease its accepts_pending */
1202:../Dave/Generated/src/ETH004/01_lwIP_Stack/src/core/tcp.c ****       struct tcp_pcb_listen *lpcb;
1203:../Dave/Generated/src/ETH004/01_lwIP_Stack/src/core/tcp.c ****       LWIP_ASSERT("tcp_pcb_purge: pcb->state == SYN_RCVD but tcp_listen_pcbs is NULL",
1204:../Dave/Generated/src/ETH004/01_lwIP_Stack/src/core/tcp.c ****         tcp_listen_pcbs.listen_pcbs != NULL);
1205:../Dave/Generated/src/ETH004/01_lwIP_Stack/src/core/tcp.c ****       for (lpcb = tcp_listen_pcbs.listen_pcbs; lpcb != NULL; lpcb = lpcb->next) {
1206:../Dave/Generated/src/ETH004/01_lwIP_Stack/src/core/tcp.c ****         if ((lpcb->local_port == pcb->local_port) &&
1207:../Dave/Generated/src/ETH004/01_lwIP_Stack/src/core/tcp.c ****             (ip_addr_isany(&lpcb->local_ip) ||
1208:../Dave/Generated/src/ETH004/01_lwIP_Stack/src/core/tcp.c ****              ip_addr_cmp(&pcb->local_ip, &lpcb->local_ip))) {
1209:../Dave/Generated/src/ETH004/01_lwIP_Stack/src/core/tcp.c ****             /* port and address of the listen pcb match the timed-out pcb */
1210:../Dave/Generated/src/ETH004/01_lwIP_Stack/src/core/tcp.c ****             LWIP_ASSERT("tcp_pcb_purge: listen pcb does not have accepts pending",
1211:../Dave/Generated/src/ETH004/01_lwIP_Stack/src/core/tcp.c ****               lpcb->accepts_pending > 0);
1212:../Dave/Generated/src/ETH004/01_lwIP_Stack/src/core/tcp.c ****             lpcb->accepts_pending--;
1213:../Dave/Generated/src/ETH004/01_lwIP_Stack/src/core/tcp.c ****             break;
1214:../Dave/Generated/src/ETH004/01_lwIP_Stack/src/core/tcp.c ****           }
1215:../Dave/Generated/src/ETH004/01_lwIP_Stack/src/core/tcp.c ****       }
1216:../Dave/Generated/src/ETH004/01_lwIP_Stack/src/core/tcp.c ****     }
1217:../Dave/Generated/src/ETH004/01_lwIP_Stack/src/core/tcp.c **** #endif /* TCP_LISTEN_BACKLOG */
1218:../Dave/Generated/src/ETH004/01_lwIP_Stack/src/core/tcp.c **** 
1219:../Dave/Generated/src/ETH004/01_lwIP_Stack/src/core/tcp.c **** 
1220:../Dave/Generated/src/ETH004/01_lwIP_Stack/src/core/tcp.c ****     if (pcb->refused_data != NULL) {
 3220              		.loc 1 1220 0
 3221 0020 7B68     		ldr	r3, [r7, #4]
 3222 0022 DB6F     		ldr	r3, [r3, #124]
 3223 0024 002B     		cmp	r3, #0
 3224 0026 08D0     		beq	.L183
1221:../Dave/Generated/src/ETH004/01_lwIP_Stack/src/core/tcp.c ****       LWIP_DEBUGF(TCP_DEBUG, ("tcp_pcb_purge: data left on ->refused_data\n"));
1222:../Dave/Generated/src/ETH004/01_lwIP_Stack/src/core/tcp.c ****       pbuf_free(pcb->refused_data);
 3225              		.loc 1 1222 0
 3226 0028 7B68     		ldr	r3, [r7, #4]
 3227 002a DB6F     		ldr	r3, [r3, #124]
 3228 002c 1846     		mov	r0, r3
 3229 002e FFF7FEFF 		bl	pbuf_free
1223:../Dave/Generated/src/ETH004/01_lwIP_Stack/src/core/tcp.c ****       pcb->refused_data = NULL;
 3230              		.loc 1 1223 0
 3231 0032 7B68     		ldr	r3, [r7, #4]
 3232 0034 4FF00002 		mov	r2, #0
 3233 0038 DA67     		str	r2, [r3, #124]
 3234              	.L183:
1224:../Dave/Generated/src/ETH004/01_lwIP_Stack/src/core/tcp.c ****     }
1225:../Dave/Generated/src/ETH004/01_lwIP_Stack/src/core/tcp.c ****     if (pcb->unsent != NULL) {
1226:../Dave/Generated/src/ETH004/01_lwIP_Stack/src/core/tcp.c ****       LWIP_DEBUGF(TCP_DEBUG, ("tcp_pcb_purge: not all data sent\n"));
1227:../Dave/Generated/src/ETH004/01_lwIP_Stack/src/core/tcp.c ****     }
1228:../Dave/Generated/src/ETH004/01_lwIP_Stack/src/core/tcp.c ****     if (pcb->unacked != NULL) {
1229:../Dave/Generated/src/ETH004/01_lwIP_Stack/src/core/tcp.c ****       LWIP_DEBUGF(TCP_DEBUG, ("tcp_pcb_purge: data left on ->unacked\n"));
1230:../Dave/Generated/src/ETH004/01_lwIP_Stack/src/core/tcp.c ****     }
1231:../Dave/Generated/src/ETH004/01_lwIP_Stack/src/core/tcp.c **** #if TCP_QUEUE_OOSEQ /* LW */
1232:../Dave/Generated/src/ETH004/01_lwIP_Stack/src/core/tcp.c ****     if (pcb->ooseq != NULL) {
1233:../Dave/Generated/src/ETH004/01_lwIP_Stack/src/core/tcp.c ****       LWIP_DEBUGF(TCP_DEBUG, ("tcp_pcb_purge: data left on ->ooseq\n"));
1234:../Dave/Generated/src/ETH004/01_lwIP_Stack/src/core/tcp.c ****     }
1235:../Dave/Generated/src/ETH004/01_lwIP_Stack/src/core/tcp.c **** 
1236:../Dave/Generated/src/ETH004/01_lwIP_Stack/src/core/tcp.c ****     /* Stop the retransmission timer as it will expect data on unacked
1237:../Dave/Generated/src/ETH004/01_lwIP_Stack/src/core/tcp.c ****        queue if it fires */
1238:../Dave/Generated/src/ETH004/01_lwIP_Stack/src/core/tcp.c ****     pcb->rtime = -1;
1239:../Dave/Generated/src/ETH004/01_lwIP_Stack/src/core/tcp.c **** 
1240:../Dave/Generated/src/ETH004/01_lwIP_Stack/src/core/tcp.c ****     tcp_segs_free(pcb->ooseq);
1241:../Dave/Generated/src/ETH004/01_lwIP_Stack/src/core/tcp.c ****     pcb->ooseq = NULL;
1242:../Dave/Generated/src/ETH004/01_lwIP_Stack/src/core/tcp.c **** #endif /* TCP_QUEUE_OOSEQ */
1243:../Dave/Generated/src/ETH004/01_lwIP_Stack/src/core/tcp.c ****     tcp_segs_free(pcb->unsent);
 3235              		.loc 1 1243 0
 3236 003a 7B68     		ldr	r3, [r7, #4]
 3237 003c 5B6F     		ldr	r3, [r3, #116]
 3238 003e 1846     		mov	r0, r3
 3239 0040 FFF7FEFF 		bl	tcp_segs_free
1244:../Dave/Generated/src/ETH004/01_lwIP_Stack/src/core/tcp.c ****     tcp_segs_free(pcb->unacked);
 3240              		.loc 1 1244 0
 3241 0044 7B68     		ldr	r3, [r7, #4]
 3242 0046 9B6F     		ldr	r3, [r3, #120]
 3243 0048 1846     		mov	r0, r3
 3244 004a FFF7FEFF 		bl	tcp_segs_free
1245:../Dave/Generated/src/ETH004/01_lwIP_Stack/src/core/tcp.c ****     pcb->unacked = pcb->unsent = NULL;
 3245              		.loc 1 1245 0
 3246 004e 7B68     		ldr	r3, [r7, #4]
 3247 0050 4FF00002 		mov	r2, #0
 3248 0054 5A67     		str	r2, [r3, #116]
 3249 0056 7B68     		ldr	r3, [r7, #4]
 3250 0058 5A6F     		ldr	r2, [r3, #116]
 3251 005a 7B68     		ldr	r3, [r7, #4]
 3252 005c 9A67     		str	r2, [r3, #120]
 3253              	.L181:
1246:../Dave/Generated/src/ETH004/01_lwIP_Stack/src/core/tcp.c ****   }
1247:../Dave/Generated/src/ETH004/01_lwIP_Stack/src/core/tcp.c **** }
 3254              		.loc 1 1247 0
 3255 005e 07F10807 		add	r7, r7, #8
 3256 0062 BD46     		mov	sp, r7
 3257 0064 80BD     		pop	{r7, pc}
 3258              		.cfi_endproc
 3259              	.LFE26:
 3261 0066 00BF     		.section	.text.tcp_pcb_remove,"ax",%progbits
 3262              		.align	2
 3263              		.global	tcp_pcb_remove
 3264              		.thumb
 3265              		.thumb_func
 3267              	tcp_pcb_remove:
 3268              	.LFB27:
1248:../Dave/Generated/src/ETH004/01_lwIP_Stack/src/core/tcp.c **** 
1249:../Dave/Generated/src/ETH004/01_lwIP_Stack/src/core/tcp.c **** /**
